ccopy_reg
_reconstructor
p0
(crizzo
RizzoSignature
p1
c__builtin__
object
p2
Ntp3
Rp4
(dp5
S'formal'
p6
(dp7
L2399612421L
I1074245472
sL1207862518L
I1074240588
sL250925565L
I1074238604
sL1741170115L
I1074237924
sL247137719L
I1074247512
sL3505757179L
I1074234704
sL2423107704L
I1074239268
sL138009647L
I1074234744
sL1237733855L
I1074238828
sL1348277828L
I1074245620
sL4213015302L
I1074243136
sL2940696155L
I1074245832
sL1696635966L
I1074245248
sL3545118830L
I1074267832
sL3230852531L
I1074238192
sL3098316936L
I1074270052
sL693028457L
I1074240412
sL3232221579L
I1074244640
sL142168405L
I1074245804
sL2702580795L
I1074237288
sL1458472899L
I1074236628
sL2896295319L
I1074236828
sL944494460L
I1074245012
sL2285799430L
I1074244600
sL1674148343L
I1074245528
sL2030740789L
I1074246644
sL4171974888L
I1074269892
sL2485902447L
I1074236708
sL2460396001L
I1074248004
sL3333913339L
I1074243440
sL2741930811L
I1074240064
sL3791484843L
I1074267139
sL1585823442L
I1074244452
sL1622896354L
I1074244480
sL3259090715L
I1074247156
sL2335753571L
I1074245948
sL3213302492L
I1074269628
sL617669774L
I1074247316
sL3392225391L
I1074269920
sL426938157L
I1074235256
sL3705747329L
I1074247404
sL878917889L
I1074238112
sL1016500464L
I1074244952
sL2186980156L
I1074245072
sL2951847322L
I1074244668
sL1568446217L
I1074236532
sL3476917835L
I1074236988
sL2635990884L
I1074241916
sL1259414891L
I1074245200
sL3914567465L
I1074268052
sL1056742531L
I1074236384
sL768348750L
I1074238776
sL426984944L
I1074236900
sL4117027047L
I1074268828
sL676927194L
I1074269116
sL2945163535L
I1074240096
sL2277098556L
I1074236800
sL3307282855L
I1074238084
sL1853923591L
I1074245380
sL1072211552L
I1074270672
sL911764690L
I1074237620
sL1043339424L
I1074240336
sL3837755948L
I1074240432
sL60374282L
I1074245224
sL1191319953L
I1074269968
sL692183250L
I1074270236
sL2543988023L
I1074240824
sL2472605942L
I1074245760
sL1109026444L
I1074269764
sL2956233896L
I1074242636
sL798282249L
I1074270004
sL1189478010L
I1074241696
sL1687894276L
I1074244352
sL3514307815L
I1074248092
sL4038945309L
I1074235600
sL696241373L
I1074237672
sL2373957340L
I1074245408
sL518463041L
I1074235804
sL2626436395L
I1074236932
sL3978280629L
I1074241300
sL1275163307L
I1074244552
sL2901532506L
I1074239388
sL1709641802L
I1074239752
sL17106344L
I1074269696
sL3050555005L
I1074247124
sL2997001746L
I1074237220
sL952722552L
I1074247452
sL2363736404L
I1074243152
sL4079247507L
I1074241052
sL1332374493L
I1074269612
sL2819127986L
I1074236952
sL3980264325L
I1074246688
sL149978958L
I1074236564
sL1877634603L
I1074270904
sL3518743416L
I1074238520
sL3310923163L
I1074238728
sL3379108269L
I1074244036
sL2987381963L
I1074269124
sL3459889393L
I1074244384
sL790507223L
I1074236732
sL1168915326L
I1074235548
sL873382621L
I1074235916
sL404293581L
I1074237364
sL2263182908L
I1074238104
sL3732155567L
I1074247704
sL700866072L
I1074237944
sL3630163135L
I1074236816
sL188664287L
I1074235224
sL782838600L
I1074240784
sL2587289812L
I1074235648
sL4138236490L
I1074240880
sL3075360168L
I1074241244
sL692536993L
I1074237260
sL829503895L
I1074247840
sL2218866089L
I1074238880
sL2114693345L
I1074241788
sL3300000600L
I1074268884
sL144857933L
I1074240800
sL2791698834L
I1074244804
sL1652676726L
I1074270832
sL3018942732L
I1074267724
sL366071084L
I1074269652
sL906556151L
I1074237396
sL2398800133L
I1074245488
ssS'immediates'
p8
(dp9
sS'formaldups'
p10
c__builtin__
set
p11
((lp12
tp13
Rp14
sS'stringdups'
p15
g11
((lp16
tp17
Rp18
sS'fuzzydups'
p19
g11
((lp20
tp21
Rp22
sS'strings'
p23
(dp24
sS'functions'
p25
(dp26
I1074236932
(Vbootloader_common_ota_select_crc
p27
(lp28
(L3214440559L
L0L
(lp29
(lp30
tp31
atp32
sI1074245380
(Vrtc_clk_slow_freq_get_hz
p33
(lp34
(L1826267122L
L3785322319L
(lp35
(lp36
Vclk_ll_rtc_slow_get_src
p37
atp38
a(L4158856552L
L0L
(lp39
(lp40
tp41
a(L3631005815L
L0L
(lp42
(lp43
tp44
a(L702740041L
L0L
(lp45
(lp46
tp47
a(L3360570486L
L0L
(lp48
(lp49
tp50
atp51
sI1074244352
(Vwdt_hal_write_protect_disable
p52
(lp53
(L3345031483L
L0L
(lp54
(lp55
tp56
a(L4195472003L
L0L
(lp57
(lp58
tp59
a(L3360570486L
L0L
(lp60
(lp61
tp62
a(L1210571996L
L0L
(lp63
(lp64
tp65
atp66
sI1074235648
(Vbootloader_flash_xmc_startup
p67
(lp68
(L3680458509L
L3785322319L
(lp69
(lp70
Vis_xmc_chip_strict
p71
atp72
a(L2258688482L
L0L
(lp73
(lp74
tp75
a(L3360570486L
L0L
(lp76
(lp77
tp78
a(L2860324232L
L3785322319L
(lp79
(lp80
Vbootloader_flash_read_sfdp
p81
atp82
a(L2097895665L
L2567856111L
(lp83
(lp84
Vesp_log_early_timestamp
p85
aVbootloader_execute_flash_command
p86
aVbootloader_execute_flash_command
p87
aVbootloader_execute_flash_command
p88
aVbootloader_execute_flash_command
p89
aVbootloader_read_flash_id
p90
aVis_xmc_chip_strict
p91
atp92
a(L4062067944L
L3785322319L
(lp93
(lp94
Vesp_log_early_timestamp
p95
atp96
atp97
sI1074267136
(V_init
p98
(lp99
(L3493042598L
L0L
(lp100
(lp101
tp102
atp103
sI1074269696
(Vbootloader_check_bootloader_validity
p104
(lp105
(L3216107859L
L1832448559L
(lp106
(lp107
Vefuse_hal_chip_revision
p108
aVesp_log_early_timestamp
p109
aVbootloader_common_check_chip_validity
p110
atp111
atp112
sI1074235916
(Vbootloader_flash_gpio_config
p113
(lp114
(L3448878117L
L3785322319L
(lp115
(lp116
Vbootloader_common_get_chip_ver_pkg
p117
atp118
a(L106L
L0L
(lp119
(lp120
tp121
a(L1998579353L
L0L
(lp122
(lp123
tp124
a(L106L
L0L
(lp125
(lp126
tp127
a(L1029428446L
L0L
(lp128
(lp129
tp130
a(L4242290324L
L0L
(lp131
(lp132
tp133
a(L106L
L0L
(lp134
(lp135
tp136
a(L4003626558L
L0L
(lp137
(lp138
tp139
a(L1553523094L
L0L
(lp140
(lp141
tp142
a(L3360570486L
L0L
(lp143
(lp144
tp145
atp146
sI1074267139
(V_text_start
p147
(lp148
(L1817914933L
L0L
(lp149
(lp150
tp151
a(L536106224L
L0L
(lp152
(lp153
tp154
atp155
sI1074238728
(Vtry_load_partition
p156
(lp157
(L1263750142L
L0L
(lp158
(lp159
tp160
a(L2258688482L
L0L
(lp161
(lp162
tp163
a(L3360570486L
L0L
(lp164
(lp165
tp166
a(L530241438L
L3785322319L
(lp167
(lp168
Vbootloader_load_image
p169
atp170
a(L3010049260L
L3785322319L
(lp171
(lp172
Vesp_log_early_timestamp
p173
atp174
atp175
sI1074239752
(Vbootloader_utility_get_selected_boot_partition
p176
(lp177
(L2184143128L
L0L
(lp178
(lp179
tp180
a(L3562950348L
L0L
(lp181
(lp182
tp183
a(L2305665381L
L3785322319L
(lp184
(lp185
Vesp_log_early_timestamp
p186
atp187
a(L194246498L
L0L
(lp188
(lp189
tp190
a(L3360570486L
L0L
(lp191
(lp192
tp193
a(L1375577398L
L3785322319L
(lp194
(lp195
Vbootloader_mmap
p196
atp197
a(L4068127698L
L3785322319L
(lp198
(lp199
Vesp_log_early_timestamp
p200
atp201
a(L2463613311L
L1880226080L
(lp202
(lp203
Vbootloader_munmap
p204
aVbootloader_common_ota_select_invalid
p205
atp206
a(L1103573946L
L0L
(lp207
(lp208
tp209
a(L1876835593L
L3785322319L
(lp210
(lp211
Vbootloader_common_get_active_otadata
p212
atp213
a(L106L
L0L
(lp214
(lp215
tp216
a(L569346373L
L0L
(lp217
(lp218
tp219
a(L788494392L
L3785322319L
(lp220
(lp221
Vbootloader_common_ota_select_invalid
p222
atp223
a(L2801470901L
L0L
(lp224
(lp225
tp226
a(L1838181073L
L3785322319L
(lp227
(lp228
Vesp_log_early_timestamp
p229
atp230
a(L2440848641L
L3785322319L
(lp231
(lp232
Vesp_log_early_timestamp
p233
atp234
a(L505081345L
L0L
(lp235
(lp236
tp237
a(L919052234L
L3785322319L
(lp238
(lp239
Vbootloader_common_ota_select_crc
p240
atp241
a(L2287680455L
L0L
(lp242
(lp243
tp244
a(L3542558037L
L3785322319L
(lp245
(lp246
Vbootloader_common_ota_select_crc
p247
atp248
a(L1299866312L
L0L
(lp249
(lp250
tp251
a(L1279036405L
L0L
(lp252
(lp253
tp254
a(L1406565969L
L3785322319L
(lp255
(lp256
Vesp_log_early_timestamp
p257
atp258
a(L2867263840L
L0L
(lp259
(lp260
tp261
a(L4142614645L
L3785322319L
(lp262
(lp263
Vesp_log_early_timestamp
p264
atp265
atp266
sI1074241300
(Vverify_load_addresses
p267
(lp268
(L2764487219L
L0L
(lp269
(lp270
tp271
a(L106L
L0L
(lp272
(lp273
tp274
a(L97642L
L0L
(lp275
(lp276
tp277
a(L532903251L
L3785322319L
(lp278
(lp279
V__assert_func
p280
atp281
a(L170023642L
L0L
(lp282
(lp283
tp284
a(L106L
L0L
(lp285
(lp286
tp287
a(L993824775L
L0L
(lp288
(lp289
tp290
a(L106L
L0L
(lp291
(lp292
tp293
a(L3188534306L
L3785322319L
(lp294
(lp295
Vbootloader_util_regions_overlap
p296
atp297
a(L3284083279L
L3785322319L
(lp298
(lp299
Vbootloader_util_regions_overlap
p300
atp301
a(L3028481L
L0L
(lp302
(lp303
tp304
a(L1178890466L
L3785322319L
(lp305
(lp306
Vbootloader_util_regions_overlap
p307
atp308
a(L2117228786L
L0L
(lp309
(lp310
tp311
a(L273144354L
L0L
(lp312
(lp313
tp314
a(L1016222393L
L0L
(lp315
(lp316
tp317
a(L2661576437L
L0L
(lp318
(lp319
tp320
a(L2503437888L
L0L
(lp321
(lp322
tp323
a(L677569396L
L3785322319L
(lp324
(lp325
Vverify_load_addresses
p326
atp327
a(L1351513776L
L0L
(lp328
(lp329
tp330
a(L3061261803L
L0L
(lp331
(lp332
tp333
a(L2743341656L
L0L
(lp334
(lp335
tp336
a(L791897016L
L0L
(lp337
(lp338
tp339
a(L729859039L
L0L
(lp340
(lp341
tp342
a(L4026856790L
L3785322319L
(lp343
(lp344
Vbootloader_util_regions_overlap
p345
atp346
a(L3028481L
L0L
(lp347
(lp348
tp349
a(L1567678174L
L3785322319L
(lp350
(lp351
Vbootloader_util_regions_overlap
p352
atp353
a(L2782864159L
L0L
(lp354
(lp355
tp356
a(L476078031L
L0L
(lp357
(lp358
tp359
a(L1301487450L
L0L
(lp360
(lp361
tp362
a(L1527375920L
L0L
(lp363
(lp364
tp365
a(L307916850L
L0L
(lp366
(lp367
tp368
a(L697239146L
L0L
(lp369
(lp370
tp371
a(L106L
L0L
(lp372
(lp373
tp374
a(L955505162L
L0L
(lp375
(lp376
tp377
a(L307917400L
L0L
(lp378
(lp379
tp380
a(L490080443L
L0L
(lp381
(lp382
tp383
a(L106L
L0L
(lp384
(lp385
tp386
a(L131589412L
L3785322319L
(lp387
(lp388
Vesp_log_early_timestamp
p389
atp390
a(L955505038L
L0L
(lp391
(lp392
tp393
a(L1303560427L
L0L
(lp394
(lp395
tp396
atp397
sI1074270236
(Vrtc_clk_init
p398
(lp399
(L1433536254L
L0L
(lp400
(lp401
tp402
a(L42671777L
L3785322319L
(lp403
(lp404
Vrtc_clk_cpu_freq_to_xtal
p405
atp406
a(L1950731570L
L3785322319L
(lp407
(lp408
Vrtc_clk_xtal_freq_get
p409
atp410
a(L89029051L
L0L
(lp411
(lp412
tp413
a(L4187693717L
L3785322319L
(lp414
(lp415
Vrtc_clk_xtal_freq_estimate
p416
atp417
a(L3965386186L
L3785322319L
(lp418
(lp419
Vesp_log_early_timestamp
p420
atp421
a(L2928127184L
L1157885199L
(lp422
(lp423
Vesp_rom_uart_tx_wait_idle
p424
aVrtc_clk_xtal_freq_update
p425
aVrtc_clk_apb_freq_update
p426
aVrtc_clk_cpu_freq_get_config
p427
aVrtc_clk_cpu_freq_mhz_to_config
p428
atp429
a(L170300763L
L1880226080L
(lp430
(lp431
Vesp_log_early_timestamp
p432
aVabort
p433
atp434
a(L3028481L
L0L
(lp435
(lp436
tp437
a(L4070631611L
L3785322319L
(lp438
(lp439
Vrtc_clk_xtal_freq_estimate
p440
atp441
a(L2871935663L
L3785322319L
(lp442
(lp443
Vesp_log_early_timestamp
p444
atp445
a(L2976141507L
L3785322319L
(lp446
(lp447
Vrtc_clk_cpu_freq_set_config
p448
atp449
a(L912310138L
L3785322319L
(lp450
(lp451
Vrtc_clk_32k_enable
p452
atp453
a(L3191820416L
L1832448559L
(lp454
(lp455
Vrtc_clk_8m_enable
p456
aVrtc_clk_fast_src_set
p457
aVrtc_clk_slow_src_set
p458
atp459
a(L1232958848L
L0L
(lp460
(lp461
tp462
atp463
sI1074240784
(Vbootloader_console_deinit
p464
(lp465
(L4005071210L
L0L
(lp466
(lp467
tp468
atp469
sI1074269968
(Vbootloader_console_init
p470
(lp471
(L2283227580L
L1832448559L
(lp472
(lp473
Vesp_rom_uart_tx_wait_idle
p474
aVrtc_clk_apb_freq_get
p475
aVesp_rom_uart_set_clock_baudrate
p476
atp477
atp478
sI1074241052
(Vprocess_image_header
p479
(lp480
(L4286422149L
L3785322319L
(lp481
(lp482
Vbootloader_flash_read
p483
atp484
a(L3020204L
L0L
(lp485
(lp486
tp487
a(L4130667142L
L0L
(lp488
(lp489
tp490
a(L3131381282L
L0L
(lp491
(lp492
tp493
a(L1161397362L
L3785322319L
(lp494
(lp495
Vbootloader_sha256_start
p496
atp497
a(L1948257695L
L3785322319L
(lp498
(lp499
Vbootloader_sha256_data
p500
atp501
a(L1095449651L
L0L
(lp502
(lp503
tp504
a(L3020204L
L0L
(lp505
(lp506
tp507
a(L702739510L
L0L
(lp508
(lp509
tp510
a(L3360570486L
L0L
(lp511
(lp512
tp513
a(L1435924568L
L3785322319L
(lp514
(lp515
Vesp_log_early_timestamp
p516
atp517
a(L3718883008L
L3785322319L
(lp518
(lp519
Vbootloader_common_check_chip_validity
p520
atp521
a(L3677035427L
L0L
(lp522
(lp523
tp524
a(L3028481L
L0L
(lp525
(lp526
tp527
a(L4249612150L
L3785322319L
(lp528
(lp529
Vesp_log_early_timestamp
p530
atp531
a(L2250109166L
L0L
(lp532
(lp533
tp534
a(L1235012870L
L0L
(lp535
(lp536
tp537
a(L3063569071L
L0L
(lp538
(lp539
tp540
atp541
sI1074247452
(Vesp_rom_spiflash_enable_write
p542
(lp543
(L2890359061L
L3785322319L
(lp544
(lp545
Vesp_rom_spiflash_wait_idle
p546
atp547
a(L3137194272L
L0L
(lp548
(lp549
tp550
a(L2258718275L
L0L
(lp551
(lp552
tp553
a(L99543895L
L0L
(lp554
(lp555
tp556
a(L2993202392L
L0L
(lp557
(lp558
tp559
a(L1804543818L
L3785322319L
(lp560
(lp561
Vesp_rom_spiflash_read_status
p562
atp563
atp564
sI1074236952
(Vbootloader_common_ota_select_valid
p565
(lp566
(L1563399710L
L3785322319L
(lp567
(lp568
Vbootloader_common_ota_select_invalid
p569
atp570
a(L3814720849L
L3785322319L
(lp571
(lp572
Vbootloader_common_ota_select_crc
p573
atp574
a(L3360570486L
L0L
(lp575
(lp576
tp577
atp578
sI1074247704
(Vesp_rom_spiflash_erase_sector
p579
(lp580
(L1384786480L
L0L
(lp581
(lp582
tp583
a(L2258688483L
L0L
(lp584
(lp585
tp586
a(L3360570486L
L0L
(lp587
(lp588
tp589
a(L3212356251L
L3785322319L
(lp590
(lp591
Vesp_rom_spiflash_enable_write
p592
atp593
a(L184152988L
L0L
(lp594
(lp595
tp596
a(L991301353L
L3785322319L
(lp597
(lp598
Vesp_rom_spiflash_wait_idle
p599
atp600
a(L3333707777L
L0L
(lp601
(lp602
tp603
a(L3582858798L
L3785322319L
(lp604
(lp605
Vesp_rom_spiflash_wait_idle
p606
atp607
atp608
sI1074237220
(Vbootloader_common_get_active_otadata
p609
(lp610
(L3317503532L
L0L
(lp611
(lp612
tp613
a(L2503049265L
L1832448559L
(lp614
(lp615
Vbootloader_common_ota_select_valid
p616
aVbootloader_common_ota_select_valid
p617
aVbootloader_common_select_otadata
p618
atp619
a(L735741265L
L0L
(lp620
(lp621
tp622
atp623
sI1074236708
(Vefuse_hal_chip_revision
p624
(lp625
(L2719302832L
L1880226080L
(lp626
(lp627
Vefuse_hal_get_major_chip_version
p628
aVefuse_hal_get_minor_chip_version
p629
atp630
atp631
sI1074239268
(Vset_actual_ota_seq
p632
(lp633
(L4094723830L
L0L
(lp634
(lp635
tp636
a(L2573507321L
L0L
(lp637
(lp638
tp639
a(L3461827603L
L1832448559L
(lp640
(lp641
Vbootloader_common_ota_select_crc
p642
aVesp_flash_encryption_enabled
p643
aVbootloader_flash_erase_sector
p644
atp645
a(L3292941333L
L3785322319L
(lp646
(lp647
Vbootloader_flash_write
p648
atp649
a(L1764870441L
L3785322319L
(lp650
(lp651
Vesp_log_early_timestamp
p652
atp653
a(L2939835162L
L3785322319L
(lp654
(lp655
Vesp_log_early_timestamp
p656
atp657
a(L3360570486L
L0L
(lp658
(lp659
tp660
atp661
sI1074240800
(V__assert_func
p662
(lp663
(L1697582622L
L0L
(lp664
(lp665
tp666
a(L106L
L0L
(lp667
(lp668
tp669
atp670
sI1074244384
(Vwdt_hal_set_flashboot_en
p671
(lp672
(L2375320464L
L0L
(lp673
(lp674
tp675
a(L3915867581L
L0L
(lp676
(lp677
tp678
a(L3360570486L
L0L
(lp679
(lp680
tp681
a(L1643092119L
L0L
(lp682
(lp683
tp684
atp685
sI1074244640
(Vclk_ll_rtc_slow_get_src
p686
(lp687
(L416280487L
L0L
(lp688
(lp689
tp690
a(L3020187L
L0L
(lp691
(lp692
tp693
a(L2902417580L
L0L
(lp694
(lp695
tp696
a(L2258688485L
L0L
(lp697
(lp698
tp699
a(L3360570486L
L0L
(lp700
(lp701
tp702
atp703
sI1074245408
(Vrtc_clk_fast_src_set
p704
(lp705
(L1233611555L
L0L
(lp706
(lp707
tp708
a(L3020187L
L0L
(lp709
(lp710
tp711
a(L3827921190L
L3785322319L
(lp712
(lp713
Vabort
p714
atp715
a(L2904656757L
L0L
(lp716
(lp717
tp718
a(L206212292L
L0L
(lp719
(lp720
tp721
a(L300459962L
L0L
(lp722
(lp723
tp724
atp725
sI1074246688
(Vrtc_clk_cal_internal
p726
(lp727
(L3168308412L
L0L
(lp728
(lp729
tp730
a(L3863152980L
L3785322319L
(lp731
(lp732
V__assert_func
p733
atp734
a(L4026264710L
L0L
(lp735
(lp736
tp737
a(L54826884L
L0L
(lp738
(lp739
tp740
a(L234746575L
L0L
(lp741
(lp742
tp743
a(L861896856L
L3785322319L
(lp744
(lp745
Vrtc_clk_8m_enable
p746
atp747
a(L2689039534L
L3785322319L
(lp748
(lp749
Vrtc_clk_slow_src_get
p750
atp751
a(L1211065969L
L0L
(lp752
(lp753
tp754
a(L97689L
L0L
(lp755
(lp756
tp757
a(L1703854795L
L0L
(lp758
(lp759
tp760
a(L3028464L
L0L
(lp761
(lp762
tp763
a(L3028481L
L0L
(lp764
(lp765
tp766
a(L3450258732L
L0L
(lp767
(lp768
tp769
a(L944966L
L3785322319L
(lp770
(lp771
Vrtc_clk_xtal_freq_get
p772
atp773
a(L2780079961L
L0L
(lp774
(lp775
tp776
a(L3848725940L
L0L
(lp777
(lp778
tp779
a(L4169951882L
L3785322319L
(lp780
(lp781
Vesp_log_early_timestamp
p782
atp783
a(L3360570486L
L0L
(lp784
(lp785
tp786
a(L794862694L
L0L
(lp787
(lp788
tp789
a(L3245477987L
L0L
(lp790
(lp791
tp792
a(L2910371777L
L0L
(lp793
(lp794
tp795
a(L2902417580L
L0L
(lp796
(lp797
tp798
a(L4153720753L
L0L
(lp799
(lp800
tp801
a(L3631005548L
L0L
(lp802
(lp803
tp804
a(L2144990312L
L0L
(lp805
(lp806
tp807
a(L3352263364L
L0L
(lp808
(lp809
tp810
a(L3028464L
L0L
(lp811
(lp812
tp813
a(L1325746132L
L3785322319L
(lp814
(lp815
Vrtc_clk_8m_enable
p816
atp817
atp818
sI1074238508
(Vbootloader_clock_get_rated_freq_mhz
p819
(lp820
(L376617603L
L3785322319L
(lp821
(lp822
Vefuse_hal_get_rated_freq_mhz
p823
atp824
atp825
sI1074236732
(Vefuse_hal_get_major_chip_version
p826
(lp827
(L1242126302L
L0L
(lp828
(lp829
tp830
a(L894792960L
L0L
(lp831
(lp832
tp833
a(L3783348505L
L0L
(lp834
(lp835
tp836
a(L3360570486L
L0L
(lp837
(lp838
tp839
atp840
sI1074236988
(Vbootloader_common_check_chip_validity
p841
(lp842
(L392423210L
L0L
(lp843
(lp844
tp845
a(L62642320L
L3785322319L
(lp846
(lp847
Vesp_log_early_timestamp
p848
atp849
a(L522103407L
L3785322319L
(lp850
(lp851
Vefuse_hal_chip_revision
p852
atp853
a(L106L
L0L
(lp854
(lp855
tp856
a(L1989150608L
L0L
(lp857
(lp858
tp859
a(L720806035L
L3785322319L
(lp860
(lp861
Vesp_log_early_timestamp
p862
atp863
a(L3028464L
L0L
(lp864
(lp865
tp866
a(L1397322129L
L0L
(lp867
(lp868
tp869
a(L3021749L
L0L
(lp870
(lp871
tp872
a(L3790510041L
L3785322319L
(lp873
(lp874
Vesp_log_early_timestamp
p875
atp876
a(L1299867982L
L0L
(lp877
(lp878
tp879
a(L3360570486L
L0L
(lp880
(lp881
tp882
atp883
sI1074244668
(Vrtc_clk_32k_enable_common
p884
(lp885
(L1442393279L
L0L
(lp886
(lp887
tp888
a(L97689L
L0L
(lp889
(lp890
tp891
a(L2218417250L
L0L
(lp892
(lp893
tp894
a(L533879761L
L0L
(lp895
(lp896
tp897
a(L51458058L
L0L
(lp898
(lp899
tp900
atp901
sI1074245948
(Vrtc_clk_cpu_freq_set_config
p902
(lp903
(L97989050L
L3785322319L
(lp904
(lp905
Vrtc_clk_xtal_freq_get
p906
atp907
a(L3020187L
L0L
(lp908
(lp909
tp910
a(L3028464L
L0L
(lp911
(lp912
tp913
a(L264223053L
L1880226080L
(lp914
(lp915
Vrtc_clk_cpu_freq_to_xtal
p916
aVrtc_clk_wait_for_slow_cycle
p917
atp918
a(L94425498L
L3785322319L
(lp919
(lp920
Vrtc_clk_bbpll_disable
p921
atp922
a(L3978916712L
L0L
(lp923
(lp924
tp925
a(L2977209154L
L0L
(lp926
(lp927
tp928
a(L2736411858L
L3785322319L
(lp929
(lp930
Vrtc_clk_cpu_freq_to_xtal
p931
atp932
a(L3360570486L
L0L
(lp933
(lp934
tp935
a(L3020187L
L0L
(lp936
(lp937
tp938
a(L106L
L0L
(lp939
(lp940
tp941
a(L489228110L
L1880226080L
(lp942
(lp943
Vrtc_clk_wait_for_slow_cycle
p944
aVrtc_clk_xtal_freq_get
p945
atp946
a(L106L
L0L
(lp947
(lp948
tp949
a(L531623242L
L0L
(lp950
(lp951
tp952
a(L106L
L0L
(lp953
(lp954
tp955
a(L83268611L
L0L
(lp956
(lp957
tp958
a(L106L
L0L
(lp959
(lp960
tp961
a(L82344823L
L0L
(lp962
(lp963
tp964
a(L106L
L0L
(lp965
(lp966
tp967
a(L1274797871L
L0L
(lp968
(lp969
tp970
a(L2960675980L
L0L
(lp971
(lp972
tp973
a(L2332426982L
L1880226080L
(lp974
(lp975
Vclk_ll_rtc_slow_get_src
p976
aVrtc_clk_cpu_freq_to_pll_mhz
p977
atp978
a(L2459660913L
L0L
(lp979
(lp980
tp981
a(L83268344L
L0L
(lp982
(lp983
tp984
a(L82345090L
L0L
(lp985
(lp986
tp987
a(L1299628291L
L0L
(lp988
(lp989
tp990
a(L1256666638L
L0L
(lp991
(lp992
tp993
a(L2258807646L
L0L
(lp994
(lp995
tp996
a(L878473564L
L0L
(lp997
(lp998
tp999
a(L2389426015L
L0L
(lp1000
(lp1001
tp1002
a(L1596574736L
L0L
(lp1003
(lp1004
tp1005
a(L2086626670L
L0L
(lp1006
(lp1007
tp1008
a(L1302638456L
L0L
(lp1009
(lp1010
tp1011
a(L810137203L
L0L
(lp1012
(lp1013
tp1014
a(L87353900L
L0L
(lp1015
(lp1016
tp1017
a(L3020187L
L0L
(lp1018
(lp1019
tp1020
a(L106L
L0L
(lp1021
(lp1022
tp1023
a(L1226014053L
L0L
(lp1024
(lp1025
tp1026
atp1027
sI1074270004
(Vesp_cpu_configure_region_protection
p1028
(lp1029
(L2123781700L
L0L
(lp1030
(lp1031
tp1032
a(L180431425L
L3785322319L
(lp1033
(lp1034
Vmpu_hal_set_region_access
p1035
atp1036
a(L2537388152L
L3785322319L
(lp1037
(lp1038
Vmpu_hal_set_region_access
p1039
atp1040
atp1041
sI1074238520
(Vlog_invalid_app_partition
p1042
(lp1043
(L3121159614L
L0L
(lp1044
(lp1045
tp1046
a(L3028464L
L0L
(lp1047
(lp1048
tp1049
a(L1381405837L
L3785322319L
(lp1050
(lp1051
Vesp_log_early_timestamp
p1052
atp1053
a(L3833270346L
L0L
(lp1054
(lp1055
tp1056
a(L3360570486L
L0L
(lp1057
(lp1058
tp1059
a(L3430459325L
L3785322319L
(lp1060
(lp1061
Vesp_log_early_timestamp
p1062
atp1063
a(L3309219235L
L3785322319L
(lp1064
(lp1065
Vesp_log_early_timestamp
p1066
atp1067
atp1068
sI1074238776
(Vcache_ll_l1_enable_bus
p1069
(lp1070
(L1908488057L
L0L
(lp1071
(lp1072
tp1073
atp1074
sI1074240824
(Vabort
p1075
(lp1076
(L56968919L
L0L
(lp1077
(lp1078
tp1079
a(L409471316L
L0L
(lp1080
(lp1081
tp1082
a(L106L
L0L
(lp1083
(lp1084
tp1085
atp1086
sI1074248004
(Vesp_rom_spiflash_write_encrypted
p1087
(lp1088
(L1944247967L
L0L
(lp1089
(lp1090
tp1091
a(L3637183229L
L0L
(lp1092
(lp1093
tp1094
a(L97689L
L0L
(lp1095
(lp1096
tp1097
a(L3061232074L
L0L
(lp1098
(lp1099
tp1100
a(L1678068038L
L0L
(lp1101
(lp1102
tp1103
a(L1309309703L
L3785322319L
(lp1104
(lp1105
Vesp_rom_spiflash_write
p1106
atp1107
a(L3850908019L
L0L
(lp1108
(lp1109
tp1110
a(L735741265L
L0L
(lp1111
(lp1112
tp1113
atp1114
sI1074267724
(Vcall_start_cpu0
p1115
(lp1116
(L1137852827L
L0L
(lp1117
(lp1118
tp1119
a(L549459388L
L0L
(lp1120
(lp1121
tp1122
a(L3212347974L
L3785322319L
(lp1123
(lp1124
Vbootloader_init
p1125
atp1126
a(L94425498L
L3785322319L
(lp1127
(lp1128
Vbootloader_reset
p1129
atp1130
a(L1122046408L
L0L
(lp1131
(lp1132
tp1133
a(L4099474112L
L0L
(lp1134
(lp1135
tp1136
a(L3015046664L
L3785322319L
(lp1137
(lp1138
Vbootloader_utility_load_partition_table
p1139
atp1140
a(L2761094216L
L3785322319L
(lp1141
(lp1142
Vesp_log_early_timestamp
p1143
atp1144
a(L405422123L
L3785322319L
(lp1145
(lp1146
Vbootloader_utility_get_selected_boot_partition
p1147
atp1148
a(L2055385849L
L3785322319L
(lp1149
(lp1150
Vbootloader_utility_load_boot_image
p1151
atp1152
atp1153
sI1074240064
(Vbootloader_reset
p1154
(lp1155
(L4123387220L
L3785322319L
(lp1156
(lp1157
Vbootloader_console_deinit
p1158
atp1159
a(L106L
L0L
(lp1160
(lp1161
tp1162
atp1163
sI1074243136
(Vbootloader_load_image
p1164
(lp1165
(L1155870502L
L3785322319L
(lp1166
(lp1167
Vimage_load
p1168
atp1169
atp1170
sI1074237260
(Vbootloader_common_ota_select_invalid
p1171
(lp1172
(L4027567199L
L0L
(lp1173
(lp1174
tp1175
a(L3397985842L
L0L
(lp1176
(lp1177
tp1178
a(L2258867228L
L0L
(lp1179
(lp1180
tp1181
a(L3785235668L
L0L
(lp1182
(lp1183
tp1184
atp1185
sI1074240588
(Vbootloader_sha256_finish
p1186
(lp1187
(L4066096136L
L0L
(lp1188
(lp1189
tp1190
a(L3125987449L
L0L
(lp1191
(lp1192
tp1193
a(L3884092851L
L3785322319L
(lp1194
(lp1195
V__assert_func
p1196
atp1197
a(L3020204L
L0L
(lp1198
(lp1199
tp1200
a(L1816853500L
L0L
(lp1201
(lp1202
tp1203
a(L2534656226L
L0L
(lp1204
(lp1205
tp1206
a(L551614134L
L3785322319L
(lp1207
(lp1208
Vbootloader_sha256_data
p1209
atp1210
a(L3281735505L
L0L
(lp1211
(lp1212
tp1213
a(L841302101L
L3785322319L
(lp1214
(lp1215
Vbootloader_sha256_data
p1216
atp1217
a(L3768329152L
L0L
(lp1218
(lp1219
tp1220
a(L657425439L
L0L
(lp1221
(lp1222
tp1223
a(L3930848034L
L0L
(lp1224
(lp1225
tp1226
a(L657425439L
L0L
(lp1227
(lp1228
tp1229
a(L4116699460L
L0L
(lp1230
(lp1231
tp1232
a(L3511307343L
L0L
(lp1233
(lp1234
tp1235
a(L3347778L
L0L
(lp1236
(lp1237
tp1238
a(L3360570486L
L0L
(lp1239
(lp1240
tp1241
atp1242
sI1074242636
(Vimage_load
p1243
(lp1244
(L3559420668L
L0L
(lp1245
(lp1246
tp1247
a(L1899869541L
L0L
(lp1248
(lp1249
tp1250
a(L979631281L
L0L
(lp1251
(lp1252
tp1253
a(L1525480527L
L0L
(lp1254
(lp1255
tp1256
a(L1043148059L
L0L
(lp1257
(lp1258
tp1259
a(L2796536461L
L0L
(lp1260
(lp1261
tp1262
a(L2974022397L
L3785322319L
(lp1263
(lp1264
Vesp_log_early_timestamp
p1265
atp1266
a(L2068384292L
L0L
(lp1267
(lp1268
tp1269
a(L1968553470L
L3785322319L
(lp1270
(lp1271
Vbootloader_sha256_finish
p1272
atp1273
a(L4209044681L
L0L
(lp1274
(lp1275
tp1276
a(L3225218531L
L0L
(lp1277
(lp1278
tp1279
a(L3802071166L
L0L
(lp1280
(lp1281
tp1282
a(L1301867039L
L3785322319L
(lp1283
(lp1284
Vprocess_image_header
p1285
atp1286
a(L560228796L
L0L
(lp1287
(lp1288
tp1289
a(L4185758499L
L0L
(lp1290
(lp1291
tp1292
a(L1530940255L
L3785322319L
(lp1293
(lp1294
Vprocess_segments
p1295
atp1296
a(L1233227930L
L0L
(lp1297
(lp1298
tp1299
a(L2539156582L
L0L
(lp1300
(lp1301
tp1302
a(L2570888687L
L3785322319L
(lp1303
(lp1304
Vprocess_checksum
p1305
atp1306
a(L425503098L
L3785322319L
(lp1307
(lp1308
Vprocess_appended_hash_and_sig
p1309
atp1310
a(L780930979L
L0L
(lp1311
(lp1312
tp1313
a(L2334355956L
L0L
(lp1314
(lp1315
tp1316
a(L3470740557L
L0L
(lp1317
(lp1318
tp1319
a(L2727908192L
L1880226080L
(lp1320
(lp1321
Vbootloader_sha256_finish
p1322
aVbootloader_debug_buffer
p1323
atp1324
a(L764308364L
L1880226080L
(lp1325
(lp1326
Vesp_log_early_timestamp
p1327
aVbootloader_debug_buffer
p1328
atp1329
a(L1087646176L
L0L
(lp1330
(lp1331
tp1332
a(L2068384292L
L0L
(lp1333
(lp1334
tp1335
a(L3021148818L
L3785322319L
(lp1336
(lp1337
Vbootloader_sha256_finish
p1338
atp1339
a(L3028481L
L0L
(lp1340
(lp1341
tp1342
a(L139701033L
L0L
(lp1343
(lp1344
tp1345
a(L2510919588L
L0L
(lp1346
(lp1347
tp1348
a(L772115669L
L0L
(lp1349
(lp1350
tp1351
a(L2787789065L
L0L
(lp1352
(lp1353
tp1354
a(L85798113L
L0L
(lp1355
(lp1356
tp1357
a(L1351513776L
L0L
(lp1358
(lp1359
tp1360
a(L159346313L
L3785322319L
(lp1361
(lp1362
Vshould_load
p1363
atp1364
a(L4218574503L
L0L
(lp1365
(lp1366
tp1367
a(L3338774213L
L0L
(lp1368
(lp1369
tp1370
a(L3464541874L
L0L
(lp1371
(lp1372
tp1373
a(L3349572949L
L0L
(lp1374
(lp1375
tp1376
a(L2192292519L
L0L
(lp1377
(lp1378
tp1379
a(L106L
L0L
(lp1380
(lp1381
tp1382
a(L26615924L
L0L
(lp1383
(lp1384
tp1385
a(L1299866312L
L0L
(lp1386
(lp1387
tp1388
a(L490060329L
L0L
(lp1389
(lp1390
tp1391
atp1392
sI1074269764
(Vbootloader_config_wdt
p1393
(lp1394
(L197822005L
L505859776L
(lp1395
(lp1396
Vwdt_hal_write_protect_disable
p1397
aVwdt_hal_set_flashboot_en
p1398
aVwdt_hal_write_protect_enable
p1399
aVwdt_hal_init
p1400
aVrtc_clk_slow_freq_get_hz
p1401
aVwdt_hal_write_protect_disable
p1402
aVwdt_hal_config_stage
p1403
aVwdt_hal_enable
p1404
aVwdt_hal_write_protect_enable
p1405
aVwdt_hal_write_protect_disable
p1406
aVwdt_hal_set_flashboot_en
p1407
aVwdt_hal_write_protect_enable
p1408
atp1409
atp1410
sI1074243152
(Vesp_partition_table_verify
p1411
(lp1412
(L4221019429L
L0L
(lp1413
(lp1414
tp1415
a(L3688263406L
L0L
(lp1416
(lp1417
tp1418
a(L4090921686L
L0L
(lp1419
(lp1420
tp1421
a(L2910371777L
L0L
(lp1422
(lp1423
tp1424
a(L2810785767L
L0L
(lp1425
(lp1426
tp1427
a(L3360570486L
L0L
(lp1428
(lp1429
tp1430
a(L3190337587L
L0L
(lp1431
(lp1432
tp1433
a(L2069928857L
L0L
(lp1434
(lp1435
tp1436
a(L3020204L
L0L
(lp1437
(lp1438
tp1439
a(L4240560509L
L3785322319L
(lp1440
(lp1441
Vesp_log_early_timestamp
p1442
atp1443
a(L2526422477L
L3785322319L
(lp1444
(lp1445
Vesp_log_early_timestamp
p1446
atp1447
a(L510839312L
L0L
(lp1448
(lp1449
tp1450
a(L2902417580L
L0L
(lp1451
(lp1452
tp1453
a(L3020204L
L0L
(lp1454
(lp1455
tp1456
a(L2215002226L
L3785322319L
(lp1457
(lp1458
Vesp_log_early_timestamp
p1459
atp1460
a(L2867263840L
L0L
(lp1461
(lp1462
tp1463
a(L3655331517L
L0L
(lp1464
(lp1465
tp1466
a(L2902417580L
L0L
(lp1467
(lp1468
tp1469
a(L4240559796L
L3785322319L
(lp1470
(lp1471
Vesp_log_early_timestamp
p1472
atp1473
a(L1305407469L
L0L
(lp1474
(lp1475
tp1476
a(L1167861556L
L0L
(lp1477
(lp1478
tp1479
a(L3914073261L
L0L
(lp1480
(lp1481
tp1482
a(L2910371777L
L0L
(lp1483
(lp1484
tp1485
a(L1235012932L
L0L
(lp1486
(lp1487
tp1488
a(L4142303994L
L3785322319L
(lp1489
(lp1490
Vesp_log_early_timestamp
p1491
atp1492
atp1493
sI1074240336
(Vindex_to_partition
p1494
(lp1495
(L4066096119L
L0L
(lp1496
(lp1497
tp1498
a(L1739185955L
L0L
(lp1499
(lp1500
tp1501
a(L2171552758L
L0L
(lp1502
(lp1503
tp1504
a(L2808906342L
L0L
(lp1505
(lp1506
tp1507
a(L2101481936L
L0L
(lp1508
(lp1509
tp1510
a(L3698927993L
L0L
(lp1511
(lp1512
tp1513
a(L2808826781L
L0L
(lp1514
(lp1515
tp1516
a(L3003398163L
L0L
(lp1517
(lp1518
tp1519
a(L2880709161L
L0L
(lp1520
(lp1521
tp1522
a(L1087646172L
L0L
(lp1523
(lp1524
tp1525
atp1526
sI1074234704
(Vesp_flash_encryption_enabled
p1527
(lp1528
(L2932383536L
L0L
(lp1529
(lp1530
tp1531
a(L2910371777L
L0L
(lp1532
(lp1533
tp1534
a(L3360570486L
L0L
(lp1535
(lp1536
tp1537
a(L3016870L
L0L
(lp1538
(lp1539
tp1540
a(L3745038218L
L0L
(lp1541
(lp1542
tp1543
a(L957607403L
L0L
(lp1544
(lp1545
tp1546
atp1547
sI1074245200
(Vrtc_clk_8m_enabled
p1548
(lp1549
(L2802140000L
L0L
(lp1550
(lp1551
tp1552
atp1553
sI1074235224
(Vbootloader_execute_flash_command
p1554
(lp1555
(L2481595632L
L3785322319L
(lp1556
(lp1557
Vbootloader_flash_execute_command_common
p1558
atp1559
atp1560
sI1074244952
(Vrtc_clk_bbpll_disable
p1561
(lp1562
(L2525111280L
L0L
(lp1563
(lp1564
tp1565
a(L2472207241L
L0L
(lp1566
(lp1567
tp1568
a(L3360570486L
L0L
(lp1569
(lp1570
tp1571
atp1572
sI1074247512
(Vesp_rom_spiflash_program_page_internal
p1573
(lp1574
(L2569069283L
L0L
(lp1575
(lp1576
tp1577
a(L2258688483L
L0L
(lp1578
(lp1579
tp1580
a(L3360570486L
L0L
(lp1581
(lp1582
tp1583
a(L792610006L
L0L
(lp1584
(lp1585
tp1586
a(L4235661475L
L3785322319L
(lp1587
(lp1588
Vesp_rom_spiflash_wait_idle
p1589
atp1590
a(L1299866312L
L0L
(lp1591
(lp1592
tp1593
a(L3212356251L
L3785322319L
(lp1594
(lp1595
Vesp_rom_spiflash_enable_write
p1596
atp1597
a(L3383370082L
L0L
(lp1598
(lp1599
tp1600
a(L2209840608L
L0L
(lp1601
(lp1602
tp1603
a(L2953702749L
L0L
(lp1604
(lp1605
tp1606
a(L2989032L
L0L
(lp1607
(lp1608
tp1609
a(L1965622133L
L0L
(lp1610
(lp1611
tp1612
a(L1351235542L
L0L
(lp1613
(lp1614
tp1615
a(L1958113242L
L0L
(lp1616
(lp1617
tp1618
a(L106L
L0L
(lp1619
(lp1620
tp1621
a(L3112950080L
L0L
(lp1622
(lp1623
tp1624
a(L1868606439L
L0L
(lp1625
(lp1626
tp1627
a(L1008983195L
L0L
(lp1628
(lp1629
tp1630
a(L1933954923L
L0L
(lp1631
(lp1632
tp1633
a(L1147866918L
L0L
(lp1634
(lp1635
tp1636
a(L3871602522L
L0L
(lp1637
(lp1638
tp1639
atp1640
sI1074244452
(Vwdt_hal_write_protect_enable
p1641
(lp1642
(L387778158L
L0L
(lp1643
(lp1644
tp1645
a(L4195472003L
L0L
(lp1646
(lp1647
tp1648
a(L3360570486L
L0L
(lp1649
(lp1650
tp1651
a(L802523425L
L0L
(lp1652
(lp1653
tp1654
atp1655
sI1074240096
(Vbootloader_utility_load_boot_image
p1656
(lp1657
(L1375294773L
L0L
(lp1658
(lp1659
tp1660
a(L2177418995L
L3785322319L
(lp1661
(lp1662
Vtry_load_partition
p1663
atp1664
a(L1305243774L
L3785322319L
(lp1665
(lp1666
Vload_image
p1667
atp1668
a(L1481893282L
L3785322319L
(lp1669
(lp1670
Vesp_log_early_timestamp
p1671
atp1672
a(L3827921190L
L3785322319L
(lp1673
(lp1674
Vbootloader_reset
p1675
atp1676
a(L1953693036L
L3785322319L
(lp1677
(lp1678
Vindex_to_partition
p1679
atp1680
a(L1204373741L
L3785322319L
(lp1681
(lp1682
Vtry_load_partition
p1683
atp1684
a(L1899865696L
L0L
(lp1685
(lp1686
tp1687
a(L2695355117L
L3785322319L
(lp1688
(lp1689
Vset_actual_ota_seq
p1690
atp1691
a(L1868897605L
L3785322319L
(lp1692
(lp1693
Vlog_invalid_app_partition
p1694
atp1695
a(L831650730L
L0L
(lp1696
(lp1697
tp1698
a(L3021737L
L0L
(lp1699
(lp1700
tp1701
a(L695456438L
L0L
(lp1702
(lp1703
tp1704
a(L1129532116L
L3785322319L
(lp1705
(lp1706
Vtry_load_partition
p1707
atp1708
a(L4022121633L
L3785322319L
(lp1709
(lp1710
Vesp_log_early_timestamp
p1711
atp1712
a(L2347390157L
L3785322319L
(lp1713
(lp1714
Vindex_to_partition
p1715
atp1716
a(L1204373741L
L3785322319L
(lp1717
(lp1718
Vtry_load_partition
p1719
atp1720
a(L3061261803L
L0L
(lp1721
(lp1722
tp1723
a(L3582858798L
L3785322319L
(lp1724
(lp1725
Vlog_invalid_app_partition
p1726
atp1727
a(L1285752117L
L3785322319L
(lp1728
(lp1729
Vesp_log_early_timestamp
p1730
atp1731
atp1732
sI1074245472
(Vrtc_clk_fast_src_get
p1733
(lp1734
(L380770082L
L0L
(lp1735
(lp1736
tp1737
atp1738
sI1074238828
(Vcache_ll_l1_enable_bus
p1739
(lp1740
(L1408514293L
L0L
(lp1741
(lp1742
tp1743
atp1744
sI1074270052
(Vrtc_clk_xtal_freq_estimate
p1745
(lp1746
(L3845076426L
L1880226080L
(lp1747
(lp1748
Vrtc_clk_8m_enabled
p1749
aVrtc_clk_8md256_enabled
p1750
atp1751
a(L2449794434L
L3785322319L
(lp1752
(lp1753
Vrtc_clk_8m_enable
p1754
atp1755
a(L2541226969L
L3785322319L
(lp1756
(lp1757
Vrtc_clk_cal_ratio
p1758
atp1759
a(L1894802584L
L0L
(lp1760
(lp1761
tp1762
a(L1915120046L
L0L
(lp1763
(lp1764
tp1765
a(L2740879690L
L0L
(lp1766
(lp1767
tp1768
a(L1059750288L
L3785322319L
(lp1769
(lp1770
Vrtc_clk_8m_enable
p1771
atp1772
a(L636060329L
L3785322319L
(lp1773
(lp1774
Vesp_log_early_timestamp
p1775
atp1776
a(L2894376164L
L0L
(lp1777
(lp1778
tp1779
a(L1641150486L
L0L
(lp1780
(lp1781
tp1782
a(L3097803779L
L3785322319L
(lp1783
(lp1784
Vesp_log_early_timestamp
p1785
atp1786
a(L3100578259L
L3785322319L
(lp1787
(lp1788
Vesp_log_early_timestamp
p1789
atp1790
atp1791
sI1074237288
(Vbootloader_common_select_otadata
p1792
(lp1793
(L4071767857L
L0L
(lp1794
(lp1795
tp1796
a(L1999329187L
L0L
(lp1797
(lp1798
tp1799
a(L3846398843L
L0L
(lp1800
(lp1801
tp1802
a(L2501968171L
L0L
(lp1803
(lp1804
tp1805
a(L3360570486L
L0L
(lp1806
(lp1807
tp1808
a(L2045232488L
L0L
(lp1809
(lp1810
tp1811
a(L1243525916L
L0L
(lp1812
(lp1813
tp1814
a(L3094144427L
L0L
(lp1815
(lp1816
tp1817
a(L2399509845L
L0L
(lp1818
(lp1819
tp1820
a(L1641201884L
L0L
(lp1821
(lp1822
tp1823
atp1824
sI1074240872
(Vbootloader_ana_clock_glitch_reset_config
p1825
(lp1826
(L2100504542L
L0L
(lp1827
(lp1828
tp1829
atp1830
sI1074245224
(Vrtc_clk_8md256_enabled
p1831
(lp1832
(L1957668129L
L0L
(lp1833
(lp1834
tp1835
atp1836
sI1074236532
(Vbootloader_common_get_chip_ver_pkg
p1837
(lp1838
(L2886103845L
L0L
(lp1839
(lp1840
tp1841
atp1842
sI1074240880
(Vprocess_checksum
p1843
(lp1844
(L226873693L
L0L
(lp1845
(lp1846
tp1847
a(L2910371777L
L0L
(lp1848
(lp1849
tp1850
a(L186886970L
L0L
(lp1851
(lp1852
tp1853
a(L2910371777L
L0L
(lp1854
(lp1855
tp1856
a(L3020204L
L0L
(lp1857
(lp1858
tp1859
a(L2480703612L
L3785322319L
(lp1860
(lp1861
Vbootloader_sha256_data
p1862
atp1863
a(L4179073442L
L0L
(lp1864
(lp1865
tp1866
a(L1811888222L
L3785322319L
(lp1867
(lp1868
Vbootloader_flash_read
p1869
atp1870
a(L3126521138L
L0L
(lp1871
(lp1872
tp1873
a(L4120157373L
L0L
(lp1874
(lp1875
tp1876
a(L3278991908L
L3785322319L
(lp1877
(lp1878
Vesp_log_early_timestamp
p1879
atp1880
atp1881
sI1074243440
(Vwdt_hal_init
p1882
(lp1883
(L509746487L
L0L
(lp1884
(lp1885
tp1886
a(L745008699L
L0L
(lp1887
(lp1888
tp1889
a(L2805934244L
L0L
(lp1890
(lp1891
tp1892
a(L3115097993L
L0L
(lp1893
(lp1894
tp1895
a(L1129008730L
L0L
(lp1896
(lp1897
tp1898
a(L3360570486L
L0L
(lp1899
(lp1900
tp1901
a(L3022237171L
L0L
(lp1902
(lp1903
tp1904
atp1905
sI1074245488
(Vrtc_clk_xtal_freq_get
p1906
(lp1907
(L436198866L
L0L
(lp1908
(lp1909
tp1910
a(L2847936993L
L0L
(lp1911
(lp1912
tp1913
a(L4141094988L
L0L
(lp1914
(lp1915
tp1916
a(L3360570486L
L0L
(lp1917
(lp1918
tp1919
atp1920
sI1074270832
(Vrtc_vddsdio_set_config
p1921
(lp1922
(L924138034L
L0L
(lp1923
(lp1924
tp1925
atp1926
sI1074241916
(Vprocess_segments
p1927
(lp1928
(L1018786970L
L0L
(lp1929
(lp1930
tp1931
a(L3285816417L
L0L
(lp1932
(lp1933
tp1934
a(L3782401745L
L0L
(lp1935
(lp1936
tp1937
a(L106L
L0L
(lp1938
(lp1939
tp1940
a(L2411199274L
L0L
(lp1941
(lp1942
tp1943
a(L669991150L
L3785322319L
(lp1944
(lp1945
Vesp_log_early_timestamp
p1946
atp1947
a(L3085209925L
L3785322319L
(lp1948
(lp1949
Vbootloader_flash_read
p1950
atp1951
a(L125419343L
L3785322319L
(lp1952
(lp1953
Vesp_log_early_timestamp
p1954
atp1955
a(L3871473710L
L0L
(lp1956
(lp1957
tp1958
a(L234193771L
L0L
(lp1959
(lp1960
tp1961
a(L1635713494L
L3785322319L
(lp1962
(lp1963
Vbootloader_sha256_data
p1964
atp1965
a(L165187679L
L0L
(lp1966
(lp1967
tp1968
a(L334484485L
L0L
(lp1969
(lp1970
tp1971
a(L451332327L
L0L
(lp1972
(lp1973
tp1974
a(L3802067325L
L0L
(lp1975
(lp1976
tp1977
a(L3592389343L
L0L
(lp1978
(lp1979
tp1980
a(L2258867228L
L0L
(lp1981
(lp1982
tp1983
a(L1255782415L
L0L
(lp1984
(lp1985
tp1986
a(L1756760227L
L0L
(lp1987
(lp1988
tp1989
a(L1849436849L
L0L
(lp1990
(lp1991
tp1992
a(L1947739089L
L3785322319L
(lp1993
(lp1994
Vesp_log_early_timestamp
p1995
atp1996
a(L3601900694L
L0L
(lp1997
(lp1998
tp1999
a(L568253874L
L0L
(lp2000
(lp2001
tp2002
a(L3182428709L
L3785322319L
(lp2003
(lp2004
Vesp_log_early_timestamp
p2005
atp2006
a(L1973629750L
L3785322319L
(lp2007
(lp2008
Vverify_load_addresses
p2009
atp2010
a(L106L
L0L
(lp2011
(lp2012
tp2013
a(L914132342L
L0L
(lp2014
(lp2015
tp2016
a(L291460350L
L0L
(lp2017
(lp2018
tp2019
a(L4151532718L
L3785322319L
(lp2020
(lp2021
Vbootloader_mmap
p2022
atp2023
a(L3589484614L
L3785322319L
(lp2024
(lp2025
Vesp_log_early_timestamp
p2026
atp2027
a(L2994776696L
L0L
(lp2028
(lp2029
tp2030
a(L2942377727L
L0L
(lp2031
(lp2032
tp2033
a(L1652679798L
L3785322319L
(lp2034
(lp2035
Vbootloader_munmap
p2036
atp2037
a(L2993622008L
L0L
(lp2038
(lp2039
tp2040
a(L1216016797L
L3785322319L
(lp2041
(lp2042
Vbootloader_fill_random
p2043
atp2044
a(L3570641403L
L0L
(lp2045
(lp2046
tp2047
a(L3574335487L
L0L
(lp2048
(lp2049
tp2050
a(L3450268858L
L0L
(lp2051
(lp2052
tp2053
a(L3021749L
L0L
(lp2054
(lp2055
tp2056
a(L1609678444L
L0L
(lp2057
(lp2058
tp2059
a(L1777728568L
L0L
(lp2060
(lp2061
tp2062
a(L3020204L
L0L
(lp2063
(lp2064
tp2065
a(L1312354573L
L0L
(lp2066
(lp2067
tp2068
a(L2076461546L
L0L
(lp2069
(lp2070
tp2071
a(L3844184503L
L0L
(lp2072
(lp2073
tp2074
a(L1749969336L
L0L
(lp2075
(lp2076
tp2077
a(L670934548L
L0L
(lp2078
(lp2079
tp2080
a(L781506066L
L3785322319L
(lp2081
(lp2082
Vbootloader_sha256_data
p2083
atp2084
a(L90548756L
L0L
(lp2085
(lp2086
tp2087
a(L4195963580L
L0L
(lp2088
(lp2089
tp2090
a(L2422333549L
L0L
(lp2091
(lp2092
tp2093
a(L3132743422L
L0L
(lp2094
(lp2095
tp2096
a(L249537906L
L3785322319L
(lp2097
(lp2098
Vshould_load
p2099
atp2100
a(L2378267508L
L0L
(lp2101
(lp2102
tp2103
a(L3098292588L
L3785322319L
(lp2104
(lp2105
Vesp_log_early_timestamp
p2106
atp2107
a(L1263395604L
L0L
(lp2108
(lp2109
tp2110
a(L307916924L
L0L
(lp2111
(lp2112
tp2113
a(L3421814691L
L0L
(lp2114
(lp2115
tp2116
a(L81630008L
L0L
(lp2117
(lp2118
tp2119
a(L2742376716L
L0L
(lp2120
(lp2121
tp2122
a(L3786494677L
L3785322319L
(lp2123
(lp2124
Vbootloader_mmap_get_free_pages
p2125
atp2126
a(L2685118414L
L0L
(lp2127
(lp2128
tp2129
a(L2091285670L
L0L
(lp2130
(lp2131
tp2132
atp2133
sI1074235256
(Vbootloader_flash_unlock
p2134
(lp2135
(L2142380611L
L3785322319L
(lp2136
(lp2137
Vesp_rom_spiflash_wait_idle
p2138
atp2139
a(L4212373562L
L0L
(lp2140
(lp2141
tp2142
a(L4292483033L
L3785322319L
(lp2143
(lp2144
Vbootloader_execute_flash_command
p2145
atp2146
a(L106L
L0L
(lp2147
(lp2148
tp2149
a(L1303560644L
L0L
(lp2150
(lp2151
tp2152
a(L610618440L
L0L
(lp2153
(lp2154
tp2155
a(L106L
L0L
(lp2156
(lp2157
tp2158
a(L345249462L
L0L
(lp2159
(lp2160
tp2161
a(L106L
L0L
(lp2162
(lp2163
tp2164
a(L1024465569L
L0L
(lp2165
(lp2166
tp2167
a(L106L
L0L
(lp2168
(lp2169
tp2170
a(L1481761147L
L1880226080L
(lp2171
(lp2172
Vbootloader_execute_flash_command
p2173
aVbootloader_execute_flash_command
p2174
atp2175
a(L2258807654L
L0L
(lp2176
(lp2177
tp2178
a(L489806350L
L1832448559L
(lp2179
(lp2180
Vesp_rom_spiflash_wait_idle
p2181
aVbootloader_execute_flash_command
p2182
aVbootloader_execute_flash_command
p2183
atp2184
a(L879744646L
L1832448559L
(lp2185
(lp2186
Vesp_rom_spiflash_wait_idle
p2187
aVbootloader_execute_flash_command
p2188
aVbootloader_execute_flash_command
p2189
atp2190
a(L1840772931L
L1880226080L
(lp2191
(lp2192
Vesp_rom_spiflash_wait_idle
p2193
aVbootloader_execute_flash_command
p2194
atp2195
a(L2993202392L
L0L
(lp2196
(lp2197
tp2198
a(L508800419L
L1880226080L
(lp2199
(lp2200
Vbootloader_execute_flash_command
p2201
aVbootloader_execute_flash_command
p2202
atp2203
a(L1303560369L
L0L
(lp2204
(lp2205
tp2206
a(L1596544945L
L0L
(lp2207
(lp2208
tp2209
a(L97689L
L0L
(lp2210
(lp2211
tp2212
a(L106L
L0L
(lp2213
(lp2214
tp2215
atp2216
sI1074234744
(Vbootloader_flash_execute_command_common
p2217
(lp2218
(L3865052895L
L0L
(lp2219
(lp2220
tp2221
a(L3287175998L
L0L
(lp2222
(lp2223
tp2224
a(L4121451103L
L3785322319L
(lp2225
(lp2226
V__assert_func
p2227
atp2228
a(L3021749L
L0L
(lp2229
(lp2230
tp2231
a(L3999871974L
L0L
(lp2232
(lp2233
tp2234
a(L543316797L
L0L
(lp2235
(lp2236
tp2237
a(L2091933878L
L0L
(lp2238
(lp2239
tp2240
a(L1702379862L
L0L
(lp2241
(lp2242
tp2243
a(L3432464320L
L0L
(lp2244
(lp2245
tp2246
a(L3539375712L
L0L
(lp2247
(lp2248
tp2249
a(L3244449450L
L0L
(lp2250
(lp2251
tp2252
a(L4233404408L
L0L
(lp2253
(lp2254
tp2255
a(L2990329343L
L0L
(lp2256
(lp2257
tp2258
a(L2051090536L
L0L
(lp2259
(lp2260
tp2261
a(L3333696662L
L0L
(lp2262
(lp2263
tp2264
a(L963425213L
L0L
(lp2265
(lp2266
tp2267
a(L339491738L
L0L
(lp2268
(lp2269
tp2270
a(L3360570486L
L0L
(lp2271
(lp2272
tp2273
atp2274
sI1074238084
(Vbootloader_enable_wp
p2275
(lp2276
(L1117825804L
L3785322319L
(lp2277
(lp2278
Vbootloader_execute_flash_command
p2279
atp2280
atp2281
sI1074236800
(Vefuse_hal_get_minor_chip_version
p2282
(lp2283
(L1213965243L
L0L
(lp2284
(lp2285
tp2286
atp2287
sI1074244480
(Vwdt_hal_enable
p2288
(lp2289
(L2299130915L
L0L
(lp2290
(lp2291
tp2292
a(L165794138L
L0L
(lp2293
(lp2294
tp2295
a(L3360570486L
L0L
(lp2296
(lp2297
tp2298
a(L2847657174L
L0L
(lp2299
(lp2300
tp2301
atp2302
sI1074245248
(Vrtc_clk_slow_src_set
p2303
(lp2304
(L1719649901L
L0L
(lp2305
(lp2306
tp2307
a(L3020187L
L0L
(lp2308
(lp2309
tp2310
a(L3028481L
L0L
(lp2311
(lp2312
tp2313
a(L487821223L
L0L
(lp2314
(lp2315
tp2316
a(L185049753L
L0L
(lp2317
(lp2318
tp2319
a(L1851908495L
L0L
(lp2320
(lp2321
tp2322
a(L382170874L
L0L
(lp2323
(lp2324
tp2325
a(L3138544334L
L0L
(lp2326
(lp2327
tp2328
a(L94425498L
L3785322319L
(lp2329
(lp2330
Vabort
p2331
atp2332
atp2333
sI1074245760
(Vrtc_clk_xtal_freq_update
p2334
(lp2335
(L1422638466L
L0L
(lp2336
(lp2337
tp2338
a(L3509357017L
L0L
(lp2339
(lp2340
tp2341
a(L2266180931L
L0L
(lp2342
(lp2343
tp2344
atp2345
sI1074238604
(Vcache_ll_l1_get_bus
p2346
(lp2347
(L3820023252L
L0L
(lp2348
(lp2349
tp2350
a(L94425498L
L3785322319L
(lp2351
(lp2352
Vabort
p2353
atp2354
a(L3179088012L
L0L
(lp2355
(lp2356
tp2357
a(L1844424101L
L0L
(lp2358
(lp2359
tp2360
a(L892952750L
L0L
(lp2361
(lp2362
tp2363
a(L1182811810L
L0L
(lp2364
(lp2365
tp2366
a(L1101742417L
L0L
(lp2367
(lp2368
tp2369
a(L1100767927L
L0L
(lp2370
(lp2371
tp2372
a(L3360570486L
L0L
(lp2373
(lp2374
tp2375
a(L2767111967L
L0L
(lp2376
(lp2377
tp2378
a(L892952750L
L0L
(lp2379
(lp2380
tp2381
a(L2258688482L
L0L
(lp2382
(lp2383
tp2384
a(L1353797152L
L0L
(lp2385
(lp2386
tp2387
a(L2258718273L
L0L
(lp2388
(lp2389
tp2390
a(L2938197270L
L0L
(lp2391
(lp2392
tp2393
a(L2748641547L
L0L
(lp2394
(lp2395
tp2396
a(L2752340901L
L0L
(lp2397
(lp2398
tp2399
a(L1641149277L
L0L
(lp2400
(lp2401
tp2402
a(L3211405977L
L0L
(lp2403
(lp2404
tp2405
a(L3027019L
L0L
(lp2406
(lp2407
tp2408
a(L1299866560L
L0L
(lp2409
(lp2410
tp2411
a(L1299866436L
L0L
(lp2412
(lp2413
tp2414
atp2415
sI1074248844
(V_fini
p2416
(lp2417
(L3493042598L
L0L
(lp2418
(lp2419
tp2420
atp2421
sI1074240404
(Vbootloader_debug_buffer
p2422
(lp2423
(L2100504542L
L0L
(lp2424
(lp2425
tp2426
atp2427
sI1074236564
(Vesp_rom_uart_tx_wait_idle
p2428
(lp2429
(L3957152286L
L0L
(lp2430
(lp2431
tp2432
a(L1301079727L
L0L
(lp2433
(lp2434
tp2435
a(L3597746521L
L0L
(lp2436
(lp2437
tp2438
a(L3694491048L
L0L
(lp2439
(lp2440
tp2441
a(L3055926844L
L0L
(lp2442
(lp2443
tp2444
a(L3360570486L
L0L
(lp2445
(lp2446
tp2447
atp2448
sI1074245012
(Vrtc_clk_32k_enable
p2449
(lp2450
(L753387299L
L0L
(lp2451
(lp2452
tp2453
a(L3776007933L
L3785322319L
(lp2454
(lp2455
Vrtc_clk_32k_enable_common
p2456
atp2457
a(L3496950L
L0L
(lp2458
(lp2459
tp2460
a(L2501812159L
L0L
(lp2461
(lp2462
tp2463
atp2464
sI1074247316
(Vesp_rom_spiflash_read_status
p2465
(lp2466
(L2938520357L
L0L
(lp2467
(lp2468
tp2469
a(L1182811815L
L0L
(lp2470
(lp2471
tp2472
a(L1827921062L
L0L
(lp2473
(lp2474
tp2475
a(L106L
L0L
(lp2476
(lp2477
tp2478
a(L619542702L
L0L
(lp2479
(lp2480
tp2481
a(L3274807848L
L0L
(lp2482
(lp2483
tp2484
a(L2123059967L
L0L
(lp2485
(lp2486
tp2487
a(L3146966332L
L0L
(lp2488
(lp2489
tp2490
a(L2392720019L
L0L
(lp2491
(lp2492
tp2493
atp2494
sI1074268828
(Vbootloader_common_vddsdio_configure
p2495
(lp2496
(L1829974089L
L3785322319L
(lp2497
(lp2498
Vrtc_vddsdio_get_config
p2499
atp2500
a(L1489249795L
L3785322319L
(lp2501
(lp2502
Vrtc_vddsdio_set_config
p2503
atp2504
a(L3360570486L
L0L
(lp2505
(lp2506
tp2507
atp2508
sI1074236816
(Vesp_dport_access_reg_read
p2509
(lp2510
(L1099794772L
L0L
(lp2511
(lp2512
tp2513
atp2514
sI1074240412
(Vbootloader_sha256_start
p2515
(lp2516
(L260677377L
L0L
(lp2517
(lp2518
tp2519
atp2520
sI1074239388
(Vbootloader_utility_load_partition_table
p2521
(lp2522
(L973068460L
L3785322319L
(lp2523
(lp2524
Vbootloader_mmap
p2525
atp2526
a(L1894723508L
L3785322319L
(lp2527
(lp2528
Vesp_log_early_timestamp
p2529
atp2530
a(L2258688482L
L0L
(lp2531
(lp2532
tp2533
a(L3360570486L
L0L
(lp2534
(lp2535
tp2536
a(L3881596654L
L3785322319L
(lp2537
(lp2538
Vesp_partition_table_verify
p2539
atp2540
a(L418712718L
L3785322319L
(lp2541
(lp2542
Vesp_log_early_timestamp
p2543
atp2544
a(L3331315958L
L1880226080L
(lp2545
(lp2546
Vesp_log_early_timestamp
p2547
aVesp_log_early_timestamp
p2548
atp2549
a(L650140130L
L0L
(lp2550
(lp2551
tp2552
a(L3929231144L
L1880226080L
(lp2553
(lp2554
Vbootloader_munmap
p2555
aVesp_log_early_timestamp
p2556
atp2557
a(L521126897L
L0L
(lp2558
(lp2559
tp2560
a(L3028464L
L0L
(lp2561
(lp2562
tp2563
a(L106L
L0L
(lp2564
(lp2565
tp2566
a(L1403802546L
L0L
(lp2567
(lp2568
tp2569
a(L352196314L
L3785322319L
(lp2570
(lp2571
Vesp_log_early_timestamp
p2572
atp2573
a(L3990577774L
L0L
(lp2574
(lp2575
tp2576
a(L3020187L
L0L
(lp2577
(lp2578
tp2579
a(L2318212397L
L0L
(lp2580
(lp2581
tp2582
a(L4208504540L
L0L
(lp2583
(lp2584
tp2585
a(L1859217843L
L0L
(lp2586
(lp2587
tp2588
a(L2546691246L
L0L
(lp2589
(lp2590
tp2591
a(L3797730446L
L0L
(lp2592
(lp2593
tp2594
a(L106L
L0L
(lp2595
(lp2596
tp2597
a(L93674324L
L0L
(lp2598
(lp2599
tp2600
a(L1583301205L
L0L
(lp2601
(lp2602
tp2603
a(L1938133383L
L0L
(lp2604
(lp2605
tp2606
a(L1630400759L
L0L
(lp2607
(lp2608
tp2609
a(L106L
L0L
(lp2610
(lp2611
tp2612
a(L928516522L
L0L
(lp2613
(lp2614
tp2615
a(L106L
L0L
(lp2616
(lp2617
tp2618
a(L568204863L
L0L
(lp2619
(lp2620
tp2621
atp2622
sI1074235548
(Vbootloader_flash_read_sfdp
p2623
(lp2624
(L711701400L
L0L
(lp2625
(lp2626
tp2627
a(L3334003234L
L3785322319L
(lp2628
(lp2629
V__assert_func
p2630
atp2631
a(L3704332455L
L3785322319L
(lp2632
(lp2633
Vbootloader_flash_execute_command_common
p2634
atp2635
atp2636
sI1074235804
(Vbootloader_flash_cs_timing_config
p2637
(lp2638
(L1940014330L
L0L
(lp2639
(lp2640
tp2641
atp2642
sI1074236828
(Vis_xmc_chip_strict
p2643
(lp2644
(L1286841609L
L0L
(lp2645
(lp2646
tp2647
a(L2234016759L
L0L
(lp2648
(lp2649
tp2650
a(L1069027148L
L0L
(lp2651
(lp2652
tp2653
a(L3021749L
L0L
(lp2654
(lp2655
tp2656
a(L1900148749L
L0L
(lp2657
(lp2658
tp2659
a(L1936875721L
L0L
(lp2660
(lp2661
tp2662
a(L3356166509L
L0L
(lp2663
(lp2664
tp2665
a(L1937769451L
L0L
(lp2666
(lp2667
tp2668
a(L2137658907L
L0L
(lp2669
(lp2670
tp2671
a(L4265949734L
L0L
(lp2672
(lp2673
tp2674
a(L3360570486L
L0L
(lp2675
(lp2676
tp2677
atp2678
sI1074248092
(Vesp_rom_spiflash_read
p2679
(lp2680
(L2864722771L
L0L
(lp2681
(lp2682
tp2683
a(L3013250324L
L0L
(lp2684
(lp2685
tp2686
a(L340311750L
L0L
(lp2687
(lp2688
tp2689
a(L2355528925L
L0L
(lp2690
(lp2691
tp2692
a(L106L
L0L
(lp2693
(lp2694
tp2695
a(L633884026L
L0L
(lp2696
(lp2697
tp2698
a(L106L
L0L
(lp2699
(lp2700
tp2701
a(L12774736L
L0L
(lp2702
(lp2703
tp2704
a(L3571878573L
L0L
(lp2705
(lp2706
tp2707
a(L2884772704L
L0L
(lp2708
(lp2709
tp2710
a(L336550648L
L0L
(lp2711
(lp2712
tp2713
a(L493932352L
L0L
(lp2714
(lp2715
tp2716
a(L106L
L0L
(lp2717
(lp2718
tp2719
a(L2549202597L
L3785322319L
(lp2720
(lp2721
Vesp_rom_spiflash_wait_idle
p2722
atp2723
a(L3021737L
L0L
(lp2724
(lp2725
tp2726
a(L106L
L0L
(lp2727
(lp2728
tp2729
a(L1868280504L
L0L
(lp2730
(lp2731
tp2732
a(L106L
L0L
(lp2733
(lp2734
tp2735
a(L4024100605L
L0L
(lp2736
(lp2737
tp2738
a(L1221163038L
L0L
(lp2739
(lp2740
tp2741
a(L4122060822L
L0L
(lp2742
(lp2743
tp2744
a(L1406217664L
L0L
(lp2745
(lp2746
tp2747
a(L2989032L
L0L
(lp2748
(lp2749
tp2750
a(L3819849625L
L0L
(lp2751
(lp2752
tp2753
a(L726363469L
L0L
(lp2754
(lp2755
tp2756
a(L932902197L
L0L
(lp2757
(lp2758
tp2759
a(L3901821451L
L0L
(lp2760
(lp2761
tp2762
a(L3187605261L
L0L
(lp2763
(lp2764
tp2765
a(L2921907736L
L0L
(lp2766
(lp2767
tp2768
a(L4023125337L
L0L
(lp2769
(lp2770
tp2771
a(L384659096L
L0L
(lp2772
(lp2773
tp2774
a(L708728610L
L0L
(lp2775
(lp2776
tp2777
a(L1400585318L
L0L
(lp2778
(lp2779
tp2780
a(L781550816L
L0L
(lp2781
(lp2782
tp2783
a(L2687789892L
L0L
(lp2784
(lp2785
tp2786
a(L1405253496L
L0L
(lp2787
(lp2788
tp2789
a(L1756022091L
L0L
(lp2790
(lp2791
tp2792
a(L97689L
L0L
(lp2793
(lp2794
tp2795
a(L1183020347L
L0L
(lp2796
(lp2797
tp2798
a(L4014024819L
L0L
(lp2799
(lp2800
tp2801
a(L3621567083L
L0L
(lp2802
(lp2803
tp2804
atp2805
sI1074268052
(Vbootloader_init
p2806
(lp2807
(L270395025L
L3785322319L
(lp2808
(lp2809
Vbootloader_init_mem
p2810
atp2811
a(L1265242158L
L0L
(lp2812
(lp2813
tp2814
a(L1494621136L
L3785322319L
(lp2815
(lp2816
V__assert_func
p2817
atp2818
a(L4126189388L
L0L
(lp2819
(lp2820
tp2821
a(L4255864574L
L0L
(lp2822
(lp2823
tp2824
a(L3813782018L
L0L
(lp2825
(lp2826
tp2827
a(L1364096344L
L0L
(lp2828
(lp2829
tp2830
a(L3027019L
L0L
(lp2831
(lp2832
tp2833
a(L3563591778L
L0L
(lp2834
(lp2835
tp2836
a(L375612950L
L1832448559L
(lp2837
(lp2838
Vbootloader_clear_bss_section
p2839
aVbootloader_common_vddsdio_configure
p2840
aVbootloader_clock_get_rated_freq_mhz
p2841
atp2842
a(L3987130017L
L1157885199L
(lp2843
(lp2844
Vbootloader_clock_configure
p2845
aVbootloader_console_init
p2846
aVbootloader_print_banner
p2847
aVbootloader_flash_update_id
p2848
aVbootloader_flash_xmc_startup
p2849
atp2850
a(L1920341648L
L3785322319L
(lp2851
(lp2852
Vesp_log_early_timestamp
p2853
atp2854
a(L1926823800L
L3785322319L
(lp2855
(lp2856
Vesp_log_early_timestamp
p2857
atp2858
a(L3360570486L
L0L
(lp2859
(lp2860
tp2861
a(L2444883382L
L3785322319L
(lp2862
(lp2863
Vbootloader_read_bootloader_header
p2864
atp2865
a(L2444883382L
L3785322319L
(lp2866
(lp2867
Vbootloader_check_bootloader_validity
p2868
atp2869
a(L1449254892L
L2485746240L
(lp2870
(lp2871
Vbootloader_flash_gpio_config
p2872
aVbootloader_flash_dummy_config
p2873
aVbootloader_flash_cs_timing_config
p2874
aVbootloader_flash_unlock
p2875
atp2876
a(L51029731L
L0L
(lp2877
(lp2878
tp2879
a(L471947987L
L0L
(lp2880
(lp2881
tp2882
a(L1404489890L
L0L
(lp2883
(lp2884
tp2885
a(L3674001403L
L3785322319L
(lp2886
(lp2887
Vesp_log_early_timestamp
p2888
atp2889
a(L92454083L
L0L
(lp2890
(lp2891
tp2892
a(L96148167L
L0L
(lp2893
(lp2894
tp2895
a(L99842251L
L0L
(lp2896
(lp2897
tp2898
a(L139553654L
L0L
(lp2899
(lp2900
tp2901
a(L1404491141L
L0L
(lp2902
(lp2903
tp2904
a(L1852744844L
L3785322319L
(lp2905
(lp2906
Vesp_log_early_timestamp
p2907
atp2908
a(L93837694L
L0L
(lp2909
(lp2910
tp2911
a(L106L
L0L
(lp2912
(lp2913
tp2914
a(L258083190L
L0L
(lp2915
(lp2916
tp2917
a(L2752571198L
L0L
(lp2918
(lp2919
tp2920
a(L3902507129L
L0L
(lp2921
(lp2922
tp2923
a(L1701707570L
L3785322319L
(lp2924
(lp2925
Vesp_log_early_timestamp
p2926
atp2927
a(L93837694L
L0L
(lp2928
(lp2929
tp2930
a(L106L
L0L
(lp2931
(lp2932
tp2933
a(L3029526157L
L0L
(lp2934
(lp2935
tp2936
a(L2772639124L
L0L
(lp2937
(lp2938
tp2939
a(L2807278488L
L0L
(lp2940
(lp2941
tp2942
a(L3379747486L
L3785322319L
(lp2943
(lp2944
Vbootloader_enable_wp
p2945
atp2946
a(L1266399027L
L0L
(lp2947
(lp2948
tp2949
a(L1895147922L
L0L
(lp2950
(lp2951
tp2952
a(L2166009126L
L3785322319L
(lp2953
(lp2954
Vesp_log_early_timestamp
p2955
atp2956
a(L3639065141L
L0L
(lp2957
(lp2958
tp2959
a(L3616326365L
L0L
(lp2960
(lp2961
tp2962
a(L1129025932L
L0L
(lp2963
(lp2964
tp2965
a(L1569238687L
L3785322319L
(lp2966
(lp2967
Vesp_log_early_timestamp
p2968
atp2969
a(L4263191691L
L1880226080L
(lp2970
(lp2971
Vwdt_reset_info_dump
p2972
aVwdt_reset_info_dump
p2973
atp2974
a(L2752562921L
L0L
(lp2975
(lp2976
tp2977
a(L106L
L0L
(lp2978
(lp2979
tp2980
a(L718636321L
L0L
(lp2981
(lp2982
tp2983
a(L1767021965L
L0L
(lp2984
(lp2985
tp2986
a(L3028481L
L0L
(lp2987
(lp2988
tp2989
a(L3981500492L
L1880226080L
(lp2990
(lp2991
Vbootloader_config_wdt
p2992
aVbootloader_enable_random
p2993
atp2994
atp2995
sI1074238104
(Vbootloader_mmap_get_free_pages
p2996
(lp2997
(L1496516875L
L0L
(lp2998
(lp2999
tp3000
atp3001
sI1074245528
(Vrtc_clk_cpu_freq_mhz_to_config
p3002
(lp3003
(L908718885L
L3785322319L
(lp3004
(lp3005
Vrtc_clk_xtal_freq_get
p3006
atp3007
a(L60460069L
L0L
(lp3008
(lp3009
tp3010
a(L3802072124L
L0L
(lp3011
(lp3012
tp3013
a(L3159006042L
L0L
(lp3014
(lp3015
tp3016
a(L3360570486L
L0L
(lp3017
(lp3018
tp3019
a(L895147205L
L0L
(lp3020
(lp3021
tp3022
a(L3970036657L
L0L
(lp3023
(lp3024
tp3025
a(L2731353429L
L0L
(lp3026
(lp3027
tp3028
a(L1555485793L
L0L
(lp3029
(lp3030
tp3031
a(L2258897023L
L0L
(lp3032
(lp3033
tp3034
a(L1947499251L
L0L
(lp3035
(lp3036
tp3037
a(L1306331021L
L0L
(lp3038
(lp3039
tp3040
atp3041
sI1074269612
(Vbootloader_flash_update_id
p3042
(lp3043
(L3149875550L
L3785322319L
(lp3044
(lp3045
Vbootloader_read_flash_id
p3046
atp3047
atp3048
sI1074241696
(Vprocess_appended_hash_and_sig
p3049
(lp3050
(L1668084157L
L0L
(lp3051
(lp3052
tp3053
a(L2910371777L
L0L
(lp3054
(lp3055
tp3056
a(L1591589631L
L0L
(lp3057
(lp3058
tp3059
a(L2551256078L
L0L
(lp3060
(lp3061
tp3062
a(L2688085881L
L0L
(lp3063
(lp3064
tp3065
a(L3399920573L
L3785322319L
(lp3066
(lp3067
Vesp_log_early_timestamp
p3068
atp3069
a(L2268304300L
L3785322319L
(lp3070
(lp3071
Vbootloader_flash_read
p3072
atp3073
a(L3871473710L
L0L
(lp3074
(lp3075
tp3076
atp3077
sI1074238112
(Vbootloader_fill_random
p3078
(lp3079
(L1233865241L
L0L
(lp3080
(lp3081
tp3082
a(L2195342884L
L3785322319L
(lp3083
(lp3084
V__assert_func
p3085
atp3086
a(L1882547218L
L0L
(lp3087
(lp3088
tp3089
a(L2910371777L
L0L
(lp3090
(lp3091
tp3092
a(L95634693L
L0L
(lp3093
(lp3094
tp3095
a(L3630908706L
L0L
(lp3096
(lp3097
tp3098
a(L160162640L
L0L
(lp3099
(lp3100
tp3101
a(L97689L
L0L
(lp3102
(lp3103
tp3104
a(L3360570486L
L0L
(lp3105
(lp3106
tp3107
atp3108
sI1074238880
(Vload_image
p3109
(lp3110
(L162490783L
L1832448559L
(lp3111
(lp3112
Vesp_log_early_timestamp
p3113
aVbootloader_random_disable
p3114
aVbootloader_ana_clock_glitch_reset_config
p3115
atp3116
a(L2118498116L
L0L
(lp3117
(lp3118
tp3119
a(L106L
L0L
(lp3120
(lp3121
tp3122
a(L1789307221L
L3758435744L
(lp3123
(lp3124
Vmmu_hal_init
p3125
aVcache_ll_l1_get_bus
p3126
aVcache_ll_l1_enable_bus
p3127
aVcache_ll_l1_get_bus
p3128
aVcache_ll_l1_enable_bus
p3129
aVcache_ll_l1_get_bus
p3130
aVcache_ll_l1_enable_bus
p3131
aVcache_ll_l1_get_bus
p3132
aVcache_ll_l1_enable_bus
p3133
aVbootloader_console_deinit
p3134
atp3135
a(L746432701L
L0L
(lp3136
(lp3137
tp3138
a(L2902417580L
L0L
(lp3139
(lp3140
tp3141
a(L1366048922L
L3785322319L
(lp3142
(lp3143
Vesp_log_early_timestamp
p3144
atp3145
a(L3064806881L
L0L
(lp3146
(lp3147
tp3148
a(L839502558L
L0L
(lp3149
(lp3150
tp3151
a(L3020204L
L0L
(lp3152
(lp3153
tp3154
a(L3328497686L
L3785322319L
(lp3155
(lp3156
Vesp_log_early_timestamp
p3157
atp3158
a(L3644183142L
L0L
(lp3159
(lp3160
tp3161
a(L356605111L
L0L
(lp3162
(lp3163
tp3164
atp3165
sI1074247840
(Vesp_rom_spiflash_write
p3166
(lp3167
(L1176662179L
L0L
(lp3168
(lp3169
tp3170
a(L2258688483L
L0L
(lp3171
(lp3172
tp3173
a(L3360570486L
L0L
(lp3174
(lp3175
tp3176
a(L3368132847L
L0L
(lp3177
(lp3178
tp3179
a(L3106685981L
L0L
(lp3180
(lp3181
tp3182
a(L3488660639L
L3785322319L
(lp3183
(lp3184
Vesp_rom_spiflash_program_page_internal
p3185
atp3186
a(L3543402353L
L3785322319L
(lp3187
(lp3188
Vesp_rom_spiflash_program_page_internal
p3189
atp3190
a(L4222526342L
L0L
(lp3191
(lp3192
tp3193
a(L2004208511L
L0L
(lp3194
(lp3195
tp3196
a(L564470656L
L0L
(lp3197
(lp3198
tp3199
a(L2988842384L
L3785322319L
(lp3200
(lp3201
Vesp_rom_spiflash_program_page_internal
p3202
atp3203
a(L2302069176L
L0L
(lp3204
(lp3205
tp3206
atp3207
sI1074245804
(Vrtc_clk_apb_freq_update
p3208
(lp3209
(L723331471L
L0L
(lp3210
(lp3211
tp3212
atp3213
sI1074267832
(Vwdt_reset_info_dump
p3214
(lp3215
(L4037466985L
L0L
(lp3216
(lp3217
tp3218
a(L826419141L
L0L
(lp3219
(lp3220
tp3221
a(L527117834L
L0L
(lp3222
(lp3223
tp3224
a(L1103285333L
L0L
(lp3225
(lp3226
tp3227
a(L897464656L
L3785322319L
(lp3228
(lp3229
Vesp_log_early_timestamp
p3230
atp3231
a(L2967992533L
L0L
(lp3232
(lp3233
tp3234
a(L144195250L
L3785322319L
(lp3235
(lp3236
Vesp_log_early_timestamp
p3237
atp3238
a(L2899013701L
L0L
(lp3239
(lp3240
tp3241
atp3242
sI1074270904
(Vmpu_hal_set_region_access
p3243
(lp3244
(L3538356822L
L0L
(lp3245
(lp3246
tp3247
a(L93674324L
L0L
(lp3248
(lp3249
tp3250
a(L2910371777L
L0L
(lp3251
(lp3252
tp3253
a(L3472092938L
L0L
(lp3254
(lp3255
tp3256
a(L3020187L
L0L
(lp3257
(lp3258
tp3259
a(L3360570486L
L0L
(lp3260
(lp3261
tp3262
a(L2258718273L
L0L
(lp3263
(lp3264
tp3265
a(L3446648619L
L0L
(lp3266
(lp3267
tp3268
a(L3739532189L
L0L
(lp3269
(lp3270
tp3271
a(L1300789895L
L0L
(lp3272
(lp3273
tp3274
atp3275
sI1074237364
(Vspi_to_esp_err
p3276
(lp3277
(L3520881295L
L0L
(lp3278
(lp3279
tp3280
a(L2402400019L
L0L
(lp3281
(lp3282
tp3283
a(L3952441574L
L0L
(lp3284
(lp3285
tp3286
a(L3126521138L
L0L
(lp3287
(lp3288
tp3289
atp3290
sI1074237620
(Vbootloader_munmap
p3291
(lp3292
(L1697403118L
L0L
(lp3293
(lp3294
tp3295
a(L3761142808L
L0L
(lp3296
(lp3297
tp3298
a(L3360570486L
L0L
(lp3299
(lp3300
tp3301
atp3302
sI1074269116
(Vbootloader_init_mem
p3303
(lp3304
(L1287383080L
L3785322319L
(lp3305
(lp3306
Vesp_cpu_configure_region_protection
p3307
atp3308
atp3309
sI1074269628
(Vbootloader_clear_bss_section
p3310
(lp3311
(L1133714402L
L0L
(lp3312
(lp3313
tp3314
atp3315
sI1074240432
(Vbootloader_sha256_data
p3316
(lp3317
(L4066096136L
L0L
(lp3318
(lp3319
tp3320
a(L110883720L
L0L
(lp3321
(lp3322
tp3323
a(L3884092851L
L3785322319L
(lp3324
(lp3325
V__assert_func
p3326
atp3327
a(L498498478L
L0L
(lp3328
(lp3329
tp3330
a(L1040021824L
L0L
(lp3331
(lp3332
tp3333
a(L2910371777L
L0L
(lp3334
(lp3335
tp3336
a(L3360570486L
L0L
(lp3337
(lp3338
tp3339
a(L1788837773L
L0L
(lp3340
(lp3341
tp3342
a(L541898147L
L0L
(lp3343
(lp3344
tp3345
a(L2604061911L
L0L
(lp3346
(lp3347
tp3348
a(L8683590L
L0L
(lp3349
(lp3350
tp3351
a(L3387118333L
L0L
(lp3352
(lp3353
tp3354
a(L2032890799L
L0L
(lp3355
(lp3356
tp3357
a(L3028464L
L0L
(lp3358
(lp3359
tp3360
a(L707876039L
L0L
(lp3361
(lp3362
tp3363
a(L498156265L
L0L
(lp3364
(lp3365
tp3366
atp3367
sI1074244036
(Vwdt_hal_config_stage
p3368
(lp3369
(L331558507L
L0L
(lp3370
(lp3371
tp3372
a(L4279082939L
L0L
(lp3373
(lp3374
tp3375
a(L93674324L
L0L
(lp3376
(lp3377
tp3378
a(L2902417580L
L0L
(lp3379
(lp3380
tp3381
a(L1485495983L
L0L
(lp3382
(lp3383
tp3384
a(L3020187L
L0L
(lp3385
(lp3386
tp3387
a(L94425498L
L3785322319L
(lp3388
(lp3389
Vabort
p3390
atp3391
a(L2718517169L
L0L
(lp3392
(lp3393
tp3394
a(L3360570486L
L0L
(lp3395
(lp3396
tp3397
a(L1996799187L
L0L
(lp3398
(lp3399
tp3400
a(L2771194801L
L0L
(lp3401
(lp3402
tp3403
a(L4278159418L
L0L
(lp3404
(lp3405
tp3406
a(L93674324L
L0L
(lp3407
(lp3408
tp3409
a(L3020204L
L0L
(lp3410
(lp3411
tp3412
a(L3391750594L
L0L
(lp3413
(lp3414
tp3415
a(L3020187L
L0L
(lp3416
(lp3417
tp3418
a(L106L
L0L
(lp3419
(lp3420
tp3421
a(L239610384L
L0L
(lp3422
(lp3423
tp3424
a(L831450820L
L0L
(lp3425
(lp3426
tp3427
a(L3340783449L
L0L
(lp3428
(lp3429
tp3430
atp3431
sI1074244804
(Vrtc_clk_cpu_freq_to_pll_mhz
p3432
(lp3433
(L2480966582L
L0L
(lp3434
(lp3435
tp3436
a(L3298441904L
L0L
(lp3437
(lp3438
tp3439
a(L3680579786L
L0L
(lp3440
(lp3441
tp3442
a(L1298905564L
L0L
(lp3443
(lp3444
tp3445
a(L46269790L
L3785322319L
(lp3446
(lp3447
Vrtc_clk_wait_for_slow_cycle
p3448
atp3449
a(L1611366957L
L0L
(lp3450
(lp3451
tp3452
a(L1611366988L
L0L
(lp3453
(lp3454
tp3455
a(L94425498L
L3785322319L
(lp3456
(lp3457
Vabort
p3458
atp3459
atp3460
sI1074269124
(Vbootloader_random_enable
p3461
(lp3462
(L1578364810L
L0L
(lp3463
(lp3464
tp3465
atp3466
sI1074269892
(Vbootloader_enable_random
p3467
(lp3468
(L1278562623L
L1880226080L
(lp3469
(lp3470
Vesp_log_early_timestamp
p3471
aVbootloader_random_enable
p3472
atp3473
atp3474
sI1074244552
(Vmmu_hal_init
p3475
(lp3476
(L1381828061L
L0L
(lp3477
(lp3478
tp3479
a(L2010554219L
L0L
(lp3480
(lp3481
tp3482
a(L3268103L
L0L
(lp3483
(lp3484
tp3485
a(L3212334523L
L0L
(lp3486
(lp3487
tp3488
a(L2010554219L
L0L
(lp3489
(lp3490
tp3491
a(L3360570486L
L0L
(lp3492
(lp3493
tp3494
atp3495
sI1074245832
(Vrtc_clk_cpu_freq_to_xtal
p3496
(lp3497
(L2382625401L
L0L
(lp3498
(lp3499
tp3500
a(L94425498L
L3785322319L
(lp3501
(lp3502
Vabort
p3503
atp3504
a(L2975556993L
L3785322319L
(lp3505
(lp3506
Vrtc_clk_apb_freq_update
p3507
atp3508
a(L2258867232L
L0L
(lp3509
(lp3510
tp3511
a(L362206021L
L0L
(lp3512
(lp3513
tp3514
atp3515
sI1074236628
(Vesp_rom_uart_set_clock_baudrate
p3516
(lp3517
(L2889646162L
L0L
(lp3518
(lp3519
tp3520
a(L2316512566L
L0L
(lp3521
(lp3522
tp3523
a(L2805931268L
L0L
(lp3524
(lp3525
tp3526
a(L2901979283L
L0L
(lp3527
(lp3528
tp3529
atp3530
sI1074237396
(Vbootloader_mmap
p3531
(lp3532
(L3624397292L
L0L
(lp3533
(lp3534
tp3535
a(L3762918116L
L3785322319L
(lp3536
(lp3537
Vesp_log_early_timestamp
p3538
atp3539
a(L3871473710L
L0L
(lp3540
(lp3541
tp3542
a(L3729184599L
L0L
(lp3543
(lp3544
tp3545
a(L3066168078L
L3785322319L
(lp3546
(lp3547
Vesp_log_early_timestamp
p3548
atp3549
a(L1864365708L
L0L
(lp3550
(lp3551
tp3552
a(L2872111263L
L3785322319L
(lp3553
(lp3554
Vesp_log_early_timestamp
p3555
atp3556
a(L258722864L
L0L
(lp3557
(lp3558
tp3559
a(L3746164654L
L3785322319L
(lp3560
(lp3561
Vesp_log_early_timestamp
p3562
atp3563
a(L2535155408L
L0L
(lp3564
(lp3565
tp3566
atp3567
sI1074247124
(Vrtc_clk_cal_ratio
p3568
(lp3569
(L1201925337L
L3785322319L
(lp3570
(lp3571
Vrtc_clk_cal_internal
p3572
atp3573
atp3574
sI1074245072
(Vrtc_clk_8m_enable
p3575
(lp3576
(L1843101924L
L0L
(lp3577
(lp3578
tp3579
a(L3147299128L
L0L
(lp3580
(lp3581
tp3582
a(L2151320156L
L0L
(lp3583
(lp3584
tp3585
a(L711175840L
L0L
(lp3586
(lp3587
tp3588
a(L3360570486L
L0L
(lp3589
(lp3590
tp3591
a(L1318267208L
L0L
(lp3592
(lp3593
tp3594
a(L512411289L
L0L
(lp3595
(lp3596
tp3597
atp3598
sI1074235600
(Vbootloader_read_flash_id
p3599
(lp3600
(L549578328L
L3785322319L
(lp3601
(lp3602
Vbootloader_execute_flash_command
p3603
atp3604
atp3605
sI1074270672
(Vrtc_vddsdio_get_config
p3606
(lp3607
(L1424863558L
L0L
(lp3608
(lp3609
tp3610
a(L3421108135L
L0L
(lp3611
(lp3612
tp3613
a(L3002774692L
L0L
(lp3614
(lp3615
tp3616
a(L253680180L
L0L
(lp3617
(lp3618
tp3619
a(L2961852087L
L0L
(lp3620
(lp3621
tp3622
a(L2194851786L
L0L
(lp3623
(lp3624
tp3625
a(L1306330959L
L0L
(lp3626
(lp3627
tp3628
a(L1997193082L
L0L
(lp3629
(lp3630
tp3631
atp3632
sI1074241244
(Vbootloader_util_regions_overlap
p3633
(lp3634
(L2762640130L
L0L
(lp3635
(lp3636
tp3637
a(L2198512677L
L0L
(lp3638
(lp3639
tp3640
a(L2217655633L
L3785322319L
(lp3641
(lp3642
V__assert_func
p3643
atp3644
a(L97642L
L0L
(lp3645
(lp3646
tp3647
a(L996187529L
L0L
(lp3648
(lp3649
tp3650
a(L366123053L
L0L
(lp3651
(lp3652
tp3653
a(L2258867228L
L0L
(lp3654
(lp3655
tp3656
a(L1253626734L
L0L
(lp3657
(lp3658
tp3659
a(L2258897019L
L0L
(lp3660
(lp3661
tp3662
a(L3109269495L
L0L
(lp3663
(lp3664
tp3665
atp3666
sI1074268884
(Vbootloader_clock_configure
p3667
(lp3668
(L2559598596L
L1880226080L
(lp3669
(lp3670
Vesp_rom_uart_tx_wait_idle
p3671
aVefuse_hal_chip_revision
p3672
atp3673
a(L4006799969L
L0L
(lp3674
(lp3675
tp3676
a(L883406775L
L0L
(lp3677
(lp3678
tp3679
a(L106L
L0L
(lp3680
(lp3681
tp3682
a(L4161070602L
L1832448559L
(lp3683
(lp3684
Vrtc_clk_slow_src_get
p3685
aVrtc_clk_fast_src_get
p3686
aVrtc_clk_init
p3687
atp3688
a(L2587354260L
L0L
(lp3689
(lp3690
tp3691
a(L1108834551L
L3785322319L
(lp3692
(lp3693
Vrtc_clk_apb_freq_get
p3694
atp3695
a(L106L
L0L
(lp3696
(lp3697
tp3698
a(L106L
L0L
(lp3699
(lp3700
tp3701
atp3702
sI1074269652
(Vbootloader_read_bootloader_header
p3703
(lp3704
(L1158061215L
L3785322319L
(lp3705
(lp3706
Vbootloader_flash_read
p3707
atp3708
a(L996487665L
L3785322319L
(lp3709
(lp3710
Vesp_log_early_timestamp
p3711
atp3712
a(L735741265L
L0L
(lp3713
(lp3714
tp3715
atp3716
sI1074236900
(Vesp_log_early_timestamp
p3717
(lp3718
(L3733265409L
L0L
(lp3719
(lp3720
tp3721
atp3722
sI1074237924
(Vbootloader_flash_erase_sector
p3723
(lp3724
(L4129137686L
L1880226080L
(lp3725
(lp3726
Vesp_rom_spiflash_erase_sector
p3727
aVspi_to_esp_err
p3728
atp3729
atp3730
sI1074236384
(Vbootloader_flash_dummy_config
p3731
(lp3732
(L262000646L
L0L
(lp3733
(lp3734
tp3735
a(L2761717557L
L0L
(lp3736
(lp3737
tp3738
a(L1849044936L
L0L
(lp3739
(lp3740
tp3741
a(L708753936L
L0L
(lp3742
(lp3743
tp3744
a(L1010450057L
L0L
(lp3745
(lp3746
tp3747
a(L3020204L
L0L
(lp3748
(lp3749
tp3750
a(L1610443405L
L0L
(lp3751
(lp3752
tp3753
a(L4032120524L
L0L
(lp3754
(lp3755
tp3756
a(L2336993863L
L0L
(lp3757
(lp3758
tp3759
a(L1298875775L
L0L
(lp3760
(lp3761
tp3762
a(L3880393601L
L0L
(lp3763
(lp3764
tp3765
a(L3328946209L
L0L
(lp3766
(lp3767
tp3768
a(L1610443436L
L0L
(lp3769
(lp3770
tp3771
atp3772
sI1074269920
(Vbootloader_print_banner
p3773
(lp3774
(L137307312L
L1880226080L
(lp3775
(lp3776
Vesp_log_early_timestamp
p3777
aVesp_log_early_timestamp
p3778
atp3779
atp3780
sI1074247404
(Vesp_rom_spiflash_wait_idle
p3781
(lp3782
(L3233077286L
L0L
(lp3783
(lp3784
tp3785
a(L2023766174L
L0L
(lp3786
(lp3787
tp3788
a(L2805935267L
L0L
(lp3789
(lp3790
tp3791
a(L3086959262L
L0L
(lp3792
(lp3793
tp3794
a(L4161019926L
L3785322319L
(lp3795
(lp3796
Vesp_rom_spiflash_read_status
p3797
atp3798
atp3799
sI1074237672
(Vbootloader_flash_read
p3800
(lp3801
(L728393898L
L0L
(lp3802
(lp3803
tp3804
a(L1489400095L
L3785322319L
(lp3805
(lp3806
Vesp_log_early_timestamp
p3807
atp3808
a(L1941789336L
L0L
(lp3809
(lp3810
tp3811
a(L3360570486L
L0L
(lp3812
(lp3813
tp3814
a(L2660352519L
L0L
(lp3815
(lp3816
tp3817
a(L1179571938L
L3785322319L
(lp3818
(lp3819
Vesp_log_early_timestamp
p3820
atp3821
a(L162336582L
L0L
(lp3822
(lp3823
tp3824
a(L814874711L
L3785322319L
(lp3825
(lp3826
Vesp_log_early_timestamp
p3827
atp3828
a(L3020204L
L0L
(lp3829
(lp3830
tp3831
a(L3893043951L
L0L
(lp3832
(lp3833
tp3834
a(L97422L
L0L
(lp3835
(lp3836
tp3837
a(L1190291857L
L0L
(lp3838
(lp3839
tp3840
a(L2961856275L
L0L
(lp3841
(lp3842
tp3843
a(L2859434406L
L3785322319L
(lp3844
(lp3845
V__assert_func
p3846
atp3847
a(L1539897528L
L0L
(lp3848
(lp3849
tp3850
a(L1915165223L
L0L
(lp3851
(lp3852
tp3853
a(L1336007148L
L1880226080L
(lp3854
(lp3855
Vesp_rom_spiflash_read
p3856
aVspi_to_esp_err
p3857
atp3858
atp3859
sI1074245620
(Vrtc_clk_cpu_freq_get_config
p3860
(lp3861
(L3852097526L
L0L
(lp3862
(lp3863
tp3864
a(L3020187L
L0L
(lp3865
(lp3866
tp3867
a(L3020187L
L0L
(lp3868
(lp3869
tp3870
a(L1339883774L
L3785322319L
(lp3871
(lp3872
Vrtc_clk_xtal_freq_get
p3873
atp3874
a(L3789795478L
L0L
(lp3875
(lp3876
tp3877
a(L1876772334L
L1880226080L
(lp3878
(lp3879
Vesp_log_early_timestamp
p3880
aVabort
p3881
atp3882
a(L3035450075L
L0L
(lp3883
(lp3884
tp3885
a(L3020187L
L0L
(lp3886
(lp3887
tp3888
a(L3028481L
L0L
(lp3889
(lp3890
tp3891
a(L38508693L
L0L
(lp3892
(lp3893
tp3894
a(L187152368L
L0L
(lp3895
(lp3896
tp3897
a(L1161083655L
L0L
(lp3898
(lp3899
tp3900
a(L1395485899L
L0L
(lp3901
(lp3902
tp3903
a(L2070600034L
L0L
(lp3904
(lp3905
tp3906
atp3907
sI1074246644
(Vrtc_clk_apb_freq_get
p3908
(lp3909
(L3268507198L
L0L
(lp3910
(lp3911
tp3912
atp3913
sI1074247156
(Vrtc_clk_wait_for_slow_cycle
p3914
(lp3915
(L57851970L
L0L
(lp3916
(lp3917
tp3918
a(L287687718L
L0L
(lp3919
(lp3920
tp3921
a(L3360570486L
L0L
(lp3922
(lp3923
tp3924
a(L2237399032L
L0L
(lp3925
(lp3926
tp3927
a(L2994547433L
L0L
(lp3928
(lp3929
tp3930
a(L2206597745L
L0L
(lp3931
(lp3932
tp3933
a(L788148307L
L3785322319L
(lp3934
(lp3935
Vesp_log_early_timestamp
p3936
atp3937
atp3938
sI1074238192
(Vbootloader_random_disable
p3939
(lp3940
(L2825582328L
L0L
(lp3941
(lp3942
tp3943
atp3944
sI1074241788
(Vshould_load
p3945
(lp3946
(L1379502686L
L0L
(lp3947
(lp3948
tp3949
a(L1182990556L
L0L
(lp3950
(lp3951
tp3952
a(L1188500889L
L0L
(lp3953
(lp3954
tp3955
a(L2306467100L
L0L
(lp3956
(lp3957
tp3958
a(L524505062L
L0L
(lp3959
(lp3960
tp3961
a(L2258897019L
L0L
(lp3962
(lp3963
tp3964
a(L3781799363L
L0L
(lp3965
(lp3966
tp3967
a(L3028464L
L0L
(lp3968
(lp3969
tp3970
a(L2219325068L
L0L
(lp3971
(lp3972
tp3973
a(L4277114872L
L0L
(lp3974
(lp3975
tp3976
a(L2824381917L
L0L
(lp3977
(lp3978
tp3979
a(L1243412227L
L0L
(lp3980
(lp3981
tp3982
a(L2011157548L
L0L
(lp3983
(lp3984
tp3985
a(L3126521138L
L0L
(lp3986
(lp3987
tp3988
a(L1305407438L
L0L
(lp3989
(lp3990
tp3991
a(L1305407469L
L0L
(lp3992
(lp3993
tp3994
atp3995
sI1074237944
(Vbootloader_flash_write
p3996
(lp3997
(L3770380603L
L0L
(lp3998
(lp3999
tp4000
a(L2615366646L
L3785322319L
(lp4001
(lp4002
Vesp_log_early_timestamp
p4003
atp4004
a(L3833270346L
L0L
(lp4005
(lp4006
tp4007
a(L1610445075L
L0L
(lp4008
(lp4009
tp4010
a(L735741265L
L0L
(lp4011
(lp4012
tp4013
a(L3291333414L
L0L
(lp4014
(lp4015
tp4016
a(L1873007406L
L3785322319L
(lp4017
(lp4018
Vesp_log_early_timestamp
p4019
atp4020
a(L3283691850L
L0L
(lp4021
(lp4022
tp4023
a(L2141475974L
L3785322319L
(lp4024
(lp4025
Vesp_log_early_timestamp
p4026
atp4027
a(L3212356251L
L3785322319L
(lp4028
(lp4029
Vbootloader_flash_unlock
p4030
atp4031
a(L1799218633L
L0L
(lp4032
(lp4033
tp4034
a(L94425498L
L3785322319L
(lp4035
(lp4036
Vesp_rom_spiflash_write_encrypted
p4037
atp4038
a(L2927190544L
L3785322319L
(lp4039
(lp4040
Vspi_to_esp_err
p4041
atp4042
a(L2927190544L
L3785322319L
(lp4043
(lp4044
Vesp_rom_spiflash_write
p4045
atp4046
atp4047
sI1074244600
(Vefuse_hal_get_rated_freq_mhz
p4048
(lp4049
(L3936657855L
L0L
(lp4050
(lp4051
tp4052
a(L3671388797L
L0L
(lp4053
(lp4054
tp4055
a(L3360570486L
L0L
(lp4056
(lp4057
tp4058
atp4059
sI1074245368
(Vrtc_clk_slow_src_get
p4060
(lp4061
(L376617603L
L3785322319L
(lp4062
(lp4063
Vclk_ll_rtc_slow_get_src
p4064
atp4065
atp4066
ssS'functionsdups'
p4067
g11
((lp4068
tp4069
Rp4070
sS'immediatedups'
p4071
g11
((lp4072
tp4073
Rp4074
sS'functiondups'
p4075
g11
((lp4076
tp4077
Rp4078
sS'fuzzy'
p4079
(dp4080
L438947497L
I1074245248
sL2170867428L
I1074270236
sL617583950L
I1074236988
sL430153639L
I1074235916
sL3121027072L
I1074270672
sL2082889262L
I1074241696
sL835568324L
I1074246688
sL2919016435L
I1074235256
sL16208487L
I1074234744
sL2319042089L
I1074245380
sL3881399234L
I1074245832
sL2919036513L
I1074238880
sL151789201L
I1074270052
sL2680783959L
I1074235648
sL3512578114L
I1074238728
sL1419132215L
I1074238112
sL2469233929L
I1074240588
sL701833459L
I1074268884
sL720751058L
I1074244804
sL3897252859L
I1074238520
sL1065525808L
I1074236828
sL2327783177L
I1074240880
sL1164839255L
I1074241916
sL2272466760L
I1074245620
sL2117292686L
I1074241300
sL2044047637L
I1074239388
sL1188065553L
I1074237672
sL94556391L
I1074245408
sL3210669721L
I1074245012
sL1332800441L
I1074237220
sL2884218272L
I1074267832
sL1168466927L
I1074268052
sL1345429244L
I1074241052
sL3190020590L
I1074242636
sL2828970830L
I1074239268
sL4160102055L
I1074240064
sL4202185385L
I1074247404
sL1768086576L
I1074236384
sL4171975289L
I1074247704
sL1565254297L
I1074248004
sL1205407754L
I1074240096
sL2191698036L
I1074269764
sL1513350244L
I1074239752
sL1635528231L
I1074244036
sL519424169L
I1074247156
sL1060788199L
I1074245528
sL406720601L
I1074238604
sL737694352L
I1074247512
sL503029138L
I1074247452
sL1616763831L
I1074248092
sL2262558768L
I1074247316
sL424867129L
I1074247840
sL3834155367L
I1074241244
sL2405032630L
I1074267724
sL3338518926L
I1074237396
sL2123938668L
I1074245948
sL3883282432L
I1074241788
sL4173399607L
I1074243152
sL1667054119L
I1074240432
sL206902443L
I1074237944
ssb.