ccopy_reg
_reconstructor
p0
(crizzo
RizzoSignature
p1
c__builtin__
object
p2
Ntp3
Rp4
(dp5
S'formal'
p6
(dp7
L2005196428L
I1074245524
sL1741170115L
I1074238000
sL2087186284L
I1074236412
sL1913647619L
I1074268164
sL3984280162L
I1074244504
sL3746738248L
I1074239392
sL2628804010L
I1074270912
sL4213015302L
I1074243292
sL461860251L
I1074247312
sL286550283L
I1074270056
sL3976424482L
I1074234712
sL552298442L
I1074235280
sL2767810776L
I1074238020
sL2771134728L
I1074240200
sL2326361228L
I1074269768
sL2702580795L
I1074237376
sL2610420647L
I1074268008
sL2896295319L
I1074236900
sL25479346L
I1074240680
sL438696979L
I1074268136
sL1123431371L
I1074239512
sL1331791455L
I1074245616
sL1674148343L
I1074245672
sL1786019146L
I1074247680
sL4023292303L
I1074237452
sL3256726111L
I1074248008
sL2485902447L
I1074236740
sL723138898L
I1074238180
sL424336643L
I1074267872
sL366218909L
I1074270092
sL368505532L
I1074245948
sL848906711L
I1074248172
sL353716291L
I1074244704
sL1585823442L
I1074244604
sL2518580041L
I1074267844
sL1622896354L
I1074244632
sL3092620558L
I1074235680
sL2521269785L
I1074236980
sL730944497L
I1074239876
sL2189223198L
I1074240440
sL3580313603L
I1074241944
sL2493713350L
I1074245380
sL183144L
I1074238844
sL2930276314L
I1074235832
sL4161584248L
I1074268968
sL4175577751L
I1074244752
sL2723725103L
I1074240876
sL1633709340L
I1074245356
sL2813809866L
I1074236764
sL2366387314L
I1074270760
sL1330922710L
I1074246816
sL1731035566L
I1074236576
sL676927194L
I1074269256
sL244922653L
I1074242812
sL2691843063L
I1074245976
sL3307282855L
I1074238160
sL127813144L
I1074243576
sL2834351222L
I1074244924
sL3065846068L
I1074235580
sL3553146178L
I1074267736
sL2195669076L
I1074245332
sL357647324L
I1074269264
sL3361686224L
I1074269024
sL3042952135L
I1074267728
sL3721992006L
I1074240892
sL1160735408L
I1074242072
sL1662035087L
I1074268232
sL3041505513L
I1074237484
sL4038945309L
I1074235632
sL1435968304L
I1074244788
sL4178015136L
I1074247480
sL1992104215L
I1074236872
sL1112935418L
I1074234756
sL4020657674L
I1074246088
sL2931540503L
I1074247624
sL1382567621L
I1074238236
sL105563623L
I1074240512
sL2997001746L
I1074237308
sL59949349L
I1074241140
sL1087228788L
I1074238996
sL76756778L
I1074240972
sL556795273L
I1074267940
sL2819127986L
I1074237032
sL3195929028L
I1074240176
sL3024810484L
I1074270316
sL1481764497L
I1074237012
sL1877634603L
I1074270984
sL2687718384L
I1074243308
sL2789355142L
I1074244188
sL1098683832L
I1074245144
sL3015462521L
I1074238644
sL3066643969L
I1074247280
sL935372552L
I1074268456
sL886840080L
I1074237068
sL2062758462L
I1074236804
sL1347401601L
I1074240532
sL2248158928L
I1074238316
sL660825523L
I1074245204
sL3362774716L
I1074236660
sL3338519854L
I1074245904
sL2195659785L
I1074245552
sL540472814L
I1074247872
sL2263182908L
I1074238228
sL965583188L
I1074245764
sL114336524L
I1074267896
sL282668036L
I1074244536
sL963291061L
I1074248260
sL3630163135L
I1074236888
sL188664287L
I1074235248
sL2743385701L
I1074269752
sL2404540336L
I1074245496
sL2485146564L
I1074240916
sL692536993L
I1074237348
sL822000404L
I1074245632
sL921639684L
I1074235944
sL235684320L
I1074237744
sL3364903294L
I1074247576
sL675504051L
I1074236560
sL1817360290L
I1074241384
sL917018201L
I1074236972
sL237904351L
I1074241328
sL2758712477L
I1074241856
sL309068699L
I1074245084
sL1140246287L
I1074246772
sL2570362575L
I1074238728
sL3958998789L
I1074237692
sL4029637072L
I1074270140
ssS'immediates'
p8
(dp9
sS'formaldups'
p10
c__builtin__
set
p11
((lp12
tp13
Rp14
sS'stringdups'
p15
g11
((lp16
tp17
Rp18
sS'fuzzydups'
p19
g11
((lp20
tp21
Rp22
sS'strings'
p23
(dp24
sS'functions'
p25
(dp26
I1074270984
(Vmpu_hal_set_region_access
p27
(lp28
(L3538356822L
L0L
(lp29
(lp30
tp31
a(L93674324L
L0L
(lp32
(lp33
tp34
a(L2910371777L
L0L
(lp35
(lp36
tp37
a(L3472092938L
L0L
(lp38
(lp39
tp40
a(L3020187L
L0L
(lp41
(lp42
tp43
a(L3360570486L
L0L
(lp44
(lp45
tp46
a(L2258718273L
L0L
(lp47
(lp48
tp49
a(L3446648619L
L0L
(lp50
(lp51
tp52
a(L3739532189L
L0L
(lp53
(lp54
tp55
a(L1300789895L
L0L
(lp56
(lp57
tp58
atp59
sI1074245380
(Vrtc_clk_slow_src_set
p60
(lp61
(L585347011L
L2195759072L
(lp62
(lp63
tp64
a(L3020187L
L0L
(lp65
(lp66
tp67
a(L3028481L
L0L
(lp68
(lp69
tp70
a(L487821223L
L0L
(lp71
(lp72
tp73
a(L4271877108L
L1443213481L
(lp74
(lp75
tp76
a(L1851908495L
L0L
(lp77
(lp78
tp79
a(L1099319264L
L1443213481L
(lp80
(lp81
tp82
a(L3138544334L
L0L
(lp83
(lp84
tp85
a(L94425498L
L3785322319L
(lp86
(lp87
Vabort
p88
atp89
atp90
sI1074240512
(Vbootloader_sha256_start
p91
(lp92
(L1737386262L
L2534110409L
(lp93
(lp94
tp95
atp96
sI1074245632
(Vrtc_clk_xtal_freq_get
p97
(lp98
(L3313072792L
L1443213481L
(lp99
(lp100
tp101
a(L2847936993L
L0L
(lp102
(lp103
tp104
a(L2252934062L
L1443213481L
(lp105
(lp106
tp107
a(L3360570486L
L0L
(lp108
(lp109
tp110
atp111
sI1074247680
(Vesp_rom_spiflash_program_page_internal
p112
(lp113
(L2569069283L
L0L
(lp114
(lp115
tp116
a(L2258688483L
L0L
(lp117
(lp118
tp119
a(L3360570486L
L0L
(lp120
(lp121
tp122
a(L2295540031L
L1443213481L
(lp123
(lp124
tp125
a(L4235661475L
L3785322319L
(lp126
(lp127
Vesp_rom_spiflash_wait_idle
p128
atp129
a(L1299866312L
L0L
(lp130
(lp131
tp132
a(L3212356251L
L3785322319L
(lp133
(lp134
Vesp_rom_spiflash_enable_write
p135
atp136
a(L1834262847L
L2195759072L
(lp137
(lp138
tp139
a(L633937013L
L1443213481L
(lp140
(lp141
tp142
a(L2953702749L
L0L
(lp143
(lp144
tp145
a(L2989032L
L0L
(lp146
(lp147
tp148
a(L1965622133L
L0L
(lp149
(lp150
tp151
a(L809386272L
L2195759072L
(lp152
(lp153
tp154
a(L1958113242L
L0L
(lp155
(lp156
tp157
a(L106L
L0L
(lp158
(lp159
tp160
a(L3112950080L
L0L
(lp161
(lp162
tp163
a(L1868606439L
L0L
(lp164
(lp165
tp166
a(L147213506L
L1443213481L
(lp167
(lp168
tp169
a(L1933954923L
L0L
(lp170
(lp171
tp172
a(L1147866918L
L0L
(lp173
(lp174
tp175
a(L3871602522L
L0L
(lp176
(lp177
tp178
atp179
sI1074267136
(V_init
p180
(lp181
(L3493042598L
L0L
(lp182
(lp183
tp184
atp185
sI1074237452
(Vspi_to_esp_err
p186
(lp187
(L2749733621L
L1443213481L
(lp188
(lp189
tp190
a(L1872507229L
L1443213481L
(lp191
(lp192
tp193
a(L3952441574L
L0L
(lp194
(lp195
tp196
a(L3126521138L
L0L
(lp197
(lp198
tp199
atp200
sI1074268164
(Vbootloader_print_banner
p201
(lp202
(L3569996224L
L1385564105L
(lp203
(lp204
Vesp_bootloader_get_description
p205
aVesp_log_early_timestamp
p206
aVesp_log_early_timestamp
p207
aVesp_log_early_timestamp
p208
atp209
atp210
sI1074238728
(Vcache_ll_l1_get_bus
p211
(lp212
(L2749735183L
L1443213481L
(lp213
(lp214
tp215
a(L94425498L
L3785322319L
(lp216
(lp217
Vabort
p218
atp219
a(L1872514061L
L1443213481L
(lp220
(lp221
tp222
a(L3824526338L
L1443213481L
(lp223
(lp224
tp225
a(L892952750L
L0L
(lp226
(lp227
tp228
a(L1182811810L
L0L
(lp229
(lp230
tp231
a(L1101742417L
L0L
(lp232
(lp233
tp234
a(L1100767927L
L0L
(lp235
(lp236
tp237
a(L3360570486L
L0L
(lp238
(lp239
tp240
a(L1872508791L
L1443213481L
(lp241
(lp242
tp243
a(L2882938163L
L0L
(lp244
(lp245
tp246
a(L2927201858L
L0L
(lp247
(lp248
tp249
a(L2258718273L
L0L
(lp250
(lp251
tp252
a(L2580713941L
L0L
(lp253
(lp254
tp255
a(L1872508791L
L1443213481L
(lp256
(lp257
tp258
a(L1872514061L
L1443213481L
(lp259
(lp260
tp261
a(L1641149277L
L0L
(lp262
(lp263
tp264
a(L1872508791L
L1443213481L
(lp265
(lp266
tp267
a(L3027019L
L0L
(lp268
(lp269
tp270
a(L1299866560L
L0L
(lp271
(lp272
tp273
a(L1299866436L
L0L
(lp274
(lp275
tp276
atp277
sI1074240532
(Vbootloader_sha256_data
p278
(lp279
(L4066096136L
L0L
(lp280
(lp281
tp282
a(L1697654611L
L2195759072L
(lp283
(lp284
tp285
a(L2213948952L
L242900614L
(lp286
(lp287
V__assert_func
p288
atp289
a(L498498478L
L0L
(lp290
(lp291
tp292
a(L3590389832L
L1443213481L
(lp293
(lp294
tp295
a(L2910371777L
L0L
(lp296
(lp297
tp298
a(L3360570486L
L0L
(lp299
(lp300
tp301
a(L1087685526L
L2195759072L
(lp302
(lp303
tp304
a(L426633611L
L1443213481L
(lp305
(lp306
tp307
a(L2584057186L
L1443213481L
(lp308
(lp309
tp310
a(L3342433287L
L1443213481L
(lp311
(lp312
tp313
a(L2526675390L
L242900614L
(lp314
(lp315
V__bswapsi2
p316
atp317
a(L942815853L
L2195759072L
(lp318
(lp319
tp320
a(L1872507229L
L1443213481L
(lp321
(lp322
tp323
a(L147213506L
L1443213481L
(lp324
(lp325
tp326
a(L3745004802L
L0L
(lp327
(lp328
tp329
atp330
sI1074238996
(Vload_image
p331
(lp332
(L3963348381L
L473788538L
(lp333
(lp334
Vesp_log_early_timestamp
p335
aVbootloader_random_disable
p336
aVbootloader_ana_clock_glitch_reset_config
p337
atp338
a(L2261049225L
L0L
(lp339
(lp340
tp341
a(L106L
L0L
(lp342
(lp343
tp344
a(L4185838750L
L1624138773L
(lp345
(lp346
Vmmu_hal_unmap_all
p347
aVcache_ll_l1_get_bus
p348
aVcache_ll_l1_enable_bus
p349
aVcache_ll_l1_get_bus
p350
aVcache_ll_l1_enable_bus
p351
aVcache_ll_l1_get_bus
p352
aVcache_ll_l1_enable_bus
p353
aVcache_ll_l1_get_bus
p354
aVcache_ll_l1_enable_bus
p355
aVbootloader_console_deinit
p356
atp357
a(L2843581588L
L1443213481L
(lp358
(lp359
tp360
a(L2902417580L
L0L
(lp361
(lp362
tp363
a(L3421811081L
L362179215L
(lp364
(lp365
Vesp_log_early_timestamp
p366
atp367
a(L2552261596L
L0L
(lp368
(lp369
tp370
a(L670464924L
L2195759072L
(lp371
(lp372
tp373
a(L3020204L
L0L
(lp374
(lp375
tp376
a(L3421811081L
L362179215L
(lp377
(lp378
Vesp_log_early_timestamp
p379
atp380
a(L3291469664L
L0L
(lp381
(lp382
tp383
a(L2591655545L
L0L
(lp384
(lp385
tp386
atp387
sI1074238228
(Vbootloader_mmap_get_free_pages
p388
(lp389
(L1496516875L
L0L
(lp390
(lp391
tp392
atp393
sI1074245904
(Vrtc_clk_xtal_freq_update
p394
(lp395
(L3023525581L
L2195759072L
(lp396
(lp397
tp398
a(L3509357017L
L0L
(lp399
(lp400
tp401
a(L2266180931L
L0L
(lp402
(lp403
tp404
atp405
sI1074238236
(Vbootloader_fill_random
p406
(lp407
(L3377511333L
L2195759072L
(lp408
(lp409
tp410
a(L4033043682L
L4032149094L
(lp411
(lp412
V__assert_func
p413
atp414
a(L1882547218L
L0L
(lp415
(lp416
tp417
a(L2910371777L
L0L
(lp418
(lp419
tp420
a(L95634693L
L0L
(lp421
(lp422
tp423
a(L3630908706L
L0L
(lp424
(lp425
tp426
a(L160162640L
L0L
(lp427
(lp428
tp429
a(L97689L
L0L
(lp430
(lp431
tp432
a(L3360570486L
L0L
(lp433
(lp434
tp435
atp436
sI1074242072
(Vprocess_segments
p437
(lp438
(L1326203493L
L0L
(lp439
(lp440
tp441
a(L1640778736L
L0L
(lp442
(lp443
tp444
a(L3782401745L
L0L
(lp445
(lp446
tp447
a(L106L
L0L
(lp448
(lp449
tp450
a(L3028481L
L0L
(lp451
(lp452
tp453
a(L3014296803L
L3187408090L
(lp454
(lp455
Vesp_log_early_timestamp
p456
atp457
a(L761135359L
L3785322319L
(lp458
(lp459
Vbootloader_flash_read
p460
atp461
a(L3856957476L
L3187408090L
(lp462
(lp463
Vesp_log_early_timestamp
p464
atp465
a(L3871473710L
L0L
(lp466
(lp467
tp468
a(L219417435L
L0L
(lp469
(lp470
tp471
a(L616767314L
L3785322319L
(lp472
(lp473
Vbootloader_sha256_data
p474
atp475
a(L1599301852L
L1443213481L
(lp476
(lp477
tp478
a(L2258837437L
L0L
(lp479
(lp480
tp481
a(L1764156528L
L0L
(lp482
(lp483
tp484
a(L3028481L
L0L
(lp485
(lp486
tp487
a(L2231662647L
L3187408090L
(lp488
(lp489
Vesp_log_early_timestamp
p490
atp491
a(L268651496L
L1443213481L
(lp492
(lp493
tp494
a(L652851030L
L2195759072L
(lp495
(lp496
tp497
a(L3802069243L
L0L
(lp498
(lp499
tp500
a(L3696234693L
L1443213481L
(lp501
(lp502
tp503
a(L2258867228L
L0L
(lp504
(lp505
tp506
a(L2277415887L
L0L
(lp507
(lp508
tp509
a(L3177376558L
L0L
(lp510
(lp511
tp512
a(L3028481L
L0L
(lp513
(lp514
tp515
a(L3861001733L
L3187408090L
(lp516
(lp517
Vesp_log_early_timestamp
p518
atp519
a(L2640606608L
L0L
(lp520
(lp521
tp522
a(L3028481L
L0L
(lp523
(lp524
tp525
a(L3892729576L
L3833084538L
(lp526
(lp527
Vesp_log_early_timestamp
p528
atp529
a(L4033680444L
L404278070L
(lp530
(lp531
tp532
a(L2902417580L
L0L
(lp533
(lp534
tp535
a(L2902417580L
L0L
(lp536
(lp537
tp538
a(L1229952296L
L3785322319L
(lp539
(lp540
Vverify_load_addresses
p541
atp542
a(L3783935185L
L3785322319L
(lp543
(lp544
Vbootloader_mmap_get_free_pages
p545
atp546
a(L3028481L
L0L
(lp547
(lp548
tp549
a(L224879076L
L0L
(lp550
(lp551
tp552
a(L142590671L
L0L
(lp553
(lp554
tp555
a(L3028481L
L0L
(lp556
(lp557
tp558
a(L94425498L
L3785322319L
(lp559
(lp560
Vesp_log_early_timestamp
p561
atp562
a(L1961289970L
L1443213481L
(lp563
(lp564
tp565
a(L4085121624L
L3785322319L
(lp566
(lp567
Vshould_load
p568
atp569
a(L3028481L
L0L
(lp570
(lp571
tp572
a(L1038006420L
L3833084538L
(lp573
(lp574
Vesp_log_early_timestamp
p575
atp576
a(L106L
L0L
(lp577
(lp578
tp579
a(L3815630522L
L0L
(lp580
(lp581
tp582
a(L1646054028L
L3833084538L
(lp583
(lp584
Vesp_log_early_timestamp
p585
atp586
a(L2629678223L
L0L
(lp587
(lp588
tp589
a(L2684012095L
L0L
(lp590
(lp591
tp592
a(L3357777304L
L3785322319L
(lp593
(lp594
Vbootloader_mmap
p595
atp596
a(L3911420474L
L3187408090L
(lp597
(lp598
Vesp_log_early_timestamp
p599
atp600
a(L1698460186L
L0L
(lp601
(lp602
tp603
a(L3264682310L
L1443213481L
(lp604
(lp605
tp606
a(L4016429890L
L242900614L
(lp607
(lp608
Vmemcpy
p609
atp610
a(L1595421496L
L3785322319L
(lp611
(lp612
Vbootloader_munmap
p613
atp614
a(L2757579158L
L0L
(lp615
(lp616
tp617
a(L605525844L
L242900614L
(lp618
(lp619
Vbootloader_fill_random
p620
atp621
a(L3616854679L
L1443213481L
(lp622
(lp623
tp624
a(L3616854679L
L1443213481L
(lp625
(lp626
tp627
a(L3450268858L
L0L
(lp628
(lp629
tp630
a(L3021749L
L0L
(lp631
(lp632
tp633
a(L322434465L
L0L
(lp634
(lp635
tp636
a(L2494883302L
L0L
(lp637
(lp638
tp639
a(L2902417580L
L0L
(lp640
(lp641
tp642
a(L2213415704L
L1443213481L
(lp643
(lp644
tp645
a(L193456747L
L1443213481L
(lp646
(lp647
tp648
a(L1426980959L
L0L
(lp649
(lp650
tp651
a(L1841482652L
L0L
(lp652
(lp653
tp654
a(L653501462L
L0L
(lp655
(lp656
tp657
a(L3310548426L
L3785322319L
(lp658
(lp659
Vbootloader_sha256_data
p660
atp661
a(L90548756L
L0L
(lp662
(lp663
tp664
a(L1702191967L
L1443213481L
(lp665
(lp666
tp667
a(L2364005371L
L0L
(lp668
(lp669
tp670
atp671
sI1074239512
(Vbootloader_utility_load_partition_table
p672
(lp673
(L3401680957L
L3833084538L
(lp674
(lp675
Vbootloader_mmap
p676
atp677
a(L3861134865L
L2147981551L
(lp678
(lp679
Vesp_log_early_timestamp
p680
atp681
a(L2258688482L
L0L
(lp682
(lp683
tp684
a(L3360570486L
L0L
(lp685
(lp686
tp687
a(L2379286607L
L3785322319L
(lp688
(lp689
Vesp_partition_table_verify
p690
atp691
a(L2695471221L
L2147981551L
(lp692
(lp693
Vesp_log_early_timestamp
p694
atp695
a(L2693125842L
L403192672L
(lp696
(lp697
Vesp_log_early_timestamp
p698
aVesp_log_early_timestamp
p699
atp700
a(L650140130L
L0L
(lp701
(lp702
tp703
a(L2163909172L
L2801279232L
(lp704
(lp705
Vbootloader_munmap
p706
aVesp_log_early_timestamp
p707
atp708
a(L521126897L
L0L
(lp709
(lp710
tp711
a(L3028464L
L0L
(lp712
(lp713
tp714
a(L106L
L0L
(lp715
(lp716
tp717
a(L147213506L
L1443213481L
(lp718
(lp719
tp720
a(L2919580219L
L2147981551L
(lp721
(lp722
Vesp_log_early_timestamp
p723
atp724
a(L3990577774L
L0L
(lp725
(lp726
tp727
a(L3020187L
L0L
(lp728
(lp729
tp730
a(L3201555411L
L1443213481L
(lp731
(lp732
tp733
a(L1843602828L
L1443213481L
(lp734
(lp735
tp736
a(L326114897L
L1443213481L
(lp737
(lp738
tp739
a(L2487812812L
L1443213481L
(lp740
(lp741
tp742
a(L3478727216L
L1443213481L
(lp743
(lp744
tp745
a(L106L
L0L
(lp746
(lp747
tp748
a(L93674324L
L0L
(lp749
(lp750
tp751
a(L1872515523L
L1443213481L
(lp752
(lp753
tp754
a(L1215408024L
L1443213481L
(lp755
(lp756
tp757
a(L1872515506L
L1443213481L
(lp758
(lp759
tp760
a(L106L
L0L
(lp761
(lp762
tp763
a(L1872515506L
L1443213481L
(lp764
(lp765
tp766
a(L106L
L0L
(lp767
(lp768
tp769
a(L268651496L
L1443213481L
(lp770
(lp771
tp772
atp773
sI1074244632
(Vwdt_hal_enable
p774
(lp775
(L2299130915L
L0L
(lp776
(lp777
tp778
a(L165794138L
L0L
(lp779
(lp780
tp781
a(L3360570486L
L0L
(lp782
(lp783
tp784
a(L2847657174L
L0L
(lp785
(lp786
tp787
atp788
sI1074245144
(Vrtc_clk_32k_enable
p789
(lp790
(L753387299L
L0L
(lp791
(lp792
tp793
a(L3776007933L
L3785322319L
(lp794
(lp795
Vrtc_clk_32k_enable_common
p796
atp797
a(L3496950L
L0L
(lp798
(lp799
tp800
a(L707626330L
L2534110409L
(lp801
(lp802
tp803
atp804
sI1074268456
(Vbootloader_init
p805
(lp806
(L2778985116L
L362179215L
(lp807
(lp808
Vbootloader_init_mem
p809
atp810
a(L2588916198L
L2195759072L
(lp811
(lp812
tp813
a(L2569579240L
L242900614L
(lp814
(lp815
V__assert_func
p816
atp817
a(L2041988382L
L2534110409L
(lp818
(lp819
tp820
a(L2946990947L
L2195759072L
(lp821
(lp822
tp823
a(L3813782018L
L0L
(lp824
(lp825
tp826
a(L2946991009L
L2195759072L
(lp827
(lp828
tp829
a(L3027019L
L0L
(lp830
(lp831
tp832
a(L2946991040L
L2195759072L
(lp833
(lp834
tp835
a(L4055793689L
L1832448559L
(lp836
(lp837
Vbootloader_clear_bss_section
p838
aVbootloader_common_vddsdio_configure
p839
aVbootloader_clock_get_rated_freq_mhz
p840
atp841
a(L106L
L0L
(lp842
(lp843
tp844
a(L1943573098L
L2769615034L
(lp845
(lp846
Vbootloader_clock_configure
p847
aVbootloader_console_init
p848
aV__wrap_bootloader_print_banner
p849
aVbootloader_flash_update_id
p850
aVbootloader_flash_xmc_startup
p851
atp852
a(L3014296803L
L3187408090L
(lp853
(lp854
Vesp_log_early_timestamp
p855
atp856
a(L4245842452L
L3187408090L
(lp857
(lp858
Vesp_log_early_timestamp
p859
atp860
a(L3360570486L
L0L
(lp861
(lp862
tp863
a(L2444883382L
L3785322319L
(lp864
(lp865
Vbootloader_read_bootloader_header
p866
atp867
a(L2444883382L
L3785322319L
(lp868
(lp869
Vbootloader_check_bootloader_validity
p870
atp871
a(L2444883382L
L3785322319L
(lp872
(lp873
Vbootloader_init_spi_flash
p874
atp875
a(L1947007263L
L2195759072L
(lp876
(lp877
tp878
a(L254817508L
L0L
(lp879
(lp880
tp881
a(L93892250L
L0L
(lp882
(lp883
tp884
a(L2915015718L
L0L
(lp885
(lp886
tp887
a(L1460895057L
L2218577417L
(lp888
(lp889
Vbootloader_config_wdt
p890
aVbootloader_enable_random
p891
atp892
a(L1895147938L
L0L
(lp893
(lp894
tp895
a(L2680457259L
L0L
(lp896
(lp897
tp898
a(L3027019L
L0L
(lp899
(lp900
tp901
a(L97315L
L0L
(lp902
(lp903
tp904
a(L3014296803L
L3187408090L
(lp905
(lp906
Vesp_log_early_timestamp
p907
atp908
a(L1766563386L
L3187408090L
(lp909
(lp910
Vesp_log_early_timestamp
p911
atp912
a(L3164960223L
L0L
(lp913
(lp914
tp915
a(L1895147938L
L0L
(lp916
(lp917
tp918
a(L156585483L
L1880226080L
(lp919
(lp920
Vwdt_reset_info_dump
p921
aVwdt_reset_info_dump
p922
atp923
atp924
sI1074268968
(Vbootloader_common_vddsdio_configure
p925
(lp926
(L1829974089L
L3785322319L
(lp927
(lp928
Vrtc_vddsdio_get_config
p929
atp930
a(L351649043L
L3833084538L
(lp931
(lp932
Vrtc_vddsdio_set_config
p933
atp934
a(L3360570486L
L0L
(lp935
(lp936
tp937
atp938
sI1074270760
(Vrtc_vddsdio_get_config
p939
(lp940
(L3097658956L
L1443213481L
(lp941
(lp942
tp943
a(L1750635626L
L0L
(lp944
(lp945
tp946
a(L3193418487L
L0L
(lp947
(lp948
tp949
a(L3511111289L
L1443213481L
(lp950
(lp951
tp952
a(L115635292L
L0L
(lp953
(lp954
tp955
a(L896053863L
L0L
(lp956
(lp957
tp958
a(L1306330959L
L0L
(lp959
(lp960
tp961
a(L1783408782L
L1443213481L
(lp962
(lp963
tp964
atp965
sI1074235680
(Vbootloader_flash_xmc_startup
p966
(lp967
(L3433652179L
L242900614L
(lp968
(lp969
Vis_xmc_chip_strict
p970
atp971
a(L2258688482L
L0L
(lp972
(lp973
tp974
a(L3360570486L
L0L
(lp975
(lp976
tp977
a(L2860324232L
L3785322319L
(lp978
(lp979
Vbootloader_flash_read_sfdp
p980
atp981
a(L933155447L
L3609046414L
(lp982
(lp983
Vesp_log_early_timestamp
p984
aVbootloader_execute_flash_command
p985
aVbootloader_execute_flash_command
p986
aVbootloader_execute_flash_command
p987
aVbootloader_execute_flash_command
p988
aVbootloader_read_flash_id
p989
aVis_xmc_chip_strict
p990
atp991
a(L1000132677L
L3187408090L
(lp992
(lp993
Vesp_log_early_timestamp
p994
atp995
atp996
sI1074236972
(Vefuse_hal_get_disable_wafer_version_major
p997
(lp998
(L4194175088L
L0L
(lp999
(lp1000
tp1001
atp1002
sI1074237484
(Vbootloader_mmap
p1003
(lp1004
(L3007611739L
L2195759072L
(lp1005
(lp1006
tp1007
a(L1328961945L
L2147981551L
(lp1008
(lp1009
Vesp_log_early_timestamp
p1010
atp1011
a(L1596194698L
L1443213481L
(lp1012
(lp1013
tp1014
a(L3729184599L
L0L
(lp1015
(lp1016
tp1017
a(L4163264550L
L3187408090L
(lp1018
(lp1019
Vesp_log_early_timestamp
p1020
atp1021
a(L2258688482L
L0L
(lp1022
(lp1023
tp1024
a(L3360570486L
L0L
(lp1025
(lp1026
tp1027
a(L3419814624L
L1443213481L
(lp1028
(lp1029
tp1030
a(L1441818867L
L1690040256L
(lp1031
(lp1032
tp1033
a(L3433564204L
L362179215L
(lp1034
(lp1035
Vesp_log_early_timestamp
p1036
atp1037
a(L2543114737L
L2147981551L
(lp1038
(lp1039
Vesp_log_early_timestamp
p1040
atp1041
a(L1137490703L
L2195759072L
(lp1042
(lp1043
tp1044
atp1045
sI1074267940
(Vbootloader_check_bootloader_validity
p1046
(lp1047
(L2945382592L
L1069700966L
(lp1048
(lp1049
Vefuse_hal_chip_revision
p1050
aVesp_log_early_timestamp
p1051
aVbootloader_common_check_chip_validity
p1052
atp1053
atp1054
sI1074235944
(Vbootloader_flash_gpio_config
p1055
(lp1056
(L3362256192L
L3785322319L
(lp1057
(lp1058
Vbootloader_common_get_chip_ver_pkg
p1059
atp1060
a(L106L
L0L
(lp1061
(lp1062
tp1063
a(L1998579353L
L0L
(lp1064
(lp1065
tp1066
a(L106L
L0L
(lp1067
(lp1068
tp1069
a(L1839763068L
L1443213481L
(lp1070
(lp1071
tp1072
a(L2440320488L
L1396946377L
(lp1073
(lp1074
tp1075
a(L106L
L0L
(lp1076
(lp1077
tp1078
a(L4003626558L
L0L
(lp1079
(lp1080
tp1081
a(L2164907201L
L2534110409L
(lp1082
(lp1083
tp1084
a(L3360570486L
L0L
(lp1085
(lp1086
tp1087
atp1088
sI1074245672
(Vrtc_clk_cpu_freq_mhz_to_config
p1089
(lp1090
(L908718885L
L3785322319L
(lp1091
(lp1092
Vrtc_clk_xtal_freq_get
p1093
atp1094
a(L60460069L
L0L
(lp1095
(lp1096
tp1097
a(L3802072124L
L0L
(lp1098
(lp1099
tp1100
a(L3159006042L
L0L
(lp1101
(lp1102
tp1103
a(L3360570486L
L0L
(lp1104
(lp1105
tp1106
a(L895147205L
L0L
(lp1107
(lp1108
tp1109
a(L3970036657L
L0L
(lp1110
(lp1111
tp1112
a(L2731353429L
L0L
(lp1113
(lp1114
tp1115
a(L1555485793L
L0L
(lp1116
(lp1117
tp1118
a(L2258897023L
L0L
(lp1119
(lp1120
tp1121
a(L1947499251L
L0L
(lp1122
(lp1123
tp1124
a(L1306331021L
L0L
(lp1125
(lp1126
tp1127
atp1128
sI1074269752
(Vbootloader_flash_update_id
p1129
(lp1130
(L296988142L
L3833084538L
(lp1131
(lp1132
Vbootloader_read_flash_id
p1133
atp1134
atp1135
sI1074236980
(Vesp_log_early_timestamp
p1136
(lp1137
(L4015029253L
L1443213481L
(lp1138
(lp1139
tp1140
atp1141
sI1074249012
(V_fini
p1142
(lp1143
(L3493042598L
L0L
(lp1144
(lp1145
tp1146
atp1147
sI1074241328
(Vbootloader_util_regions_overlap
p1148
(lp1149
(L2762640130L
L0L
(lp1150
(lp1151
tp1152
a(L1697654632L
L2195759072L
(lp1153
(lp1154
tp1155
a(L2213948952L
L242900614L
(lp1156
(lp1157
V__assert_func
p1158
atp1159
a(L97642L
L0L
(lp1160
(lp1161
tp1162
a(L1087686177L
L2195759072L
(lp1163
(lp1164
tp1165
a(L366123053L
L0L
(lp1166
(lp1167
tp1168
a(L2258867228L
L0L
(lp1169
(lp1170
tp1171
a(L1253626734L
L0L
(lp1172
(lp1173
tp1174
a(L2258897019L
L0L
(lp1175
(lp1176
tp1177
a(L3109269495L
L0L
(lp1178
(lp1179
tp1180
atp1181
sI1074238000
(Vbootloader_flash_erase_sector
p1182
(lp1183
(L4129137686L
L1880226080L
(lp1184
(lp1185
Vesp_rom_spiflash_erase_sector
p1186
aVspi_to_esp_err
p1187
atp1188
atp1189
sI1074237744
(Vbootloader_flash_read
p1190
(lp1191
(L3022618172L
L0L
(lp1192
(lp1193
tp1194
a(L2493247481L
L2147981551L
(lp1195
(lp1196
Vesp_log_early_timestamp
p1197
atp1198
a(L852987398L
L1443213481L
(lp1199
(lp1200
tp1201
a(L1351513776L
L0L
(lp1202
(lp1203
tp1204
a(L1486740491L
L0L
(lp1205
(lp1206
tp1207
a(L4276228047L
L2147981551L
(lp1208
(lp1209
Vesp_log_early_timestamp
p1210
atp1211
a(L3283691850L
L0L
(lp1212
(lp1213
tp1214
a(L4276228016L
L2147981551L
(lp1215
(lp1216
Vesp_log_early_timestamp
p1217
atp1218
a(L3020204L
L0L
(lp1219
(lp1220
tp1221
a(L384130671L
L0L
(lp1222
(lp1223
tp1224
a(L97422L
L0L
(lp1225
(lp1226
tp1227
a(L515889772L
L2195759072L
(lp1228
(lp1229
tp1230
a(L3321969934L
L1690040256L
(lp1231
(lp1232
tp1233
a(L279744554L
L4032149094L
(lp1234
(lp1235
V__assert_func
p1236
atp1237
a(L4071371888L
L2534110409L
(lp1238
(lp1239
tp1240
a(L2438181396L
L1443213481L
(lp1241
(lp1242
tp1243
a(L1976506429L
L3635241909L
(lp1244
(lp1245
Vesp_rom_spiflash_read
p1246
aVspi_to_esp_err
p1247
atp1248
atp1249
sI1074244924
(Vrtc_clk_cpu_freq_to_pll_mhz
p1250
(lp1251
(L3231135830L
L0L
(lp1252
(lp1253
tp1254
a(L2102627717L
L2195759072L
(lp1255
(lp1256
tp1257
a(L2982280123L
L3380333161L
(lp1258
(lp1259
Vesp_rom_set_cpu_ticks_per_us
p1260
aVrtc_clk_wait_for_slow_cycle
p1261
atp1262
a(L708686908L
L1443213481L
(lp1263
(lp1264
tp1265
a(L3284807114L
L0L
(lp1266
(lp1267
tp1268
a(L94425498L
L3785322319L
(lp1269
(lp1270
Vabort
p1271
atp1272
a(L2258897019L
L0L
(lp1273
(lp1274
tp1275
a(L1113742378L
L0L
(lp1276
(lp1277
tp1278
a(L1306330990L
L0L
(lp1279
(lp1280
tp1281
atp1282
sI1074245948
(Vrtc_clk_apb_freq_update
p1283
(lp1284
(L3982322780L
L1443213481L
(lp1285
(lp1286
tp1287
atp1288
sI1074247480
(Vesp_rom_spiflash_read_status
p1289
(lp1290
(L3588638125L
L1443213481L
(lp1291
(lp1292
tp1293
a(L4250092034L
L2534110409L
(lp1294
(lp1295
tp1296
a(L4159619641L
L0L
(lp1297
(lp1298
tp1299
a(L2392720019L
L0L
(lp1300
(lp1301
tp1302
a(L2258688487L
L0L
(lp1303
(lp1304
tp1305
a(L4159619145L
L0L
(lp1306
(lp1307
tp1308
a(L3241763332L
L1443213481L
(lp1309
(lp1310
tp1311
a(L3117156279L
L0L
(lp1312
(lp1313
tp1314
a(L2123059967L
L0L
(lp1315
(lp1316
tp1317
a(L582177370L
L0L
(lp1318
(lp1319
tp1320
atp1321
sI1074268232
(Vwdt_reset_info_dump
p1322
(lp1323
(L4037458708L
L0L
(lp1324
(lp1325
tp1326
a(L2865144428L
L4200222560L
(lp1327
(lp1328
tp1329
a(L217258670L
L0L
(lp1330
(lp1331
tp1332
a(L1103285333L
L0L
(lp1333
(lp1334
tp1335
a(L3750088731L
L2147981551L
(lp1336
(lp1337
Vesp_log_early_timestamp
p1338
atp1339
a(L3245125974L
L1443213481L
(lp1340
(lp1341
tp1342
a(L2920131454L
L4200222560L
(lp1343
(lp1344
tp1345
a(L3355528239L
L2147981551L
(lp1346
(lp1347
Vesp_log_early_timestamp
p1348
atp1349
atp1350
sI1074269256
(Vbootloader_init_mem
p1351
(lp1352
(L1287383080L
L3785322319L
(lp1353
(lp1354
Vesp_cpu_configure_region_protection
p1355
atp1356
atp1357
sI1074269768
(Vbootloader_init_spi_flash
p1358
(lp1359
(L1876290435L
L1994585993L
(lp1360
(lp1361
Vbootloader_flash_gpio_config
p1362
aVbootloader_flash_dummy_config
p1363
aVbootloader_flash_cs_timing_config
p1364
aVbootloader_flash_unlock
p1365
atp1366
a(L499308289L
L1443213481L
(lp1367
(lp1368
tp1369
a(L1872507246L
L1443213481L
(lp1370
(lp1371
tp1372
a(L147213506L
L1443213481L
(lp1373
(lp1374
tp1375
a(L83726857L
L2426646996L
(lp1376
(lp1377
Vesp_log_early_timestamp
p1378
aVbootloader_flash_get_spi_mode
p1379
atp1380
a(L93674324L
L0L
(lp1381
(lp1382
tp1383
a(L4183135214L
L1443213481L
(lp1384
(lp1385
tp1386
a(L147213506L
L1443213481L
(lp1387
(lp1388
tp1389
a(L3875746660L
L362179215L
(lp1390
(lp1391
Vesp_log_early_timestamp
p1392
atp1393
a(L93674324L
L0L
(lp1394
(lp1395
tp1396
a(L4183135214L
L1443213481L
(lp1397
(lp1398
tp1399
a(L1872507229L
L1443213481L
(lp1400
(lp1401
tp1402
a(L268651496L
L1443213481L
(lp1403
(lp1404
tp1405
a(L1872507229L
L1443213481L
(lp1406
(lp1407
tp1408
a(L1872507229L
L1443213481L
(lp1409
(lp1410
tp1411
a(L268651496L
L1443213481L
(lp1412
(lp1413
tp1414
a(L1872515506L
L1443213481L
(lp1415
(lp1416
tp1417
a(L1005860105L
L3187408090L
(lp1418
(lp1419
Vesp_log_early_timestamp
p1420
atp1421
a(L93674324L
L0L
(lp1422
(lp1423
tp1424
a(L3422553167L
L0L
(lp1425
(lp1426
tp1427
a(L1707909459L
L0L
(lp1428
(lp1429
tp1430
a(L4101522284L
L0L
(lp1431
(lp1432
tp1433
a(L3944678822L
L2082837423L
(lp1434
(lp1435
Vbootloader_enable_wp
p1436
atp1437
a(L3907331784L
L0L
(lp1438
(lp1439
tp1440
atp1441
sI1074238020
(Vbootloader_flash_write
p1442
(lp1443
(L3770380603L
L0L
(lp1444
(lp1445
tp1446
a(L2654201950L
L2147981551L
(lp1447
(lp1448
Vesp_log_early_timestamp
p1449
atp1450
a(L4207910112L
L1443213481L
(lp1451
(lp1452
tp1453
a(L1610445075L
L0L
(lp1454
(lp1455
tp1456
a(L735741265L
L0L
(lp1457
(lp1458
tp1459
a(L3291333414L
L0L
(lp1460
(lp1461
tp1462
a(L416217162L
L2147981551L
(lp1463
(lp1464
Vesp_log_early_timestamp
p1465
atp1466
a(L3283691850L
L0L
(lp1467
(lp1468
tp1469
a(L212182276L
L3187408090L
(lp1470
(lp1471
Vesp_log_early_timestamp
p1472
atp1473
a(L3212356251L
L3785322319L
(lp1474
(lp1475
Vbootloader_flash_unlock
p1476
atp1477
a(L1799218633L
L0L
(lp1478
(lp1479
tp1480
a(L94425498L
L3785322319L
(lp1481
(lp1482
Vesp_rom_spiflash_write_encrypted
p1483
atp1484
a(L2927190544L
L3785322319L
(lp1485
(lp1486
Vspi_to_esp_err
p1487
atp1488
a(L2927190544L
L3785322319L
(lp1489
(lp1490
Vesp_rom_spiflash_write
p1491
atp1492
atp1493
sI1074236740
(Vefuse_hal_chip_revision
p1494
(lp1495
(L2719302832L
L1880226080L
(lp1496
(lp1497
Vefuse_hal_get_major_chip_version
p1498
aVefuse_hal_get_minor_chip_version
p1499
atp1500
atp1501
sI1074248260
(Vesp_rom_spiflash_read
p1502
(lp1503
(L1499485309L
L1690040256L
(lp1504
(lp1505
tp1506
a(L3114780042L
L1679261929L
(lp1507
(lp1508
tp1509
a(L2860271684L
L0L
(lp1510
(lp1511
tp1512
a(L1872504408L
L1443213481L
(lp1513
(lp1514
tp1515
a(L106L
L0L
(lp1516
(lp1517
tp1518
a(L633884026L
L0L
(lp1519
(lp1520
tp1521
a(L106L
L0L
(lp1522
(lp1523
tp1524
a(L1100272902L
L1443213481L
(lp1525
(lp1526
tp1527
a(L1372101025L
L1690040256L
(lp1528
(lp1529
tp1530
a(L974197278L
L2195759072L
(lp1531
(lp1532
tp1533
a(L336550648L
L0L
(lp1534
(lp1535
tp1536
a(L3167414617L
L1443213481L
(lp1537
(lp1538
tp1539
a(L106L
L0L
(lp1540
(lp1541
tp1542
a(L3138763340L
L362179215L
(lp1543
(lp1544
Vesp_rom_spiflash_wait_idle
p1545
atp1546
a(L3021737L
L0L
(lp1547
(lp1548
tp1549
a(L106L
L0L
(lp1550
(lp1551
tp1552
a(L1868280504L
L0L
(lp1553
(lp1554
tp1555
a(L106L
L0L
(lp1556
(lp1557
tp1558
a(L750281353L
L0L
(lp1559
(lp1560
tp1561
a(L3897437082L
L0L
(lp1562
(lp1563
tp1564
a(L4122060822L
L0L
(lp1565
(lp1566
tp1567
a(L483218220L
L1443213481L
(lp1568
(lp1569
tp1570
a(L2989032L
L0L
(lp1571
(lp1572
tp1573
a(L3819849625L
L0L
(lp1574
(lp1575
tp1576
a(L1082031446L
L2195759072L
(lp1577
(lp1578
tp1579
a(L1872504408L
L1443213481L
(lp1580
(lp1581
tp1582
a(L147213506L
L1443213481L
(lp1583
(lp1584
tp1585
a(L2062799182L
L2534110409L
(lp1586
(lp1587
tp1588
a(L2921907736L
L0L
(lp1589
(lp1590
tp1591
a(L3677617742L
L1443213481L
(lp1592
(lp1593
tp1594
a(L2483025066L
L1679261929L
(lp1595
(lp1596
tp1597
a(L2136664087L
L1443213481L
(lp1598
(lp1599
tp1600
a(L3000478599L
L2195759072L
(lp1601
(lp1602
tp1603
a(L3333707777L
L0L
(lp1604
(lp1605
tp1606
a(L3251955268L
L0L
(lp1607
(lp1608
tp1609
a(L3418540920L
L0L
(lp1610
(lp1611
tp1612
a(L4183823801L
L1443213481L
(lp1613
(lp1614
tp1615
a(L97689L
L0L
(lp1616
(lp1617
tp1618
a(L2258897019L
L0L
(lp1619
(lp1620
tp1621
a(L4014024819L
L0L
(lp1622
(lp1623
tp1624
a(L3621567083L
L0L
(lp1625
(lp1626
tp1627
atp1628
sI1074241856
(Vprocess_appended_hash_and_sig
p1629
(lp1630
(L1668084157L
L0L
(lp1631
(lp1632
tp1633
a(L2910371777L
L0L
(lp1634
(lp1635
tp1636
a(L4285188111L
L0L
(lp1637
(lp1638
tp1639
a(L1151175705L
L0L
(lp1640
(lp1641
tp1642
a(L97689L
L0L
(lp1643
(lp1644
tp1645
a(L2250231589L
L3187408090L
(lp1646
(lp1647
Vesp_log_early_timestamp
p1648
atp1649
a(L268651496L
L1443213481L
(lp1650
(lp1651
tp1652
a(L1464893571L
L3785322319L
(lp1653
(lp1654
Vbootloader_flash_read
p1655
atp1656
a(L735741265L
L0L
(lp1657
(lp1658
tp1659
atp1660
sI1074248008
(Vesp_rom_spiflash_write
p1661
(lp1662
(L924384987L
L1679261929L
(lp1663
(lp1664
tp1665
a(L2258688483L
L0L
(lp1666
(lp1667
tp1668
a(L3360570486L
L0L
(lp1669
(lp1670
tp1671
a(L3368132847L
L0L
(lp1672
(lp1673
tp1674
a(L3106685981L
L0L
(lp1675
(lp1676
tp1677
a(L3488660639L
L3785322319L
(lp1678
(lp1679
Vesp_rom_spiflash_program_page_internal
p1680
atp1681
a(L3543402353L
L3785322319L
(lp1682
(lp1683
Vesp_rom_spiflash_program_page_internal
p1684
atp1685
a(L4222526342L
L0L
(lp1686
(lp1687
tp1688
a(L2004208511L
L0L
(lp1689
(lp1690
tp1691
a(L564470656L
L0L
(lp1692
(lp1693
tp1694
a(L441922648L
L3785322319L
(lp1695
(lp1696
Vesp_rom_spiflash_program_page_internal
p1697
atp1698
a(L2302069176L
L0L
(lp1699
(lp1700
tp1701
atp1702
sI1074267736
(Vcall_start_cpu0
p1703
(lp1704
(L342432055L
L1443213481L
(lp1705
(lp1706
tp1707
a(L4207910112L
L1443213481L
(lp1708
(lp1709
tp1710
a(L3212347974L
L3785322319L
(lp1711
(lp1712
Vbootloader_init
p1713
atp1714
a(L94425498L
L3785322319L
(lp1715
(lp1716
Vbootloader_reset
p1717
atp1718
a(L1872507246L
L1443213481L
(lp1719
(lp1720
tp1721
a(L4207910112L
L1443213481L
(lp1722
(lp1723
tp1724
a(L356913563L
L2218577417L
(lp1725
(lp1726
Vmemset
p1727
aVbootloader_utility_load_partition_table
p1728
atp1729
a(L3014296803L
L3187408090L
(lp1730
(lp1731
Vesp_log_early_timestamp
p1732
atp1733
a(L405422123L
L3785322319L
(lp1734
(lp1735
Vbootloader_utility_get_selected_boot_partition
p1736
atp1737
a(L2025208509L
L242900614L
(lp1738
(lp1739
Vbootloader_utility_load_boot_image
p1740
atp1741
atp1742
sI1074245204
(Vrtc_clk_8m_enable
p1743
(lp1744
(L2359152383L
L2195759072L
(lp1745
(lp1746
tp1747
a(L2145669267L
L1443213481L
(lp1748
(lp1749
tp1750
a(L2151320156L
L0L
(lp1751
(lp1752
tp1753
a(L1262936142L
L1443213481L
(lp1754
(lp1755
tp1756
a(L3360570486L
L0L
(lp1757
(lp1758
tp1759
a(L1318267208L
L0L
(lp1760
(lp1761
tp1762
a(L1085208965L
L1443213481L
(lp1763
(lp1764
tp1765
atp1766
sI1074237012
(Vbootloader_common_ota_select_crc
p1767
(lp1768
(L2925798959L
L1443213481L
(lp1769
(lp1770
tp1771
atp1772
sI1074267728
(Vesp_bootloader_get_description
p1773
(lp1774
(L2248573785L
L2195759072L
(lp1775
(lp1776
tp1777
atp1778
sI1074269264
(Vbootloader_random_enable
p1779
(lp1780
(L2397175084L
L664430240L
(lp1781
(lp1782
tp1783
atp1784
sI1074244188
(Vwdt_hal_config_stage
p1785
(lp1786
(L331558507L
L0L
(lp1787
(lp1788
tp1789
a(L4279082939L
L0L
(lp1790
(lp1791
tp1792
a(L93674324L
L0L
(lp1793
(lp1794
tp1795
a(L2902417580L
L0L
(lp1796
(lp1797
tp1798
a(L1506709436L
L1443213481L
(lp1799
(lp1800
tp1801
a(L3020187L
L0L
(lp1802
(lp1803
tp1804
a(L94425498L
L3785322319L
(lp1805
(lp1806
Vabort
p1807
atp1808
a(L1999536000L
L1443213481L
(lp1809
(lp1810
tp1811
a(L3360570486L
L0L
(lp1812
(lp1813
tp1814
a(L2402105077L
L1443213481L
(lp1815
(lp1816
tp1817
a(L3297501927L
L1443213481L
(lp1818
(lp1819
tp1820
a(L4278159418L
L0L
(lp1821
(lp1822
tp1823
a(L93674324L
L0L
(lp1824
(lp1825
tp1826
a(L3020204L
L0L
(lp1827
(lp1828
tp1829
a(L2956541743L
L1443213481L
(lp1830
(lp1831
tp1832
a(L3020187L
L0L
(lp1833
(lp1834
tp1835
a(L106L
L0L
(lp1836
(lp1837
tp1838
a(L1473987957L
L1443213481L
(lp1839
(lp1840
tp1841
a(L927955509L
L1443213481L
(lp1842
(lp1843
tp1844
a(L3740367810L
L1443213481L
(lp1845
(lp1846
tp1847
atp1848
sI1074236764
(Vefuse_hal_flash_encryption_enabled
p1849
(lp1850
(L221474917L
L1443213481L
(lp1851
(lp1852
tp1853
a(L2910371777L
L0L
(lp1854
(lp1855
tp1856
a(L3360570486L
L0L
(lp1857
(lp1858
tp1859
a(L3016870L
L0L
(lp1860
(lp1861
tp1862
a(L3745038218L
L0L
(lp1863
(lp1864
tp1865
a(L957607403L
L0L
(lp1866
(lp1867
tp1868
atp1869
sI1074234712
(Vbootloader_common_get_chip_ver_pkg
p1870
(lp1871
(L3197874814L
L1443213481L
(lp1872
(lp1873
tp1874
atp1875
sI1074245976
(Vrtc_clk_cpu_freq_to_xtal
p1876
(lp1877
(L767415990L
L3785322319L
(lp1878
(lp1879
Vesp_rom_set_cpu_ticks_per_us
p1880
atp1881
a(L94425498L
L3785322319L
(lp1882
(lp1883
Vabort
p1884
atp1885
a(L749912951L
L671729222L
(lp1886
(lp1887
Vrtc_clk_apb_freq_update
p1888
atp1889
a(L2258867230L
L0L
(lp1890
(lp1891
tp1892
a(L1803595874L
L2195759072L
(lp1893
(lp1894
tp1895
atp1896
sI1074268008
(Vbootloader_config_wdt
p1897
(lp1898
(L3447475412L
L603716358L
(lp1899
(lp1900
Vwdt_hal_write_protect_disable
p1901
aVwdt_hal_set_flashboot_en
p1902
aVwdt_hal_write_protect_enable
p1903
aVwdt_hal_init
p1904
aVrtc_clk_slow_freq_get_hz
p1905
aVwdt_hal_write_protect_disable
p1906
aV__udivdi3
p1907
aVwdt_hal_config_stage
p1908
aVwdt_hal_enable
p1909
aVwdt_hal_write_protect_enable
p1910
aVwdt_hal_write_protect_disable
p1911
aVwdt_hal_set_flashboot_en
p1912
aVwdt_hal_write_protect_enable
p1913
atp1914
atp1915
sI1074270056
(Vbootloader_console_init
p1916
(lp1917
(L3806010175L
L988378406L
(lp1918
(lp1919
Vesp_rom_uart_tx_wait_idle
p1920
aVrtc_clk_apb_freq_get
p1921
aVesp_rom_uart_set_clock_baudrate
p1922
atp1923
atp1924
sI1074270316
(Vrtc_clk_init
p1925
(lp1926
(L1100006719L
L1443213481L
(lp1927
(lp1928
tp1929
a(L42671777L
L3785322319L
(lp1930
(lp1931
Vrtc_clk_cpu_freq_to_xtal
p1932
atp1933
a(L739905763L
L1743007695L
(lp1934
(lp1935
Vrtc_clk_xtal_freq_get
p1936
atp1937
a(L3028481L
L0L
(lp1938
(lp1939
tp1940
a(L4284274517L
L3785322319L
(lp1941
(lp1942
Vrtc_clk_xtal_freq_estimate
p1943
atp1944
a(L2576622952L
L3187408090L
(lp1945
(lp1946
Vesp_log_early_timestamp
p1947
atp1948
a(L1822030105L
L3065544262L
(lp1949
(lp1950
Vesp_rom_uart_tx_wait_idle
p1951
aVrtc_clk_xtal_freq_update
p1952
aVrtc_clk_apb_freq_update
p1953
aVrtc_clk_cpu_freq_get_config
p1954
aVrtc_clk_cpu_freq_mhz_to_config
p1955
atp1956
a(L521302419L
L2704288053L
(lp1957
(lp1958
Vesp_log_early_timestamp
p1959
aVabort
p1960
atp1961
a(L2902417580L
L0L
(lp1962
(lp1963
tp1964
a(L1899970065L
L0L
(lp1965
(lp1966
tp1967
a(L377687546L
L3785322319L
(lp1968
(lp1969
Vrtc_clk_xtal_freq_estimate
p1970
atp1971
a(L2163742247L
L3187408090L
(lp1972
(lp1973
Vesp_log_early_timestamp
p1974
atp1975
a(L299116989L
L2426646996L
(lp1976
(lp1977
Vrtc_clk_cpu_freq_set_config
p1978
aV__udivdi3
p1979
atp1980
a(L912310138L
L3785322319L
(lp1981
(lp1982
Vrtc_clk_32k_enable
p1983
atp1984
a(L3191820416L
L1832448559L
(lp1985
(lp1986
Vrtc_clk_8m_enable
p1987
aVrtc_clk_fast_src_set
p1988
aVrtc_clk_slow_src_set
p1989
atp1990
a(L1232958848L
L0L
(lp1991
(lp1992
tp1993
atp1994
sI1074244704
(Vmmu_hal_unmap_all
p1995
(lp1996
(L3970138582L
L1443213481L
(lp1997
(lp1998
tp1999
a(L2010554219L
L0L
(lp2000
(lp2001
tp2002
a(L147213506L
L1443213481L
(lp2003
(lp2004
tp2005
a(L3212334523L
L0L
(lp2006
(lp2007
tp2008
a(L2010554219L
L0L
(lp2009
(lp2010
tp2011
a(L3360570486L
L0L
(lp2012
(lp2013
tp2014
atp2015
sI1074269024
(Vbootloader_clock_configure
p2016
(lp2017
(L2559598596L
L1880226080L
(lp2018
(lp2019
Vesp_rom_uart_tx_wait_idle
p2020
aVefuse_hal_chip_revision
p2021
atp2022
a(L1757625900L
L1443213481L
(lp2023
(lp2024
tp2025
a(L741498227L
L1443213481L
(lp2026
(lp2027
tp2028
a(L106L
L0L
(lp2029
(lp2030
tp2031
a(L4228321918L
L1405109379L
(lp2032
(lp2033
Vrtc_clk_slow_src_get
p2034
aVrtc_clk_fast_src_get
p2035
aVrtc_clk_init
p2036
atp2037
a(L2538867838L
L2195759072L
(lp2038
(lp2039
tp2040
a(L1038013235L
L3833084538L
(lp2041
(lp2042
Vrtc_clk_apb_freq_get
p2043
atp2044
a(L106L
L0L
(lp2045
(lp2046
tp2047
a(L106L
L0L
(lp2048
(lp2049
tp2050
atp2051
sI1074240876
(Vbootloader_console_deinit
p2052
(lp2053
(L1858531217L
L1443213481L
(lp2054
(lp2055
tp2056
atp2057
sI1074238316
(Vbootloader_random_disable
p2058
(lp2059
(L482324986L
L2935979744L
(lp2060
(lp2061
tp2062
atp2063
sI1074237032
(Vbootloader_common_ota_select_valid
p2064
(lp2065
(L1563399710L
L3785322319L
(lp2066
(lp2067
Vbootloader_common_ota_select_invalid
p2068
atp2069
a(L3814720849L
L3785322319L
(lp2070
(lp2071
Vbootloader_common_ota_select_crc
p2072
atp2073
a(L3360570486L
L0L
(lp2074
(lp2075
tp2076
atp2077
sI1074241384
(Vverify_load_addresses
p2078
(lp2079
(L2764487219L
L0L
(lp2080
(lp2081
tp2082
a(L106L
L0L
(lp2083
(lp2084
tp2085
a(L97642L
L0L
(lp2086
(lp2087
tp2088
a(L1682572953L
L4032149094L
(lp2089
(lp2090
V__assert_func
p2091
atp2092
a(L371731316L
L2195759072L
(lp2093
(lp2094
tp2095
a(L106L
L0L
(lp2096
(lp2097
tp2098
a(L3747671351L
L2195759072L
(lp2099
(lp2100
tp2101
a(L106L
L0L
(lp2102
(lp2103
tp2104
a(L159211233L
L4171435875L
(lp2105
(lp2106
Vbootloader_util_regions_overlap
p2107
atp2108
a(L3369736729L
L581251951L
(lp2109
(lp2110
Vbootloader_util_regions_overlap
p2111
atp2112
a(L3028481L
L0L
(lp2113
(lp2114
tp2115
a(L129067213L
L242900614L
(lp2116
(lp2117
Vbootloader_util_regions_overlap
p2118
atp2119
a(L51970127L
L2534110409L
(lp2120
(lp2121
tp2122
a(L3212477138L
L1443213481L
(lp2123
(lp2124
tp2125
a(L1032381749L
L0L
(lp2126
(lp2127
tp2128
a(L2837304413L
L0L
(lp2129
(lp2130
tp2131
a(L677569396L
L3785322319L
(lp2132
(lp2133
Vverify_load_addresses
p2134
atp2135
a(L1351513776L
L0L
(lp2136
(lp2137
tp2138
a(L956755582L
L0L
(lp2139
(lp2140
tp2141
a(L1550159667L
L1443213481L
(lp2142
(lp2143
tp2144
a(L2297907636L
L2195759072L
(lp2145
(lp2146
tp2147
a(L106L
L0L
(lp2148
(lp2149
tp2150
a(L1378880375L
L2195759072L
(lp2151
(lp2152
tp2153
a(L106L
L0L
(lp2154
(lp2155
tp2156
a(L1933245593L
L581251951L
(lp2157
(lp2158
Vbootloader_util_regions_overlap
p2159
atp2160
a(L3028481L
L0L
(lp2161
(lp2162
tp2163
a(L2219806806L
L581251951L
(lp2164
(lp2165
Vbootloader_util_regions_overlap
p2166
atp2167
a(L3186102034L
L1690040256L
(lp2168
(lp2169
tp2170
a(L1284972329L
L1443213481L
(lp2171
(lp2172
tp2173
a(L3236457224L
L1443213481L
(lp2174
(lp2175
tp2176
a(L2743341656L
L0L
(lp2177
(lp2178
tp2179
a(L182882711L
L0L
(lp2180
(lp2181
tp2182
a(L2268367078L
L2195759072L
(lp2183
(lp2184
tp2185
a(L297163306L
L0L
(lp2186
(lp2187
tp2188
a(L1900059593L
L0L
(lp2189
(lp2190
tp2191
a(L376010266L
L2534110409L
(lp2192
(lp2193
tp2194
a(L1319531632L
L1443213481L
(lp2195
(lp2196
tp2197
a(L3929371936L
L0L
(lp2198
(lp2199
tp2200
a(L147213506L
L1443213481L
(lp2201
(lp2202
tp2203
a(L4072848040L
L0L
(lp2204
(lp2205
tp2206
a(L106L
L0L
(lp2207
(lp2208
tp2209
a(L268651496L
L1443213481L
(lp2210
(lp2211
tp2212
a(L147213506L
L1443213481L
(lp2213
(lp2214
tp2215
a(L3020204L
L0L
(lp2216
(lp2217
tp2218
a(L885671544L
L2275292552L
(lp2219
(lp2220
Vesp_log_early_timestamp
p2221
atp2222
a(L1303560396L
L0L
(lp2223
(lp2224
tp2225
a(L268651496L
L1443213481L
(lp2226
(lp2227
tp2228
a(L1303560427L
L0L
(lp2229
(lp2230
tp2231
atp2232
sI1074241140
(Vprocess_image_header
p2233
(lp2234
(L3301900732L
L2218577417L
(lp2235
(lp2236
Vmemset
p2237
aVbootloader_flash_read
p2238
atp2239
a(L3020204L
L0L
(lp2240
(lp2241
tp2242
a(L4205021202L
L0L
(lp2243
(lp2244
tp2245
a(L321261932L
L0L
(lp2246
(lp2247
tp2248
a(L1161397362L
L3785322319L
(lp2249
(lp2250
Vbootloader_sha256_start
p2251
atp2252
a(L2062774299L
L3785322319L
(lp2253
(lp2254
Vbootloader_sha256_data
p2255
atp2256
a(L1291118193L
L0L
(lp2257
(lp2258
tp2259
a(L3028481L
L0L
(lp2260
(lp2261
tp2262
a(L559062533L
L3187408090L
(lp2263
(lp2264
Vesp_log_early_timestamp
p2265
atp2266
a(L147213506L
L1443213481L
(lp2267
(lp2268
tp2269
a(L2983970029L
L0L
(lp2270
(lp2271
tp2272
a(L4235213884L
L3785322319L
(lp2273
(lp2274
Vbootloader_common_check_chip_validity
p2275
atp2276
a(L4144303915L
L0L
(lp2277
(lp2278
tp2279
a(L3028481L
L0L
(lp2280
(lp2281
tp2282
a(L3714328738L
L3187408090L
(lp2283
(lp2284
Vesp_log_early_timestamp
p2285
atp2286
a(L2852701393L
L0L
(lp2287
(lp2288
tp2289
a(L2122516551L
L0L
(lp2290
(lp2291
tp2292
a(L3064492592L
L0L
(lp2293
(lp2294
tp2295
atp2296
sI1074246772
(Vrtc_clk_apb_freq_get
p2297
(lp2298
(L189810653L
L1679261929L
(lp2299
(lp2300
tp2301
atp2302
sI1074235248
(Vbootloader_execute_flash_command
p2303
(lp2304
(L2481595632L
L3785322319L
(lp2305
(lp2306
Vbootloader_flash_execute_command_common
p2307
atp2308
atp2309
sI1074247280
(Vrtc_clk_cal_ratio
p2310
(lp2311
(L3870710856L
L195123093L
(lp2312
(lp2313
Vrtc_clk_cal_internal
p2314
aV__udivdi3
p2315
atp2316
atp2317
sI1074240892
(V__assert_func
p2318
(lp2319
(L3115292802L
L2195759072L
(lp2320
(lp2321
tp2322
a(L106L
L0L
(lp2323
(lp2324
tp2325
atp2326
sI1074238844
(Vtry_load_partition
p2327
(lp2328
(L1263750142L
L0L
(lp2329
(lp2330
tp2331
a(L2258688482L
L0L
(lp2332
(lp2333
tp2334
a(L3360570486L
L0L
(lp2335
(lp2336
tp2337
a(L530241438L
L3785322319L
(lp2338
(lp2339
Vbootloader_load_image
p2340
atp2341
a(L4168266278L
L3187408090L
(lp2342
(lp2343
Vesp_log_early_timestamp
p2344
atp2345
atp2346
sI1074237308
(Vbootloader_common_get_active_otadata
p2347
(lp2348
(L3317503532L
L0L
(lp2349
(lp2350
tp2351
a(L2503049265L
L1832448559L
(lp2352
(lp2353
Vbootloader_common_ota_select_valid
p2354
aVbootloader_common_ota_select_valid
p2355
aVbootloader_common_select_otadata
p2356
atp2357
a(L735741265L
L0L
(lp2358
(lp2359
tp2360
atp2361
sI1074234744
(Vesp_flash_encryption_enabled
p2362
(lp2363
(L376617603L
L3785322319L
(lp2364
(lp2365
Vefuse_hal_flash_encryption_enabled
p2366
atp2367
atp2368
sI1074245496
(Vrtc_clk_slow_src_get
p2369
(lp2370
(L1566794270L
L1443213481L
(lp2371
(lp2372
tp2373
a(L3020187L
L0L
(lp2374
(lp2375
tp2376
a(L2902417580L
L0L
(lp2377
(lp2378
tp2379
a(L2258688485L
L0L
(lp2380
(lp2381
tp2382
a(L3360570486L
L0L
(lp2383
(lp2384
tp2385
atp2386
sI1074239876
(Vbootloader_utility_get_selected_boot_partition
p2387
(lp2388
(L2938832293L
L0L
(lp2389
(lp2390
tp2391
a(L2250662613L
L1443213481L
(lp2392
(lp2393
tp2394
a(L3987062097L
L2147981551L
(lp2395
(lp2396
Vesp_log_early_timestamp
p2397
atp2398
a(L558289164L
L1443213481L
(lp2399
(lp2400
tp2401
a(L3360570486L
L0L
(lp2402
(lp2403
tp2404
a(L3118387733L
L3785322319L
(lp2405
(lp2406
Vbootloader_mmap
p2407
atp2408
a(L3080008394L
L2147981551L
(lp2409
(lp2410
Vesp_log_early_timestamp
p2411
atp2412
a(L937961821L
L2410515468L
(lp2413
(lp2414
Vmemcpy
p2415
aVmemcpy
p2416
aVbootloader_munmap
p2417
aVbootloader_common_ota_select_invalid
p2418
atp2419
a(L2911028409L
L0L
(lp2420
(lp2421
tp2422
a(L726754926L
L3785322319L
(lp2423
(lp2424
Vbootloader_common_get_active_otadata
p2425
atp2426
a(L106L
L0L
(lp2427
(lp2428
tp2429
a(L4179097382L
L0L
(lp2430
(lp2431
tp2432
a(L788494392L
L3785322319L
(lp2433
(lp2434
Vbootloader_common_ota_select_invalid
p2435
atp2436
a(L638952356L
L1443213481L
(lp2437
(lp2438
tp2439
a(L1522345576L
L3833084538L
(lp2440
(lp2441
Vesp_log_early_timestamp
p2442
atp2443
a(L4207910112L
L1443213481L
(lp2444
(lp2445
tp2446
a(L1641201884L
L0L
(lp2447
(lp2448
tp2449
a(L3196944801L
L2147981551L
(lp2450
(lp2451
Vesp_log_early_timestamp
p2452
atp2453
a(L2302032704L
L0L
(lp2454
(lp2455
tp2456
a(L1173788779L
L3785322319L
(lp2457
(lp2458
Vbootloader_common_ota_select_crc
p2459
atp2460
a(L178397698L
L1443213481L
(lp2461
(lp2462
tp2463
a(L1324800084L
L3785322319L
(lp2464
(lp2465
Vbootloader_common_ota_select_crc
p2466
atp2467
a(L1299866312L
L0L
(lp2468
(lp2469
tp2470
a(L2704362655L
L1443213481L
(lp2471
(lp2472
tp2473
a(L344024800L
L3833084538L
(lp2474
(lp2475
Vesp_log_early_timestamp
p2476
atp2477
a(L1194215008L
L3833084538L
(lp2478
(lp2479
Vesp_log_early_timestamp
p2480
atp2481
atp2482
sI1074236804
(Vefuse_hal_get_major_chip_version
p2483
(lp2484
(L1572156932L
L2195759072L
(lp2485
(lp2486
tp2487
a(L894792960L
L0L
(lp2488
(lp2489
tp2490
a(L724635033L
L0L
(lp2491
(lp2492
tp2493
a(L3360570486L
L0L
(lp2494
(lp2495
tp2496
atp2497
sI1074234756
(Vbootloader_flash_execute_command_common
p2498
(lp2499
(L1988465817L
L0L
(lp2500
(lp2501
tp2502
a(L2946944720L
L2195759072L
(lp2503
(lp2504
tp2505
a(L2213948952L
L242900614L
(lp2506
(lp2507
V__assert_func
p2508
atp2509
a(L3021749L
L0L
(lp2510
(lp2511
tp2512
a(L1160973241L
L2195759072L
(lp2513
(lp2514
tp2515
a(L2792673601L
L1679261929L
(lp2516
(lp2517
tp2518
a(L3792188146L
L0L
(lp2519
(lp2520
tp2521
a(L4024113366L
L0L
(lp2522
(lp2523
tp2524
a(L3275299125L
L1443213481L
(lp2525
(lp2526
tp2527
a(L2232084959L
L2534110409L
(lp2528
(lp2529
tp2530
a(L1099389923L
L0L
(lp2531
(lp2532
tp2533
a(L857553440L
L2195759072L
(lp2534
(lp2535
tp2536
a(L3877681344L
L0L
(lp2537
(lp2538
tp2539
a(L73134175L
L1443213481L
(lp2540
(lp2541
tp2542
a(L1270255739L
L0L
(lp2543
(lp2544
tp2545
a(L3691039583L
L0L
(lp2546
(lp2547
tp2548
a(L3411317116L
L0L
(lp2549
(lp2550
tp2551
a(L3360570486L
L0L
(lp2552
(lp2553
tp2554
atp2555
sI1074245764
(Vrtc_clk_cpu_freq_get_config
p2556
(lp2557
(L4245581454L
L1443213481L
(lp2558
(lp2559
tp2560
a(L3020187L
L0L
(lp2561
(lp2562
tp2563
a(L3020187L
L0L
(lp2564
(lp2565
tp2566
a(L2734221335L
L242900614L
(lp2567
(lp2568
Vrtc_clk_xtal_freq_get
p2569
atp2570
a(L3789795478L
L0L
(lp2571
(lp2572
tp2573
a(L672805395L
L2704288053L
(lp2574
(lp2575
Vesp_log_early_timestamp
p2576
aVabort
p2577
atp2578
a(L3849169076L
L1443213481L
(lp2579
(lp2580
tp2581
a(L3020187L
L0L
(lp2582
(lp2583
tp2584
a(L3028481L
L0L
(lp2585
(lp2586
tp2587
a(L38508693L
L0L
(lp2588
(lp2589
tp2590
a(L187152368L
L0L
(lp2591
(lp2592
tp2593
a(L1161083655L
L0L
(lp2594
(lp2595
tp2596
a(L1395485899L
L0L
(lp2597
(lp2598
tp2599
a(L2070600034L
L0L
(lp2600
(lp2601
tp2602
atp2603
sI1074270092
(Vesp_cpu_configure_region_protection
p2604
(lp2605
(L3233924472L
L581251951L
(lp2606
(lp2607
Vmemcpy
p2608
atp2609
a(L180431425L
L3785322319L
(lp2610
(lp2611
Vmpu_hal_set_region_access
p2612
atp2613
a(L2537388152L
L3785322319L
(lp2614
(lp2615
Vmpu_hal_set_region_access
p2616
atp2617
atp2618
sI1074237068
(Vbootloader_common_check_chip_validity
p2619
(lp2620
(L2080115690L
L0L
(lp2621
(lp2622
tp2623
a(L3255759481L
L3187408090L
(lp2624
(lp2625
Vesp_log_early_timestamp
p2626
atp2627
a(L1299867982L
L0L
(lp2628
(lp2629
tp2630
a(L3360570486L
L0L
(lp2631
(lp2632
tp2633
a(L521940037L
L3785322319L
(lp2634
(lp2635
Vefuse_hal_chip_revision
p2636
atp2637
a(L332291457L
L1443213481L
(lp2638
(lp2639
tp2640
a(L780168284L
L362179215L
(lp2641
(lp2642
Vesp_log_early_timestamp
p2643
atp2644
a(L3028464L
L0L
(lp2645
(lp2646
tp2647
a(L573448730L
L0L
(lp2648
(lp2649
tp2650
a(L106L
L0L
(lp2651
(lp2652
tp2653
a(L3027019L
L0L
(lp2654
(lp2655
tp2656
a(L106L
L0L
(lp2657
(lp2658
tp2659
a(L3212356251L
L3785322319L
(lp2660
(lp2661
Vefuse_hal_get_disable_wafer_version_major
p2662
atp2663
a(L2465410698L
L362179215L
(lp2664
(lp2665
Vesp_log_early_timestamp
p2666
atp2667
atp2668
sI1074240916
(Vabort
p2669
(lp2670
(L2564459292L
L1690040256L
(lp2671
(lp2672
tp2673
a(L409471316L
L0L
(lp2674
(lp2675
tp2676
a(L106L
L0L
(lp2677
(lp2678
tp2679
atp2680
sI1074245524
(Vrtc_clk_slow_freq_get_hz
p2681
(lp2682
(L1826267122L
L3785322319L
(lp2683
(lp2684
Vrtc_clk_slow_src_get
p2685
atp2686
a(L1872507229L
L1443213481L
(lp2687
(lp2688
tp2689
a(L2221201615L
L1443213481L
(lp2690
(lp2691
tp2692
a(L3360570486L
L0L
(lp2693
(lp2694
tp2695
atp2696
sI1074244752
(Vefuse_hal_get_rated_freq_mhz
p2697
(lp2698
(L1158870592L
L1443213481L
(lp2699
(lp2700
tp2701
a(L338960367L
L0L
(lp2702
(lp2703
tp2704
a(L3360570486L
L0L
(lp2705
(lp2706
tp2707
atp2708
sI1074235280
(Vbootloader_flash_unlock
p2709
(lp2710
(L1368360454L
L242900614L
(lp2711
(lp2712
Vesp_rom_spiflash_wait_idle
p2713
atp2714
a(L1574074940L
L0L
(lp2715
(lp2716
tp2717
a(L1667462067L
L3785322319L
(lp2718
(lp2719
Vbootloader_execute_flash_command
p2720
atp2721
a(L106L
L0L
(lp2722
(lp2723
tp2724
a(L1013678540L
L0L
(lp2725
(lp2726
tp2727
a(L2529045083L
L0L
(lp2728
(lp2729
tp2730
a(L990750093L
L1832448559L
(lp2731
(lp2732
Vesp_rom_spiflash_wait_idle
p2733
aVbootloader_execute_flash_command
p2734
aVbootloader_execute_flash_command
p2735
atp2736
a(L993671302L
L1832448559L
(lp2737
(lp2738
Vesp_rom_spiflash_wait_idle
p2739
aVbootloader_execute_flash_command
p2740
aVbootloader_execute_flash_command
p2741
atp2742
a(L1209048744L
L1880226080L
(lp2743
(lp2744
Vesp_rom_spiflash_wait_idle
p2745
aVbootloader_execute_flash_command
p2746
atp2747
a(L3162775668L
L0L
(lp2748
(lp2749
tp2750
a(L2435612105L
L0L
(lp2751
(lp2752
tp2753
a(L3664359624L
L0L
(lp2754
(lp2755
tp2756
a(L2074930120L
L1880226080L
(lp2757
(lp2758
Vbootloader_execute_flash_command
p2759
aVbootloader_execute_flash_command
p2760
atp2761
a(L2125014318L
L0L
(lp2762
(lp2763
tp2764
a(L568821667L
L0L
(lp2765
(lp2766
tp2767
a(L1711531685L
L1880226080L
(lp2768
(lp2769
Vbootloader_execute_flash_command
p2770
aVbootloader_execute_flash_command
p2771
atp2772
a(L3658700047L
L0L
(lp2773
(lp2774
tp2775
a(L3269997774L
L0L
(lp2776
(lp2777
tp2778
a(L106L
L0L
(lp2779
(lp2780
tp2781
a(L2993202392L
L0L
(lp2782
(lp2783
tp2784
atp2785
sI1074236560
(Vesp_rom_set_cpu_ticks_per_us
p2786
(lp2787
(L396058732L
L2195759072L
(lp2788
(lp2789
tp2790
atp2791
sI1074247312
(Vrtc_clk_wait_for_slow_cycle
p2792
(lp2793
(L2844697221L
L2624587680L
(lp2794
(lp2795
tp2796
a(L287687718L
L0L
(lp2797
(lp2798
tp2799
a(L3360570486L
L0L
(lp2800
(lp2801
tp2802
a(L3843203427L
L1443213481L
(lp2803
(lp2804
tp2805
a(L1300789833L
L0L
(lp2806
(lp2807
tp2808
a(L1259765481L
L0L
(lp2809
(lp2810
tp2811
a(L17340776L
L1443213481L
(lp2812
(lp2813
tp2814
a(L329680227L
L3187408090L
(lp2815
(lp2816
Vesp_log_early_timestamp
p2817
atp2818
atp2819
sI1074244504
(Vwdt_hal_write_protect_disable
p2820
(lp2821
(L3085072089L
L1443213481L
(lp2822
(lp2823
tp2824
a(L4195472003L
L0L
(lp2825
(lp2826
tp2827
a(L3360570486L
L0L
(lp2828
(lp2829
tp2830
a(L1210571996L
L0L
(lp2831
(lp2832
tp2833
atp2834
sI1074241944
(Vshould_load
p2835
(lp2836
(L4190720747L
L2534110409L
(lp2837
(lp2838
tp2839
a(L1182990556L
L0L
(lp2840
(lp2841
tp2842
a(L1744532171L
L1443213481L
(lp2843
(lp2844
tp2845
a(L2306467100L
L0L
(lp2846
(lp2847
tp2848
a(L4034276159L
L1443213481L
(lp2849
(lp2850
tp2851
a(L2258897019L
L0L
(lp2852
(lp2853
tp2854
a(L3781799363L
L0L
(lp2855
(lp2856
tp2857
a(L3028464L
L0L
(lp2858
(lp2859
tp2860
a(L166133047L
L2195759072L
(lp2861
(lp2862
tp2863
a(L4277114872L
L0L
(lp2864
(lp2865
tp2866
a(L2824381917L
L0L
(lp2867
(lp2868
tp2869
a(L1243412227L
L0L
(lp2870
(lp2871
tp2872
a(L2011157548L
L0L
(lp2873
(lp2874
tp2875
a(L3126521138L
L0L
(lp2876
(lp2877
tp2878
a(L1305407438L
L0L
(lp2879
(lp2880
tp2881
a(L1305407469L
L0L
(lp2882
(lp2883
tp2884
atp2885
sI1074247576
(Vesp_rom_spiflash_wait_idle
p2886
(lp2887
(L1698121947L
L1443213481L
(lp2888
(lp2889
tp2890
a(L2023766174L
L0L
(lp2891
(lp2892
tp2893
a(L147213506L
L1443213481L
(lp2894
(lp2895
tp2896
a(L3086959262L
L0L
(lp2897
(lp2898
tp2899
a(L4161019926L
L3785322319L
(lp2900
(lp2901
Vesp_rom_spiflash_read_status
p2902
atp2903
atp2904
sI1074237348
(Vbootloader_common_ota_select_invalid
p2905
(lp2906
(L4027567199L
L0L
(lp2907
(lp2908
tp2909
a(L3397985842L
L0L
(lp2910
(lp2911
tp2912
a(L2258867228L
L0L
(lp2913
(lp2914
tp2915
a(L3785235668L
L0L
(lp2916
(lp2917
tp2918
atp2919
sI1074236576
(Vesp_rom_uart_tx_wait_idle
p2920
(lp2921
(L3110839460L
L2534110409L
(lp2922
(lp2923
tp2924
a(L1301079727L
L0L
(lp2925
(lp2926
tp2927
a(L597952197L
L0L
(lp2928
(lp2929
tp2930
a(L1971823332L
L0L
(lp2931
(lp2932
tp2933
a(L3055926844L
L0L
(lp2934
(lp2935
tp2936
a(L3360570486L
L0L
(lp2937
(lp2938
tp2939
a(L3694491048L
L0L
(lp2940
(lp2941
tp2942
a(L106L
L0L
(lp2943
(lp2944
tp2945
atp2946
sI1074239392
(Vset_actual_ota_seq
p2947
(lp2948
(L4094723830L
L0L
(lp2949
(lp2950
tp2951
a(L3504298995L
L2195759072L
(lp2952
(lp2953
tp2954
a(L3856681007L
L961634322L
(lp2955
(lp2956
Vmemset
p2957
aVbootloader_common_ota_select_crc
p2958
aVesp_flash_encryption_enabled
p2959
aVbootloader_flash_erase_sector
p2960
atp2961
a(L2768623893L
L3785322319L
(lp2962
(lp2963
Vbootloader_flash_write
p2964
atp2965
a(L3693339703L
L2147981551L
(lp2966
(lp2967
Vesp_log_early_timestamp
p2968
atp2969
a(L3903819434L
L2147981551L
(lp2970
(lp2971
Vesp_log_early_timestamp
p2972
atp2973
a(L3360570486L
L0L
(lp2974
(lp2975
tp2976
atp2977
sI1074246816
(Vrtc_clk_cal_internal
p2978
(lp2979
(L4103044880L
L1443213481L
(lp2980
(lp2981
tp2982
a(L3906046821L
L4032149094L
(lp2983
(lp2984
V__assert_func
p2985
atp2986
a(L3821006588L
L1443213481L
(lp2987
(lp2988
tp2989
a(L1673513644L
L0L
(lp2990
(lp2991
tp2992
a(L2719210992L
L4021370767L
(lp2993
(lp2994
Vrtc_clk_slow_src_get
p2995
atp2996
a(L3008910671L
L0L
(lp2997
(lp2998
tp2999
a(L97689L
L0L
(lp3000
(lp3001
tp3002
a(L1872507229L
L1443213481L
(lp3003
(lp3004
tp3005
a(L3028464L
L0L
(lp3006
(lp3007
tp3008
a(L3028481L
L0L
(lp3009
(lp3010
tp3011
a(L147213506L
L1443213481L
(lp3012
(lp3013
tp3014
a(L3455571058L
L1374507264L
(lp3015
(lp3016
V__udivdi3
p3017
aVrtc_clk_xtal_freq_get
p3018
atp3019
a(L2780079961L
L0L
(lp3020
(lp3021
tp3022
a(L4208562267L
L1443213481L
(lp3023
(lp3024
tp3025
a(L4114459891L
L3187408090L
(lp3026
(lp3027
Vesp_log_early_timestamp
p3028
atp3029
a(L2258688482L
L0L
(lp3030
(lp3031
tp3032
a(L3360570486L
L0L
(lp3033
(lp3034
tp3035
a(L3553505594L
L0L
(lp3036
(lp3037
tp3038
a(L403361192L
L0L
(lp3039
(lp3040
tp3041
a(L3243404432L
L3785322319L
(lp3042
(lp3043
Vrtc_clk_8m_enable
p3044
atp3045
a(L390546255L
L2195759072L
(lp3046
(lp3047
tp3048
a(L3586367509L
L1443213481L
(lp3049
(lp3050
tp3051
a(L2910371777L
L0L
(lp3052
(lp3053
tp3054
a(L2902417580L
L0L
(lp3055
(lp3056
tp3057
a(L3082259486L
L1443213481L
(lp3058
(lp3059
tp3060
a(L3020204L
L0L
(lp3061
(lp3062
tp3063
a(L603598685L
L1443213481L
(lp3064
(lp3065
tp3066
a(L3429540926L
L0L
(lp3067
(lp3068
tp3069
a(L3028464L
L0L
(lp3070
(lp3071
tp3072
a(L615477255L
L242900614L
(lp3073
(lp3074
Vrtc_clk_8m_enable
p3075
atp3076
atp3077
sI1074238892
(Vcache_ll_l1_enable_bus
p3078
(lp3079
(L318252209L
L1443213481L
(lp3080
(lp3081
tp3082
atp3083
sI1074240680
(Vbootloader_sha256_finish
p3084
(lp3085
(L4066096136L
L0L
(lp3086
(lp3087
tp3088
a(L1697654722L
L2195759072L
(lp3089
(lp3090
tp3091
a(L2213948952L
L242900614L
(lp3092
(lp3093
V__assert_func
p3094
atp3095
a(L3020204L
L0L
(lp3096
(lp3097
tp3098
a(L2888288470L
L2534110409L
(lp3099
(lp3100
tp3101
a(L2534656226L
L0L
(lp3102
(lp3103
tp3104
a(L2740629735L
L4171435875L
(lp3105
(lp3106
Vbootloader_sha256_data
p3107
atp3108
a(L2946948570L
L2195759072L
(lp3109
(lp3110
tp3111
a(L354914383L
L2790500905L
(lp3112
(lp3113
V__bswapsi2
p3114
aVbootloader_sha256_data
p3115
atp3116
a(L2946948756L
L2195759072L
(lp3117
(lp3118
tp3119
a(L657425439L
L0L
(lp3120
(lp3121
tp3122
a(L4173600236L
L1443213481L
(lp3123
(lp3124
tp3125
a(L657425439L
L0L
(lp3126
(lp3127
tp3128
a(L2046284480L
L2195759072L
(lp3129
(lp3130
tp3131
a(L3616504601L
L4171435875L
(lp3132
(lp3133
V__bswapsi2
p3134
atp3135
a(L3347778L
L0L
(lp3136
(lp3137
tp3138
a(L3360570486L
L0L
(lp3139
(lp3140
tp3141
atp3142
sI1074238632
(Vbootloader_clock_get_rated_freq_mhz
p3143
(lp3144
(L376617603L
L3785322319L
(lp3145
(lp3146
Vefuse_hal_get_rated_freq_mhz
p3147
atp3148
atp3149
sI1074238644
(Vlog_invalid_app_partition
p3150
(lp3151
(L2157385331L
L2195759072L
(lp3152
(lp3153
tp3154
a(L3028464L
L0L
(lp3155
(lp3156
tp3157
a(L1760520779L
L3833084538L
(lp3158
(lp3159
Vesp_log_early_timestamp
p3160
atp3161
a(L4207910112L
L1443213481L
(lp3162
(lp3163
tp3164
a(L3360570486L
L0L
(lp3165
(lp3166
tp3167
a(L3212513603L
L3833084538L
(lp3168
(lp3169
Vesp_log_early_timestamp
p3170
atp3171
a(L431938678L
L2147981551L
(lp3172
(lp3173
Vesp_log_early_timestamp
p3174
atp3175
atp3176
sI1074244788
(Vrtc_clk_32k_enable_common
p3177
(lp3178
(L2821256590L
L2195759072L
(lp3179
(lp3180
tp3181
a(L97422L
L0L
(lp3182
(lp3183
tp3184
a(L2218417248L
L0L
(lp3185
(lp3186
tp3187
a(L339634797L
L1443213481L
(lp3188
(lp3189
tp3190
a(L51458120L
L0L
(lp3191
(lp3192
tp3193
atp3194
sI1074270140
(Vrtc_clk_xtal_freq_estimate
p3195
(lp3196
(L1823831978L
L1880226080L
(lp3197
(lp3198
Vrtc_clk_8m_enabled
p3199
aVrtc_clk_8md256_enabled
p3200
atp3201
a(L2449794434L
L3785322319L
(lp3202
(lp3203
Vrtc_clk_8m_enable
p3204
atp3205
a(L3726876033L
L2704288053L
(lp3206
(lp3207
Vrtc_clk_cal_ratio
p3208
aV__udivdi3
p3209
atp3210
a(L3934977694L
L0L
(lp3211
(lp3212
tp3213
a(L3955289886L
L0L
(lp3214
(lp3215
tp3216
a(L2553207239L
L3187408090L
(lp3217
(lp3218
Vesp_log_early_timestamp
p3219
atp3220
a(L2307427870L
L0L
(lp3221
(lp3222
tp3223
a(L1281346514L
L3785322319L
(lp3224
(lp3225
Vrtc_clk_8m_enable
p3226
atp3227
a(L3909119106L
L0L
(lp3228
(lp3229
tp3230
a(L2298857999L
L3187408090L
(lp3231
(lp3232
Vesp_log_early_timestamp
p3233
atp3234
a(L3304487880L
L0L
(lp3235
(lp3236
tp3237
a(L1641150486L
L0L
(lp3238
(lp3239
tp3240
a(L2026357443L
L3187408090L
(lp3241
(lp3242
Vesp_log_early_timestamp
p3243
atp3244
atp3245
sI1074240176
(Vbootloader_reset
p3246
(lp3247
(L479276581L
L2147981551L
(lp3248
(lp3249
Vbootloader_console_deinit
p3250
atp3251
a(L106L
L0L
(lp3252
(lp3253
tp3254
atp3255
sI1074245552
(Vrtc_clk_fast_src_set
p3256
(lp3257
(L1089140614L
L1443213481L
(lp3258
(lp3259
tp3260
a(L3020187L
L0L
(lp3261
(lp3262
tp3263
a(L3827921190L
L3785322319L
(lp3264
(lp3265
Vabort
p3266
atp3267
a(L2578095160L
L1443213481L
(lp3268
(lp3269
tp3270
a(L4159388630L
L1443213481L
(lp3271
(lp3272
tp3273
a(L300459962L
L0L
(lp3274
(lp3275
tp3276
atp3277
sI1074235580
(Vbootloader_flash_read_sfdp
p3278
(lp3279
(L711701400L
L0L
(lp3280
(lp3281
tp3282
a(L17919673L
L4032149094L
(lp3283
(lp3284
V__assert_func
p3285
atp3286
a(L3704332455L
L3785322319L
(lp3287
(lp3288
Vbootloader_flash_execute_command_common
p3289
atp3290
atp3291
sI1074235832
(Vbootloader_flash_cs_timing_config
p3292
(lp3293
(L1222249594L
L1690040256L
(lp3294
(lp3295
tp3296
atp3297
sI1074240440
(Vindex_to_partition
p3298
(lp3299
(L4066096119L
L0L
(lp3300
(lp3301
tp3302
a(L1101255660L
L0L
(lp3303
(lp3304
tp3305
a(L1955702725L
L0L
(lp3306
(lp3307
tp3308
a(L3698927993L
L0L
(lp3309
(lp3310
tp3311
a(L2808906342L
L0L
(lp3312
(lp3313
tp3314
a(L4211744375L
L0L
(lp3315
(lp3316
tp3317
a(L3097778015L
L0L
(lp3318
(lp3319
tp3320
a(L1816235430L
L0L
(lp3321
(lp3322
tp3323
a(L2179185678L
L0L
(lp3324
(lp3325
tp3326
a(L3369319173L
L0L
(lp3327
(lp3328
tp3329
atp3330
sI1074244536
(Vwdt_hal_set_flashboot_en
p3331
(lp3332
(L2375320464L
L0L
(lp3333
(lp3334
tp3335
a(L3915867581L
L0L
(lp3336
(lp3337
tp3338
a(L3360570486L
L0L
(lp3339
(lp3340
tp3341
a(L3823116953L
L1443213481L
(lp3342
(lp3343
tp3344
atp3345
sI1074240964
(Vbootloader_ana_clock_glitch_reset_config
p3346
(lp3347
(L2100504542L
L0L
(lp3348
(lp3349
tp3350
atp3351
sI1074237376
(Vbootloader_common_select_otadata
p3352
(lp3353
(L4071767857L
L0L
(lp3354
(lp3355
tp3356
a(L1999329187L
L0L
(lp3357
(lp3358
tp3359
a(L3846398843L
L0L
(lp3360
(lp3361
tp3362
a(L2501968171L
L0L
(lp3363
(lp3364
tp3365
a(L3360570486L
L0L
(lp3366
(lp3367
tp3368
a(L2045232488L
L0L
(lp3369
(lp3370
tp3371
a(L1243525916L
L0L
(lp3372
(lp3373
tp3374
a(L3094144427L
L0L
(lp3375
(lp3376
tp3377
a(L2399509845L
L0L
(lp3378
(lp3379
tp3380
a(L1641201884L
L0L
(lp3381
(lp3382
tp3383
atp3384
sI1074247872
(Vesp_rom_spiflash_erase_sector
p3385
(lp3386
(L3892694408L
L1679261929L
(lp3387
(lp3388
tp3389
a(L2258688483L
L0L
(lp3390
(lp3391
tp3392
a(L3360570486L
L0L
(lp3393
(lp3394
tp3395
a(L3212356251L
L3785322319L
(lp3396
(lp3397
Vesp_rom_spiflash_enable_write
p3398
atp3399
a(L184152988L
L0L
(lp3400
(lp3401
tp3402
a(L1036552696L
L362179215L
(lp3403
(lp3404
Vesp_rom_spiflash_wait_idle
p3405
atp3406
a(L3333707777L
L0L
(lp3407
(lp3408
tp3409
a(L3582858798L
L3785322319L
(lp3410
(lp3411
Vesp_rom_spiflash_wait_idle
p3412
atp3413
atp3414
sI1074270912
(Vrtc_vddsdio_set_config
p3415
(lp3416
(L3557742407L
L1443213481L
(lp3417
(lp3418
tp3419
atp3420
sI1074240972
(Vprocess_checksum
p3421
(lp3422
(L166193219L
L242900614L
(lp3423
(lp3424
Vmemset
p3425
atp3426
a(L3028481L
L0L
(lp3427
(lp3428
tp3429
a(L186886970L
L0L
(lp3430
(lp3431
tp3432
a(L2902417580L
L0L
(lp3433
(lp3434
tp3435
a(L3028481L
L0L
(lp3436
(lp3437
tp3438
a(L169792351L
L3187408090L
(lp3439
(lp3440
Vesp_log_early_timestamp
p3441
atp3442
a(L268651496L
L1443213481L
(lp3443
(lp3444
tp3445
a(L3236648107L
L3785322319L
(lp3446
(lp3447
Vbootloader_flash_read
p3448
atp3449
a(L735741265L
L0L
(lp3450
(lp3451
tp3452
a(L3020204L
L0L
(lp3453
(lp3454
tp3455
a(L2480703612L
L3785322319L
(lp3456
(lp3457
Vbootloader_sha256_data
p3458
atp3459
a(L3436105237L
L0L
(lp3460
(lp3461
tp3462
a(L106L
L0L
(lp3463
(lp3464
tp3465
atp3466
sI1074267844
(V__wrap_bootloader_print_banner
p3467
(lp3468
(L91050859L
L1859547049L
(lp3469
(lp3470
Vbootloader_print_banner
p3471
aVesp_log_early_timestamp
p3472
atp3473
atp3474
sI1074236872
(Vefuse_hal_get_minor_chip_version
p3475
(lp3476
(L2292056065L
L1443213481L
(lp3477
(lp3478
tp3479
atp3480
sI1074240200
(Vbootloader_utility_load_boot_image
p3481
(lp3482
(L421993435L
L242900614L
(lp3483
(lp3484
Vmemset
p3485
atp3486
a(L2177418995L
L3785322319L
(lp3487
(lp3488
Vtry_load_partition
p3489
atp3490
a(L1305243774L
L3785322319L
(lp3491
(lp3492
Vload_image
p3493
atp3494
a(L4114459891L
L3187408090L
(lp3495
(lp3496
Vesp_log_early_timestamp
p3497
atp3498
a(L3827921190L
L3785322319L
(lp3499
(lp3500
Vbootloader_reset
p3501
atp3502
a(L1953693036L
L3785322319L
(lp3503
(lp3504
Vindex_to_partition
p3505
atp3506
a(L1204373741L
L3785322319L
(lp3507
(lp3508
Vtry_load_partition
p3509
atp3510
a(L1899865696L
L0L
(lp3511
(lp3512
tp3513
a(L2695355117L
L3785322319L
(lp3514
(lp3515
Vset_actual_ota_seq
p3516
atp3517
a(L1868897605L
L3785322319L
(lp3518
(lp3519
Vlog_invalid_app_partition
p3520
atp3521
a(L831650730L
L0L
(lp3522
(lp3523
tp3524
a(L3021737L
L0L
(lp3525
(lp3526
tp3527
a(L695456438L
L0L
(lp3528
(lp3529
tp3530
a(L315114854L
L3833084538L
(lp3531
(lp3532
Vtry_load_partition
p3533
atp3534
a(L89447667L
L2147981551L
(lp3535
(lp3536
Vesp_log_early_timestamp
p3537
atp3538
a(L2347390157L
L3785322319L
(lp3539
(lp3540
Vindex_to_partition
p3541
atp3542
a(L1204373741L
L3785322319L
(lp3543
(lp3544
Vtry_load_partition
p3545
atp3546
a(L3061261803L
L0L
(lp3547
(lp3548
tp3549
a(L3582858798L
L3785322319L
(lp3550
(lp3551
Vlog_invalid_app_partition
p3552
atp3553
a(L3581752791L
L2704288053L
(lp3554
(lp3555
Vesp_log_early_timestamp
p3556
aVmemset
p3557
atp3558
atp3559
sI1074246088
(Vrtc_clk_cpu_freq_set_config
p3560
(lp3561
(L1040494747L
L3833084538L
(lp3562
(lp3563
Vrtc_clk_xtal_freq_get
p3564
atp3565
a(L2308773007L
L0L
(lp3566
(lp3567
tp3568
a(L3253451229L
L1880226080L
(lp3569
(lp3570
Vrtc_clk_cpu_freq_to_xtal
p3571
aVrtc_clk_wait_for_slow_cycle
p3572
atp3573
a(L2243645672L
L0L
(lp3574
(lp3575
tp3576
a(L4002786498L
L0L
(lp3577
(lp3578
tp3579
a(L2736411858L
L3785322319L
(lp3580
(lp3581
Vrtc_clk_cpu_freq_to_xtal
p3582
atp3583
a(L3360570486L
L0L
(lp3584
(lp3585
tp3586
a(L2755207760L
L1832448559L
(lp3587
(lp3588
Vrtc_clk_cpu_freq_to_xtal
p3589
aVrtc_clk_wait_for_slow_cycle
p3590
aVrtc_clk_bbpll_disable
p3591
atp3592
a(L3020187L
L0L
(lp3593
(lp3594
tp3595
a(L106L
L0L
(lp3596
(lp3597
tp3598
a(L2730236852L
L1156451872L
(lp3599
(lp3600
Vrtc_clk_wait_for_slow_cycle
p3601
aVrtc_clk_xtal_freq_get
p3602
atp3603
a(L106L
L0L
(lp3604
(lp3605
tp3606
a(L3776069396L
L1443213481L
(lp3607
(lp3608
tp3609
a(L83268611L
L0L
(lp3610
(lp3611
tp3612
a(L106L
L0L
(lp3613
(lp3614
tp3615
a(L82345090L
L0L
(lp3616
(lp3617
tp3618
a(L106L
L0L
(lp3619
(lp3620
tp3621
a(L2258718273L
L0L
(lp3622
(lp3623
tp3624
a(L3298883534L
L0L
(lp3625
(lp3626
tp3627
a(L3519990574L
L1443213481L
(lp3628
(lp3629
tp3630
a(L2508198718L
L1743007695L
(lp3631
(lp3632
Vrtc_clk_cpu_freq_to_pll_mhz
p3633
atp3634
a(L935233121L
L2534110409L
(lp3635
(lp3636
tp3637
a(L83268344L
L0L
(lp3638
(lp3639
tp3640
a(L82344823L
L0L
(lp3641
(lp3642
tp3643
a(L1569180676L
L0L
(lp3644
(lp3645
tp3646
a(L2258837488L
L0L
(lp3647
(lp3648
tp3649
a(L4233337962L
L1443213481L
(lp3650
(lp3651
tp3652
a(L1482311963L
L0L
(lp3653
(lp3654
tp3655
a(L133411965L
L0L
(lp3656
(lp3657
tp3658
a(L3673491036L
L0L
(lp3659
(lp3660
tp3661
a(L4197990447L
L0L
(lp3662
(lp3663
tp3664
a(L903154985L
L0L
(lp3665
(lp3666
tp3667
a(L3020187L
L0L
(lp3668
(lp3669
tp3670
a(L106L
L0L
(lp3671
(lp3672
tp3673
a(L1317698645L
L93324751L
(lp3674
(lp3675
Vesp_rom_set_cpu_ticks_per_us
p3676
atp3677
atp3678
sI1074247624
(Vesp_rom_spiflash_enable_write
p3679
(lp3680
(L2885777558L
L1303911398L
(lp3681
(lp3682
Vesp_rom_spiflash_wait_idle
p3683
atp3684
a(L3333707777L
L0L
(lp3685
(lp3686
tp3687
a(L2258688484L
L0L
(lp3688
(lp3689
tp3690
a(L99543895L
L0L
(lp3691
(lp3692
tp3693
a(L2993202392L
L0L
(lp3694
(lp3695
tp3696
a(L1265538927L
L242900614L
(lp3697
(lp3698
Vesp_rom_spiflash_read_status
p3699
atp3700
atp3701
sI1074245332
(Vrtc_clk_8m_enabled
p3702
(lp3703
(L563532105L
L1443213481L
(lp3704
(lp3705
tp3706
atp3707
sI1074238160
(Vbootloader_enable_wp
p3708
(lp3709
(L1117825804L
L3785322319L
(lp3710
(lp3711
Vbootloader_execute_flash_command
p3712
atp3713
atp3714
sI1074243292
(Vbootloader_load_image
p3715
(lp3716
(L1155870502L
L3785322319L
(lp3717
(lp3718
Vimage_load
p3719
atp3720
atp3721
sI1074245084
(Vrtc_clk_bbpll_disable
p3722
(lp3723
(L3512291683L
L1690040256L
(lp3724
(lp3725
tp3726
a(L2472207241L
L0L
(lp3727
(lp3728
tp3729
a(L3360570486L
L0L
(lp3730
(lp3731
tp3732
atp3733
sI1074236888
(Vesp_dport_access_reg_read
p3734
(lp3735
(L1099794772L
L0L
(lp3736
(lp3737
tp3738
atp3739
sI1074268136
(Vbootloader_enable_random
p3740
(lp3741
(L859804465L
L2704288053L
(lp3742
(lp3743
Vesp_log_early_timestamp
p3744
aVbootloader_random_enable
p3745
atp3746
atp3747
sI1074236900
(Vis_xmc_chip_strict
p3748
(lp3749
(L1286841609L
L0L
(lp3750
(lp3751
tp3752
a(L2234016759L
L0L
(lp3753
(lp3754
tp3755
a(L1069027148L
L0L
(lp3756
(lp3757
tp3758
a(L3021749L
L0L
(lp3759
(lp3760
tp3761
a(L1900148749L
L0L
(lp3762
(lp3763
tp3764
a(L1936875721L
L0L
(lp3765
(lp3766
tp3767
a(L3356166509L
L0L
(lp3768
(lp3769
tp3770
a(L1937769451L
L0L
(lp3771
(lp3772
tp3773
a(L2137658907L
L0L
(lp3774
(lp3775
tp3776
a(L4265949734L
L0L
(lp3777
(lp3778
tp3779
a(L3360570486L
L0L
(lp3780
(lp3781
tp3782
atp3783
sI1074238180
(Vbootloader_flash_get_spi_mode
p3784
(lp3785
(L1418320346L
L1443213481L
(lp3786
(lp3787
tp3788
a(L2046153171L
L0L
(lp3789
(lp3790
tp3791
a(L893866618L
L0L
(lp3792
(lp3793
tp3794
a(L894790139L
L0L
(lp3795
(lp3796
tp3797
a(L822032846L
L0L
(lp3798
(lp3799
tp3800
a(L3360570486L
L0L
(lp3801
(lp3802
tp3803
atp3804
sI1074238944
(Vcache_ll_l1_enable_bus
p3805
(lp3806
(L318252209L
L1443213481L
(lp3807
(lp3808
tp3809
atp3810
sI1074267872
(Vbootloader_clear_bss_section
p3811
(lp3812
(L2193193874L
L4032149094L
(lp3813
(lp3814
Vmemset
p3815
atp3816
atp3817
sI1074243308
(Vesp_partition_table_verify
p3818
(lp3819
(L44179228L
L1443213481L
(lp3820
(lp3821
tp3822
a(L3031150553L
L1443213481L
(lp3823
(lp3824
tp3825
a(L1184829782L
L0L
(lp3826
(lp3827
tp3828
a(L3020204L
L0L
(lp3829
(lp3830
tp3831
a(L26389654L
L3187408090L
(lp3832
(lp3833
Vesp_log_early_timestamp
p3834
atp3835
a(L1235012963L
L0L
(lp3836
(lp3837
tp3838
a(L3190337587L
L0L
(lp3839
(lp3840
tp3841
a(L2069928857L
L0L
(lp3842
(lp3843
tp3844
a(L2902417580L
L0L
(lp3845
(lp3846
tp3847
a(L2543114737L
L2147981551L
(lp3848
(lp3849
Vesp_log_early_timestamp
p3850
atp3851
a(L1715222413L
L1443213481L
(lp3852
(lp3853
tp3854
a(L3020204L
L0L
(lp3855
(lp3856
tp3857
a(L3020204L
L0L
(lp3858
(lp3859
tp3860
a(L1328961945L
L2147981551L
(lp3861
(lp3862
Vesp_log_early_timestamp
p3863
atp3864
a(L4207910112L
L1443213481L
(lp3865
(lp3866
tp3867
a(L1235012932L
L0L
(lp3868
(lp3869
tp3870
a(L458256366L
L4021370767L
(lp3871
(lp3872
Vmemcmp
p3873
atp3874
a(L3020204L
L0L
(lp3875
(lp3876
tp3877
a(L2543114737L
L2147981551L
(lp3878
(lp3879
Vesp_log_early_timestamp
p3880
atp3881
a(L1305407469L
L0L
(lp3882
(lp3883
tp3884
a(L1167861556L
L0L
(lp3885
(lp3886
tp3887
a(L818997085L
L0L
(lp3888
(lp3889
tp3890
a(L3360570486L
L0L
(lp3891
(lp3892
tp3893
a(L3020204L
L0L
(lp3894
(lp3895
tp3896
a(L3999534504L
L3187408090L
(lp3897
(lp3898
Vesp_log_early_timestamp
p3899
atp3900
atp3901
sI1074245356
(Vrtc_clk_8md256_enabled
p3902
(lp3903
(L4014027530L
L1443213481L
(lp3904
(lp3905
tp3906
atp3907
sI1074248172
(Vesp_rom_spiflash_write_encrypted
p3908
(lp3909
(L1944247967L
L0L
(lp3910
(lp3911
tp3912
a(L3825342292L
L1443213481L
(lp3913
(lp3914
tp3915
a(L97689L
L0L
(lp3916
(lp3917
tp3918
a(L3061232074L
L0L
(lp3919
(lp3920
tp3921
a(L1562911102L
L1443213481L
(lp3922
(lp3923
tp3924
a(L1309309703L
L3785322319L
(lp3925
(lp3926
Vesp_rom_spiflash_write
p3927
atp3928
a(L2269233063L
L1443213481L
(lp3929
(lp3930
tp3931
a(L735741265L
L0L
(lp3932
(lp3933
tp3934
atp3935
sI1074267896
(Vbootloader_read_bootloader_header
p3936
(lp3937
(L2948018849L
L242900614L
(lp3938
(lp3939
Vbootloader_flash_read
p3940
atp3941
a(L804259852L
L3187408090L
(lp3942
(lp3943
Vesp_log_early_timestamp
p3944
atp3945
a(L735741265L
L0L
(lp3946
(lp3947
tp3948
atp3949
sI1074236660
(Vesp_rom_uart_set_clock_baudrate
p3950
(lp3951
(L1471953879L
L1443213481L
(lp3952
(lp3953
tp3954
a(L1872515506L
L1443213481L
(lp3955
(lp3956
tp3957
a(L147213506L
L1443213481L
(lp3958
(lp3959
tp3960
a(L3104172142L
L1443213481L
(lp3961
(lp3962
tp3963
atp3964
sI1074235632
(Vbootloader_read_flash_id
p3965
(lp3966
(L549578328L
L3785322319L
(lp3967
(lp3968
Vbootloader_execute_flash_command
p3969
atp3970
atp3971
sI1074245616
(Vrtc_clk_fast_src_get
p3972
(lp3973
(L2217920473L
L1443213481L
(lp3974
(lp3975
tp3976
atp3977
sI1074237692
(Vbootloader_munmap
p3978
(lp3979
(L4096859803L
L2195759072L
(lp3980
(lp3981
tp3982
a(L4150885370L
L2624587680L
(lp3983
(lp3984
tp3985
a(L3360570486L
L0L
(lp3986
(lp3987
tp3988
atp3989
sI1074236412
(Vbootloader_flash_dummy_config
p3990
(lp3991
(L2633298977L
L1443213481L
(lp3992
(lp3993
tp3994
a(L2761717557L
L0L
(lp3995
(lp3996
tp3997
a(L1849044936L
L0L
(lp3998
(lp3999
tp4000
a(L2198646520L
L2195759072L
(lp4001
(lp4002
tp4003
a(L1857500547L
L1443213481L
(lp4004
(lp4005
tp4006
a(L3020204L
L0L
(lp4007
(lp4008
tp4009
a(L1610443405L
L0L
(lp4010
(lp4011
tp4012
a(L4032120524L
L0L
(lp4013
(lp4014
tp4015
a(L2336993863L
L0L
(lp4016
(lp4017
tp4018
a(L1298875775L
L0L
(lp4019
(lp4020
tp4021
a(L3880393601L
L0L
(lp4022
(lp4023
tp4024
a(L2272848587L
L1443213481L
(lp4025
(lp4026
tp4027
a(L1610443436L
L0L
(lp4028
(lp4029
tp4030
atp4031
sI1074242812
(Vimage_load
p4032
(lp4033
(L3048705773L
L0L
(lp4034
(lp4035
tp4036
a(L3463713141L
L0L
(lp4037
(lp4038
tp4039
a(L3309803581L
L0L
(lp4040
(lp4041
tp4042
a(L256049682L
L0L
(lp4043
(lp4044
tp4045
a(L1935188817L
L0L
(lp4046
(lp4047
tp4048
a(L3028481L
L0L
(lp4049
(lp4050
tp4051
a(L3021749L
L0L
(lp4052
(lp4053
tp4054
a(L106L
L0L
(lp4055
(lp4056
tp4057
a(L585264737L
L0L
(lp4058
(lp4059
tp4060
a(L1145291904L
L3785322319L
(lp4061
(lp4062
Vprocess_image_header
p4063
atp4064
a(L823859500L
L0L
(lp4065
(lp4066
tp4067
a(L3061291474L
L0L
(lp4068
(lp4069
tp4070
a(L4106474008L
L3785322319L
(lp4071
(lp4072
Vprocess_segments
p4073
atp4074
a(L3868840998L
L0L
(lp4075
(lp4076
tp4077
a(L2962085561L
L1443213481L
(lp4078
(lp4079
tp4080
a(L1827898452L
L3785322319L
(lp4081
(lp4082
Vprocess_checksum
p4083
atp4084
a(L2214715179L
L3785322319L
(lp4085
(lp4086
Vprocess_appended_hash_and_sig
p4087
atp4088
a(L3028481L
L0L
(lp4089
(lp4090
tp4091
a(L2902417580L
L0L
(lp4092
(lp4093
tp4094
a(L3285560995L
L3785322319L
(lp4095
(lp4096
Vbootloader_sha256_finish
p4097
atp4098
a(L3946560000L
L0L
(lp4099
(lp4100
tp4101
a(L93674324L
L0L
(lp4102
(lp4103
tp4104
a(L2674734805L
L2195759072L
(lp4105
(lp4106
tp4107
a(L1168805591L
L1443213481L
(lp4108
(lp4109
tp4110
a(L1179424413L
L0L
(lp4111
(lp4112
tp4113
a(L3928150917L
L0L
(lp4114
(lp4115
tp4116
a(L106L
L0L
(lp4117
(lp4118
tp4119
a(L3871473710L
L0L
(lp4120
(lp4121
tp4122
a(L3884726427L
L0L
(lp4123
(lp4124
tp4125
a(L106L
L0L
(lp4126
(lp4127
tp4128
a(L3020187L
L0L
(lp4129
(lp4130
tp4131
a(L1337906930L
L3187408090L
(lp4132
(lp4133
Vesp_log_early_timestamp
p4134
atp4135
a(L2868044067L
L0L
(lp4136
(lp4137
tp4138
a(L1179764900L
L0L
(lp4139
(lp4140
tp4141
a(L2332746046L
L3785322319L
(lp4142
(lp4143
Vbootloader_sha256_finish
p4144
atp4145
a(L3721568057L
L242900614L
(lp4146
(lp4147
Vmemset
p4148
atp4149
a(L3020204L
L0L
(lp4150
(lp4151
tp4152
a(L3039742375L
L1443213481L
(lp4153
(lp4154
tp4155
a(L106L
L0L
(lp4156
(lp4157
tp4158
a(L3307179591L
L2839326997L
(lp4159
(lp4160
Vmemset
p4161
aVbootloader_sha256_finish
p4162
aVbootloader_debug_buffer
p4163
aVmemcmp
p4164
atp4165
a(L3433271982L
L2266857161L
(lp4166
(lp4167
Vesp_log_early_timestamp
p4168
aVbootloader_debug_buffer
p4169
atp4170
a(L3741653406L
L3785322319L
(lp4171
(lp4172
Vshould_load
p4173
atp4174
a(L2764257181L
L0L
(lp4175
(lp4176
tp4177
a(L3338774213L
L0L
(lp4178
(lp4179
tp4180
a(L193456747L
L1443213481L
(lp4181
(lp4182
tp4183
a(L3349572949L
L0L
(lp4184
(lp4185
tp4186
a(L2192292519L
L0L
(lp4187
(lp4188
tp4189
a(L106L
L0L
(lp4190
(lp4191
tp4192
a(L1702191967L
L1443213481L
(lp4193
(lp4194
tp4195
a(L1299866312L
L0L
(lp4196
(lp4197
tp4198
a(L3010020263L
L0L
(lp4199
(lp4200
tp4201
atp4202
sI1074244604
(Vwdt_hal_write_protect_enable
p4203
(lp4204
(L387778158L
L0L
(lp4205
(lp4206
tp4207
a(L4195472003L
L0L
(lp4208
(lp4209
tp4210
a(L3360570486L
L0L
(lp4211
(lp4212
tp4213
a(L802523425L
L0L
(lp4214
(lp4215
tp4216
atp4217
sI1074243576
(Vwdt_hal_init
p4218
(lp4219
(L1845705415L
L242900614L
(lp4220
(lp4221
Vmemset
p4222
atp4223
a(L106L
L0L
(lp4224
(lp4225
tp4226
a(L147213506L
L1443213481L
(lp4227
(lp4228
tp4229
a(L3076988543L
L0L
(lp4230
(lp4231
tp4232
a(L746843176L
L3294285696L
(lp4233
(lp4234
tp4235
a(L3028464L
L0L
(lp4236
(lp4237
tp4238
a(L268651496L
L1443213481L
(lp4239
(lp4240
tp4241
a(L213928354L
L1443213481L
(lp4242
(lp4243
tp4244
a(L1646580088L
L3294285696L
(lp4245
(lp4246
tp4247
a(L3360570486L
L0L
(lp4248
(lp4249
tp4250
atp4251
sI1074240504
(Vbootloader_debug_buffer
p4252
(lp4253
(L2100504542L
L0L
(lp4254
(lp4255
tp4256
atp4257
ssS'functionsdups'
p4258
g11
((lp4259
tp4260
Rp4261
sS'immediatedups'
p4262
g11
((lp4263
tp4264
Rp4265
sS'functiondups'
p4266
g11
((lp4267
tp4268
Rp4269
sS'fuzzy'
p4270
(dp4271
L366261972L
I1074270316
sL2376760616L
I1074243308
sL1898962604L
I1074238728
sL3223682214L
I1074248172
sL4033782891L
I1074244536
sL1651792242L
I1074247624
sL1500945776L
I1074268456
sL800708016L
I1074239512
sL2092869556L
I1074247872
sL1772626723L
I1074235832
sL2539816556L
I1074236660
sL3032120501L
I1074245764
sL2471313117L
I1074240680
sL2641888616L
I1074246816
sL381028389L
I1074240892
sL3711025829L
I1074240200
sL3500016395L
I1074242072
sL1962232032L
I1074245632
sL797548049L
I1074240512
sL3374853808L
I1074267872
sL2859057779L
I1074269752
sL2835607711L
I1074270056
sL2095240828L
I1074234756
sL1348852091L
I1074248260
sL2182127758L
I1074270140
sL3221945515L
I1074245904
sL1485246373L
I1074240972
sL3525303483L
I1074245496
sL1247030641L
I1074269264
sL214341344L
I1074244704
sL1729011238L
I1074241944
sL1959102959L
I1074237484
sL4242478965L
I1074238236
sL2216531249L
I1074245524
sL579471141L
I1074268136
sL1096063205L
I1074236804
sL2906154889L
I1074247576
sL1065525808L
I1074236900
sL2849727465L
I1074238996
sL1821770661L
I1074237692
sL332090111L
I1074236576
sL282843886L
I1074237744
sL3703425408L
I1074245204
sL2038713658L
I1074246772
sL2688270468L
I1074267940
sL2708185770L
I1074241328
sL3890904617L
I1074245976
sL3530961461L
I1074270760
sL1605229163L
I1074239876
sL1210592366L
I1074245380
sL3612329224L
I1074267844
sL1332800441L
I1074237308
sL209111356L
I1074245552
sL3183721996L
I1074235280
sL3558783183L
I1074238020
sL1377360842L
I1074244788
sL2726707668L
I1074268968
sL3300368739L
I1074268232
sL1161792488L
I1074241140
sL4091350277L
I1074247680
sL2871786995L
I1074268008
sL3578810761L
I1074235580
sL2018002450L
I1074235680
sL531949167L
I1074237068
sL1060788199L
I1074245672
sL1444874434L
I1074268164
sL994994961L
I1074238644
sL2663898648L
I1074267896
sL1155028103L
I1074270092
sL627477382L
I1074235944
sL814911857L
I1074240532
sL3280013925L
I1074238316
sL1862804207L
I1074244188
sL2806886186L
I1074269024
sL1815510750L
I1074244924
sL963803290L
I1074246088
sL3715950101L
I1074244504
sL3420458249L
I1074247480
sL3274368577L
I1074238844
sL3246158480L
I1074239392
sL1872673135L
I1074240176
sL1214705044L
I1074236412
sL4155364446L
I1074237032
sL755401973L
I1074267736
sL230862646L
I1074237452
sL2452281182L
I1074247312
sL1564551092L
I1074241856
sL1122585247L
I1074243576
sL3659714901L
I1074241384
sL2752268667L
I1074244752
sL3428612389L
I1074247280
sL1950296771L
I1074248008
sL1396037064L
I1074245144
sL1014311563L
I1074242812
sL1596982735L
I1074269768
ssb.