ccopy_reg
_reconstructor
p0
(crizzo
RizzoSignature
p1
c__builtin__
object
p2
Ntp3
Rp4
(dp5
S'formal'
p6
(dp7
L2005196428L
I1074245528
sL1741170115L
I1074238000
sL2087186284L
I1074236412
sL1913647619L
I1074269952
sL3984280162L
I1074244504
sL3746738248L
I1074239392
sL2628804010L
I1074270876
sL4213015302L
I1074243292
sL461860251L
I1074247332
sL286550283L
I1074270020
sL3976424482L
I1074234712
sL552298442L
I1074235280
sL2767810776L
I1074238020
sL2771134728L
I1074240200
sL2326361228L
I1074269372
sL2702580795L
I1074237376
sL2610420647L
I1074269796
sL2896295319L
I1074236900
sL25479346L
I1074240680
sL438696979L
I1074269924
sL1123431371L
I1074239512
sL1331791455L
I1074245620
sL1674148343L
I1074245676
sL1786019146L
I1074247700
sL4023292303L
I1074237452
sL3256726111L
I1074248028
sL2485902447L
I1074236740
sL723138898L
I1074238180
sL424336643L
I1074269660
sL366218909L
I1074270056
sL368505532L
I1074245952
sL848906711L
I1074248192
sL353716291L
I1074244704
sL1585823442L
I1074244604
sL1622896354L
I1074244632
sL3092620558L
I1074235680
sL2521269785L
I1074236980
sL730944497L
I1074239876
sL2189223198L
I1074240440
sL3580313603L
I1074241944
sL2493713350L
I1074245384
sL183144L
I1074238844
sL2930276314L
I1074235832
sL4161584248L
I1074268572
sL4175577751L
I1074244752
sL2723725103L
I1074240876
sL1633709340L
I1074245360
sL2813809866L
I1074236764
sL2366387314L
I1074270724
sL1330922710L
I1074246836
sL1731035566L
I1074236576
sL676927194L
I1074268860
sL244922653L
I1074242812
sL2691843063L
I1074245980
sL3307282855L
I1074238160
sL127813144L
I1074243576
sL3065846068L
I1074235580
sL3553146178L
I1074267728
sL2195669076L
I1074245336
sL357647324L
I1074268868
sL3361686224L
I1074268628
sL3042952135L
I1074267720
sL3721992006L
I1074240892
sL1160735408L
I1074242072
sL1662035087L
I1074267836
sL3041505513L
I1074237484
sL4038945309L
I1074235632
sL429722680L
I1074246092
sL1435968304L
I1074244788
sL4178015136L
I1074247500
sL1992104215L
I1074236872
sL1112935418L
I1074234756
sL2931540503L
I1074247644
sL1382567621L
I1074238236
sL105563623L
I1074240512
sL2997001746L
I1074237308
sL59949349L
I1074241140
sL1087228788L
I1074238996
sL76756778L
I1074240972
sL556795273L
I1074269728
sL2819127986L
I1074237032
sL3195929028L
I1074240176
sL3024810484L
I1074270280
sL1481764497L
I1074237012
sL1877634603L
I1074270948
sL2687718384L
I1074243308
sL2789355142L
I1074244188
sL1098683832L
I1074245148
sL3015462521L
I1074238644
sL3066643969L
I1074247300
sL935372552L
I1074268060
sL137696254L
I1074244924
sL886840080L
I1074237068
sL2062758462L
I1074236804
sL1347401601L
I1074240532
sL2248158928L
I1074238316
sL660825523L
I1074245208
sL3362774716L
I1074236660
sL3338519854L
I1074245908
sL2195659785L
I1074245556
sL540472814L
I1074247892
sL2263182908L
I1074238228
sL965583188L
I1074245768
sL114336524L
I1074269684
sL282668036L
I1074244536
sL963291061L
I1074248280
sL3630163135L
I1074236888
sL188664287L
I1074235248
sL2743385701L
I1074269356
sL2404540336L
I1074245500
sL2485146564L
I1074240916
sL692536993L
I1074237348
sL822000404L
I1074245636
sL921639684L
I1074235944
sL235684320L
I1074237744
sL3364903294L
I1074247596
sL675504051L
I1074236560
sL1817360290L
I1074241384
sL917018201L
I1074236972
sL237904351L
I1074241328
sL2758712477L
I1074241856
sL309068699L
I1074245088
sL1140246287L
I1074246792
sL2570362575L
I1074238728
sL3958998789L
I1074237692
sL4029637072L
I1074270104
ssS'immediates'
p8
(dp9
sS'formaldups'
p10
c__builtin__
set
p11
((lp12
tp13
Rp14
sS'stringdups'
p15
g11
((lp16
tp17
Rp18
sS'fuzzydups'
p19
g11
((lp20
tp21
Rp22
sS'strings'
p23
(dp24
sS'functions'
p25
(dp26
I1074245636
(Vrtc_clk_xtal_freq_get
p27
(lp28
(L3313072792L
L1443213481L
(lp29
(lp30
tp31
a(L2847936993L
L0L
(lp32
(lp33
tp34
a(L2252934062L
L1443213481L
(lp35
(lp36
tp37
a(L3360570486L
L0L
(lp38
(lp39
tp40
atp41
sI1074240512
(Vbootloader_sha256_start
p42
(lp43
(L1737386262L
L2534110409L
(lp44
(lp45
tp46
atp47
sI1074248192
(Vesp_rom_spiflash_write_encrypted
p48
(lp49
(L1944247967L
L0L
(lp50
(lp51
tp52
a(L3825342292L
L1443213481L
(lp53
(lp54
tp55
a(L97689L
L0L
(lp56
(lp57
tp58
a(L3061232074L
L0L
(lp59
(lp60
tp61
a(L1562911102L
L1443213481L
(lp62
(lp63
tp64
a(L1309309703L
L3785322319L
(lp65
(lp66
Vesp_rom_spiflash_write
p67
atp68
a(L2269233063L
L1443213481L
(lp69
(lp70
tp71
a(L735741265L
L0L
(lp72
(lp73
tp74
atp75
sI1074267136
(V_init
p76
(lp77
(L3493042598L
L0L
(lp78
(lp79
tp80
atp81
sI1074269952
(Vbootloader_print_banner
p82
(lp83
(L3569996224L
L1385564105L
(lp84
(lp85
Vesp_bootloader_get_description
p86
aVesp_log_early_timestamp
p87
aVesp_log_early_timestamp
p88
aVesp_log_early_timestamp
p89
atp90
atp91
sI1074237452
(Vspi_to_esp_err
p92
(lp93
(L2749733621L
L1443213481L
(lp94
(lp95
tp96
a(L1872507229L
L1443213481L
(lp97
(lp98
tp99
a(L3952441574L
L0L
(lp100
(lp101
tp102
a(L3126521138L
L0L
(lp103
(lp104
tp105
atp106
sI1074270724
(Vrtc_vddsdio_get_config
p107
(lp108
(L3097658956L
L1443213481L
(lp109
(lp110
tp111
a(L1750635626L
L0L
(lp112
(lp113
tp114
a(L3193418487L
L0L
(lp115
(lp116
tp117
a(L3511111289L
L1443213481L
(lp118
(lp119
tp120
a(L115635292L
L0L
(lp121
(lp122
tp123
a(L896053863L
L0L
(lp124
(lp125
tp126
a(L1306330959L
L0L
(lp127
(lp128
tp129
a(L1783408782L
L1443213481L
(lp130
(lp131
tp132
atp133
sI1074245384
(Vrtc_clk_slow_src_set
p134
(lp135
(L585347011L
L2195759072L
(lp136
(lp137
tp138
a(L3020187L
L0L
(lp139
(lp140
tp141
a(L3028481L
L0L
(lp142
(lp143
tp144
a(L487821223L
L0L
(lp145
(lp146
tp147
a(L4271877108L
L1443213481L
(lp148
(lp149
tp150
a(L1851908495L
L0L
(lp151
(lp152
tp153
a(L1099319264L
L1443213481L
(lp154
(lp155
tp156
a(L3138544334L
L0L
(lp157
(lp158
tp159
a(L94425498L
L3785322319L
(lp160
(lp161
Vabort
p162
atp163
atp164
sI1074238728
(Vcache_ll_l1_get_bus
p165
(lp166
(L2749735183L
L1443213481L
(lp167
(lp168
tp169
a(L94425498L
L3785322319L
(lp170
(lp171
Vabort
p172
atp173
a(L1872514061L
L1443213481L
(lp174
(lp175
tp176
a(L3824526338L
L1443213481L
(lp177
(lp178
tp179
a(L892952750L
L0L
(lp180
(lp181
tp182
a(L1182811810L
L0L
(lp183
(lp184
tp185
a(L1101742417L
L0L
(lp186
(lp187
tp188
a(L1100767927L
L0L
(lp189
(lp190
tp191
a(L3360570486L
L0L
(lp192
(lp193
tp194
a(L1872508791L
L1443213481L
(lp195
(lp196
tp197
a(L2882938163L
L0L
(lp198
(lp199
tp200
a(L2927201858L
L0L
(lp201
(lp202
tp203
a(L2258718273L
L0L
(lp204
(lp205
tp206
a(L2580713941L
L0L
(lp207
(lp208
tp209
a(L1872508791L
L1443213481L
(lp210
(lp211
tp212
a(L1872514061L
L1443213481L
(lp213
(lp214
tp215
a(L1641149277L
L0L
(lp216
(lp217
tp218
a(L1872508791L
L1443213481L
(lp219
(lp220
tp221
a(L3027019L
L0L
(lp222
(lp223
tp224
a(L1299866560L
L0L
(lp225
(lp226
tp227
a(L1299866436L
L0L
(lp228
(lp229
tp230
atp231
sI1074240532
(Vbootloader_sha256_data
p232
(lp233
(L4066096136L
L0L
(lp234
(lp235
tp236
a(L1697654611L
L2195759072L
(lp237
(lp238
tp239
a(L2213948952L
L242900614L
(lp240
(lp241
V__assert_func
p242
atp243
a(L498498478L
L0L
(lp244
(lp245
tp246
a(L3590389832L
L1443213481L
(lp247
(lp248
tp249
a(L2910371777L
L0L
(lp250
(lp251
tp252
a(L3360570486L
L0L
(lp253
(lp254
tp255
a(L1087685526L
L2195759072L
(lp256
(lp257
tp258
a(L426633611L
L1443213481L
(lp259
(lp260
tp261
a(L2584057186L
L1443213481L
(lp262
(lp263
tp264
a(L3342433287L
L1443213481L
(lp265
(lp266
tp267
a(L2526675390L
L242900614L
(lp268
(lp269
V__bswapsi2
p270
atp271
a(L942815853L
L2195759072L
(lp272
(lp273
tp274
a(L1872507229L
L1443213481L
(lp275
(lp276
tp277
a(L147213506L
L1443213481L
(lp278
(lp279
tp280
a(L3745004802L
L0L
(lp281
(lp282
tp283
atp284
sI1074238996
(Vload_image
p285
(lp286
(L3963348381L
L473788538L
(lp287
(lp288
Vesp_log_early_timestamp
p289
aVbootloader_random_disable
p290
aVbootloader_ana_clock_glitch_reset_config
p291
atp292
a(L2261049225L
L0L
(lp293
(lp294
tp295
a(L106L
L0L
(lp296
(lp297
tp298
a(L4185838750L
L1624138773L
(lp299
(lp300
Vmmu_hal_unmap_all
p301
aVcache_ll_l1_get_bus
p302
aVcache_ll_l1_enable_bus
p303
aVcache_ll_l1_get_bus
p304
aVcache_ll_l1_enable_bus
p305
aVcache_ll_l1_get_bus
p306
aVcache_ll_l1_enable_bus
p307
aVcache_ll_l1_get_bus
p308
aVcache_ll_l1_enable_bus
p309
aVbootloader_console_deinit
p310
atp311
a(L2843581588L
L1443213481L
(lp312
(lp313
tp314
a(L2902417580L
L0L
(lp315
(lp316
tp317
a(L3421811081L
L362179215L
(lp318
(lp319
Vesp_log_early_timestamp
p320
atp321
a(L2552261596L
L0L
(lp322
(lp323
tp324
a(L670464924L
L2195759072L
(lp325
(lp326
tp327
a(L3020204L
L0L
(lp328
(lp329
tp330
a(L3421811081L
L362179215L
(lp331
(lp332
Vesp_log_early_timestamp
p333
atp334
a(L3291469664L
L0L
(lp335
(lp336
tp337
a(L2591655545L
L0L
(lp338
(lp339
tp340
atp341
sI1074238228
(Vbootloader_mmap_get_free_pages
p342
(lp343
(L1496516875L
L0L
(lp344
(lp345
tp346
atp347
sI1074245908
(Vrtc_clk_xtal_freq_update
p348
(lp349
(L3023525581L
L2195759072L
(lp350
(lp351
tp352
a(L3509357017L
L0L
(lp353
(lp354
tp355
a(L2266180931L
L0L
(lp356
(lp357
tp358
atp359
sI1074247700
(Vesp_rom_spiflash_program_page_internal
p360
(lp361
(L2569069283L
L0L
(lp362
(lp363
tp364
a(L2258688483L
L0L
(lp365
(lp366
tp367
a(L3360570486L
L0L
(lp368
(lp369
tp370
a(L2295540031L
L1443213481L
(lp371
(lp372
tp373
a(L4235661475L
L3785322319L
(lp374
(lp375
Vesp_rom_spiflash_wait_idle
p376
atp377
a(L1299866312L
L0L
(lp378
(lp379
tp380
a(L3212356251L
L3785322319L
(lp381
(lp382
Vesp_rom_spiflash_enable_write
p383
atp384
a(L1834262847L
L2195759072L
(lp385
(lp386
tp387
a(L633937013L
L1443213481L
(lp388
(lp389
tp390
a(L2953702749L
L0L
(lp391
(lp392
tp393
a(L2989032L
L0L
(lp394
(lp395
tp396
a(L1965622133L
L0L
(lp397
(lp398
tp399
a(L809386272L
L2195759072L
(lp400
(lp401
tp402
a(L1958113242L
L0L
(lp403
(lp404
tp405
a(L106L
L0L
(lp406
(lp407
tp408
a(L3112950080L
L0L
(lp409
(lp410
tp411
a(L1868606439L
L0L
(lp412
(lp413
tp414
a(L147213506L
L1443213481L
(lp415
(lp416
tp417
a(L1933954923L
L0L
(lp418
(lp419
tp420
a(L1147866918L
L0L
(lp421
(lp422
tp423
a(L3871602522L
L0L
(lp424
(lp425
tp426
atp427
sI1074238236
(Vbootloader_fill_random
p428
(lp429
(L3377511333L
L2195759072L
(lp430
(lp431
tp432
a(L4033043682L
L4032149094L
(lp433
(lp434
V__assert_func
p435
atp436
a(L1882547218L
L0L
(lp437
(lp438
tp439
a(L2910371777L
L0L
(lp440
(lp441
tp442
a(L95634693L
L0L
(lp443
(lp444
tp445
a(L3630908706L
L0L
(lp446
(lp447
tp448
a(L160162640L
L0L
(lp449
(lp450
tp451
a(L97689L
L0L
(lp452
(lp453
tp454
a(L3360570486L
L0L
(lp455
(lp456
tp457
atp458
sI1074245148
(Vrtc_clk_32k_enable
p459
(lp460
(L753387299L
L0L
(lp461
(lp462
tp463
a(L3776007933L
L3785322319L
(lp464
(lp465
Vrtc_clk_32k_enable_common
p466
atp467
a(L3496950L
L0L
(lp468
(lp469
tp470
a(L707626330L
L2534110409L
(lp471
(lp472
tp473
atp474
sI1074244632
(Vwdt_hal_enable
p475
(lp476
(L2299130915L
L0L
(lp477
(lp478
tp479
a(L165794138L
L0L
(lp480
(lp481
tp482
a(L3360570486L
L0L
(lp483
(lp484
tp485
a(L2847657174L
L0L
(lp486
(lp487
tp488
atp489
sI1074242072
(Vprocess_segments
p490
(lp491
(L1326203493L
L0L
(lp492
(lp493
tp494
a(L1640778736L
L0L
(lp495
(lp496
tp497
a(L3782401745L
L0L
(lp498
(lp499
tp500
a(L106L
L0L
(lp501
(lp502
tp503
a(L3028481L
L0L
(lp504
(lp505
tp506
a(L3014296803L
L3187408090L
(lp507
(lp508
Vesp_log_early_timestamp
p509
atp510
a(L761135359L
L3785322319L
(lp511
(lp512
Vbootloader_flash_read
p513
atp514
a(L3856957476L
L3187408090L
(lp515
(lp516
Vesp_log_early_timestamp
p517
atp518
a(L3871473710L
L0L
(lp519
(lp520
tp521
a(L219417435L
L0L
(lp522
(lp523
tp524
a(L616767314L
L3785322319L
(lp525
(lp526
Vbootloader_sha256_data
p527
atp528
a(L1599301852L
L1443213481L
(lp529
(lp530
tp531
a(L2258837437L
L0L
(lp532
(lp533
tp534
a(L1764156528L
L0L
(lp535
(lp536
tp537
a(L3028481L
L0L
(lp538
(lp539
tp540
a(L2231662647L
L3187408090L
(lp541
(lp542
Vesp_log_early_timestamp
p543
atp544
a(L268651496L
L1443213481L
(lp545
(lp546
tp547
a(L652851030L
L2195759072L
(lp548
(lp549
tp550
a(L3802069243L
L0L
(lp551
(lp552
tp553
a(L3696234693L
L1443213481L
(lp554
(lp555
tp556
a(L2258867228L
L0L
(lp557
(lp558
tp559
a(L2277415887L
L0L
(lp560
(lp561
tp562
a(L3177376558L
L0L
(lp563
(lp564
tp565
a(L3028481L
L0L
(lp566
(lp567
tp568
a(L3861001733L
L3187408090L
(lp569
(lp570
Vesp_log_early_timestamp
p571
atp572
a(L2640606608L
L0L
(lp573
(lp574
tp575
a(L3028481L
L0L
(lp576
(lp577
tp578
a(L3892729576L
L3833084538L
(lp579
(lp580
Vesp_log_early_timestamp
p581
atp582
a(L4033680444L
L404278070L
(lp583
(lp584
tp585
a(L2902417580L
L0L
(lp586
(lp587
tp588
a(L2902417580L
L0L
(lp589
(lp590
tp591
a(L1229952296L
L3785322319L
(lp592
(lp593
Vverify_load_addresses
p594
atp595
a(L3783935185L
L3785322319L
(lp596
(lp597
Vbootloader_mmap_get_free_pages
p598
atp599
a(L3028481L
L0L
(lp600
(lp601
tp602
a(L224879076L
L0L
(lp603
(lp604
tp605
a(L142590671L
L0L
(lp606
(lp607
tp608
a(L3028481L
L0L
(lp609
(lp610
tp611
a(L94425498L
L3785322319L
(lp612
(lp613
Vesp_log_early_timestamp
p614
atp615
a(L1961289970L
L1443213481L
(lp616
(lp617
tp618
a(L4085121624L
L3785322319L
(lp619
(lp620
Vshould_load
p621
atp622
a(L3028481L
L0L
(lp623
(lp624
tp625
a(L1038006420L
L3833084538L
(lp626
(lp627
Vesp_log_early_timestamp
p628
atp629
a(L106L
L0L
(lp630
(lp631
tp632
a(L3815630522L
L0L
(lp633
(lp634
tp635
a(L1646054028L
L3833084538L
(lp636
(lp637
Vesp_log_early_timestamp
p638
atp639
a(L2629678223L
L0L
(lp640
(lp641
tp642
a(L2684012095L
L0L
(lp643
(lp644
tp645
a(L3357777304L
L3785322319L
(lp646
(lp647
Vbootloader_mmap
p648
atp649
a(L3911420474L
L3187408090L
(lp650
(lp651
Vesp_log_early_timestamp
p652
atp653
a(L1698460186L
L0L
(lp654
(lp655
tp656
a(L3264682310L
L1443213481L
(lp657
(lp658
tp659
a(L4016429890L
L242900614L
(lp660
(lp661
Vmemcpy
p662
atp663
a(L1595421496L
L3785322319L
(lp664
(lp665
Vbootloader_munmap
p666
atp667
a(L2757579158L
L0L
(lp668
(lp669
tp670
a(L605525844L
L242900614L
(lp671
(lp672
Vbootloader_fill_random
p673
atp674
a(L3616854679L
L1443213481L
(lp675
(lp676
tp677
a(L3616854679L
L1443213481L
(lp678
(lp679
tp680
a(L3450268858L
L0L
(lp681
(lp682
tp683
a(L3021749L
L0L
(lp684
(lp685
tp686
a(L322434465L
L0L
(lp687
(lp688
tp689
a(L2494883302L
L0L
(lp690
(lp691
tp692
a(L2902417580L
L0L
(lp693
(lp694
tp695
a(L2213415704L
L1443213481L
(lp696
(lp697
tp698
a(L193456747L
L1443213481L
(lp699
(lp700
tp701
a(L1426980959L
L0L
(lp702
(lp703
tp704
a(L1841482652L
L0L
(lp705
(lp706
tp707
a(L653501462L
L0L
(lp708
(lp709
tp710
a(L3310548426L
L3785322319L
(lp711
(lp712
Vbootloader_sha256_data
p713
atp714
a(L90548756L
L0L
(lp715
(lp716
tp717
a(L1702191967L
L1443213481L
(lp718
(lp719
tp720
a(L2364005371L
L0L
(lp721
(lp722
tp723
atp724
sI1074239512
(Vbootloader_utility_load_partition_table
p725
(lp726
(L3401680957L
L3833084538L
(lp727
(lp728
Vbootloader_mmap
p729
atp730
a(L3861134865L
L2147981551L
(lp731
(lp732
Vesp_log_early_timestamp
p733
atp734
a(L2258688482L
L0L
(lp735
(lp736
tp737
a(L3360570486L
L0L
(lp738
(lp739
tp740
a(L2379286607L
L3785322319L
(lp741
(lp742
Vesp_partition_table_verify
p743
atp744
a(L2695471221L
L2147981551L
(lp745
(lp746
Vesp_log_early_timestamp
p747
atp748
a(L2693125842L
L403192672L
(lp749
(lp750
Vesp_log_early_timestamp
p751
aVesp_log_early_timestamp
p752
atp753
a(L650140130L
L0L
(lp754
(lp755
tp756
a(L2163909172L
L2801279232L
(lp757
(lp758
Vbootloader_munmap
p759
aVesp_log_early_timestamp
p760
atp761
a(L521126897L
L0L
(lp762
(lp763
tp764
a(L3028464L
L0L
(lp765
(lp766
tp767
a(L106L
L0L
(lp768
(lp769
tp770
a(L147213506L
L1443213481L
(lp771
(lp772
tp773
a(L2919580219L
L2147981551L
(lp774
(lp775
Vesp_log_early_timestamp
p776
atp777
a(L3990577774L
L0L
(lp778
(lp779
tp780
a(L3020187L
L0L
(lp781
(lp782
tp783
a(L3201555411L
L1443213481L
(lp784
(lp785
tp786
a(L1843602828L
L1443213481L
(lp787
(lp788
tp789
a(L326114897L
L1443213481L
(lp790
(lp791
tp792
a(L2487812812L
L1443213481L
(lp793
(lp794
tp795
a(L3478727216L
L1443213481L
(lp796
(lp797
tp798
a(L106L
L0L
(lp799
(lp800
tp801
a(L93674324L
L0L
(lp802
(lp803
tp804
a(L1872515523L
L1443213481L
(lp805
(lp806
tp807
a(L1215408024L
L1443213481L
(lp808
(lp809
tp810
a(L1872515506L
L1443213481L
(lp811
(lp812
tp813
a(L106L
L0L
(lp814
(lp815
tp816
a(L1872515506L
L1443213481L
(lp817
(lp818
tp819
a(L106L
L0L
(lp820
(lp821
tp822
a(L268651496L
L1443213481L
(lp823
(lp824
tp825
atp826
sI1074235680
(Vbootloader_flash_xmc_startup
p827
(lp828
(L3433652179L
L242900614L
(lp829
(lp830
Vis_xmc_chip_strict
p831
atp832
a(L2258688482L
L0L
(lp833
(lp834
tp835
a(L3360570486L
L0L
(lp836
(lp837
tp838
a(L2860324232L
L3785322319L
(lp839
(lp840
Vbootloader_flash_read_sfdp
p841
atp842
a(L933155447L
L3609046414L
(lp843
(lp844
Vesp_log_early_timestamp
p845
aVbootloader_execute_flash_command
p846
aVbootloader_execute_flash_command
p847
aVbootloader_execute_flash_command
p848
aVbootloader_execute_flash_command
p849
aVbootloader_read_flash_id
p850
aVis_xmc_chip_strict
p851
atp852
a(L1000132677L
L3187408090L
(lp853
(lp854
Vesp_log_early_timestamp
p855
atp856
atp857
sI1074269728
(Vbootloader_check_bootloader_validity
p858
(lp859
(L2945382592L
L1069700966L
(lp860
(lp861
Vefuse_hal_chip_revision
p862
aVesp_log_early_timestamp
p863
aVbootloader_common_check_chip_validity
p864
atp865
atp866
sI1074236972
(Vefuse_hal_get_disable_wafer_version_major
p867
(lp868
(L4194175088L
L0L
(lp869
(lp870
tp871
atp872
sI1074237484
(Vbootloader_mmap
p873
(lp874
(L3007611739L
L2195759072L
(lp875
(lp876
tp877
a(L1328961945L
L2147981551L
(lp878
(lp879
Vesp_log_early_timestamp
p880
atp881
a(L1596194698L
L1443213481L
(lp882
(lp883
tp884
a(L3729184599L
L0L
(lp885
(lp886
tp887
a(L4163264550L
L3187408090L
(lp888
(lp889
Vesp_log_early_timestamp
p890
atp891
a(L2258688482L
L0L
(lp892
(lp893
tp894
a(L3360570486L
L0L
(lp895
(lp896
tp897
a(L3419814624L
L1443213481L
(lp898
(lp899
tp900
a(L1441818867L
L1690040256L
(lp901
(lp902
tp903
a(L3433564204L
L362179215L
(lp904
(lp905
Vesp_log_early_timestamp
p906
atp907
a(L2543114737L
L2147981551L
(lp908
(lp909
Vesp_log_early_timestamp
p910
atp911
a(L1137490703L
L2195759072L
(lp912
(lp913
tp914
atp915
sI1074245676
(Vrtc_clk_cpu_freq_mhz_to_config
p916
(lp917
(L908718885L
L3785322319L
(lp918
(lp919
Vrtc_clk_xtal_freq_get
p920
atp921
a(L60460069L
L0L
(lp922
(lp923
tp924
a(L3802072124L
L0L
(lp925
(lp926
tp927
a(L3159006042L
L0L
(lp928
(lp929
tp930
a(L3360570486L
L0L
(lp931
(lp932
tp933
a(L895147205L
L0L
(lp934
(lp935
tp936
a(L3970036657L
L0L
(lp937
(lp938
tp939
a(L2731353429L
L0L
(lp940
(lp941
tp942
a(L1555485793L
L0L
(lp943
(lp944
tp945
a(L2258897023L
L0L
(lp946
(lp947
tp948
a(L1947499251L
L0L
(lp949
(lp950
tp951
a(L1306331021L
L0L
(lp952
(lp953
tp954
atp955
sI1074235944
(Vbootloader_flash_gpio_config
p956
(lp957
(L3362256192L
L3785322319L
(lp958
(lp959
Vbootloader_common_get_chip_ver_pkg
p960
atp961
a(L106L
L0L
(lp962
(lp963
tp964
a(L1998579353L
L0L
(lp965
(lp966
tp967
a(L106L
L0L
(lp968
(lp969
tp970
a(L1839763068L
L1443213481L
(lp971
(lp972
tp973
a(L2440320488L
L1396946377L
(lp974
(lp975
tp976
a(L106L
L0L
(lp977
(lp978
tp979
a(L4003626558L
L0L
(lp980
(lp981
tp982
a(L2164907201L
L2534110409L
(lp983
(lp984
tp985
a(L3360570486L
L0L
(lp986
(lp987
tp988
atp989
sI1074236980
(Vesp_log_early_timestamp
p990
(lp991
(L4015029253L
L1443213481L
(lp992
(lp993
tp994
atp995
sI1074238000
(Vbootloader_flash_erase_sector
p996
(lp997
(L4129137686L
L1880226080L
(lp998
(lp999
Vesp_rom_spiflash_erase_sector
p1000
aVspi_to_esp_err
p1001
atp1002
atp1003
sI1074237744
(Vbootloader_flash_read
p1004
(lp1005
(L3022618172L
L0L
(lp1006
(lp1007
tp1008
a(L2493247481L
L2147981551L
(lp1009
(lp1010
Vesp_log_early_timestamp
p1011
atp1012
a(L852987398L
L1443213481L
(lp1013
(lp1014
tp1015
a(L1351513776L
L0L
(lp1016
(lp1017
tp1018
a(L1486740491L
L0L
(lp1019
(lp1020
tp1021
a(L4276228047L
L2147981551L
(lp1022
(lp1023
Vesp_log_early_timestamp
p1024
atp1025
a(L3283691850L
L0L
(lp1026
(lp1027
tp1028
a(L4276228016L
L2147981551L
(lp1029
(lp1030
Vesp_log_early_timestamp
p1031
atp1032
a(L3020204L
L0L
(lp1033
(lp1034
tp1035
a(L384130671L
L0L
(lp1036
(lp1037
tp1038
a(L97422L
L0L
(lp1039
(lp1040
tp1041
a(L515889772L
L2195759072L
(lp1042
(lp1043
tp1044
a(L3321969934L
L1690040256L
(lp1045
(lp1046
tp1047
a(L279744554L
L4032149094L
(lp1048
(lp1049
V__assert_func
p1050
atp1051
a(L4071371888L
L2534110409L
(lp1052
(lp1053
tp1054
a(L2438181396L
L1443213481L
(lp1055
(lp1056
tp1057
a(L1976506429L
L3635241909L
(lp1058
(lp1059
Vesp_rom_spiflash_read
p1060
aVspi_to_esp_err
p1061
atp1062
atp1063
sI1074241328
(Vbootloader_util_regions_overlap
p1064
(lp1065
(L2762640130L
L0L
(lp1066
(lp1067
tp1068
a(L1697654632L
L2195759072L
(lp1069
(lp1070
tp1071
a(L2213948952L
L242900614L
(lp1072
(lp1073
V__assert_func
p1074
atp1075
a(L97642L
L0L
(lp1076
(lp1077
tp1078
a(L1087686177L
L2195759072L
(lp1079
(lp1080
tp1081
a(L366123053L
L0L
(lp1082
(lp1083
tp1084
a(L2258867228L
L0L
(lp1085
(lp1086
tp1087
a(L1253626734L
L0L
(lp1088
(lp1089
tp1090
a(L2258897019L
L0L
(lp1091
(lp1092
tp1093
a(L3109269495L
L0L
(lp1094
(lp1095
tp1096
atp1097
sI1074244924
(Vrtc_clk_cpu_freq_to_pll_mhz
p1098
(lp1099
(L860463073L
L1443213481L
(lp1100
(lp1101
tp1102
a(L3629237403L
L1443213481L
(lp1103
(lp1104
tp1105
a(L4055327139L
L3380333161L
(lp1106
(lp1107
Vesp_rom_set_cpu_ticks_per_us
p1108
aVrtc_clk_wait_for_slow_cycle
p1109
atp1110
a(L3007305308L
L1443213481L
(lp1111
(lp1112
tp1113
a(L3293824299L
L0L
(lp1114
(lp1115
tp1116
a(L94425498L
L3785322319L
(lp1117
(lp1118
Vabort
p1119
atp1120
a(L1611366926L
L0L
(lp1121
(lp1122
tp1123
a(L1611366957L
L0L
(lp1124
(lp1125
tp1126
atp1127
sI1074267720
(Vesp_bootloader_get_description
p1128
(lp1129
(L2248573785L
L2195759072L
(lp1130
(lp1131
tp1132
atp1133
sI1074270280
(Vrtc_clk_init
p1134
(lp1135
(L1100006719L
L1443213481L
(lp1136
(lp1137
tp1138
a(L42671777L
L3785322319L
(lp1139
(lp1140
Vrtc_clk_cpu_freq_to_xtal
p1141
atp1142
a(L739905763L
L1743007695L
(lp1143
(lp1144
Vrtc_clk_xtal_freq_get
p1145
atp1146
a(L3028481L
L0L
(lp1147
(lp1148
tp1149
a(L4284274517L
L3785322319L
(lp1150
(lp1151
Vrtc_clk_xtal_freq_estimate
p1152
atp1153
a(L2576622952L
L3187408090L
(lp1154
(lp1155
Vesp_log_early_timestamp
p1156
atp1157
a(L1822030105L
L3065544262L
(lp1158
(lp1159
Vesp_rom_uart_tx_wait_idle
p1160
aVrtc_clk_xtal_freq_update
p1161
aVrtc_clk_apb_freq_update
p1162
aVrtc_clk_cpu_freq_get_config
p1163
aVrtc_clk_cpu_freq_mhz_to_config
p1164
atp1165
a(L521302419L
L2704288053L
(lp1166
(lp1167
Vesp_log_early_timestamp
p1168
aVabort
p1169
atp1170
a(L2902417580L
L0L
(lp1171
(lp1172
tp1173
a(L1899970065L
L0L
(lp1174
(lp1175
tp1176
a(L377687546L
L3785322319L
(lp1177
(lp1178
Vrtc_clk_xtal_freq_estimate
p1179
atp1180
a(L2163742247L
L3187408090L
(lp1181
(lp1182
Vesp_log_early_timestamp
p1183
atp1184
a(L299116989L
L2426646996L
(lp1185
(lp1186
Vrtc_clk_cpu_freq_set_config
p1187
aV__udivdi3
p1188
atp1189
a(L912310138L
L3785322319L
(lp1190
(lp1191
Vrtc_clk_32k_enable
p1192
atp1193
a(L3191820416L
L1832448559L
(lp1194
(lp1195
Vrtc_clk_8m_enable
p1196
aVrtc_clk_fast_src_set
p1197
aVrtc_clk_slow_src_set
p1198
atp1199
a(L1232958848L
L0L
(lp1200
(lp1201
tp1202
atp1203
sI1074238020
(Vbootloader_flash_write
p1204
(lp1205
(L3770380603L
L0L
(lp1206
(lp1207
tp1208
a(L2654201950L
L2147981551L
(lp1209
(lp1210
Vesp_log_early_timestamp
p1211
atp1212
a(L4207910112L
L1443213481L
(lp1213
(lp1214
tp1215
a(L1610445075L
L0L
(lp1216
(lp1217
tp1218
a(L735741265L
L0L
(lp1219
(lp1220
tp1221
a(L3291333414L
L0L
(lp1222
(lp1223
tp1224
a(L416217162L
L2147981551L
(lp1225
(lp1226
Vesp_log_early_timestamp
p1227
atp1228
a(L3283691850L
L0L
(lp1229
(lp1230
tp1231
a(L212182276L
L3187408090L
(lp1232
(lp1233
Vesp_log_early_timestamp
p1234
atp1235
a(L3212356251L
L3785322319L
(lp1236
(lp1237
Vbootloader_flash_unlock
p1238
atp1239
a(L1799218633L
L0L
(lp1240
(lp1241
tp1242
a(L94425498L
L3785322319L
(lp1243
(lp1244
Vesp_rom_spiflash_write_encrypted
p1245
atp1246
a(L2927190544L
L3785322319L
(lp1247
(lp1248
Vspi_to_esp_err
p1249
atp1250
a(L2927190544L
L3785322319L
(lp1251
(lp1252
Vesp_rom_spiflash_write
p1253
atp1254
atp1255
sI1074236740
(Vefuse_hal_chip_revision
p1256
(lp1257
(L2719302832L
L1880226080L
(lp1258
(lp1259
Vefuse_hal_get_major_chip_version
p1260
aVefuse_hal_get_minor_chip_version
p1261
atp1262
atp1263
sI1074241856
(Vprocess_appended_hash_and_sig
p1264
(lp1265
(L1668084157L
L0L
(lp1266
(lp1267
tp1268
a(L2910371777L
L0L
(lp1269
(lp1270
tp1271
a(L4285188111L
L0L
(lp1272
(lp1273
tp1274
a(L1151175705L
L0L
(lp1275
(lp1276
tp1277
a(L97689L
L0L
(lp1278
(lp1279
tp1280
a(L2250231589L
L3187408090L
(lp1281
(lp1282
Vesp_log_early_timestamp
p1283
atp1284
a(L268651496L
L1443213481L
(lp1285
(lp1286
tp1287
a(L1464893571L
L3785322319L
(lp1288
(lp1289
Vbootloader_flash_read
p1290
atp1291
a(L735741265L
L0L
(lp1292
(lp1293
tp1294
atp1295
sI1074245952
(Vrtc_clk_apb_freq_update
p1296
(lp1297
(L3982322780L
L1443213481L
(lp1298
(lp1299
tp1300
atp1301
sI1074247500
(Vesp_rom_spiflash_read_status
p1302
(lp1303
(L3588638125L
L1443213481L
(lp1304
(lp1305
tp1306
a(L4250092034L
L2534110409L
(lp1307
(lp1308
tp1309
a(L4159619641L
L0L
(lp1310
(lp1311
tp1312
a(L2392720019L
L0L
(lp1313
(lp1314
tp1315
a(L2258688487L
L0L
(lp1316
(lp1317
tp1318
a(L4159619145L
L0L
(lp1319
(lp1320
tp1321
a(L3241763332L
L1443213481L
(lp1322
(lp1323
tp1324
a(L3117156279L
L0L
(lp1325
(lp1326
tp1327
a(L2123059967L
L0L
(lp1328
(lp1329
tp1330
a(L582177370L
L0L
(lp1331
(lp1332
tp1333
atp1334
sI1074270020
(Vbootloader_console_init
p1335
(lp1336
(L3806010175L
L988378406L
(lp1337
(lp1338
Vesp_rom_uart_tx_wait_idle
p1339
aVrtc_clk_apb_freq_get
p1340
aVesp_rom_uart_set_clock_baudrate
p1341
atp1342
atp1343
sI1074249032
(V_fini
p1344
(lp1345
(L3493042598L
L0L
(lp1346
(lp1347
tp1348
atp1349
sI1074237012
(Vbootloader_common_ota_select_crc
p1350
(lp1351
(L2925798959L
L1443213481L
(lp1352
(lp1353
tp1354
atp1355
sI1074267728
(Vcall_start_cpu0
p1356
(lp1357
(L342432055L
L1443213481L
(lp1358
(lp1359
tp1360
a(L4207910112L
L1443213481L
(lp1361
(lp1362
tp1363
a(L3212347974L
L3785322319L
(lp1364
(lp1365
Vbootloader_init
p1366
atp1367
a(L94425498L
L3785322319L
(lp1368
(lp1369
Vbootloader_reset
p1370
atp1371
a(L1872507246L
L1443213481L
(lp1372
(lp1373
tp1374
a(L4207910112L
L1443213481L
(lp1375
(lp1376
tp1377
a(L356913563L
L2218577417L
(lp1378
(lp1379
Vmemset
p1380
aVbootloader_utility_load_partition_table
p1381
atp1382
a(L3014296803L
L3187408090L
(lp1383
(lp1384
Vesp_log_early_timestamp
p1385
atp1386
a(L405422123L
L3785322319L
(lp1387
(lp1388
Vbootloader_utility_get_selected_boot_partition
p1389
atp1390
a(L2025208509L
L242900614L
(lp1391
(lp1392
Vbootloader_utility_load_boot_image
p1393
atp1394
atp1395
sI1074236764
(Vefuse_hal_flash_encryption_enabled
p1396
(lp1397
(L221474917L
L1443213481L
(lp1398
(lp1399
tp1400
a(L2910371777L
L0L
(lp1401
(lp1402
tp1403
a(L3360570486L
L0L
(lp1404
(lp1405
tp1406
a(L3016870L
L0L
(lp1407
(lp1408
tp1409
a(L3745038218L
L0L
(lp1410
(lp1411
tp1412
a(L957607403L
L0L
(lp1413
(lp1414
tp1415
atp1416
sI1074244188
(Vwdt_hal_config_stage
p1417
(lp1418
(L331558507L
L0L
(lp1419
(lp1420
tp1421
a(L4279082939L
L0L
(lp1422
(lp1423
tp1424
a(L93674324L
L0L
(lp1425
(lp1426
tp1427
a(L2902417580L
L0L
(lp1428
(lp1429
tp1430
a(L1506709436L
L1443213481L
(lp1431
(lp1432
tp1433
a(L3020187L
L0L
(lp1434
(lp1435
tp1436
a(L94425498L
L3785322319L
(lp1437
(lp1438
Vabort
p1439
atp1440
a(L1999536000L
L1443213481L
(lp1441
(lp1442
tp1443
a(L3360570486L
L0L
(lp1444
(lp1445
tp1446
a(L2402105077L
L1443213481L
(lp1447
(lp1448
tp1449
a(L3297501927L
L1443213481L
(lp1450
(lp1451
tp1452
a(L4278159418L
L0L
(lp1453
(lp1454
tp1455
a(L93674324L
L0L
(lp1456
(lp1457
tp1458
a(L3020204L
L0L
(lp1459
(lp1460
tp1461
a(L2956541743L
L1443213481L
(lp1462
(lp1463
tp1464
a(L3020187L
L0L
(lp1465
(lp1466
tp1467
a(L106L
L0L
(lp1468
(lp1469
tp1470
a(L1473987957L
L1443213481L
(lp1471
(lp1472
tp1473
a(L927955509L
L1443213481L
(lp1474
(lp1475
tp1476
a(L3740367810L
L1443213481L
(lp1477
(lp1478
tp1479
atp1480
sI1074245980
(Vrtc_clk_cpu_freq_to_xtal
p1481
(lp1482
(L767415990L
L3785322319L
(lp1483
(lp1484
Vesp_rom_set_cpu_ticks_per_us
p1485
atp1486
a(L94425498L
L3785322319L
(lp1487
(lp1488
Vabort
p1489
atp1490
a(L749912951L
L671729222L
(lp1491
(lp1492
Vrtc_clk_apb_freq_update
p1493
atp1494
a(L2258867230L
L0L
(lp1495
(lp1496
tp1497
a(L1803595874L
L2195759072L
(lp1498
(lp1499
tp1500
atp1501
sI1074248028
(Vesp_rom_spiflash_write
p1502
(lp1503
(L924384987L
L1679261929L
(lp1504
(lp1505
tp1506
a(L2258688483L
L0L
(lp1507
(lp1508
tp1509
a(L3360570486L
L0L
(lp1510
(lp1511
tp1512
a(L3368132847L
L0L
(lp1513
(lp1514
tp1515
a(L3106685981L
L0L
(lp1516
(lp1517
tp1518
a(L3488660639L
L3785322319L
(lp1519
(lp1520
Vesp_rom_spiflash_program_page_internal
p1521
atp1522
a(L3543402353L
L3785322319L
(lp1523
(lp1524
Vesp_rom_spiflash_program_page_internal
p1525
atp1526
a(L4222526342L
L0L
(lp1527
(lp1528
tp1529
a(L2004208511L
L0L
(lp1530
(lp1531
tp1532
a(L564470656L
L0L
(lp1533
(lp1534
tp1535
a(L441922648L
L3785322319L
(lp1536
(lp1537
Vesp_rom_spiflash_program_page_internal
p1538
atp1539
a(L2302069176L
L0L
(lp1540
(lp1541
tp1542
atp1543
sI1074245208
(Vrtc_clk_8m_enable
p1544
(lp1545
(L2359152383L
L2195759072L
(lp1546
(lp1547
tp1548
a(L2145669267L
L1443213481L
(lp1549
(lp1550
tp1551
a(L2151320156L
L0L
(lp1552
(lp1553
tp1554
a(L1262936142L
L1443213481L
(lp1555
(lp1556
tp1557
a(L3360570486L
L0L
(lp1558
(lp1559
tp1560
a(L1318267208L
L0L
(lp1561
(lp1562
tp1563
a(L1085208965L
L1443213481L
(lp1564
(lp1565
tp1566
atp1567
sI1074234712
(Vbootloader_common_get_chip_ver_pkg
p1568
(lp1569
(L3197874814L
L1443213481L
(lp1570
(lp1571
tp1572
atp1573
sI1074248280
(Vesp_rom_spiflash_read
p1574
(lp1575
(L1499485309L
L1690040256L
(lp1576
(lp1577
tp1578
a(L3114780042L
L1679261929L
(lp1579
(lp1580
tp1581
a(L2860271684L
L0L
(lp1582
(lp1583
tp1584
a(L1872504408L
L1443213481L
(lp1585
(lp1586
tp1587
a(L106L
L0L
(lp1588
(lp1589
tp1590
a(L633884026L
L0L
(lp1591
(lp1592
tp1593
a(L106L
L0L
(lp1594
(lp1595
tp1596
a(L1100272902L
L1443213481L
(lp1597
(lp1598
tp1599
a(L1372101025L
L1690040256L
(lp1600
(lp1601
tp1602
a(L974197278L
L2195759072L
(lp1603
(lp1604
tp1605
a(L336550648L
L0L
(lp1606
(lp1607
tp1608
a(L3167414617L
L1443213481L
(lp1609
(lp1610
tp1611
a(L106L
L0L
(lp1612
(lp1613
tp1614
a(L3138763340L
L362179215L
(lp1615
(lp1616
Vesp_rom_spiflash_wait_idle
p1617
atp1618
a(L3021737L
L0L
(lp1619
(lp1620
tp1621
a(L106L
L0L
(lp1622
(lp1623
tp1624
a(L1868280504L
L0L
(lp1625
(lp1626
tp1627
a(L106L
L0L
(lp1628
(lp1629
tp1630
a(L750281353L
L0L
(lp1631
(lp1632
tp1633
a(L3897437082L
L0L
(lp1634
(lp1635
tp1636
a(L4122060822L
L0L
(lp1637
(lp1638
tp1639
a(L483218220L
L1443213481L
(lp1640
(lp1641
tp1642
a(L2989032L
L0L
(lp1643
(lp1644
tp1645
a(L3819849625L
L0L
(lp1646
(lp1647
tp1648
a(L1082031446L
L2195759072L
(lp1649
(lp1650
tp1651
a(L1872504408L
L1443213481L
(lp1652
(lp1653
tp1654
a(L147213506L
L1443213481L
(lp1655
(lp1656
tp1657
a(L2062799182L
L2534110409L
(lp1658
(lp1659
tp1660
a(L2921907736L
L0L
(lp1661
(lp1662
tp1663
a(L3677617742L
L1443213481L
(lp1664
(lp1665
tp1666
a(L2483025066L
L1679261929L
(lp1667
(lp1668
tp1669
a(L2136664087L
L1443213481L
(lp1670
(lp1671
tp1672
a(L3000478599L
L2195759072L
(lp1673
(lp1674
tp1675
a(L3333707777L
L0L
(lp1676
(lp1677
tp1678
a(L3251955268L
L0L
(lp1679
(lp1680
tp1681
a(L3418540920L
L0L
(lp1682
(lp1683
tp1684
a(L4183823801L
L1443213481L
(lp1685
(lp1686
tp1687
a(L97689L
L0L
(lp1688
(lp1689
tp1690
a(L2258897019L
L0L
(lp1691
(lp1692
tp1693
a(L4014024819L
L0L
(lp1694
(lp1695
tp1696
a(L3621567083L
L0L
(lp1697
(lp1698
tp1699
atp1700
sI1074270056
(Vesp_cpu_configure_region_protection
p1701
(lp1702
(L3233924472L
L581251951L
(lp1703
(lp1704
Vmemcpy
p1705
atp1706
a(L180431425L
L3785322319L
(lp1707
(lp1708
Vmpu_hal_set_region_access
p1709
atp1710
a(L2537388152L
L3785322319L
(lp1711
(lp1712
Vmpu_hal_set_region_access
p1713
atp1714
atp1715
sI1074244704
(Vmmu_hal_unmap_all
p1716
(lp1717
(L3970138582L
L1443213481L
(lp1718
(lp1719
tp1720
a(L2010554219L
L0L
(lp1721
(lp1722
tp1723
a(L147213506L
L1443213481L
(lp1724
(lp1725
tp1726
a(L3212334523L
L0L
(lp1727
(lp1728
tp1729
a(L2010554219L
L0L
(lp1730
(lp1731
tp1732
a(L3360570486L
L0L
(lp1733
(lp1734
tp1735
atp1736
sI1074240876
(Vbootloader_console_deinit
p1737
(lp1738
(L1858531217L
L1443213481L
(lp1739
(lp1740
tp1741
atp1742
sI1074238316
(Vbootloader_random_disable
p1743
(lp1744
(L482324986L
L2935979744L
(lp1745
(lp1746
tp1747
atp1748
sI1074269796
(Vbootloader_config_wdt
p1749
(lp1750
(L3447475412L
L603716358L
(lp1751
(lp1752
Vwdt_hal_write_protect_disable
p1753
aVwdt_hal_set_flashboot_en
p1754
aVwdt_hal_write_protect_enable
p1755
aVwdt_hal_init
p1756
aVrtc_clk_slow_freq_get_hz
p1757
aVwdt_hal_write_protect_disable
p1758
aV__udivdi3
p1759
aVwdt_hal_config_stage
p1760
aVwdt_hal_enable
p1761
aVwdt_hal_write_protect_enable
p1762
aVwdt_hal_write_protect_disable
p1763
aVwdt_hal_set_flashboot_en
p1764
aVwdt_hal_write_protect_enable
p1765
atp1766
atp1767
sI1074237032
(Vbootloader_common_ota_select_valid
p1768
(lp1769
(L1563399710L
L3785322319L
(lp1770
(lp1771
Vbootloader_common_ota_select_invalid
p1772
atp1773
a(L3814720849L
L3785322319L
(lp1774
(lp1775
Vbootloader_common_ota_select_crc
p1776
atp1777
a(L3360570486L
L0L
(lp1778
(lp1779
tp1780
atp1781
sI1074241384
(Vverify_load_addresses
p1782
(lp1783
(L2764487219L
L0L
(lp1784
(lp1785
tp1786
a(L106L
L0L
(lp1787
(lp1788
tp1789
a(L97642L
L0L
(lp1790
(lp1791
tp1792
a(L1682572953L
L4032149094L
(lp1793
(lp1794
V__assert_func
p1795
atp1796
a(L371731316L
L2195759072L
(lp1797
(lp1798
tp1799
a(L106L
L0L
(lp1800
(lp1801
tp1802
a(L3747671351L
L2195759072L
(lp1803
(lp1804
tp1805
a(L106L
L0L
(lp1806
(lp1807
tp1808
a(L159211233L
L4171435875L
(lp1809
(lp1810
Vbootloader_util_regions_overlap
p1811
atp1812
a(L3369736729L
L581251951L
(lp1813
(lp1814
Vbootloader_util_regions_overlap
p1815
atp1816
a(L3028481L
L0L
(lp1817
(lp1818
tp1819
a(L129067213L
L242900614L
(lp1820
(lp1821
Vbootloader_util_regions_overlap
p1822
atp1823
a(L51970127L
L2534110409L
(lp1824
(lp1825
tp1826
a(L3212477138L
L1443213481L
(lp1827
(lp1828
tp1829
a(L1032381749L
L0L
(lp1830
(lp1831
tp1832
a(L2837304413L
L0L
(lp1833
(lp1834
tp1835
a(L677569396L
L3785322319L
(lp1836
(lp1837
Vverify_load_addresses
p1838
atp1839
a(L1351513776L
L0L
(lp1840
(lp1841
tp1842
a(L956755582L
L0L
(lp1843
(lp1844
tp1845
a(L1550159667L
L1443213481L
(lp1846
(lp1847
tp1848
a(L2297907636L
L2195759072L
(lp1849
(lp1850
tp1851
a(L106L
L0L
(lp1852
(lp1853
tp1854
a(L1378880375L
L2195759072L
(lp1855
(lp1856
tp1857
a(L106L
L0L
(lp1858
(lp1859
tp1860
a(L1933245593L
L581251951L
(lp1861
(lp1862
Vbootloader_util_regions_overlap
p1863
atp1864
a(L3028481L
L0L
(lp1865
(lp1866
tp1867
a(L2219806806L
L581251951L
(lp1868
(lp1869
Vbootloader_util_regions_overlap
p1870
atp1871
a(L3186102034L
L1690040256L
(lp1872
(lp1873
tp1874
a(L1284972329L
L1443213481L
(lp1875
(lp1876
tp1877
a(L3236457224L
L1443213481L
(lp1878
(lp1879
tp1880
a(L2743341656L
L0L
(lp1881
(lp1882
tp1883
a(L182882711L
L0L
(lp1884
(lp1885
tp1886
a(L2268367078L
L2195759072L
(lp1887
(lp1888
tp1889
a(L297163306L
L0L
(lp1890
(lp1891
tp1892
a(L1900059593L
L0L
(lp1893
(lp1894
tp1895
a(L376010266L
L2534110409L
(lp1896
(lp1897
tp1898
a(L1319531632L
L1443213481L
(lp1899
(lp1900
tp1901
a(L3929371936L
L0L
(lp1902
(lp1903
tp1904
a(L147213506L
L1443213481L
(lp1905
(lp1906
tp1907
a(L4072848040L
L0L
(lp1908
(lp1909
tp1910
a(L106L
L0L
(lp1911
(lp1912
tp1913
a(L268651496L
L1443213481L
(lp1914
(lp1915
tp1916
a(L147213506L
L1443213481L
(lp1917
(lp1918
tp1919
a(L3020204L
L0L
(lp1920
(lp1921
tp1922
a(L885671544L
L2275292552L
(lp1923
(lp1924
Vesp_log_early_timestamp
p1925
atp1926
a(L1303560396L
L0L
(lp1927
(lp1928
tp1929
a(L268651496L
L1443213481L
(lp1930
(lp1931
tp1932
a(L1303560427L
L0L
(lp1933
(lp1934
tp1935
atp1936
sI1074241140
(Vprocess_image_header
p1937
(lp1938
(L3301900732L
L2218577417L
(lp1939
(lp1940
Vmemset
p1941
aVbootloader_flash_read
p1942
atp1943
a(L3020204L
L0L
(lp1944
(lp1945
tp1946
a(L4205021202L
L0L
(lp1947
(lp1948
tp1949
a(L321261932L
L0L
(lp1950
(lp1951
tp1952
a(L1161397362L
L3785322319L
(lp1953
(lp1954
Vbootloader_sha256_start
p1955
atp1956
a(L2062774299L
L3785322319L
(lp1957
(lp1958
Vbootloader_sha256_data
p1959
atp1960
a(L1291118193L
L0L
(lp1961
(lp1962
tp1963
a(L3028481L
L0L
(lp1964
(lp1965
tp1966
a(L559062533L
L3187408090L
(lp1967
(lp1968
Vesp_log_early_timestamp
p1969
atp1970
a(L147213506L
L1443213481L
(lp1971
(lp1972
tp1973
a(L2983970029L
L0L
(lp1974
(lp1975
tp1976
a(L4235213884L
L3785322319L
(lp1977
(lp1978
Vbootloader_common_check_chip_validity
p1979
atp1980
a(L4144303915L
L0L
(lp1981
(lp1982
tp1983
a(L3028481L
L0L
(lp1984
(lp1985
tp1986
a(L3714328738L
L3187408090L
(lp1987
(lp1988
Vesp_log_early_timestamp
p1989
atp1990
a(L2852701393L
L0L
(lp1991
(lp1992
tp1993
a(L2122516551L
L0L
(lp1994
(lp1995
tp1996
a(L3064492592L
L0L
(lp1997
(lp1998
tp1999
atp2000
sI1074235248
(Vbootloader_execute_flash_command
p2001
(lp2002
(L2481595632L
L3785322319L
(lp2003
(lp2004
Vbootloader_flash_execute_command_common
p2005
atp2006
atp2007
sI1074240892
(V__assert_func
p2008
(lp2009
(L3115292802L
L2195759072L
(lp2010
(lp2011
tp2012
a(L106L
L0L
(lp2013
(lp2014
tp2015
atp2016
sI1074238844
(Vtry_load_partition
p2017
(lp2018
(L1263750142L
L0L
(lp2019
(lp2020
tp2021
a(L2258688482L
L0L
(lp2022
(lp2023
tp2024
a(L3360570486L
L0L
(lp2025
(lp2026
tp2027
a(L530241438L
L3785322319L
(lp2028
(lp2029
Vbootloader_load_image
p2030
atp2031
a(L4168266278L
L3187408090L
(lp2032
(lp2033
Vesp_log_early_timestamp
p2034
atp2035
atp2036
sI1074237308
(Vbootloader_common_get_active_otadata
p2037
(lp2038
(L3317503532L
L0L
(lp2039
(lp2040
tp2041
a(L2503049265L
L1832448559L
(lp2042
(lp2043
Vbootloader_common_ota_select_valid
p2044
aVbootloader_common_ota_select_valid
p2045
aVbootloader_common_select_otadata
p2046
atp2047
a(L735741265L
L0L
(lp2048
(lp2049
tp2050
atp2051
sI1074245500
(Vrtc_clk_slow_src_get
p2052
(lp2053
(L1566794270L
L1443213481L
(lp2054
(lp2055
tp2056
a(L3020187L
L0L
(lp2057
(lp2058
tp2059
a(L2902417580L
L0L
(lp2060
(lp2061
tp2062
a(L2258688485L
L0L
(lp2063
(lp2064
tp2065
a(L3360570486L
L0L
(lp2066
(lp2067
tp2068
atp2069
sI1074234744
(Vesp_flash_encryption_enabled
p2070
(lp2071
(L376617603L
L3785322319L
(lp2072
(lp2073
Vefuse_hal_flash_encryption_enabled
p2074
atp2075
atp2076
sI1074239876
(Vbootloader_utility_get_selected_boot_partition
p2077
(lp2078
(L2938832293L
L0L
(lp2079
(lp2080
tp2081
a(L2250662613L
L1443213481L
(lp2082
(lp2083
tp2084
a(L3987062097L
L2147981551L
(lp2085
(lp2086
Vesp_log_early_timestamp
p2087
atp2088
a(L558289164L
L1443213481L
(lp2089
(lp2090
tp2091
a(L3360570486L
L0L
(lp2092
(lp2093
tp2094
a(L3118387733L
L3785322319L
(lp2095
(lp2096
Vbootloader_mmap
p2097
atp2098
a(L3080008394L
L2147981551L
(lp2099
(lp2100
Vesp_log_early_timestamp
p2101
atp2102
a(L937961821L
L2410515468L
(lp2103
(lp2104
Vmemcpy
p2105
aVmemcpy
p2106
aVbootloader_munmap
p2107
aVbootloader_common_ota_select_invalid
p2108
atp2109
a(L2911028409L
L0L
(lp2110
(lp2111
tp2112
a(L726754926L
L3785322319L
(lp2113
(lp2114
Vbootloader_common_get_active_otadata
p2115
atp2116
a(L106L
L0L
(lp2117
(lp2118
tp2119
a(L4179097382L
L0L
(lp2120
(lp2121
tp2122
a(L788494392L
L3785322319L
(lp2123
(lp2124
Vbootloader_common_ota_select_invalid
p2125
atp2126
a(L638952356L
L1443213481L
(lp2127
(lp2128
tp2129
a(L1522345576L
L3833084538L
(lp2130
(lp2131
Vesp_log_early_timestamp
p2132
atp2133
a(L4207910112L
L1443213481L
(lp2134
(lp2135
tp2136
a(L1641201884L
L0L
(lp2137
(lp2138
tp2139
a(L3196944801L
L2147981551L
(lp2140
(lp2141
Vesp_log_early_timestamp
p2142
atp2143
a(L2302032704L
L0L
(lp2144
(lp2145
tp2146
a(L1173788779L
L3785322319L
(lp2147
(lp2148
Vbootloader_common_ota_select_crc
p2149
atp2150
a(L178397698L
L1443213481L
(lp2151
(lp2152
tp2153
a(L1324800084L
L3785322319L
(lp2154
(lp2155
Vbootloader_common_ota_select_crc
p2156
atp2157
a(L1299866312L
L0L
(lp2158
(lp2159
tp2160
a(L2704362655L
L1443213481L
(lp2161
(lp2162
tp2163
a(L344024800L
L3833084538L
(lp2164
(lp2165
Vesp_log_early_timestamp
p2166
atp2167
a(L1194215008L
L3833084538L
(lp2168
(lp2169
Vesp_log_early_timestamp
p2170
atp2171
atp2172
sI1074236804
(Vefuse_hal_get_major_chip_version
p2173
(lp2174
(L1572156932L
L2195759072L
(lp2175
(lp2176
tp2177
a(L894792960L
L0L
(lp2178
(lp2179
tp2180
a(L724635033L
L0L
(lp2181
(lp2182
tp2183
a(L3360570486L
L0L
(lp2184
(lp2185
tp2186
atp2187
sI1074234756
(Vbootloader_flash_execute_command_common
p2188
(lp2189
(L1988465817L
L0L
(lp2190
(lp2191
tp2192
a(L2946944720L
L2195759072L
(lp2193
(lp2194
tp2195
a(L2213948952L
L242900614L
(lp2196
(lp2197
V__assert_func
p2198
atp2199
a(L3021749L
L0L
(lp2200
(lp2201
tp2202
a(L1160973241L
L2195759072L
(lp2203
(lp2204
tp2205
a(L2792673601L
L1679261929L
(lp2206
(lp2207
tp2208
a(L3792188146L
L0L
(lp2209
(lp2210
tp2211
a(L4024113366L
L0L
(lp2212
(lp2213
tp2214
a(L3275299125L
L1443213481L
(lp2215
(lp2216
tp2217
a(L2232084959L
L2534110409L
(lp2218
(lp2219
tp2220
a(L1099389923L
L0L
(lp2221
(lp2222
tp2223
a(L857553440L
L2195759072L
(lp2224
(lp2225
tp2226
a(L3877681344L
L0L
(lp2227
(lp2228
tp2229
a(L73134175L
L1443213481L
(lp2230
(lp2231
tp2232
a(L1270255739L
L0L
(lp2233
(lp2234
tp2235
a(L3691039583L
L0L
(lp2236
(lp2237
tp2238
a(L3411317116L
L0L
(lp2239
(lp2240
tp2241
a(L3360570486L
L0L
(lp2242
(lp2243
tp2244
atp2245
sI1074247300
(Vrtc_clk_cal_ratio
p2246
(lp2247
(L3870710856L
L195123093L
(lp2248
(lp2249
Vrtc_clk_cal_internal
p2250
aV__udivdi3
p2251
atp2252
atp2253
sI1074237068
(Vbootloader_common_check_chip_validity
p2254
(lp2255
(L2080115690L
L0L
(lp2256
(lp2257
tp2258
a(L3255759481L
L3187408090L
(lp2259
(lp2260
Vesp_log_early_timestamp
p2261
atp2262
a(L1299867982L
L0L
(lp2263
(lp2264
tp2265
a(L3360570486L
L0L
(lp2266
(lp2267
tp2268
a(L521940037L
L3785322319L
(lp2269
(lp2270
Vefuse_hal_chip_revision
p2271
atp2272
a(L332291457L
L1443213481L
(lp2273
(lp2274
tp2275
a(L780168284L
L362179215L
(lp2276
(lp2277
Vesp_log_early_timestamp
p2278
atp2279
a(L3028464L
L0L
(lp2280
(lp2281
tp2282
a(L573448730L
L0L
(lp2283
(lp2284
tp2285
a(L106L
L0L
(lp2286
(lp2287
tp2288
a(L3027019L
L0L
(lp2289
(lp2290
tp2291
a(L106L
L0L
(lp2292
(lp2293
tp2294
a(L3212356251L
L3785322319L
(lp2295
(lp2296
Vefuse_hal_get_disable_wafer_version_major
p2297
atp2298
a(L2465410698L
L362179215L
(lp2299
(lp2300
Vesp_log_early_timestamp
p2301
atp2302
atp2303
sI1074245768
(Vrtc_clk_cpu_freq_get_config
p2304
(lp2305
(L4245581454L
L1443213481L
(lp2306
(lp2307
tp2308
a(L3020187L
L0L
(lp2309
(lp2310
tp2311
a(L3020187L
L0L
(lp2312
(lp2313
tp2314
a(L2734221335L
L242900614L
(lp2315
(lp2316
Vrtc_clk_xtal_freq_get
p2317
atp2318
a(L3789795478L
L0L
(lp2319
(lp2320
tp2321
a(L672805395L
L2704288053L
(lp2322
(lp2323
Vesp_log_early_timestamp
p2324
aVabort
p2325
atp2326
a(L3849169076L
L1443213481L
(lp2327
(lp2328
tp2329
a(L3020187L
L0L
(lp2330
(lp2331
tp2332
a(L3028481L
L0L
(lp2333
(lp2334
tp2335
a(L38508693L
L0L
(lp2336
(lp2337
tp2338
a(L187152368L
L0L
(lp2339
(lp2340
tp2341
a(L1161083655L
L0L
(lp2342
(lp2343
tp2344
a(L1395485899L
L0L
(lp2345
(lp2346
tp2347
a(L2070600034L
L0L
(lp2348
(lp2349
tp2350
atp2351
sI1074246792
(Vrtc_clk_apb_freq_get
p2352
(lp2353
(L189810653L
L1679261929L
(lp2354
(lp2355
tp2356
atp2357
sI1074270104
(Vrtc_clk_xtal_freq_estimate
p2358
(lp2359
(L1823831978L
L1880226080L
(lp2360
(lp2361
Vrtc_clk_8m_enabled
p2362
aVrtc_clk_8md256_enabled
p2363
atp2364
a(L2449794434L
L3785322319L
(lp2365
(lp2366
Vrtc_clk_8m_enable
p2367
atp2368
a(L3726876033L
L2704288053L
(lp2369
(lp2370
Vrtc_clk_cal_ratio
p2371
aV__udivdi3
p2372
atp2373
a(L3934977694L
L0L
(lp2374
(lp2375
tp2376
a(L3955289886L
L0L
(lp2377
(lp2378
tp2379
a(L2553207239L
L3187408090L
(lp2380
(lp2381
Vesp_log_early_timestamp
p2382
atp2383
a(L2307427870L
L0L
(lp2384
(lp2385
tp2386
a(L1281346514L
L3785322319L
(lp2387
(lp2388
Vrtc_clk_8m_enable
p2389
atp2390
a(L3909119106L
L0L
(lp2391
(lp2392
tp2393
a(L2298857999L
L3187408090L
(lp2394
(lp2395
Vesp_log_early_timestamp
p2396
atp2397
a(L3304487880L
L0L
(lp2398
(lp2399
tp2400
a(L1641150486L
L0L
(lp2401
(lp2402
tp2403
a(L2026357443L
L3187408090L
(lp2404
(lp2405
Vesp_log_early_timestamp
p2406
atp2407
atp2408
sI1074240916
(Vabort
p2409
(lp2410
(L2564459292L
L1690040256L
(lp2411
(lp2412
tp2413
a(L409471316L
L0L
(lp2414
(lp2415
tp2416
a(L106L
L0L
(lp2417
(lp2418
tp2419
atp2420
sI1074268060
(Vbootloader_init
p2421
(lp2422
(L2778985116L
L362179215L
(lp2423
(lp2424
Vbootloader_init_mem
p2425
atp2426
a(L2588916198L
L2195759072L
(lp2427
(lp2428
tp2429
a(L2569579240L
L242900614L
(lp2430
(lp2431
V__assert_func
p2432
atp2433
a(L2041988382L
L2534110409L
(lp2434
(lp2435
tp2436
a(L2946990947L
L2195759072L
(lp2437
(lp2438
tp2439
a(L3813782018L
L0L
(lp2440
(lp2441
tp2442
a(L2946991009L
L2195759072L
(lp2443
(lp2444
tp2445
a(L3027019L
L0L
(lp2446
(lp2447
tp2448
a(L2946991040L
L2195759072L
(lp2449
(lp2450
tp2451
a(L4055793689L
L1832448559L
(lp2452
(lp2453
Vbootloader_clear_bss_section
p2454
aVbootloader_common_vddsdio_configure
p2455
aVbootloader_clock_get_rated_freq_mhz
p2456
atp2457
a(L106L
L0L
(lp2458
(lp2459
tp2460
a(L1943573098L
L2769615034L
(lp2461
(lp2462
Vbootloader_clock_configure
p2463
aVbootloader_console_init
p2464
aVbootloader_print_banner
p2465
aVbootloader_flash_update_id
p2466
aVbootloader_flash_xmc_startup
p2467
atp2468
a(L3014296803L
L3187408090L
(lp2469
(lp2470
Vesp_log_early_timestamp
p2471
atp2472
a(L4245842452L
L3187408090L
(lp2473
(lp2474
Vesp_log_early_timestamp
p2475
atp2476
a(L3360570486L
L0L
(lp2477
(lp2478
tp2479
a(L2444883382L
L3785322319L
(lp2480
(lp2481
Vbootloader_read_bootloader_header
p2482
atp2483
a(L2444883382L
L3785322319L
(lp2484
(lp2485
Vbootloader_check_bootloader_validity
p2486
atp2487
a(L2444883382L
L3785322319L
(lp2488
(lp2489
Vbootloader_init_spi_flash
p2490
atp2491
a(L1947007263L
L2195759072L
(lp2492
(lp2493
tp2494
a(L254817508L
L0L
(lp2495
(lp2496
tp2497
a(L93892250L
L0L
(lp2498
(lp2499
tp2500
a(L2915015718L
L0L
(lp2501
(lp2502
tp2503
a(L1460895057L
L2218577417L
(lp2504
(lp2505
Vbootloader_config_wdt
p2506
aVbootloader_enable_random
p2507
atp2508
a(L1895147938L
L0L
(lp2509
(lp2510
tp2511
a(L2680457259L
L0L
(lp2512
(lp2513
tp2514
a(L3027019L
L0L
(lp2515
(lp2516
tp2517
a(L97315L
L0L
(lp2518
(lp2519
tp2520
a(L3014296803L
L3187408090L
(lp2521
(lp2522
Vesp_log_early_timestamp
p2523
atp2524
a(L1766563386L
L3187408090L
(lp2525
(lp2526
Vesp_log_early_timestamp
p2527
atp2528
a(L3164960223L
L0L
(lp2529
(lp2530
tp2531
a(L1895147938L
L0L
(lp2532
(lp2533
tp2534
a(L156585483L
L1880226080L
(lp2535
(lp2536
Vwdt_reset_info_dump
p2537
aVwdt_reset_info_dump
p2538
atp2539
atp2540
sI1074268572
(Vbootloader_common_vddsdio_configure
p2541
(lp2542
(L1829974089L
L3785322319L
(lp2543
(lp2544
Vrtc_vddsdio_get_config
p2545
atp2546
a(L351649043L
L3833084538L
(lp2547
(lp2548
Vrtc_vddsdio_set_config
p2549
atp2550
a(L3360570486L
L0L
(lp2551
(lp2552
tp2553
atp2554
sI1074270876
(Vrtc_vddsdio_set_config
p2555
(lp2556
(L3557742407L
L1443213481L
(lp2557
(lp2558
tp2559
atp2560
sI1074236560
(Vesp_rom_set_cpu_ticks_per_us
p2561
(lp2562
(L396058732L
L2195759072L
(lp2563
(lp2564
tp2565
atp2566
sI1074235280
(Vbootloader_flash_unlock
p2567
(lp2568
(L1368360454L
L242900614L
(lp2569
(lp2570
Vesp_rom_spiflash_wait_idle
p2571
atp2572
a(L1574074940L
L0L
(lp2573
(lp2574
tp2575
a(L1667462067L
L3785322319L
(lp2576
(lp2577
Vbootloader_execute_flash_command
p2578
atp2579
a(L106L
L0L
(lp2580
(lp2581
tp2582
a(L1013678540L
L0L
(lp2583
(lp2584
tp2585
a(L2529045083L
L0L
(lp2586
(lp2587
tp2588
a(L990750093L
L1832448559L
(lp2589
(lp2590
Vesp_rom_spiflash_wait_idle
p2591
aVbootloader_execute_flash_command
p2592
aVbootloader_execute_flash_command
p2593
atp2594
a(L993671302L
L1832448559L
(lp2595
(lp2596
Vesp_rom_spiflash_wait_idle
p2597
aVbootloader_execute_flash_command
p2598
aVbootloader_execute_flash_command
p2599
atp2600
a(L1209048744L
L1880226080L
(lp2601
(lp2602
Vesp_rom_spiflash_wait_idle
p2603
aVbootloader_execute_flash_command
p2604
atp2605
a(L3162775668L
L0L
(lp2606
(lp2607
tp2608
a(L2435612105L
L0L
(lp2609
(lp2610
tp2611
a(L3664359624L
L0L
(lp2612
(lp2613
tp2614
a(L2074930120L
L1880226080L
(lp2615
(lp2616
Vbootloader_execute_flash_command
p2617
aVbootloader_execute_flash_command
p2618
atp2619
a(L2125014318L
L0L
(lp2620
(lp2621
tp2622
a(L568821667L
L0L
(lp2623
(lp2624
tp2625
a(L1711531685L
L1880226080L
(lp2626
(lp2627
Vbootloader_execute_flash_command
p2628
aVbootloader_execute_flash_command
p2629
atp2630
a(L3658700047L
L0L
(lp2631
(lp2632
tp2633
a(L3269997774L
L0L
(lp2634
(lp2635
tp2636
a(L106L
L0L
(lp2637
(lp2638
tp2639
a(L2993202392L
L0L
(lp2640
(lp2641
tp2642
atp2643
sI1074244752
(Vefuse_hal_get_rated_freq_mhz
p2644
(lp2645
(L1158870592L
L1443213481L
(lp2646
(lp2647
tp2648
a(L338960367L
L0L
(lp2649
(lp2650
tp2651
a(L3360570486L
L0L
(lp2652
(lp2653
tp2654
atp2655
sI1074244504
(Vwdt_hal_write_protect_disable
p2656
(lp2657
(L3085072089L
L1443213481L
(lp2658
(lp2659
tp2660
a(L4195472003L
L0L
(lp2661
(lp2662
tp2663
a(L3360570486L
L0L
(lp2664
(lp2665
tp2666
a(L1210571996L
L0L
(lp2667
(lp2668
tp2669
atp2670
sI1074241944
(Vshould_load
p2671
(lp2672
(L4190720747L
L2534110409L
(lp2673
(lp2674
tp2675
a(L1182990556L
L0L
(lp2676
(lp2677
tp2678
a(L1744532171L
L1443213481L
(lp2679
(lp2680
tp2681
a(L2306467100L
L0L
(lp2682
(lp2683
tp2684
a(L4034276159L
L1443213481L
(lp2685
(lp2686
tp2687
a(L2258897019L
L0L
(lp2688
(lp2689
tp2690
a(L3781799363L
L0L
(lp2691
(lp2692
tp2693
a(L3028464L
L0L
(lp2694
(lp2695
tp2696
a(L166133047L
L2195759072L
(lp2697
(lp2698
tp2699
a(L4277114872L
L0L
(lp2700
(lp2701
tp2702
a(L2824381917L
L0L
(lp2703
(lp2704
tp2705
a(L1243412227L
L0L
(lp2706
(lp2707
tp2708
a(L2011157548L
L0L
(lp2709
(lp2710
tp2711
a(L3126521138L
L0L
(lp2712
(lp2713
tp2714
a(L1305407438L
L0L
(lp2715
(lp2716
tp2717
a(L1305407469L
L0L
(lp2718
(lp2719
tp2720
atp2721
sI1074245528
(Vrtc_clk_slow_freq_get_hz
p2722
(lp2723
(L1826267122L
L3785322319L
(lp2724
(lp2725
Vrtc_clk_slow_src_get
p2726
atp2727
a(L1872507229L
L1443213481L
(lp2728
(lp2729
tp2730
a(L2221201615L
L1443213481L
(lp2731
(lp2732
tp2733
a(L3360570486L
L0L
(lp2734
(lp2735
tp2736
atp2737
sI1074237348
(Vbootloader_common_ota_select_invalid
p2738
(lp2739
(L4027567199L
L0L
(lp2740
(lp2741
tp2742
a(L3397985842L
L0L
(lp2743
(lp2744
tp2745
a(L2258867228L
L0L
(lp2746
(lp2747
tp2748
a(L3785235668L
L0L
(lp2749
(lp2750
tp2751
atp2752
sI1074247332
(Vrtc_clk_wait_for_slow_cycle
p2753
(lp2754
(L2844697221L
L2624587680L
(lp2755
(lp2756
tp2757
a(L287687718L
L0L
(lp2758
(lp2759
tp2760
a(L3360570486L
L0L
(lp2761
(lp2762
tp2763
a(L3843203427L
L1443213481L
(lp2764
(lp2765
tp2766
a(L1300789833L
L0L
(lp2767
(lp2768
tp2769
a(L1259765481L
L0L
(lp2770
(lp2771
tp2772
a(L17340776L
L1443213481L
(lp2773
(lp2774
tp2775
a(L329680227L
L3187408090L
(lp2776
(lp2777
Vesp_log_early_timestamp
p2778
atp2779
atp2780
sI1074269356
(Vbootloader_flash_update_id
p2781
(lp2782
(L296988142L
L3833084538L
(lp2783
(lp2784
Vbootloader_read_flash_id
p2785
atp2786
atp2787
sI1074236576
(Vesp_rom_uart_tx_wait_idle
p2788
(lp2789
(L3110839460L
L2534110409L
(lp2790
(lp2791
tp2792
a(L1301079727L
L0L
(lp2793
(lp2794
tp2795
a(L597952197L
L0L
(lp2796
(lp2797
tp2798
a(L1971823332L
L0L
(lp2799
(lp2800
tp2801
a(L3055926844L
L0L
(lp2802
(lp2803
tp2804
a(L3360570486L
L0L
(lp2805
(lp2806
tp2807
a(L3694491048L
L0L
(lp2808
(lp2809
tp2810
a(L106L
L0L
(lp2811
(lp2812
tp2813
atp2814
sI1074239392
(Vset_actual_ota_seq
p2815
(lp2816
(L4094723830L
L0L
(lp2817
(lp2818
tp2819
a(L3504298995L
L2195759072L
(lp2820
(lp2821
tp2822
a(L3856681007L
L961634322L
(lp2823
(lp2824
Vmemset
p2825
aVbootloader_common_ota_select_crc
p2826
aVesp_flash_encryption_enabled
p2827
aVbootloader_flash_erase_sector
p2828
atp2829
a(L2768623893L
L3785322319L
(lp2830
(lp2831
Vbootloader_flash_write
p2832
atp2833
a(L3693339703L
L2147981551L
(lp2834
(lp2835
Vesp_log_early_timestamp
p2836
atp2837
a(L3903819434L
L2147981551L
(lp2838
(lp2839
Vesp_log_early_timestamp
p2840
atp2841
a(L3360570486L
L0L
(lp2842
(lp2843
tp2844
atp2845
sI1074238892
(Vcache_ll_l1_enable_bus
p2846
(lp2847
(L318252209L
L1443213481L
(lp2848
(lp2849
tp2850
atp2851
sI1074247596
(Vesp_rom_spiflash_wait_idle
p2852
(lp2853
(L1698121947L
L1443213481L
(lp2854
(lp2855
tp2856
a(L2023766174L
L0L
(lp2857
(lp2858
tp2859
a(L147213506L
L1443213481L
(lp2860
(lp2861
tp2862
a(L3086959262L
L0L
(lp2863
(lp2864
tp2865
a(L4161019926L
L3785322319L
(lp2866
(lp2867
Vesp_rom_spiflash_read_status
p2868
atp2869
atp2870
sI1074238632
(Vbootloader_clock_get_rated_freq_mhz
p2871
(lp2872
(L376617603L
L3785322319L
(lp2873
(lp2874
Vefuse_hal_get_rated_freq_mhz
p2875
atp2876
atp2877
sI1074240680
(Vbootloader_sha256_finish
p2878
(lp2879
(L4066096136L
L0L
(lp2880
(lp2881
tp2882
a(L1697654722L
L2195759072L
(lp2883
(lp2884
tp2885
a(L2213948952L
L242900614L
(lp2886
(lp2887
V__assert_func
p2888
atp2889
a(L3020204L
L0L
(lp2890
(lp2891
tp2892
a(L2888288470L
L2534110409L
(lp2893
(lp2894
tp2895
a(L2534656226L
L0L
(lp2896
(lp2897
tp2898
a(L2740629735L
L4171435875L
(lp2899
(lp2900
Vbootloader_sha256_data
p2901
atp2902
a(L2946948570L
L2195759072L
(lp2903
(lp2904
tp2905
a(L354914383L
L2790500905L
(lp2906
(lp2907
V__bswapsi2
p2908
aVbootloader_sha256_data
p2909
atp2910
a(L2946948756L
L2195759072L
(lp2911
(lp2912
tp2913
a(L657425439L
L0L
(lp2914
(lp2915
tp2916
a(L4173600236L
L1443213481L
(lp2917
(lp2918
tp2919
a(L657425439L
L0L
(lp2920
(lp2921
tp2922
a(L2046284480L
L2195759072L
(lp2923
(lp2924
tp2925
a(L3616504601L
L4171435875L
(lp2926
(lp2927
V__bswapsi2
p2928
atp2929
a(L3347778L
L0L
(lp2930
(lp2931
tp2932
a(L3360570486L
L0L
(lp2933
(lp2934
tp2935
atp2936
sI1074238644
(Vlog_invalid_app_partition
p2937
(lp2938
(L2157385331L
L2195759072L
(lp2939
(lp2940
tp2941
a(L3028464L
L0L
(lp2942
(lp2943
tp2944
a(L1760520779L
L3833084538L
(lp2945
(lp2946
Vesp_log_early_timestamp
p2947
atp2948
a(L4207910112L
L1443213481L
(lp2949
(lp2950
tp2951
a(L3360570486L
L0L
(lp2952
(lp2953
tp2954
a(L3212513603L
L3833084538L
(lp2955
(lp2956
Vesp_log_early_timestamp
p2957
atp2958
a(L431938678L
L2147981551L
(lp2959
(lp2960
Vesp_log_early_timestamp
p2961
atp2962
atp2963
sI1074244788
(Vrtc_clk_32k_enable_common
p2964
(lp2965
(L2821256590L
L2195759072L
(lp2966
(lp2967
tp2968
a(L97422L
L0L
(lp2969
(lp2970
tp2971
a(L2218417248L
L0L
(lp2972
(lp2973
tp2974
a(L339634797L
L1443213481L
(lp2975
(lp2976
tp2977
a(L51458120L
L0L
(lp2978
(lp2979
tp2980
atp2981
sI1074245556
(Vrtc_clk_fast_src_set
p2982
(lp2983
(L1089140614L
L1443213481L
(lp2984
(lp2985
tp2986
a(L3020187L
L0L
(lp2987
(lp2988
tp2989
a(L3827921190L
L3785322319L
(lp2990
(lp2991
Vabort
p2992
atp2993
a(L2578095160L
L1443213481L
(lp2994
(lp2995
tp2996
a(L4159388630L
L1443213481L
(lp2997
(lp2998
tp2999
a(L300459962L
L0L
(lp3000
(lp3001
tp3002
atp3003
sI1074246836
(Vrtc_clk_cal_internal
p3004
(lp3005
(L4103044880L
L1443213481L
(lp3006
(lp3007
tp3008
a(L3906046821L
L4032149094L
(lp3009
(lp3010
V__assert_func
p3011
atp3012
a(L3821006588L
L1443213481L
(lp3013
(lp3014
tp3015
a(L1673513644L
L0L
(lp3016
(lp3017
tp3018
a(L2719210992L
L4021370767L
(lp3019
(lp3020
Vrtc_clk_slow_src_get
p3021
atp3022
a(L3008910671L
L0L
(lp3023
(lp3024
tp3025
a(L97689L
L0L
(lp3026
(lp3027
tp3028
a(L1872507229L
L1443213481L
(lp3029
(lp3030
tp3031
a(L3028464L
L0L
(lp3032
(lp3033
tp3034
a(L3028481L
L0L
(lp3035
(lp3036
tp3037
a(L147213506L
L1443213481L
(lp3038
(lp3039
tp3040
a(L3455571058L
L1374507264L
(lp3041
(lp3042
V__udivdi3
p3043
aVrtc_clk_xtal_freq_get
p3044
atp3045
a(L2780079961L
L0L
(lp3046
(lp3047
tp3048
a(L4208562267L
L1443213481L
(lp3049
(lp3050
tp3051
a(L4114459891L
L3187408090L
(lp3052
(lp3053
Vesp_log_early_timestamp
p3054
atp3055
a(L2258688482L
L0L
(lp3056
(lp3057
tp3058
a(L3360570486L
L0L
(lp3059
(lp3060
tp3061
a(L3553505594L
L0L
(lp3062
(lp3063
tp3064
a(L403361192L
L0L
(lp3065
(lp3066
tp3067
a(L3243404432L
L3785322319L
(lp3068
(lp3069
Vrtc_clk_8m_enable
p3070
atp3071
a(L390546255L
L2195759072L
(lp3072
(lp3073
tp3074
a(L3586367509L
L1443213481L
(lp3075
(lp3076
tp3077
a(L2910371777L
L0L
(lp3078
(lp3079
tp3080
a(L2902417580L
L0L
(lp3081
(lp3082
tp3083
a(L3082259486L
L1443213481L
(lp3084
(lp3085
tp3086
a(L3020204L
L0L
(lp3087
(lp3088
tp3089
a(L603598685L
L1443213481L
(lp3090
(lp3091
tp3092
a(L3429540926L
L0L
(lp3093
(lp3094
tp3095
a(L3028464L
L0L
(lp3096
(lp3097
tp3098
a(L615477255L
L242900614L
(lp3099
(lp3100
Vrtc_clk_8m_enable
p3101
atp3102
atp3103
sI1074267836
(Vwdt_reset_info_dump
p3104
(lp3105
(L4037458708L
L0L
(lp3106
(lp3107
tp3108
a(L2865144428L
L4200222560L
(lp3109
(lp3110
tp3111
a(L217258670L
L0L
(lp3112
(lp3113
tp3114
a(L1103285333L
L0L
(lp3115
(lp3116
tp3117
a(L3750088731L
L2147981551L
(lp3118
(lp3119
Vesp_log_early_timestamp
p3120
atp3121
a(L3245125974L
L1443213481L
(lp3122
(lp3123
tp3124
a(L2920131454L
L4200222560L
(lp3125
(lp3126
tp3127
a(L3355528239L
L2147981551L
(lp3128
(lp3129
Vesp_log_early_timestamp
p3130
atp3131
atp3132
sI1074268860
(Vbootloader_init_mem
p3133
(lp3134
(L1287383080L
L3785322319L
(lp3135
(lp3136
Vesp_cpu_configure_region_protection
p3137
atp3138
atp3139
sI1074269372
(Vbootloader_init_spi_flash
p3140
(lp3141
(L1876290435L
L1994585993L
(lp3142
(lp3143
Vbootloader_flash_gpio_config
p3144
aVbootloader_flash_dummy_config
p3145
aVbootloader_flash_cs_timing_config
p3146
aVbootloader_flash_unlock
p3147
atp3148
a(L499308289L
L1443213481L
(lp3149
(lp3150
tp3151
a(L1872507246L
L1443213481L
(lp3152
(lp3153
tp3154
a(L147213506L
L1443213481L
(lp3155
(lp3156
tp3157
a(L83726857L
L2426646996L
(lp3158
(lp3159
Vesp_log_early_timestamp
p3160
aVbootloader_flash_get_spi_mode
p3161
atp3162
a(L93674324L
L0L
(lp3163
(lp3164
tp3165
a(L4183135214L
L1443213481L
(lp3166
(lp3167
tp3168
a(L147213506L
L1443213481L
(lp3169
(lp3170
tp3171
a(L3875746660L
L362179215L
(lp3172
(lp3173
Vesp_log_early_timestamp
p3174
atp3175
a(L93674324L
L0L
(lp3176
(lp3177
tp3178
a(L4183135214L
L1443213481L
(lp3179
(lp3180
tp3181
a(L1872507229L
L1443213481L
(lp3182
(lp3183
tp3184
a(L268651496L
L1443213481L
(lp3185
(lp3186
tp3187
a(L1872507229L
L1443213481L
(lp3188
(lp3189
tp3190
a(L1872507229L
L1443213481L
(lp3191
(lp3192
tp3193
a(L268651496L
L1443213481L
(lp3194
(lp3195
tp3196
a(L1872515506L
L1443213481L
(lp3197
(lp3198
tp3199
a(L1005860105L
L3187408090L
(lp3200
(lp3201
Vesp_log_early_timestamp
p3202
atp3203
a(L93674324L
L0L
(lp3204
(lp3205
tp3206
a(L3422553167L
L0L
(lp3207
(lp3208
tp3209
a(L1707909459L
L0L
(lp3210
(lp3211
tp3212
a(L4101522284L
L0L
(lp3213
(lp3214
tp3215
a(L3944678822L
L2082837423L
(lp3216
(lp3217
Vbootloader_enable_wp
p3218
atp3219
a(L3907331784L
L0L
(lp3220
(lp3221
tp3222
atp3223
sI1074240176
(Vbootloader_reset
p3224
(lp3225
(L479276581L
L2147981551L
(lp3226
(lp3227
Vbootloader_console_deinit
p3228
atp3229
a(L106L
L0L
(lp3230
(lp3231
tp3232
atp3233
sI1074235580
(Vbootloader_flash_read_sfdp
p3234
(lp3235
(L711701400L
L0L
(lp3236
(lp3237
tp3238
a(L17919673L
L4032149094L
(lp3239
(lp3240
V__assert_func
p3241
atp3242
a(L3704332455L
L3785322319L
(lp3243
(lp3244
Vbootloader_flash_execute_command_common
p3245
atp3246
atp3247
sI1074235832
(Vbootloader_flash_cs_timing_config
p3248
(lp3249
(L1222249594L
L1690040256L
(lp3250
(lp3251
tp3252
atp3253
sI1074240440
(Vindex_to_partition
p3254
(lp3255
(L4066096119L
L0L
(lp3256
(lp3257
tp3258
a(L1101255660L
L0L
(lp3259
(lp3260
tp3261
a(L1955702725L
L0L
(lp3262
(lp3263
tp3264
a(L3698927993L
L0L
(lp3265
(lp3266
tp3267
a(L2808906342L
L0L
(lp3268
(lp3269
tp3270
a(L4211744375L
L0L
(lp3271
(lp3272
tp3273
a(L3097778015L
L0L
(lp3274
(lp3275
tp3276
a(L1816235430L
L0L
(lp3277
(lp3278
tp3279
a(L2179185678L
L0L
(lp3280
(lp3281
tp3282
a(L3369319173L
L0L
(lp3283
(lp3284
tp3285
atp3286
sI1074244536
(Vwdt_hal_set_flashboot_en
p3287
(lp3288
(L2375320464L
L0L
(lp3289
(lp3290
tp3291
a(L3915867581L
L0L
(lp3292
(lp3293
tp3294
a(L3360570486L
L0L
(lp3295
(lp3296
tp3297
a(L3823116953L
L1443213481L
(lp3298
(lp3299
tp3300
atp3301
sI1074240964
(Vbootloader_ana_clock_glitch_reset_config
p3302
(lp3303
(L2100504542L
L0L
(lp3304
(lp3305
tp3306
atp3307
sI1074237376
(Vbootloader_common_select_otadata
p3308
(lp3309
(L4071767857L
L0L
(lp3310
(lp3311
tp3312
a(L1999329187L
L0L
(lp3313
(lp3314
tp3315
a(L3846398843L
L0L
(lp3316
(lp3317
tp3318
a(L2501968171L
L0L
(lp3319
(lp3320
tp3321
a(L3360570486L
L0L
(lp3322
(lp3323
tp3324
a(L2045232488L
L0L
(lp3325
(lp3326
tp3327
a(L1243525916L
L0L
(lp3328
(lp3329
tp3330
a(L3094144427L
L0L
(lp3331
(lp3332
tp3333
a(L2399509845L
L0L
(lp3334
(lp3335
tp3336
a(L1641201884L
L0L
(lp3337
(lp3338
tp3339
atp3340
sI1074240972
(Vprocess_checksum
p3341
(lp3342
(L166193219L
L242900614L
(lp3343
(lp3344
Vmemset
p3345
atp3346
a(L3028481L
L0L
(lp3347
(lp3348
tp3349
a(L186886970L
L0L
(lp3350
(lp3351
tp3352
a(L2902417580L
L0L
(lp3353
(lp3354
tp3355
a(L3028481L
L0L
(lp3356
(lp3357
tp3358
a(L169792351L
L3187408090L
(lp3359
(lp3360
Vesp_log_early_timestamp
p3361
atp3362
a(L268651496L
L1443213481L
(lp3363
(lp3364
tp3365
a(L3236648107L
L3785322319L
(lp3366
(lp3367
Vbootloader_flash_read
p3368
atp3369
a(L735741265L
L0L
(lp3370
(lp3371
tp3372
a(L3020204L
L0L
(lp3373
(lp3374
tp3375
a(L2480703612L
L3785322319L
(lp3376
(lp3377
Vbootloader_sha256_data
p3378
atp3379
a(L3436105237L
L0L
(lp3380
(lp3381
tp3382
a(L106L
L0L
(lp3383
(lp3384
tp3385
atp3386
sI1074246092
(Vrtc_clk_cpu_freq_set_config
p3387
(lp3388
(L1040494747L
L3833084538L
(lp3389
(lp3390
Vrtc_clk_xtal_freq_get
p3391
atp3392
a(L2308773007L
L0L
(lp3393
(lp3394
tp3395
a(L3253451229L
L1880226080L
(lp3396
(lp3397
Vrtc_clk_cpu_freq_to_xtal
p3398
aVrtc_clk_wait_for_slow_cycle
p3399
atp3400
a(L2243645672L
L0L
(lp3401
(lp3402
tp3403
a(L4002786498L
L0L
(lp3404
(lp3405
tp3406
a(L2736411858L
L3785322319L
(lp3407
(lp3408
Vrtc_clk_cpu_freq_to_xtal
p3409
atp3410
a(L3360570486L
L0L
(lp3411
(lp3412
tp3413
a(L2755207760L
L1832448559L
(lp3414
(lp3415
Vrtc_clk_cpu_freq_to_xtal
p3416
aVrtc_clk_wait_for_slow_cycle
p3417
aVrtc_clk_bbpll_disable
p3418
atp3419
a(L3020187L
L0L
(lp3420
(lp3421
tp3422
a(L106L
L0L
(lp3423
(lp3424
tp3425
a(L4256952326L
L2515631753L
(lp3426
(lp3427
Vrtc_clk_wait_for_slow_cycle
p3428
aVrtc_clk_xtal_freq_get
p3429
atp3430
a(L106L
L0L
(lp3431
(lp3432
tp3433
a(L1246335289L
L1443213481L
(lp3434
(lp3435
tp3436
a(L83268611L
L0L
(lp3437
(lp3438
tp3439
a(L106L
L0L
(lp3440
(lp3441
tp3442
a(L82345090L
L0L
(lp3443
(lp3444
tp3445
a(L106L
L0L
(lp3446
(lp3447
tp3448
a(L2258718273L
L0L
(lp3449
(lp3450
tp3451
a(L3298883534L
L0L
(lp3452
(lp3453
tp3454
a(L3519990574L
L1443213481L
(lp3455
(lp3456
tp3457
a(L2508198718L
L1743007695L
(lp3458
(lp3459
Vrtc_clk_cpu_freq_to_pll_mhz
p3460
atp3461
a(L3492960355L
L2195759072L
(lp3462
(lp3463
tp3464
a(L83268344L
L0L
(lp3465
(lp3466
tp3467
a(L82344823L
L0L
(lp3468
(lp3469
tp3470
a(L1569180676L
L0L
(lp3471
(lp3472
tp3473
a(L2258837488L
L0L
(lp3474
(lp3475
tp3476
a(L4233337962L
L1443213481L
(lp3477
(lp3478
tp3479
a(L1482311963L
L0L
(lp3480
(lp3481
tp3482
a(L133411965L
L0L
(lp3483
(lp3484
tp3485
a(L3673491036L
L0L
(lp3486
(lp3487
tp3488
a(L4197990447L
L0L
(lp3489
(lp3490
tp3491
a(L903154985L
L0L
(lp3492
(lp3493
tp3494
a(L3020187L
L0L
(lp3495
(lp3496
tp3497
a(L106L
L0L
(lp3498
(lp3499
tp3500
a(L3854192277L
L93324751L
(lp3501
(lp3502
Vesp_rom_set_cpu_ticks_per_us
p3503
atp3504
atp3505
sI1074268868
(Vbootloader_random_enable
p3506
(lp3507
(L2397175084L
L664430240L
(lp3508
(lp3509
tp3510
atp3511
sI1074236872
(Vefuse_hal_get_minor_chip_version
p3512
(lp3513
(L2292056065L
L1443213481L
(lp3514
(lp3515
tp3516
atp3517
sI1074240200
(Vbootloader_utility_load_boot_image
p3518
(lp3519
(L421993435L
L242900614L
(lp3520
(lp3521
Vmemset
p3522
atp3523
a(L2177418995L
L3785322319L
(lp3524
(lp3525
Vtry_load_partition
p3526
atp3527
a(L1305243774L
L3785322319L
(lp3528
(lp3529
Vload_image
p3530
atp3531
a(L4114459891L
L3187408090L
(lp3532
(lp3533
Vesp_log_early_timestamp
p3534
atp3535
a(L3827921190L
L3785322319L
(lp3536
(lp3537
Vbootloader_reset
p3538
atp3539
a(L1953693036L
L3785322319L
(lp3540
(lp3541
Vindex_to_partition
p3542
atp3543
a(L1204373741L
L3785322319L
(lp3544
(lp3545
Vtry_load_partition
p3546
atp3547
a(L1899865696L
L0L
(lp3548
(lp3549
tp3550
a(L2695355117L
L3785322319L
(lp3551
(lp3552
Vset_actual_ota_seq
p3553
atp3554
a(L1868897605L
L3785322319L
(lp3555
(lp3556
Vlog_invalid_app_partition
p3557
atp3558
a(L831650730L
L0L
(lp3559
(lp3560
tp3561
a(L3021737L
L0L
(lp3562
(lp3563
tp3564
a(L695456438L
L0L
(lp3565
(lp3566
tp3567
a(L315114854L
L3833084538L
(lp3568
(lp3569
Vtry_load_partition
p3570
atp3571
a(L89447667L
L2147981551L
(lp3572
(lp3573
Vesp_log_early_timestamp
p3574
atp3575
a(L2347390157L
L3785322319L
(lp3576
(lp3577
Vindex_to_partition
p3578
atp3579
a(L1204373741L
L3785322319L
(lp3580
(lp3581
Vtry_load_partition
p3582
atp3583
a(L3061261803L
L0L
(lp3584
(lp3585
tp3586
a(L3582858798L
L3785322319L
(lp3587
(lp3588
Vlog_invalid_app_partition
p3589
atp3590
a(L3581752791L
L2704288053L
(lp3591
(lp3592
Vesp_log_early_timestamp
p3593
aVmemset
p3594
atp3595
atp3596
sI1074247892
(Vesp_rom_spiflash_erase_sector
p3597
(lp3598
(L3892694408L
L1679261929L
(lp3599
(lp3600
tp3601
a(L2258688483L
L0L
(lp3602
(lp3603
tp3604
a(L3360570486L
L0L
(lp3605
(lp3606
tp3607
a(L3212356251L
L3785322319L
(lp3608
(lp3609
Vesp_rom_spiflash_enable_write
p3610
atp3611
a(L184152988L
L0L
(lp3612
(lp3613
tp3614
a(L1036552696L
L362179215L
(lp3615
(lp3616
Vesp_rom_spiflash_wait_idle
p3617
atp3618
a(L3333707777L
L0L
(lp3619
(lp3620
tp3621
a(L3582858798L
L3785322319L
(lp3622
(lp3623
Vesp_rom_spiflash_wait_idle
p3624
atp3625
atp3626
sI1074269660
(Vbootloader_clear_bss_section
p3627
(lp3628
(L2193193874L
L4032149094L
(lp3629
(lp3630
Vmemset
p3631
atp3632
atp3633
sI1074238160
(Vbootloader_enable_wp
p3634
(lp3635
(L1117825804L
L3785322319L
(lp3636
(lp3637
Vbootloader_execute_flash_command
p3638
atp3639
atp3640
sI1074243292
(Vbootloader_load_image
p3641
(lp3642
(L1155870502L
L3785322319L
(lp3643
(lp3644
Vimage_load
p3645
atp3646
atp3647
sI1074247644
(Vesp_rom_spiflash_enable_write
p3648
(lp3649
(L2885777558L
L1303911398L
(lp3650
(lp3651
Vesp_rom_spiflash_wait_idle
p3652
atp3653
a(L3333707777L
L0L
(lp3654
(lp3655
tp3656
a(L2258688484L
L0L
(lp3657
(lp3658
tp3659
a(L99543895L
L0L
(lp3660
(lp3661
tp3662
a(L2993202392L
L0L
(lp3663
(lp3664
tp3665
a(L1265538927L
L242900614L
(lp3666
(lp3667
Vesp_rom_spiflash_read_status
p3668
atp3669
atp3670
sI1074268628
(Vbootloader_clock_configure
p3671
(lp3672
(L2559598596L
L1880226080L
(lp3673
(lp3674
Vesp_rom_uart_tx_wait_idle
p3675
aVefuse_hal_chip_revision
p3676
atp3677
a(L1757625900L
L1443213481L
(lp3678
(lp3679
tp3680
a(L741498227L
L1443213481L
(lp3681
(lp3682
tp3683
a(L106L
L0L
(lp3684
(lp3685
tp3686
a(L4228321918L
L1405109379L
(lp3687
(lp3688
Vrtc_clk_slow_src_get
p3689
aVrtc_clk_fast_src_get
p3690
aVrtc_clk_init
p3691
atp3692
a(L2538867838L
L2195759072L
(lp3693
(lp3694
tp3695
a(L1038013235L
L3833084538L
(lp3696
(lp3697
Vrtc_clk_apb_freq_get
p3698
atp3699
a(L106L
L0L
(lp3700
(lp3701
tp3702
a(L106L
L0L
(lp3703
(lp3704
tp3705
atp3706
sI1074236888
(Vesp_dport_access_reg_read
p3707
(lp3708
(L1099794772L
L0L
(lp3709
(lp3710
tp3711
atp3712
sI1074245336
(Vrtc_clk_8m_enabled
p3713
(lp3714
(L563532105L
L1443213481L
(lp3715
(lp3716
tp3717
atp3718
sI1074236900
(Vis_xmc_chip_strict
p3719
(lp3720
(L1286841609L
L0L
(lp3721
(lp3722
tp3723
a(L2234016759L
L0L
(lp3724
(lp3725
tp3726
a(L1069027148L
L0L
(lp3727
(lp3728
tp3729
a(L3021749L
L0L
(lp3730
(lp3731
tp3732
a(L1900148749L
L0L
(lp3733
(lp3734
tp3735
a(L1936875721L
L0L
(lp3736
(lp3737
tp3738
a(L3356166509L
L0L
(lp3739
(lp3740
tp3741
a(L1937769451L
L0L
(lp3742
(lp3743
tp3744
a(L2137658907L
L0L
(lp3745
(lp3746
tp3747
a(L4265949734L
L0L
(lp3748
(lp3749
tp3750
a(L3360570486L
L0L
(lp3751
(lp3752
tp3753
atp3754
sI1074238180
(Vbootloader_flash_get_spi_mode
p3755
(lp3756
(L1418320346L
L1443213481L
(lp3757
(lp3758
tp3759
a(L2046153171L
L0L
(lp3760
(lp3761
tp3762
a(L893866618L
L0L
(lp3763
(lp3764
tp3765
a(L894790139L
L0L
(lp3766
(lp3767
tp3768
a(L822032846L
L0L
(lp3769
(lp3770
tp3771
a(L3360570486L
L0L
(lp3772
(lp3773
tp3774
atp3775
sI1074238944
(Vcache_ll_l1_enable_bus
p3776
(lp3777
(L318252209L
L1443213481L
(lp3778
(lp3779
tp3780
atp3781
sI1074245088
(Vrtc_clk_bbpll_disable
p3782
(lp3783
(L3512291683L
L1690040256L
(lp3784
(lp3785
tp3786
a(L2472207241L
L0L
(lp3787
(lp3788
tp3789
a(L3360570486L
L0L
(lp3790
(lp3791
tp3792
atp3793
sI1074243308
(Vesp_partition_table_verify
p3794
(lp3795
(L44179228L
L1443213481L
(lp3796
(lp3797
tp3798
a(L3031150553L
L1443213481L
(lp3799
(lp3800
tp3801
a(L1184829782L
L0L
(lp3802
(lp3803
tp3804
a(L3020204L
L0L
(lp3805
(lp3806
tp3807
a(L26389654L
L3187408090L
(lp3808
(lp3809
Vesp_log_early_timestamp
p3810
atp3811
a(L1235012963L
L0L
(lp3812
(lp3813
tp3814
a(L3190337587L
L0L
(lp3815
(lp3816
tp3817
a(L2069928857L
L0L
(lp3818
(lp3819
tp3820
a(L2902417580L
L0L
(lp3821
(lp3822
tp3823
a(L2543114737L
L2147981551L
(lp3824
(lp3825
Vesp_log_early_timestamp
p3826
atp3827
a(L1715222413L
L1443213481L
(lp3828
(lp3829
tp3830
a(L3020204L
L0L
(lp3831
(lp3832
tp3833
a(L3020204L
L0L
(lp3834
(lp3835
tp3836
a(L1328961945L
L2147981551L
(lp3837
(lp3838
Vesp_log_early_timestamp
p3839
atp3840
a(L4207910112L
L1443213481L
(lp3841
(lp3842
tp3843
a(L1235012932L
L0L
(lp3844
(lp3845
tp3846
a(L458256366L
L4021370767L
(lp3847
(lp3848
Vmemcmp
p3849
atp3850
a(L3020204L
L0L
(lp3851
(lp3852
tp3853
a(L2543114737L
L2147981551L
(lp3854
(lp3855
Vesp_log_early_timestamp
p3856
atp3857
a(L1305407469L
L0L
(lp3858
(lp3859
tp3860
a(L1167861556L
L0L
(lp3861
(lp3862
tp3863
a(L818997085L
L0L
(lp3864
(lp3865
tp3866
a(L3360570486L
L0L
(lp3867
(lp3868
tp3869
a(L3020204L
L0L
(lp3870
(lp3871
tp3872
a(L3999534504L
L3187408090L
(lp3873
(lp3874
Vesp_log_early_timestamp
p3875
atp3876
atp3877
sI1074269924
(Vbootloader_enable_random
p3878
(lp3879
(L859804465L
L2704288053L
(lp3880
(lp3881
Vesp_log_early_timestamp
p3882
aVbootloader_random_enable
p3883
atp3884
atp3885
sI1074270948
(Vmpu_hal_set_region_access
p3886
(lp3887
(L3538356822L
L0L
(lp3888
(lp3889
tp3890
a(L93674324L
L0L
(lp3891
(lp3892
tp3893
a(L2910371777L
L0L
(lp3894
(lp3895
tp3896
a(L3472092938L
L0L
(lp3897
(lp3898
tp3899
a(L3020187L
L0L
(lp3900
(lp3901
tp3902
a(L3360570486L
L0L
(lp3903
(lp3904
tp3905
a(L2258718273L
L0L
(lp3906
(lp3907
tp3908
a(L3446648619L
L0L
(lp3909
(lp3910
tp3911
a(L3739532189L
L0L
(lp3912
(lp3913
tp3914
a(L1300789895L
L0L
(lp3915
(lp3916
tp3917
atp3918
sI1074236660
(Vesp_rom_uart_set_clock_baudrate
p3919
(lp3920
(L1471953879L
L1443213481L
(lp3921
(lp3922
tp3923
a(L1872515506L
L1443213481L
(lp3924
(lp3925
tp3926
a(L147213506L
L1443213481L
(lp3927
(lp3928
tp3929
a(L3104172142L
L1443213481L
(lp3930
(lp3931
tp3932
atp3933
sI1074245620
(Vrtc_clk_fast_src_get
p3934
(lp3935
(L2217920473L
L1443213481L
(lp3936
(lp3937
tp3938
atp3939
sI1074235632
(Vbootloader_read_flash_id
p3940
(lp3941
(L549578328L
L3785322319L
(lp3942
(lp3943
Vbootloader_execute_flash_command
p3944
atp3945
atp3946
sI1074245360
(Vrtc_clk_8md256_enabled
p3947
(lp3948
(L4014027530L
L1443213481L
(lp3949
(lp3950
tp3951
atp3952
sI1074244604
(Vwdt_hal_write_protect_enable
p3953
(lp3954
(L387778158L
L0L
(lp3955
(lp3956
tp3957
a(L4195472003L
L0L
(lp3958
(lp3959
tp3960
a(L3360570486L
L0L
(lp3961
(lp3962
tp3963
a(L802523425L
L0L
(lp3964
(lp3965
tp3966
atp3967
sI1074242812
(Vimage_load
p3968
(lp3969
(L3048705773L
L0L
(lp3970
(lp3971
tp3972
a(L3463713141L
L0L
(lp3973
(lp3974
tp3975
a(L3309803581L
L0L
(lp3976
(lp3977
tp3978
a(L256049682L
L0L
(lp3979
(lp3980
tp3981
a(L1935188817L
L0L
(lp3982
(lp3983
tp3984
a(L3028481L
L0L
(lp3985
(lp3986
tp3987
a(L3021749L
L0L
(lp3988
(lp3989
tp3990
a(L106L
L0L
(lp3991
(lp3992
tp3993
a(L585264737L
L0L
(lp3994
(lp3995
tp3996
a(L1145291904L
L3785322319L
(lp3997
(lp3998
Vprocess_image_header
p3999
atp4000
a(L823859500L
L0L
(lp4001
(lp4002
tp4003
a(L3061291474L
L0L
(lp4004
(lp4005
tp4006
a(L4106474008L
L3785322319L
(lp4007
(lp4008
Vprocess_segments
p4009
atp4010
a(L3868840998L
L0L
(lp4011
(lp4012
tp4013
a(L2962085561L
L1443213481L
(lp4014
(lp4015
tp4016
a(L1827898452L
L3785322319L
(lp4017
(lp4018
Vprocess_checksum
p4019
atp4020
a(L2214715179L
L3785322319L
(lp4021
(lp4022
Vprocess_appended_hash_and_sig
p4023
atp4024
a(L3028481L
L0L
(lp4025
(lp4026
tp4027
a(L2902417580L
L0L
(lp4028
(lp4029
tp4030
a(L3285560995L
L3785322319L
(lp4031
(lp4032
Vbootloader_sha256_finish
p4033
atp4034
a(L3946560000L
L0L
(lp4035
(lp4036
tp4037
a(L93674324L
L0L
(lp4038
(lp4039
tp4040
a(L2674734805L
L2195759072L
(lp4041
(lp4042
tp4043
a(L1168805591L
L1443213481L
(lp4044
(lp4045
tp4046
a(L1179424413L
L0L
(lp4047
(lp4048
tp4049
a(L3928150917L
L0L
(lp4050
(lp4051
tp4052
a(L106L
L0L
(lp4053
(lp4054
tp4055
a(L3871473710L
L0L
(lp4056
(lp4057
tp4058
a(L3884726427L
L0L
(lp4059
(lp4060
tp4061
a(L106L
L0L
(lp4062
(lp4063
tp4064
a(L3020187L
L0L
(lp4065
(lp4066
tp4067
a(L1337906930L
L3187408090L
(lp4068
(lp4069
Vesp_log_early_timestamp
p4070
atp4071
a(L2868044067L
L0L
(lp4072
(lp4073
tp4074
a(L1179764900L
L0L
(lp4075
(lp4076
tp4077
a(L2332746046L
L3785322319L
(lp4078
(lp4079
Vbootloader_sha256_finish
p4080
atp4081
a(L3721568057L
L242900614L
(lp4082
(lp4083
Vmemset
p4084
atp4085
a(L3020204L
L0L
(lp4086
(lp4087
tp4088
a(L3039742375L
L1443213481L
(lp4089
(lp4090
tp4091
a(L106L
L0L
(lp4092
(lp4093
tp4094
a(L3307179591L
L2839326997L
(lp4095
(lp4096
Vmemset
p4097
aVbootloader_sha256_finish
p4098
aVbootloader_debug_buffer
p4099
aVmemcmp
p4100
atp4101
a(L3433271982L
L2266857161L
(lp4102
(lp4103
Vesp_log_early_timestamp
p4104
aVbootloader_debug_buffer
p4105
atp4106
a(L3741653406L
L3785322319L
(lp4107
(lp4108
Vshould_load
p4109
atp4110
a(L2764257181L
L0L
(lp4111
(lp4112
tp4113
a(L3338774213L
L0L
(lp4114
(lp4115
tp4116
a(L193456747L
L1443213481L
(lp4117
(lp4118
tp4119
a(L3349572949L
L0L
(lp4120
(lp4121
tp4122
a(L2192292519L
L0L
(lp4123
(lp4124
tp4125
a(L106L
L0L
(lp4126
(lp4127
tp4128
a(L1702191967L
L1443213481L
(lp4129
(lp4130
tp4131
a(L1299866312L
L0L
(lp4132
(lp4133
tp4134
a(L3010020263L
L0L
(lp4135
(lp4136
tp4137
atp4138
sI1074237692
(Vbootloader_munmap
p4139
(lp4140
(L4096859803L
L2195759072L
(lp4141
(lp4142
tp4143
a(L4150885370L
L2624587680L
(lp4144
(lp4145
tp4146
a(L3360570486L
L0L
(lp4147
(lp4148
tp4149
atp4150
sI1074236412
(Vbootloader_flash_dummy_config
p4151
(lp4152
(L2633298977L
L1443213481L
(lp4153
(lp4154
tp4155
a(L2761717557L
L0L
(lp4156
(lp4157
tp4158
a(L1849044936L
L0L
(lp4159
(lp4160
tp4161
a(L2198646520L
L2195759072L
(lp4162
(lp4163
tp4164
a(L1857500547L
L1443213481L
(lp4165
(lp4166
tp4167
a(L3020204L
L0L
(lp4168
(lp4169
tp4170
a(L1610443405L
L0L
(lp4171
(lp4172
tp4173
a(L4032120524L
L0L
(lp4174
(lp4175
tp4176
a(L2336993863L
L0L
(lp4177
(lp4178
tp4179
a(L1298875775L
L0L
(lp4180
(lp4181
tp4182
a(L3880393601L
L0L
(lp4183
(lp4184
tp4185
a(L2272848587L
L1443213481L
(lp4186
(lp4187
tp4188
a(L1610443436L
L0L
(lp4189
(lp4190
tp4191
atp4192
sI1074269684
(Vbootloader_read_bootloader_header
p4193
(lp4194
(L2948018849L
L242900614L
(lp4195
(lp4196
Vbootloader_flash_read
p4197
atp4198
a(L804259852L
L3187408090L
(lp4199
(lp4200
Vesp_log_early_timestamp
p4201
atp4202
a(L735741265L
L0L
(lp4203
(lp4204
tp4205
atp4206
sI1074240504
(Vbootloader_debug_buffer
p4207
(lp4208
(L2100504542L
L0L
(lp4209
(lp4210
tp4211
atp4212
sI1074243576
(Vwdt_hal_init
p4213
(lp4214
(L1845705415L
L242900614L
(lp4215
(lp4216
Vmemset
p4217
atp4218
a(L106L
L0L
(lp4219
(lp4220
tp4221
a(L147213506L
L1443213481L
(lp4222
(lp4223
tp4224
a(L3076988543L
L0L
(lp4225
(lp4226
tp4227
a(L746843176L
L3294285696L
(lp4228
(lp4229
tp4230
a(L3028464L
L0L
(lp4231
(lp4232
tp4233
a(L268651496L
L1443213481L
(lp4234
(lp4235
tp4236
a(L213928354L
L1443213481L
(lp4237
(lp4238
tp4239
a(L1646580088L
L3294285696L
(lp4240
(lp4241
tp4242
a(L3360570486L
L0L
(lp4243
(lp4244
tp4245
atp4246
ssS'functionsdups'
p4247
g11
((lp4248
tp4249
Rp4250
sS'immediatedups'
p4251
g11
((lp4252
tp4253
Rp4254
sS'functiondups'
p4255
g11
((lp4256
tp4257
Rp4258
sS'fuzzy'
p4259
(dp4260
L366261972L
I1074270280
sL2376760616L
I1074243308
sL1898962604L
I1074238728
sL3223682214L
I1074248192
sL4033782891L
I1074244536
sL1651792242L
I1074247644
sL1500945776L
I1074268060
sL800708016L
I1074239512
sL2092869556L
I1074247892
sL1772626723L
I1074235832
sL2539816556L
I1074236660
sL3032120501L
I1074245768
sL2471313117L
I1074240680
sL2641888616L
I1074246836
sL381028389L
I1074240892
sL3711025829L
I1074240200
sL3500016395L
I1074242072
sL1962232032L
I1074245636
sL797548049L
I1074240512
sL3374853808L
I1074269660
sL2859057779L
I1074269356
sL2835607711L
I1074270020
sL2095240828L
I1074234756
sL1348852091L
I1074248280
sL2182127758L
I1074270104
sL3221945515L
I1074245908
sL1485246373L
I1074240972
sL3525303483L
I1074245500
sL1247030641L
I1074268868
sL214341344L
I1074244704
sL1729011238L
I1074241944
sL1959102959L
I1074237484
sL4242478965L
I1074238236
sL2216531249L
I1074245528
sL3665358295L
I1074244924
sL579471141L
I1074269924
sL1096063205L
I1074236804
sL2906154889L
I1074247596
sL1065525808L
I1074236900
sL2849727465L
I1074238996
sL1821770661L
I1074237692
sL332090111L
I1074236576
sL282843886L
I1074237744
sL3703425408L
I1074245208
sL2038713658L
I1074246792
sL2688270468L
I1074269728
sL2708185770L
I1074241328
sL3890904617L
I1074245980
sL3530961461L
I1074270724
sL1605229163L
I1074239876
sL1210592366L
I1074245384
sL1332800441L
I1074237308
sL209111356L
I1074245556
sL3183721996L
I1074235280
sL3558783183L
I1074238020
sL1377360842L
I1074244788
sL2726707668L
I1074268572
sL3300368739L
I1074267836
sL1161792488L
I1074241140
sL4091350277L
I1074247700
sL2871786995L
I1074269796
sL3578810761L
I1074235580
sL2018002450L
I1074235680
sL531949167L
I1074237068
sL1060788199L
I1074245676
sL1444874434L
I1074269952
sL994994961L
I1074238644
sL2663898648L
I1074269684
sL1155028103L
I1074270056
sL627477382L
I1074235944
sL814911857L
I1074240532
sL3280013925L
I1074238316
sL1862804207L
I1074244188
sL2806886186L
I1074268628
sL3715950101L
I1074244504
sL3420458249L
I1074247500
sL3274368577L
I1074238844
sL2538597924L
I1074246092
sL3246158480L
I1074239392
sL1872673135L
I1074240176
sL1214705044L
I1074236412
sL4155364446L
I1074237032
sL755401973L
I1074267728
sL230862646L
I1074237452
sL2452281182L
I1074247332
sL1564551092L
I1074241856
sL1122585247L
I1074243576
sL3659714901L
I1074241384
sL2752268667L
I1074244752
sL3428612389L
I1074247300
sL1950296771L
I1074248028
sL1396037064L
I1074245148
sL1014311563L
I1074242812
sL1596982735L
I1074269372
ssb.