ccopy_reg
_reconstructor
p0
(crizzo
RizzoSignature
p1
c__builtin__
object
p2
Ntp3
Rp4
(dp5
S'formal'
p6
(dp7
L270053918L
I1077745582
sL1929125876L
I1077736914
sL1893628628L
I1077745014
sL2674336619L
I1077728484
sL1870036346L
I1077729176
sL2807253315L
I1077738716
sL714724490L
I1077746048
sL600200659L
I1077744158
sL3094310520L
I1077728902
sL2342912700L
I1077740682
sL1420184763L
I1077737352
sL3629599562L
I1077745254
sL2571172190L
I1077737440
sL2774083195L
I1077746560
sL2376328320L
I1077737190
sL1514359141L
I1077737204
sL507993952L
I1077741236
sL4270933692L
I1077737398
sL1846709026L
I1077744584
sL11840896L
I1077737382
sL3490840100L
I1077745914
sL934810767L
I1077727520
sL1774800368L
I1077739722
sL3758107194L
I1077739036
sL1007156029L
I1077741358
sL3939030771L
I1077743760
sL414893049L
I1077744876
sL3088864858L
I1077746068
sL273358604L
I1077728756
sL2382628943L
I1077738970
sL31184528L
I1077746778
sL3247151557L
I1077738496
sL2415552169L
I1077736798
sL3834100177L
I1077728722
sL1191354459L
I1077746212
sL2574776364L
I1077737846
sL488220485L
I1077738514
sL1534362665L
I1077745832
sL447501004L
I1077735712
sL907399025L
I1077741042
sL1738828994L
I1077746702
sL3437278864L
I1077745742
sL2883577005L
I1077741276
sL2738774605L
I1077745844
sL2989083304L
I1077740280
sL3885589787L
I1077736444
sL2131377288L
I1077739150
sL4264599474L
I1077741124
sL3852592164L
I1077739320
sL256732360L
I1077741194
sL2361589063L
I1077741396
sL2527421474L
I1077745276
sL3260834004L
I1077738844
sL2799604055L
I1077735952
sL1335700756L
I1077738136
sL2472115666L
I1077745554
sL2942950886L
I1077741564
sL169930673L
I1077741316
sL276699631L
I1077746234
sL2268799401L
I1077727650
sL2066396863L
I1077737788
sL863476458L
I1077737162
sL582641447L
I1077729058
sL2966905673L
I1077742758
sL2746149680L
I1077745202
sL1514141086L
I1077737104
sL1547374750L
I1077736458
sL3824874845L
I1077729100
sL2675913942L
I1077746090
sL3316653855L
I1077745536
sL1280202235L
I1077745774
sL3369198950L
I1077740998
sL711083739L
I1077737518
sL1060611980L
I1077737926
sL1859004789L
I1077729230
sL530530596L
I1077745332
sL3351724410L
I1077744992
sL2250526874L
I1077737476
sL2805113741L
I1077736862
sL974020814L
I1077740712
sL1675409692L
I1077745462
sL3001709359L
I1077737230
sL2781527808L
I1077744938
sL2304076446L
I1077745144
sL3234517766L
I1077745228
sL2263189301L
I1077735746
sL3284314643L
I1077738728
sL741963233L
I1077737892
sL1151269446L
I1077743768
sL509019022L
I1077737932
sL3443668120L
I1077746148
sL1309177064L
I1077728818
sL4149316272L
I1077738188
sL1312608990L
I1077745628
sL2900949259L
I1077728694
sL2370161825L
I1077739102
sL712530589L
I1077744894
sL3746855870L
I1077737402
sL3416496975L
I1077745210
sL220528085L
I1077744852
sL1690286925L
I1077737454
sL1746215149L
I1077741204
sL3154886642L
I1077741474
sL1300240762L
I1077729480
sL1168472920L
I1077736034
ssS'immediates'
p8
(dp9
S'[261248L]'
p10
I1077741564
sS'[393218L, 524288L, 458752L, 786432L]'
p11
I1077736034
sS'[393232L]'
p12
I1077737230
sS'[393224L, 393230L, 1047600L, 1047600L, 1047600L, 1047600L, 393230L]'
p13
I1077746234
sS'[261335L, 1047601L]'
p14
I1077736914
sS'[245760L, 245760L]'
p15
I1077737932
sS'[1047599L, 1047599L, 393412L]'
p16
I1077745144
sS'[261335L, 1047600L, 1047600L]'
p17
I1077740712
sS'[261334L, 261335L, 261335L, 1047603L, 261335L, 1047603L]'
p18
I1077729100
sS'[261334L, 1047600L, 261334L, 261334L, 261334L, 261334L, 261334L, 1047600L]'
p19
I1077739722
sS'[655360L]'
p20
I1077744584
sS'[261334L, 1047600L, 393422L]'
p21
I1077741236
sS'[261335L, 261334L, 1047599L]'
p22
I1077741564
sS'[1047598L]'
p23
I1077745774
sS'[1024000L]'
p24
I1077744584
sS'[1048320L]'
p25
I1077741358
sS'[263136L, 263040L]'
p26
I1077741564
sS'[393247L]'
p27
I1077744158
sS'[261336L, 261336L, 1047602L]'
p28
I1077729480
sS'[393224L, 524288L]'
p29
I1077745628
sS'[785540L]'
p30
I1077741564
sS'[98353L]'
p31
I1077745014
sS'[393224L, 917504L]'
p32
I1077745774
sS'[393224L, 262144L]'
p33
I1077745628
sS'[261335L, 261335L, 1047603L]'
p34
I1077727650
sS'[261336L, 393220L, 786432L, 98305L, 655351L]'
p35
I1077745332
sS'[393224L, 261334L]'
p36
I1077745254
sS'[1041408L]'
p37
I1077744584
sS'[1047600L, 778240L]'
p38
I1077741474
sS'[393413L]'
p39
I1077744992
sS'[393283L]'
p40
I1077745332
sS'[1047600L, 261334L]'
p41
I1077739150
sS'[261334L, 393291L, 1048528L]'
p42
I1077746234
sS'[1044736L, 1048321L]'
p43
I1077737230
sS'[1047680L]'
p44
I1077744584
sS'[786432L]'
p45
I1077728484
sS'[261335L, 261335L, 1047603L, 393219L]'
p46
I1077727650
sS'[917504L, 1015808L]'
p47
I1077736034
sS'[393254L]'
p48
I1077738728
sS'[261336L, 261334L]'
p49
I1077741564
sS'[261335L, 1047600L]'
p50
I1077740712
sS'[950272L]'
p51
I1077744584
sS'[393216L]'
p52
I1077737230
sS'[261335L, 261335L, 1047601L, 1047601L, 1047601L]'
p53
I1077736914
sS'[1047602L, 1047602L]'
p54
I1077735746
sS'[1048384L, 1046528L]'
p55
I1077728484
sS'[393224L, 131072L]'
p56
I1077745774
sS'[261344L, 1047601L]'
p57
I1077736458
sS'[261344L, 261344L, 1047601L]'
p58
I1077737204
sS'[261334L, 261334L, 1047600L, 261334L]'
p59
I1077739320
sS'[263122L, 263119L]'
p60
I1077741564
sS'[393224L, 586195L, 524288L, 261334L, 261334L]'
p61
I1077727650
sS'[393224L, 1048352L]'
p62
I1077745462
sS'[655360L, 950272L, 1024000L, 1042432L]'
p63
I1077744158
sS'[589824L, 393242L]'
p64
I1077744584
sS'[261344L, 261248L]'
p65
I1077741564
sS'[1047601L, 1047601L, 1047601L, 1047601L]'
p66
I1077735746
sS'[1042432L]'
p67
I1077744584
sS'[261334L, 261335L, 1047600L]'
p68
I1077740712
sS'[1047600L, 393224L, 524288L]'
p69
I1077740682
sS'[261334L, 261344L, 1047603L]'
p70
I1077727650
sS'[261334L, 261334L, 1047600L]'
p71
I1077739036
sS'[393224L, 1047598L]'
p72
I1077746212
sS'[991232L]'
p73
I1077744584
sS'[393408L, 393422L]'
p74
I1077727650
sS'[1047600L, 261334L, 1047600L]'
p75
I1077740998
sS'[393248L]'
p76
I1077744158
sS'[261334L, 1047599L]'
p77
I1077745210
sS'[1047599L, 261335L, 1047599L]'
p78
I1077742758
sS'[393224L, 1040392L, 393291L, 1047602L]'
p79
I1077729480
sS'[1047603L, 1048512L]'
p80
I1077729480
sS'[393224L, 524800L, 361984L]'
p81
I1077745582
sS'[261334L, 261335L, 1047603L, 261334L]'
p82
I1077728818
sS'[261343L]'
p83
I1077741564
sS'[1048384L, 1047808L]'
p84
I1077728484
sS'[393224L, 1047552L, 522240L, 526336L]'
p85
I1077746148
sS'[261335L, 261335L, 1047599L, 261335L]'
p86
I1077742758
sS'[393412L]'
p87
I1077739102
sS'[589824L, 991232L, 1041408L, 1047680L]'
p88
I1077744158
sS'[1047600L, 1047600L, 261334L]'
p89
I1077740280
sS'[1047599L, 1047599L, 1047599L, 1047599L]'
p90
I1077743768
sS'[561152L, 65560L, 65759L, 557056L, 65784L, 68096L, 81920L, 81921L, 585728L, 98304L, 98368L, 262144L, 589824L]'
p91
I1077729230
sS'[393224L, 1047603L, 393247L]'
p92
I1077728902
sS'[787328L]'
p93
I1077741564
ssS'formaldups'
p94
c__builtin__
set
p95
((lp96
tp97
Rp98
sS'stringdups'
p99
g95
((lp100
tp101
Rp102
sS'fuzzydups'
p103
g95
((lp104
tp105
Rp106
sS'strings'
p107
(dp108
L671880972L
I1077736034
sL713809672L
I1077741042
sL1052382719L
I1077736798
sL149002084L
I1077727650
sL2572510736L
I1077742758
sL2873860429L
I1077741236
sL1656553658L
I1077727650
sL4163370478L
I1077741564
sL3081348576L
I1077739722
sL612669455L
I1077741564
sL75997707L
I1077739722
sL1813448795L
I1077741396
sL1103236492L
I1077736034
sL2731035354L
I1077727650
sL2806512722L
I1077741564
sL3135773809L
I1077741124
sL3340728388L
I1077741396
sL1616935291L
I1077741396
sL1569394006L
I1077742758
sL3146625427L
I1077739722
sL2074181825L
I1077741564
sL4220185961L
I1077739722
sL716180885L
I1077739722
sL913774303L
I1077736798
sL3672451662L
I1077739722
sL2613089835L
I1077729480
sL629567786L
I1077741564
sL1635310474L
I1077727650
sL2339794757L
I1077738728
sL1487189266L
I1077736034
sL3285984555L
I1077739722
sL1105984663L
I1077741042
sL2079710987L
I1077738728
ssS'functions'
p109
(dp110
I1077737788
(Vbootloader_common_select_otadata
p111
(lp112
(L1627791617L
L0L
(lp113
(lp114
tp115
a(L2879788119L
L0L
(lp116
(lp117
tp118
a(L2494229722L
L0L
(lp119
(lp120
tp121
a(L2879788119L
L0L
(lp122
(lp123
tp124
a(L972099759L
L0L
(lp125
(lp126
tp127
a(L1786240584L
L0L
(lp128
(lp129
tp130
a(L649869640L
L0L
(lp131
(lp132
tp133
a(L3021749L
L0L
(lp134
(lp135
tp136
a(L3886987204L
L0L
(lp137
(lp138
tp139
a(L3027019L
L0L
(lp140
(lp141
tp142
a(L517799913L
L0L
(lp143
(lp144
tp145
a(L112801L
L0L
(lp146
(lp147
tp148
atp149
sI1077739320
(Vload_image
p150
(lp151
(L2572129868L
L2492177025L
(lp152
L261334L
aL261334L
aL1047600L
aL261334L
a(lp153
Vesp_log_early_timestamp
p154
aVbootloader_random_disable
p155
aVbootloader_ana_clock_glitch_reset_config
p156
atp157
a(L1581615375L
L0L
(lp158
(lp159
tp160
a(L1616324213L
L1537523115L
(lp161
L270336L
a(lp162
Vcache_hal_disable
p163
aVmmu_hal_init
p164
aVmmu_hal_map_region
p165
aVmmu_hal_map_region
p166
atp167
a(L127310207L
L1483791554L
(lp168
L272384L
a(lp169
tp170
a(L92903946L
L3785322319L
(lp171
(lp172
Vabort
p173
atp174
a(L3096951046L
L1649106403L
(lp175
L802816L
a(lp176
tp177
a(L97422L
L0L
(lp178
(lp179
tp180
a(L1631973312L
L3481218595L
(lp181
L1047600L
a(lp182
Vesp_log_early_timestamp
p183
atp184
a(L991126112L
L0L
(lp185
(lp186
tp187
a(L1686721816L
L1627114966L
(lp188
L778240L
a(lp189
tp190
a(L97422L
L0L
(lp191
(lp192
tp193
a(L543606469L
L1880871742L
(lp194
L1047600L
a(lp195
Vesp_log_early_timestamp
p196
atp197
a(L2827867154L
L0L
(lp198
(lp199
tp200
a(L3372449089L
L0L
(lp201
(lp202
tp203
a(L958456879L
L1481114142L
(lp204
L245760L
a(lp205
tp206
a(L3763513761L
L1481174507L
(lp207
L247808L
a(lp208
tp209
a(L178803385L
L0L
(lp210
(lp211
tp212
a(L1424296983L
L1837919098L
(lp213
L270336L
a(lp214
Vcache_ll_l1_enable_bus
p215
atp216
a(L127304937L
L1483791554L
(lp217
L272384L
a(lp218
tp219
a(L1425514790L
L1832448559L
(lp220
(lp221
Vcache_ll_l1_enable_bus
p222
aVcache_hal_enable
p223
aVbootloader_console_deinit
p224
atp225
a(L958456879L
L1481114142L
(lp226
L245760L
a(lp227
tp228
a(L3763513761L
L1481174507L
(lp229
L247808L
a(lp230
tp231
a(L972292166L
L0L
(lp232
(lp233
tp234
atp235
sI1077745210
(Vcache_hal_enable
p236
(lp237
(L2778196689L
L599540017L
(lp238
L261334L
aL1047599L
a(lp239
tp240
atp241
sI1077746234
(Vrtc_clk_select_root_clk
p242
(lp243
(L1212221017L
L0L
(lp244
(lp245
tp246
a(L3027019L
L0L
(lp247
(lp248
tp249
a(L2879796396L
L0L
(lp250
(lp251
tp252
a(L2250257140L
L3413460684L
(lp253
L393291L
aL1048528L
a(lp254
Vrtc_clk_bbpll_disable
p255
atp256
a(L1114695071L
L0L
(lp257
(lp258
tp259
a(L1395343142L
L15019116L
(lp260
L261336L
aL261336L
aL1047598L
a(lp261
Vesp_log_early_timestamp
p262
atp263
a(L1811475599L
L2554418315L
(lp264
L393224L
aL393230L
aL1047600L
aL1047600L
aL1047600L
aL1047600L
aL393230L
a(lp265
tp266
a(L588324104L
L0L
(lp267
(lp268
tp269
a(L4097741584L
L2268525011L
(lp270
L261334L
aL393291L
aL1048528L
a(lp271
tp272
a(L2690785588L
L0L
(lp273
(lp274
tp275
a(L33840683L
L3807342572L
(lp276
L393291L
aL1048528L
a(lp277
Vrtc_dig_clk8m_enable
p278
aVclk_ll_rc_fast_set_divider
p279
aVrtc_clk_bbpll_disable
p280
atp281
a(L2808033597L
L1868483884L
(lp282
L393291L
a(lp283
Vrtc_clk_bbpll_disable
p284
atp285
atp286
sI1077745462
(Vclk_ll_xtal32k_enable
p287
(lp288
(L1186604305L
L513512486L
(lp289
L393224L
aL1048352L
a(lp290
tp291
atp292
sI1077728818
(Vbootloader_check_bootloader_validity
p293
(lp294
(L407276916L
L3038198524L
(lp295
L261334L
aL261335L
aL1047603L
aL261334L
a(lp296
Vefuse_hal_chip_revision
p297
aVesp_log_early_timestamp
p298
aVbootloader_common_check_chip_validity
p299
atp300
atp301
sI1077745202
(Vcache_hal_disable
p302
(lp303
(L4293978002L
L1961921011L
(lp304
L1047599L
a(lp305
tp306
atp307
sI1077737518
(Vbootloader_common_check_chip_validity
p308
(lp309
(L1968903250L
L0L
(lp310
(lp311
tp312
a(L3136966676L
L1756873221L
(lp313
L261335L
aL261335L
aL1047600L
a(lp314
Vesp_log_early_timestamp
p315
atp316
a(L1247781107L
L0L
(lp317
(lp318
tp319
a(L1684723894L
L0L
(lp320
(lp321
tp322
a(L2971417299L
L3785322319L
(lp323
(lp324
Vefuse_hal_chip_revision
p325
atp326
a(L1635369245L
L0L
(lp327
(lp328
tp329
a(L1972374124L
L1756873221L
(lp330
L261335L
aL261335L
aL1047600L
a(lp331
Vesp_log_early_timestamp
p332
atp333
a(L1114635756L
L0L
(lp334
(lp335
tp336
a(L2795208939L
L0L
(lp337
(lp338
tp339
a(L3021749L
L0L
(lp340
(lp341
tp342
a(L323663185L
L1756873221L
(lp343
L261335L
aL261335L
aL1047600L
a(lp344
Vesp_log_early_timestamp
p345
atp346
atp347
sI1077741358
(Vbootloader_ana_clock_glitch_reset_config
p348
(lp349
(L3698198924L
L1514296391L
(lp350
L393224L
a(lp351
tp352
a(L987467370L
L0L
(lp353
(lp354
tp355
a(L2116235618L
L0L
(lp356
(lp357
tp358
a(L2706013467L
L1961948654L
(lp359
L1048320L
a(lp360
tp361
atp362
sI1077744938
(Vwdt_hal_set_flashboot_en
p363
(lp364
(L1581363749L
L0L
(lp365
(lp366
tp367
a(L4293808013L
L0L
(lp368
(lp369
tp370
a(L1372083748L
L0L
(lp371
(lp372
tp373
atp374
sI1077746212
(Vrtc_dig_clk8m_enable
p375
(lp376
(L2212949349L
L513484747L
(lp377
L393224L
aL1047598L
a(lp378
tp379
atp380
sI1077735712
(Vesp_flash_encryption_enabled
p381
(lp382
(L2127904363L
L1514296451L
(lp383
L393242L
a(lp384
tp385
a(L2879796396L
L0L
(lp386
(lp387
tp388
a(L112801L
L0L
(lp389
(lp390
tp391
a(L1919426823L
L0L
(lp392
(lp393
tp394
a(L3144891101L
L0L
(lp395
(lp396
tp397
a(L2124017361L
L0L
(lp398
(lp399
tp400
atp401
sI1077727520
(Vcall_start_cpu0
p402
(lp403
(L4034557005L
L0L
(lp404
(lp405
tp406
a(L2026851438L
L0L
(lp407
(lp408
tp409
a(L923959009L
L3785322319L
(lp410
(lp411
Vbootloader_init
p412
atp413
a(L104981L
L3785322319L
(lp414
(lp415
Vbootloader_reset
p416
atp417
a(L2705061916L
L0L
(lp418
(lp419
tp420
a(L2026851438L
L0L
(lp421
(lp422
tp423
a(L3886339695L
L2139697527L
(lp424
L1047603L
a(lp425
Vmemset
p426
aVbootloader_utility_load_partition_table
p427
atp428
a(L3125749587L
L3850811933L
(lp429
L261334L
aL261334L
aL1047603L
a(lp430
Vesp_log_early_timestamp
p431
atp432
a(L324785248L
L3785322319L
(lp433
(lp434
Vbootloader_utility_get_selected_boot_partition
p435
atp436
a(L2850154287L
L1762319064L
(lp437
L1047603L
a(lp438
Vbootloader_utility_load_boot_image
p439
atp440
atp441
sI1077729058
(Vbootloader_enable_random
p442
(lp443
(L1318855105L
L978247089L
(lp444
L261334L
aL261335L
aL1047603L
a(lp445
Vesp_log_early_timestamp
p446
aVbootloader_random_enable
p447
atp448
atp449
sI1077746210
(Vrtc_clk_8m_divider_set
p450
(lp451
(L96671L
L0L
(lp452
(lp453
tp454
atp455
sI1077739036
(Vtry_load_partition
p456
(lp457
(L374694045L
L0L
(lp458
(lp459
tp460
a(L972069968L
L0L
(lp461
(lp462
tp463
a(L178803377L
L0L
(lp464
(lp465
tp466
a(L1467481251L
L0L
(lp467
(lp468
tp469
a(L1609389252L
L3785322319L
(lp470
(lp471
Vbootloader_load_image
p472
atp473
a(L2504257528L
L3850811930L
(lp474
L261334L
aL261334L
aL1047600L
a(lp475
Vesp_log_early_timestamp
p476
atp477
atp478
sI1077744158
(Vwdt_hal_init
p479
(lp480
(L1263216219L
L443571708L
(lp481
L1047599L
a(lp482
Vmemset
p483
atp484
a(L742359712L
L1514296456L
(lp485
L393247L
a(lp486
tp487
a(L17128253L
L1508694780L
(lp488
L331140L
a(lp489
tp490
a(L3817900425L
L1388352208L
(lp491
L589824L
aL991232L
aL1041408L
aL1047680L
a(lp492
tp493
a(L635539424L
L0L
(lp494
(lp495
tp496
a(L1114665547L
L0L
(lp497
(lp498
tp499
a(L1076513078L
L1514296457L
(lp500
L393248L
a(lp501
tp502
a(L3098307756L
L1514296391L
(lp503
L393224L
a(lp504
tp505
a(L3115422029L
L1994603543L
(lp506
L655360L
aL950272L
aL1024000L
aL1042432L
a(lp507
tp508
atp509
sI1077735952
(Vis_xmc_chip_strict
p510
(lp511
(L4180766171L
L0L
(lp512
(lp513
tp514
a(L2372877815L
L0L
(lp515
(lp516
tp517
a(L4152152190L
L0L
(lp518
(lp519
tp520
a(L2638872485L
L0L
(lp521
(lp522
tp523
a(L2109896318L
L0L
(lp524
(lp525
tp526
a(L3219533786L
L0L
(lp527
(lp528
tp529
a(L3129564495L
L0L
(lp530
(lp531
tp532
a(L178803377L
L0L
(lp533
(lp534
tp535
a(L112801L
L0L
(lp536
(lp537
tp538
atp539
sI1077738514
(Vbootloader_flash_write
p540
(lp541
(L3321403414L
L0L
(lp542
(lp543
tp544
a(L770158774L
L0L
(lp545
(lp546
tp547
a(L571339958L
L0L
(lp548
(lp549
tp550
a(L1010788684L
L4124817652L
(lp551
L261335L
aL261335L
a(lp552
Vesp_log_early_timestamp
p553
atp554
a(L1515843838L
L1961921684L
(lp555
L1047600L
a(lp556
tp557
a(L1247781107L
L0L
(lp558
(lp559
tp560
a(L1794669445L
L0L
(lp561
(lp562
tp563
a(L493674122L
L0L
(lp564
(lp565
tp566
a(L834353076L
L132725599L
(lp567
L261335L
aL261335L
a(lp568
Vesp_log_early_timestamp
p569
atp570
a(L2329217534L
L0L
(lp571
(lp572
tp573
a(L1418827541L
L496277792L
(lp574
L261335L
aL261335L
aL1047600L
a(lp575
Vesp_log_early_timestamp
p576
atp577
a(L3829238001L
L3785322319L
(lp578
(lp579
Vbootloader_flash_unlock
p580
atp581
a(L372047203L
L0L
(lp582
(lp583
tp584
a(L1515843838L
L1961921684L
(lp585
L1047600L
a(lp586
tp587
a(L2657002947L
L3785322319L
(lp588
(lp589
Vspi_to_esp_err
p590
atp591
a(L1217724385L
L1961921684L
(lp592
L1047600L
a(lp593
tp594
atp595
sI1077737230
(Vesp_rom_uart_set_clock_baudrate
p596
(lp597
(L3148555067L
L0L
(lp598
(lp599
tp600
a(L567358857L
L1514296420L
(lp601
L393232L
a(lp602
tp603
a(L4197225145L
L644386292L
(lp604
L1044736L
aL1048321L
a(lp605
tp606
a(L3288447157L
L1514296362L
(lp607
L393216L
a(lp608
tp609
atp610
sI1077746702
(Vrtc_clk_cpu_freq_set
p611
(lp612
(L4104121415L
L1514296605L
(lp613
L393291L
a(lp614
tp615
a(L227191390L
L0L
(lp616
(lp617
tp618
a(L1693817565L
L0L
(lp619
(lp620
tp621
a(L97422L
L0L
(lp622
(lp623
tp624
a(L92903946L
L3785322319L
(lp625
(lp626
Vrtc_clk_select_root_clk
p627
atp628
a(L2879796396L
L0L
(lp629
(lp630
tp631
a(L104981L
L3785322319L
(lp632
(lp633
Vabort
p634
atp635
a(L1026749451L
L1514296605L
(lp636
L393291L
a(lp637
tp638
atp639
sI1077736458
(Vbootloader_flash_unlock
p640
(lp641
(L4088649825L
L202120559L
(lp642
L261344L
aL1047601L
a(lp643
tp644
a(L2682307763L
L0L
(lp645
(lp646
tp647
a(L4033483186L
L3785322319L
(lp648
(lp649
Vbootloader_execute_flash_command
p650
atp651
a(L195575718L
L0L
(lp652
(lp653
tp654
a(L406240546L
L0L
(lp655
(lp656
tp657
a(L2682486509L
L0L
(lp658
(lp659
tp660
a(L1031552313L
L0L
(lp661
(lp662
tp663
a(L1948628446L
L0L
(lp664
(lp665
tp666
a(L2519926954L
L1880226080L
(lp667
(lp668
Vbootloader_execute_flash_command
p669
aVbootloader_execute_flash_command
p670
atp671
a(L393475293L
L0L
(lp672
(lp673
tp674
a(L3106236480L
L3419561205L
(lp675
L1047601L
a(lp676
Vbootloader_execute_flash_command
p677
aVbootloader_execute_flash_command
p678
atp679
a(L1248051143L
L3419561205L
(lp680
L1047601L
a(lp681
Vbootloader_execute_flash_command
p682
aVbootloader_execute_flash_command
p683
atp684
a(L3223119255L
L2571665690L
(lp685
L1047601L
a(lp686
Vbootloader_execute_flash_command
p687
atp688
a(L3278374632L
L1880226080L
(lp689
(lp690
Vbootloader_execute_flash_command
p691
aVbootloader_execute_flash_command
p692
atp693
a(L2507981972L
L0L
(lp694
(lp695
tp696
a(L97689L
L0L
(lp697
(lp698
tp699
a(L96671L
L0L
(lp700
(lp701
tp702
atp703
sI1077737476
(Vbootloader_common_ota_select_valid
p704
(lp705
(L3249826643L
L3785322319L
(lp706
(lp707
Vbootloader_common_ota_select_invalid
p708
atp709
a(L1596170913L
L3785322319L
(lp710
(lp711
Vbootloader_common_ota_select_crc
p712
atp713
a(L796514969L
L0L
(lp714
(lp715
tp716
a(L972053838L
L0L
(lp717
(lp718
tp719
atp720
sI1077741316
(Vbootloader_ana_bod_reset_config
p721
(lp722
(L3433843269L
L1514296391L
(lp723
L393224L
a(lp724
tp725
a(L2679157418L
L51501625L
(lp726
L65536L
a(lp727
tp728
a(L715420743L
L0L
(lp729
(lp730
tp731
a(L3189335643L
L1685145912L
(lp732
L983040L
a(lp733
tp734
atp735
sI1077738496
(Vbootloader_flash_erase_sector
p736
(lp737
(L323918089L
L828855355L
(lp738
L1047600L
a(lp739
Vspi_to_esp_err
p740
atp741
atp742
sI1077745276
(Vclk_ll_rc_fast_set_divider
p743
(lp744
(L2879796396L
L0L
(lp745
(lp746
tp747
a(L3870635228L
L3785322319L
(lp748
(lp749
Vabort
p750
atp751
a(L1122950059L
L1514296391L
(lp752
L393224L
a(lp753
tp754
atp755
sI1077737846
(Vbootloader_common_get_active_otadata
p756
(lp757
(L2879788119L
L0L
(lp758
(lp759
tp760
a(L895523041L
L1832448559L
(lp761
(lp762
Vbootloader_common_ota_select_valid
p763
aVbootloader_common_ota_select_valid
p764
aVbootloader_common_select_otadata
p765
atp766
a(L4000091854L
L0L
(lp767
(lp768
tp769
atp770
sI1077745014
(Vmmu_hal_map_region
p771
(lp772
(L3585772160L
L0L
(lp773
(lp774
tp775
a(L3870635228L
L3785322319L
(lp776
(lp777
Vabort
p778
atp779
a(L1287080608L
L0L
(lp780
(lp781
tp782
a(L3416263576L
L1627114966L
(lp783
L778240L
a(lp784
tp785
a(L1248509739L
L0L
(lp786
(lp787
tp788
a(L3570661927L
L54359698L
(lp789
L98353L
a(lp790
tp791
a(L97689L
L0L
(lp792
(lp793
tp794
a(L112801L
L0L
(lp795
(lp796
tp797
a(L3203482703L
L1649106403L
(lp798
L802816L
a(lp799
tp800
a(L96671L
L0L
(lp801
(lp802
tp803
a(L244396677L
L0L
(lp804
(lp805
tp806
a(L1752236600L
L0L
(lp807
(lp808
tp809
atp810
sI1077745774
(Vrtc_clk_fast_src_set
p811
(lp812
(L2879788119L
L0L
(lp813
(lp814
tp815
a(L1114635489L
L0L
(lp816
(lp817
tp818
a(L3870635228L
L3785322319L
(lp819
(lp820
Vabort
p821
atp822
a(L2532913340L
L3156102017L
(lp823
L393224L
aL917504L
a(lp824
tp825
a(L3676655237L
L1961921010L
(lp826
L1047598L
a(lp827
tp828
a(L3980653243L
L2928732515L
(lp829
L393224L
aL131072L
a(lp830
tp831
atp832
sI1077745254
(Vrtc_clk_bbpll_disable
p833
(lp834
(L3223993937L
L2760239515L
(lp835
L393224L
aL261334L
a(lp836
tp837
atp838
sI1077744992
(Vmmu_hal_init
p839
(lp840
(L54025165L
L1514298281L
(lp841
L393413L
a(lp842
tp843
a(L1120545263L
L0L
(lp844
(lp845
tp846
a(L112801L
L0L
(lp847
(lp848
tp849
atp850
sI1077736034
(Vbootloader_flash_execute_command_common
p851
(lp852
(L1600152455L
L0L
(lp853
(lp854
tp855
a(L501697879L
L493220214L
(lp856
L261335L
aL261335L
a(lp857
tp858
a(L272888352L
L3930493134L
(lp859
L261335L
a(lp860
V__assert_func
p861
atp862
a(L3021749L
L0L
(lp863
(lp864
tp865
a(L4284633248L
L2935465372L
(lp866
L261335L
aL261335L
a(lp867
tp868
a(L2086839361L
L2616899810L
(lp869
L393218L
aL524288L
aL458752L
aL786432L
a(lp870
tp871
a(L2847816051L
L1482838118L
(lp872
L261344L
a(lp873
tp874
a(L2096960930L
L2145074979L
(lp875
L917504L
aL1015808L
a(lp876
tp877
a(L4225773650L
L0L
(lp878
(lp879
tp880
a(L2560996210L
L1685145912L
(lp881
L983040L
a(lp882
tp883
a(L1908267303L
L0L
(lp884
(lp885
tp886
a(L1048372864L
L0L
(lp887
(lp888
tp889
a(L1805794929L
L0L
(lp890
(lp891
tp892
a(L2831663304L
L0L
(lp893
(lp894
tp895
a(L3499414124L
L0L
(lp896
(lp897
tp898
a(L2690785588L
L0L
(lp899
(lp900
tp901
atp902
sI1077738844
(Vlog_invalid_app_partition
p903
(lp904
(L1640178816L
L4255321934L
(lp905
L261334L
aL261334L
a(lp906
tp907
a(L4124193825L
L0L
(lp908
(lp909
tp910
a(L1320954404L
L1837025366L
(lp911
L261334L
a(lp912
Vesp_log_early_timestamp
p913
atp914
a(L1422096737L
L1961921684L
(lp915
L1047600L
a(lp916
tp917
a(L2065150846L
L1837025366L
(lp918
L261334L
a(lp919
Vesp_log_early_timestamp
p920
atp921
a(L3522318456L
L1315297150L
(lp922
L261334L
aL1047600L
a(lp923
Vesp_log_early_timestamp
p924
atp925
atp926
sI1077736798
(Vbootloader_flash_read_sfdp
p927
(lp928
(L196734021L
L0L
(lp929
(lp930
tp931
a(L2222299533L
L3115130620L
(lp932
L261335L
aL261335L
aL261335L
a(lp933
V__assert_func
p934
atp935
a(L1286214018L
L3785322319L
(lp936
(lp937
Vbootloader_flash_execute_command_common
p938
atp939
atp940
sI1077739102
(Vcache_ll_l1_enable_bus
p941
(lp942
(L3145990103L
L0L
(lp943
(lp944
tp945
a(L3870635228L
L3785322319L
(lp946
(lp947
Vabort
p948
atp949
a(L490789153L
L1514298280L
(lp950
L393412L
a(lp951
tp952
atp953
sI1077738840
(Vbootloader_random_disable
p954
(lp955
(L112801L
L0L
(lp956
(lp957
tp958
atp959
sI1077738842
(Vbootloader_random_enable
p960
(lp961
(L112801L
L0L
(lp962
(lp963
tp964
atp965
sI1077746778
(Vrtc_clk_cpu_freq_set_config
p966
(lp967
(L3350742181L
L9047251L
(lp968
L1047599L
a(lp969
Vrtc_clk_select_root_clk
p970
aVrtc_clk_cpu_freq_set
p971
atp972
atp973
sI1077741396
(Vbootloader_util_regions_overlap
p974
(lp975
(L3870627889L
L0L
(lp976
(lp977
tp978
a(L1538692528L
L1056823065L
(lp979
L261335L
aL261335L
a(lp980
tp981
a(L244718421L
L3930493134L
(lp982
L261335L
a(lp983
V__assert_func
p984
atp985
a(L97642L
L0L
(lp986
(lp987
tp988
a(L3294951753L
L2105596139L
(lp989
L261335L
aL261335L
a(lp990
tp991
a(L47849958L
L0L
(lp992
(lp993
tp994
a(L241634384L
L0L
(lp995
(lp996
tp997
a(L2690785588L
L0L
(lp998
(lp999
tp1000
atp1001
sI1077729100
(Vbootloader_print_banner
p1002
(lp1003
(L2207701691L
L3789850571L
(lp1004
L261334L
aL261335L
aL261335L
aL1047603L
aL261335L
aL1047603L
a(lp1005
Vesp_log_early_timestamp
p1006
aVesp_log_early_timestamp
p1007
atp1008
atp1009
sI1077745228
(Vclk_ll_rtc_slow_get_src
p1010
(lp1011
(L1097149835L
L1514296391L
(lp1012
L393224L
a(lp1013
tp1014
a(L1114665280L
L0L
(lp1015
(lp1016
tp1017
a(L2879788119L
L0L
(lp1018
(lp1019
tp1020
a(L178803380L
L0L
(lp1021
(lp1022
tp1023
a(L112801L
L0L
(lp1024
(lp1025
tp1026
atp1027
sI1077745740
(Vrtc_clk_slow_src_get
p1028
(lp1029
(L96671L
L0L
(lp1030
(lp1031
tp1032
atp1033
sI1077745742
(Vrtc_clk_slow_freq_get_hz
p1034
(lp1035
(L650011304L
L3785322319L
(lp1036
(lp1037
Vclk_ll_rtc_slow_get_src
p1038
atp1039
a(L3521090923L
L0L
(lp1040
(lp1041
tp1042
a(L2690785588L
L0L
(lp1043
(lp1044
tp1045
a(L27525704L
L0L
(lp1046
(lp1047
tp1048
atp1049
sI1077741124
(Vbootloader_sha256_finish
p1050
(lp1051
(L2879796396L
L0L
(lp1052
(lp1053
tp1054
a(L4039633153L
L526030530L
(lp1055
L261335L
aL261335L
aL261335L
a(lp1056
V__assert_func
p1057
atp1058
a(L3339157719L
L1482838087L
(lp1059
L261334L
a(lp1060
tp1061
a(L3571324580L
L1961921684L
(lp1062
L1047600L
a(lp1063
tp1064
a(L872993326L
L1961921684L
(lp1065
L1047600L
a(lp1066
tp1067
atp1068
sI1077735746
(Vbootloader_configure_spi_pins
p1069
(lp1070
(L926138164L
L2491075392L
(lp1071
L1047602L
aL1047602L
a(lp1072
tp1073
a(L2062479000L
L0L
(lp1074
(lp1075
tp1076
a(L1020819527L
L4149122240L
(lp1077
L1047601L
aL1047601L
aL1047601L
aL1047601L
a(lp1078
tp1079
a(L1957512321L
L1961921685L
(lp1080
L1047601L
a(lp1081
tp1082
a(L1679893399L
L0L
(lp1083
(lp1084
tp1085
a(L699073970L
L1961921685L
(lp1086
L1047601L
a(lp1087
tp1088
a(L2818436496L
L0L
(lp1089
(lp1090
tp1091
a(L1162062573L
L0L
(lp1092
(lp1093
tp1094
atp1095
sI1077737402
(Vesp_log_early_timestamp
p1096
(lp1097
(L837787899L
L1961921685L
(lp1098
L1047601L
a(lp1099
tp1100
atp1101
sI1077728692
(Vbootloader_init_mem
p1102
(lp1103
(L96671L
L0L
(lp1104
(lp1105
tp1106
atp1107
sI1077741236
(Vabort
p1108
(lp1109
(L1857721510L
L1216526645L
(lp1110
L261334L
aL1047600L
aL393422L
a(lp1111
tp1112
a(L1600573349L
L0L
(lp1113
(lp1114
tp1115
a(L96671L
L0L
(lp1116
(lp1117
tp1118
atp1119
sI1077745332
(Vrtc_gpio_hangup
p1120
(lp1121
(L1755378640L
L3490011985L
(lp1122
L261336L
aL393220L
aL786432L
aL98305L
aL655351L
a(lp1123
tp1124
a(L3880974168L
L1514296576L
(lp1125
L393283L
a(lp1126
tp1127
a(L2214335338L
L0L
(lp1128
(lp1129
tp1130
atp1131
sI1077745844
(Vrtc_clk_xtal_freq_get
p1132
(lp1133
(L2271620270L
L1514296391L
(lp1134
L393224L
a(lp1135
tp1136
a(L3842508258L
L15019116L
(lp1137
L261336L
aL261336L
aL1047598L
a(lp1138
Vesp_log_early_timestamp
p1139
atp1140
a(L1703547055L
L0L
(lp1141
(lp1142
tp1143
atp1144
sI1077737398
(Vefuse_hal_get_minor_chip_version
p1145
(lp1146
(L972069968L
L0L
(lp1147
(lp1148
tp1149
atp1150
sI1077728694
(Vbootloader_flash_update_id
p1151
(lp1152
(L2329443897L
L2025521193L
(lp1153
L261344L
a(lp1154
Vbootloader_read_flash_id
p1155
atp1156
atp1157
sI1077745582
(Vrtc_clk_rc32k_enable
p1158
(lp1159
(L2227684238L
L2777370799L
(lp1160
L393224L
aL524800L
aL361984L
a(lp1161
tp1162
a(L625336369L
L1565120027L
(lp1163
L524288L
a(lp1164
tp1165
a(L715420743L
L0L
(lp1166
(lp1167
tp1168
a(L28191045L
L0L
(lp1169
(lp1170
tp1171
atp1172
sI1077740712
(Vbootloader_utility_load_boot_image
p1173
(lp1174
(L837365792L
L828855355L
(lp1175
L1047600L
a(lp1176
Vmemset
p1177
atp1178
a(L3461845044L
L0L
(lp1179
(lp1180
tp1181
a(L97472L
L0L
(lp1182
(lp1183
tp1184
a(L2618424853L
L0L
(lp1185
(lp1186
tp1187
a(L3959458697L
L1837025366L
(lp1188
L261334L
a(lp1189
Vtry_load_partition
p1190
atp1191
a(L2373994510L
L2889525204L
(lp1192
L261335L
aL1047600L
a(lp1193
Vesp_log_early_timestamp
p1194
atp1195
a(L788139596L
L3785322319L
(lp1196
(lp1197
Vtry_load_partition
p1198
atp1199
a(L2604244530L
L3785322319L
(lp1200
(lp1201
Vload_image
p1202
atp1203
a(L3157042408L
L3006340059L
(lp1204
L261334L
aL261335L
aL1047600L
a(lp1205
Vesp_log_early_timestamp
p1206
atp1207
a(L92903946L
L3785322319L
(lp1208
(lp1209
Vbootloader_reset
p1210
atp1211
a(L930989106L
L3785322319L
(lp1212
(lp1213
Vindex_to_partition
p1214
atp1215
a(L2706096028L
L3785322319L
(lp1216
(lp1217
Vtry_load_partition
p1218
atp1219
a(L1847521059L
L0L
(lp1220
(lp1221
tp1222
a(L4255795723L
L3785322319L
(lp1223
(lp1224
Vset_actual_ota_seq
p1225
atp1226
a(L3760413555L
L3785322319L
(lp1227
(lp1228
Vlog_invalid_app_partition
p1229
atp1230
a(L2617247825L
L0L
(lp1231
(lp1232
tp1233
a(L2980376948L
L3785322319L
(lp1234
(lp1235
Vindex_to_partition
p1236
atp1237
a(L2706096028L
L3785322319L
(lp1238
(lp1239
Vtry_load_partition
p1240
atp1241
a(L3788974814L
L0L
(lp1242
(lp1243
tp1244
a(L3368292042L
L3785322319L
(lp1245
(lp1246
Vlog_invalid_app_partition
p1247
atp1248
a(L3272864280L
L2082846991L
(lp1249
L261335L
aL1047600L
aL1047600L
a(lp1250
Vesp_log_early_timestamp
p1251
aVmemset
p1252
atp1253
atp1254
sI1077745832
(Vrtc_clk_fast_src_get
p1255
(lp1256
(L481947569L
L1514296391L
(lp1257
L393224L
a(lp1258
tp1259
atp1260
sI1077746090
(Vrtc_clk_apb_freq_get
p1261
(lp1262
(L1748158808L
L1868483884L
(lp1263
L393291L
a(lp1264
Vrtc_clk_cpu_freq_get_config
p1265
atp1266
atp1267
sI1077737892
(Vspi_to_esp_err
p1268
(lp1269
(L1114635489L
L0L
(lp1270
(lp1271
tp1272
a(L1114665280L
L0L
(lp1273
(lp1274
tp1275
a(L3129142803L
L0L
(lp1276
(lp1277
tp1278
a(L192099748L
L0L
(lp1279
(lp1280
tp1281
a(L192129539L
L0L
(lp1282
(lp1283
tp1284
atp1285
sI1077737382
(Vefuse_hal_get_major_chip_version
p1286
(lp1287
(L2321163284L
L1514296451L
(lp1288
L393242L
a(lp1289
tp1290
atp1291
sI1077742758
(Vimage_load
p1292
(lp1293
(L2681678620L
L0L
(lp1294
(lp1295
tp1296
a(L1466598553L
L0L
(lp1297
(lp1298
tp1299
a(L2762689128L
L0L
(lp1300
(lp1301
tp1302
a(L97422L
L0L
(lp1303
(lp1304
tp1305
a(L3414768397L
L0L
(lp1306
(lp1307
tp1308
a(L195605501L
L0L
(lp1309
(lp1310
tp1311
a(L1265186785L
L0L
(lp1312
(lp1313
tp1314
a(L4240517482L
L0L
(lp1315
(lp1316
tp1317
a(L3986674404L
L2726286025L
(lp1318
L261335L
aL261335L
aL1047599L
a(lp1319
Vesp_log_early_timestamp
p1320
atp1321
a(L3060030864L
L0L
(lp1322
(lp1323
tp1324
a(L1859565829L
L3785322319L
(lp1325
(lp1326
Vbootloader_sha256_finish
p1327
atp1328
a(L1388966676L
L443571708L
(lp1329
L1047599L
a(lp1330
Vmemset
p1331
atp1332
a(L3621076728L
L0L
(lp1333
(lp1334
tp1335
a(L195575710L
L0L
(lp1336
(lp1337
tp1338
a(L2282026993L
L941923795L
(lp1339
L1047599L
a(lp1340
Vmemset
p1341
aVbootloader_flash_read
p1342
atp1343
a(L194892249L
L0L
(lp1344
(lp1345
tp1346
a(L2677304065L
L0L
(lp1347
(lp1348
tp1349
a(L97422L
L0L
(lp1350
(lp1351
tp1352
a(L258613804L
L3785322319L
(lp1353
(lp1354
Vbootloader_sha256_start
p1355
atp1356
a(L1907386537L
L3785322319L
(lp1357
(lp1358
Vbootloader_sha256_data
p1359
atp1360
a(L2053517818L
L0L
(lp1361
(lp1362
tp1363
a(L1114635756L
L0L
(lp1364
(lp1365
tp1366
a(L1742063933L
L0L
(lp1367
(lp1368
tp1369
a(L2096763833L
L2726286025L
(lp1370
L261335L
aL261335L
aL1047599L
a(lp1371
Vesp_log_early_timestamp
p1372
atp1373
a(L4068621037L
L3785322319L
(lp1374
(lp1375
Vbootloader_common_check_chip_validity
p1376
atp1377
a(L1480544977L
L0L
(lp1378
(lp1379
tp1380
a(L1114635489L
L0L
(lp1381
(lp1382
tp1383
a(L42477533L
L2726286025L
(lp1384
L261335L
aL261335L
aL1047599L
a(lp1385
Vesp_log_early_timestamp
p1386
atp1387
a(L1148728952L
L3785322319L
(lp1388
(lp1389
Vprocess_segments
p1390
atp1391
a(L3260370233L
L0L
(lp1392
(lp1393
tp1394
a(L2736956977L
L1514298311L
(lp1395
L393422L
a(lp1396
tp1397
a(L3150717649L
L0L
(lp1398
(lp1399
tp1400
a(L97689L
L0L
(lp1401
(lp1402
tp1403
a(L3637661678L
L0L
(lp1404
(lp1405
tp1406
a(L1786921316L
L0L
(lp1407
(lp1408
tp1409
a(L1114635489L
L0L
(lp1410
(lp1411
tp1412
a(L3776866081L
L4049034218L
(lp1413
L261335L
aL261335L
a(lp1414
Vesp_log_early_timestamp
p1415
atp1416
a(L2647656426L
L1961921011L
(lp1417
L1047599L
a(lp1418
tp1419
a(L2461448777L
L3785322319L
(lp1420
(lp1421
Vbootloader_flash_read
p1422
atp1423
a(L2538919359L
L0L
(lp1424
(lp1425
tp1426
a(L97422L
L0L
(lp1427
(lp1428
tp1429
a(L2537687944L
L3785322319L
(lp1430
(lp1431
Vbootloader_sha256_data
p1432
atp1433
a(L2789207506L
L0L
(lp1434
(lp1435
tp1436
a(L3662542039L
L0L
(lp1437
(lp1438
tp1439
a(L1114635489L
L0L
(lp1440
(lp1441
tp1442
a(L2956801434L
L132725599L
(lp1443
L261335L
aL261335L
a(lp1444
Vesp_log_early_timestamp
p1445
atp1446
a(L194886979L
L0L
(lp1447
(lp1448
tp1449
a(L2727602760L
L0L
(lp1450
(lp1451
tp1452
a(L3541651506L
L3785322319L
(lp1453
(lp1454
Vbootloader_flash_read
p1455
atp1456
a(L96671L
L0L
(lp1457
(lp1458
tp1459
a(L97422L
L0L
(lp1460
(lp1461
tp1462
a(L97422L
L0L
(lp1463
(lp1464
tp1465
a(L3838044975L
L1514298311L
(lp1466
L393422L
a(lp1467
tp1468
a(L1457255997L
L4022717782L
(lp1469
L1047599L
aL261335L
aL1047599L
a(lp1470
Vmemset
p1471
aVbootloader_sha256_finish
p1472
aVbootloader_debug_buffer
p1473
aVmemcmp
p1474
atp1475
a(L1450366200L
L870558474L
(lp1476
L261335L
aL261335L
aL1047599L
aL261335L
a(lp1477
Vesp_log_early_timestamp
p1478
aVbootloader_debug_buffer
p1479
atp1480
a(L3287271051L
L0L
(lp1481
(lp1482
tp1483
a(L3060030864L
L0L
(lp1484
(lp1485
tp1486
a(L461755792L
L3785322319L
(lp1487
(lp1488
Vbootloader_sha256_finish
p1489
atp1490
a(L97689L
L0L
(lp1491
(lp1492
tp1493
a(L193968728L
L0L
(lp1494
(lp1495
tp1496
a(L1927433918L
L1490866818L
(lp1497
L261334L
a(lp1498
tp1499
a(L3310251669L
L1443213481L
(lp1500
(lp1501
tp1502
a(L1419669375L
L0L
(lp1503
(lp1504
tp1505
a(L2261643954L
L0L
(lp1506
(lp1507
tp1508
a(L1328886979L
L0L
(lp1509
(lp1510
tp1511
a(L2277868796L
L0L
(lp1512
(lp1513
tp1514
a(L62210145L
L3785322319L
(lp1515
(lp1516
Vshould_load
p1517
atp1518
a(L1860037655L
L0L
(lp1519
(lp1520
tp1521
a(L2838920662L
L0L
(lp1522
(lp1523
tp1524
a(L747659454L
L1443213481L
(lp1525
(lp1526
tp1527
a(L1447620987L
L0L
(lp1528
(lp1529
tp1530
a(L846939181L
L0L
(lp1531
(lp1532
tp1533
a(L96671L
L0L
(lp1534
(lp1535
tp1536
a(L4117461025L
L1443213481L
(lp1537
(lp1538
tp1539
a(L1114604947L
L0L
(lp1540
(lp1541
tp1542
a(L1997505807L
L0L
(lp1543
(lp1544
tp1545
atp1546
sI1077727650
(Vbootloader_init
p1547
(lp1548
(L4098819004L
L1279282L
(lp1549
L393224L
aL586195L
aL524288L
aL261334L
aL261334L
a(lp1550
Vbootloader_ana_super_wdt_reset_config
p1551
aVbootloader_ana_bod_reset_config
p1552
aVbootloader_ana_clock_glitch_reset_config
p1553
aVbootloader_init_mem
p1554
atp1555
a(L3595022531L
L2397438720L
(lp1556
L261335L
aL261335L
a(lp1557
tp1558
a(L272888352L
L3930493134L
(lp1559
L261335L
a(lp1560
V__assert_func
p1561
atp1562
a(L317652210L
L2940358494L
(lp1563
L261334L
aL261334L
a(lp1564
tp1565
a(L3898890626L
L1587269108L
(lp1566
L261335L
aL261335L
a(lp1567
tp1568
a(L626027746L
L665916544L
(lp1569
(lp1570
Vbootloader_clear_bss_section
p1571
aVcache_hal_init
p1572
aVmmu_hal_init
p1573
aVbootloader_clock_configure
p1574
aVbootloader_console_init
p1575
aVbootloader_print_banner
p1576
aVbootloader_flash_update_id
p1577
aVbootloader_flash_xmc_startup
p1578
atp1579
a(L165840557L
L1286113564L
(lp1580
L261335L
aL261335L
aL1047603L
a(lp1581
Vesp_log_early_timestamp
p1582
atp1583
a(L3095781504L
L0L
(lp1584
(lp1585
tp1586
a(L999957782L
L3785322319L
(lp1587
(lp1588
Vbootloader_read_bootloader_header
p1589
atp1590
a(L999957782L
L3785322319L
(lp1591
(lp1592
Vbootloader_check_bootloader_validity
p1593
atp1594
a(L3594746947L
L2761469214L
(lp1595
L261334L
aL261344L
aL1047603L
a(lp1596
Vbootloader_flash_dummy_config
p1597
aVbootloader_flash_cs_timing_config
p1598
aVbootloader_execute_flash_command
p1599
aVbootloader_flash_unlock
p1600
atp1601
a(L228710731L
L0L
(lp1602
(lp1603
tp1604
a(L97689L
L0L
(lp1605
(lp1606
tp1607
a(L3664447490L
L1482838088L
(lp1608
L261335L
a(lp1609
tp1610
a(L2440866642L
L3928341384L
(lp1611
L261335L
aL261335L
aL1047603L
aL393219L
a(lp1612
Vesp_log_early_timestamp
p1613
atp1614
a(L2108287836L
L0L
(lp1615
(lp1616
tp1617
a(L4071215907L
L0L
(lp1618
(lp1619
tp1620
a(L726216458L
L0L
(lp1621
(lp1622
tp1623
a(L1341621832L
L0L
(lp1624
(lp1625
tp1626
a(L256911707L
L1482838088L
(lp1627
L261335L
a(lp1628
tp1629
a(L1158817167L
L3660298303L
(lp1630
L261335L
aL1047603L
a(lp1631
Vesp_log_early_timestamp
p1632
atp1633
a(L3027019L
L0L
(lp1634
(lp1635
tp1636
a(L97422L
L0L
(lp1637
(lp1638
tp1639
a(L227161866L
L0L
(lp1640
(lp1641
tp1642
a(L256911742L
L1482838088L
(lp1643
L261335L
a(lp1644
tp1645
a(L1437393845L
L2011325983L
(lp1646
L261335L
aL1047603L
a(lp1647
Vesp_log_early_timestamp
p1648
atp1649
a(L3027019L
L0L
(lp1650
(lp1651
tp1652
a(L196877370L
L0L
(lp1653
(lp1654
tp1655
a(L1330578084L
L0L
(lp1656
(lp1657
tp1658
a(L195456550L
L0L
(lp1659
(lp1660
tp1661
a(L1874750197L
L761563663L
(lp1662
L1047603L
aL1047603L
a(lp1663
Vcache_hal_disable
p1664
aVcache_hal_enable
p1665
aVbootloader_enable_wp
p1666
atp1667
a(L4075917476L
L0L
(lp1668
(lp1669
tp1670
a(L678292484L
L0L
(lp1671
(lp1672
tp1673
a(L3970175383L
L229593108L
(lp1674
L261335L
aL1047603L
a(lp1675
Vesp_log_early_timestamp
p1676
atp1677
a(L2736406738L
L2501946038L
(lp1678
L393408L
aL393422L
a(lp1679
Vbootloader_config_wdt
p1680
aVbootloader_enable_random
p1681
atp1682
a(L2371985485L
L1482838088L
(lp1683
L261335L
a(lp1684
tp1685
a(L3957328924L
L1482838088L
(lp1686
L261335L
a(lp1687
tp1688
a(L2370585308L
L1482838088L
(lp1689
L261335L
a(lp1690
tp1691
a(L3955928747L
L1482838088L
(lp1692
L261335L
a(lp1693
tp1694
a(L2424760585L
L1482838088L
(lp1695
L261335L
a(lp1696
tp1697
a(L2079243844L
L1482838088L
(lp1698
L261335L
a(lp1699
tp1700
a(L2080524857L
L1482838088L
(lp1701
L261335L
a(lp1702
tp1703
a(L24234079L
L1482838088L
(lp1704
L261335L
a(lp1705
tp1706
a(L227221448L
L0L
(lp1707
(lp1708
tp1709
a(L27481298L
L1482838088L
(lp1710
L261335L
a(lp1711
tp1712
a(L26200285L
L1482838088L
(lp1713
L261335L
a(lp1714
tp1715
a(L26557777L
L1482838088L
(lp1716
L261335L
a(lp1717
tp1718
a(L25961957L
L1482838088L
(lp1719
L261335L
a(lp1720
tp1721
a(L743772070L
L0L
(lp1722
(lp1723
tp1724
a(L3636719634L
L0L
(lp1725
(lp1726
tp1727
atp1728
sI1077741474
(Vshould_load
p1729
(lp1730
(L4076048435L
L3748502378L
(lp1731
L1047600L
aL778240L
a(lp1732
tp1733
a(L2938087811L
L1649106403L
(lp1734
L802816L
a(lp1735
tp1736
a(L1460301921L
L51501625L
(lp1737
L65536L
a(lp1738
tp1739
a(L2551987929L
L0L
(lp1740
(lp1741
tp1742
a(L3475601093L
L1622264960L
(lp1743
L720896L
a(lp1744
tp1745
a(L1467481251L
L0L
(lp1746
(lp1747
tp1748
a(L972053838L
L0L
(lp1749
(lp1750
tp1751
atp1752
sI1077736862
(Vbootloader_read_flash_id
p1753
(lp1754
(L1426011424L
L3785322319L
(lp1755
(lp1756
Vbootloader_execute_flash_command
p1757
atp1758
atp1759
sI1077738136
(Vbootloader_munmap
p1760
(lp1761
(L2918757903L
L1490866818L
(lp1762
L261334L
a(lp1763
tp1764
a(L2973788123L
L474714375L
(lp1765
L261334L
a(lp1766
Vcache_hal_disable
p1767
aVmmu_hal_init
p1768
atp1769
a(L1467481251L
L0L
(lp1770
(lp1771
tp1772
atp1773
sI1077729176
(Vbootloader_console_init
p1774
(lp1775
(L4006768771L
L2584964295L
(lp1776
L1047603L
a(lp1777
Vesp_rom_install_uart_printf
p1778
aVrtc_clk_apb_freq_get
p1779
aVrtc_clk_xtal_freq_get
p1780
aVesp_rom_uart_set_clock_baudrate
p1781
atp1782
atp1783
sI1077743768
(Vesp_partition_table_verify
p1784
(lp1785
(L688590183L
L1482838118L
(lp1786
L261344L
a(lp1787
tp1788
a(L137286155L
L0L
(lp1789
(lp1790
tp1791
a(L2522307061L
L0L
(lp1792
(lp1793
tp1794
a(L2879796396L
L0L
(lp1795
(lp1796
tp1797
a(L2285568001L
L0L
(lp1798
(lp1799
tp1800
a(L370429360L
L0L
(lp1801
(lp1802
tp1803
a(L10051329L
L0L
(lp1804
(lp1805
tp1806
a(L3516637082L
L0L
(lp1807
(lp1808
tp1809
a(L2879788119L
L0L
(lp1810
(lp1811
tp1812
a(L1483329161L
L185023319L
(lp1813
L261335L
aL261335L
a(lp1814
Vesp_log_early_timestamp
p1815
atp1816
a(L1120068711L
L1994862268L
(lp1817
L261335L
aL261335L
aL1047599L
a(lp1818
Vesp_log_early_timestamp
p1819
atp1820
a(L97689L
L0L
(lp1821
(lp1822
tp1823
a(L2879788119L
L0L
(lp1824
(lp1825
tp1826
a(L2879788119L
L0L
(lp1827
(lp1828
tp1829
a(L277865302L
L185023319L
(lp1830
L261335L
aL261335L
a(lp1831
Vesp_log_early_timestamp
p1832
atp1833
a(L2647656426L
L1961921011L
(lp1834
L1047599L
a(lp1835
tp1836
a(L1200190287L
L3396414991L
(lp1837
L1047599L
aL1047599L
aL1047599L
aL1047599L
a(lp1838
Vmemcmp
p1839
atp1840
a(L2879788119L
L0L
(lp1841
(lp1842
tp1843
a(L420195142L
L132725599L
(lp1844
L261335L
aL261335L
a(lp1845
Vesp_log_early_timestamp
p1846
atp1847
a(L1114634738L
L0L
(lp1848
(lp1849
tp1850
a(L1572337605L
L0L
(lp1851
(lp1852
tp1853
a(L3599414360L
L0L
(lp1854
(lp1855
tp1856
a(L2879796396L
L0L
(lp1857
(lp1858
tp1859
a(L1239841183L
L0L
(lp1860
(lp1861
tp1862
a(L3642042070L
L1994862268L
(lp1863
L261335L
aL261335L
aL1047599L
a(lp1864
Vesp_log_early_timestamp
p1865
atp1866
atp1867
sI1077741204
(V__assert_func
p1868
(lp1869
(L2073192897L
L3853229602L
(lp1870
L261334L
aL1047600L
a(lp1871
tp1872
a(L96671L
L0L
(lp1873
(lp1874
tp1875
atp1876
sI1077746068
(Vrtc_clk_apb_freq_update
p1877
(lp1878
(L739958537L
L1514296391L
(lp1879
L393224L
a(lp1880
tp1881
atp1882
sI1077737104
(Vbootloader_flash_cs_timing_config
p1883
(lp1884
(L1348831372L
L1391334041L
(lp1885
L393219L
aL393218L
a(lp1886
tp1887
atp1888
sI1077743760
(Vbootloader_load_image
p1889
(lp1890
(L484041396L
L3785322319L
(lp1891
(lp1892
Vimage_load
p1893
atp1894
atp1895
sI1077745554
(Vrtc_clk_32k_enable
p1896
(lp1897
(L2879788119L
L0L
(lp1898
(lp1899
tp1900
a(L96671L
L3785322319L
(lp1901
(lp1902
Vrtc_clk_32k_enable
p1903
atp1904
a(L4245182863L
L1514296391L
(lp1905
L393224L
a(lp1906
tp1907
atp1908
sI1077739150
(Vset_actual_ota_seq
p1909
(lp1910
(L97642L
L0L
(lp1911
(lp1912
tp1913
a(L2452515751L
L1490866818L
(lp1914
L261334L
a(lp1915
tp1916
a(L4066722822L
L162220781L
(lp1917
L1047600L
aL261334L
a(lp1918
Vmemset
p1919
aVbootloader_common_ota_select_crc
p1920
aVesp_flash_encryption_enabled
p1921
aVbootloader_flash_erase_sector
p1922
atp1923
a(L3120528935L
L3785322319L
(lp1924
(lp1925
Vbootloader_flash_write
p1926
atp1927
a(L484346255L
L3733997075L
(lp1928
L261334L
aL1047600L
a(lp1929
Vesp_log_early_timestamp
p1930
atp1931
a(L1499605510L
L3733997075L
(lp1932
L261334L
aL1047600L
a(lp1933
Vesp_log_early_timestamp
p1934
atp1935
a(L112801L
L0L
(lp1936
(lp1937
tp1938
atp1939
sI1077737352
(Vefuse_hal_chip_revision
p1940
(lp1941
(L567410569L
L1880226080L
(lp1942
(lp1943
Vefuse_hal_get_major_chip_version
p1944
aVefuse_hal_get_minor_chip_version
p1945
atp1946
atp1947
sI1077740682
(Vbootloader_reset
p1948
(lp1949
(L1922727292L
L410730503L
(lp1950
L1047600L
aL393224L
aL524288L
a(lp1951
Vbootloader_console_deinit
p1952
atp1953
a(L96671L
L0L
(lp1954
(lp1955
tp1956
atp1957
sI1077741194
(Vbootloader_console_deinit
p1958
(lp1959
(L3911672300L
L1961921684L
(lp1960
L1047600L
a(lp1961
tp1962
atp1963
sI1077728902
(Vbootloader_config_wdt
p1964
(lp1965
(L629735169L
L1857723031L
(lp1966
L393224L
aL1047603L
aL393247L
a(lp1967
Vwdt_hal_write_protect_disable
p1968
aVwdt_hal_set_flashboot_en
p1969
aVwdt_hal_write_protect_enable
p1970
aVwdt_hal_init
p1971
aVrtc_clk_slow_freq_get_hz
p1972
aVwdt_hal_write_protect_disable
p1973
aV__udivdi3
p1974
aVwdt_hal_config_stage
p1975
aVwdt_hal_enable
p1976
aVwdt_hal_write_protect_enable
p1977
aVwdt_hal_write_protect_disable
p1978
aVwdt_hal_set_flashboot_en
p1979
aVwdt_hal_write_protect_enable
p1980
atp1981
atp1982
sI1077745536
(Vrtc_clk_32k_enable
p1983
(lp1984
(L4040074532L
L1832448559L
(lp1985
(lp1986
Vrtc_gpio_hangup
p1987
aVrtc_gpio_hangup
p1988
aVclk_ll_xtal32k_enable
p1989
atp1990
atp1991
sI1077746048
(Vrtc_clk_xtal_freq_update
p1992
(lp1993
(L448708562L
L1514296391L
(lp1994
L393224L
a(lp1995
tp1996
atp1997
sI1077746560
(Vrtc_clk_cpu_freq_mhz_to_config
p1998
(lp1999
(L2929397589L
L3785322319L
(lp2000
(lp2001
Vrtc_clk_xtal_freq_get
p2002
atp2003
a(L2153686835L
L1514296605L
(lp2004
L393291L
a(lp2005
tp2006
a(L4195945028L
L0L
(lp2007
(lp2008
tp2009
a(L2644003176L
L0L
(lp2010
(lp2011
tp2012
a(L1786240584L
L0L
(lp2013
(lp2014
tp2015
a(L1946665717L
L1514296605L
(lp2016
L393291L
a(lp2017
tp2018
a(L1114695071L
L0L
(lp2019
(lp2020
tp2021
a(L1418296244L
L0L
(lp2022
(lp2023
tp2024
a(L3218069209L
L1868483884L
(lp2025
L393291L
a(lp2026
Vrtc_clk_select_root_clk
p2027
atp2028
atp2029
sI1077736444
(Vbootloader_execute_flash_command
p2030
(lp2031
(L667382265L
L3785322319L
(lp2032
(lp2033
Vbootloader_flash_execute_command_common
p2034
atp2035
atp2036
sI1077741564
(Vprocess_segments
p2037
(lp2038
(L468848692L
L3519271590L
(lp2039
L261335L
aL261335L
a(lp2040
tp2041
a(L2261733327L
L0L
(lp2042
(lp2043
tp2044
a(L1636559455L
L0L
(lp2045
(lp2046
tp2047
a(L2004154687L
L0L
(lp2048
(lp2049
tp2050
a(L2171116385L
L2726286025L
(lp2051
L261335L
aL261335L
aL1047599L
a(lp2052
Vesp_log_early_timestamp
p2053
atp2054
a(L3586668280L
L3785322319L
(lp2055
(lp2056
Vbootloader_flash_read
p2057
atp2058
a(L2109381351L
L2726286025L
(lp2059
L261335L
aL261335L
aL1047599L
a(lp2060
Vesp_log_early_timestamp
p2061
atp2062
a(L2934770234L
L0L
(lp2063
(lp2064
tp2065
a(L97422L
L0L
(lp2066
(lp2067
tp2068
a(L3127530277L
L3785322319L
(lp2069
(lp2070
Vbootloader_sha256_data
p2071
atp2072
a(L671380084L
L0L
(lp2073
(lp2074
tp2075
a(L606959206L
L0L
(lp2076
(lp2077
tp2078
a(L2004146410L
L0L
(lp2079
(lp2080
tp2081
a(L1742063933L
L0L
(lp2082
(lp2083
tp2084
a(L83396822L
L2726286025L
(lp2085
L261335L
aL261335L
aL1047599L
a(lp2086
Vesp_log_early_timestamp
p2087
atp2088
a(L3880141583L
L1627114966L
(lp2089
L778240L
a(lp2090
tp2091
a(L3847072089L
L1649106403L
(lp2092
L802816L
a(lp2093
tp2094
a(L1657705410L
L0L
(lp2095
(lp2096
tp2097
a(L2004154687L
L0L
(lp2098
(lp2099
tp2100
a(L3576009804L
L2726286025L
(lp2101
L261335L
aL261335L
aL1047599L
a(lp2102
Vesp_log_early_timestamp
p2103
atp2104
a(L2290307393L
L1482838118L
(lp2105
L261344L
a(lp2106
tp2107
a(L4195457058L
L0L
(lp2108
(lp2109
tp2110
a(L2466668771L
L1628009603L
(lp2111
L787328L
a(lp2112
tp2113
a(L758567367L
L0L
(lp2114
(lp2115
tp2116
a(L1737896161L
L282710858L
(lp2117
L261343L
a(lp2118
Vbootloader_util_regions_overlap
p2119
atp2120
a(L3550675382L
L1922350975L
(lp2121
L261336L
aL261334L
a(lp2122
Vbootloader_util_regions_overlap
p2123
atp2124
a(L97689L
L0L
(lp2125
(lp2126
tp2127
a(L286760751L
L1211385824L
(lp2128
L261344L
aL261248L
a(lp2129
Vbootloader_util_regions_overlap
p2130
atp2131
a(L3981075578L
L0L
(lp2132
(lp2133
tp2134
a(L3085019485L
L1627951997L
(lp2135
L785540L
a(lp2136
tp2137
a(L2012257482L
L0L
(lp2138
(lp2139
tp2140
a(L4250335304L
L2407904419L
(lp2141
L263122L
aL263119L
a(lp2142
Vbootloader_util_regions_overlap
p2143
atp2144
a(L97689L
L0L
(lp2145
(lp2146
tp2147
a(L523858248L
L2456915309L
(lp2148
L263136L
aL263040L
a(lp2149
Vbootloader_util_regions_overlap
p2150
atp2151
a(L1269838680L
L1627951972L
(lp2152
L785536L
a(lp2153
tp2154
a(L1397854035L
L1961893106L
(lp2155
L1046784L
a(lp2156
tp2157
a(L3449465316L
L1627951972L
(lp2158
L785536L
a(lp2159
tp2160
a(L775551987L
L1961893106L
(lp2161
L1046784L
a(lp2162
tp2163
a(L3043246999L
L0L
(lp2164
(lp2165
tp2166
a(L1374796389L
L1482837161L
(lp2167
L261248L
a(lp2168
tp2169
a(L1022305917L
L1622264960L
(lp2170
L720896L
a(lp2171
tp2172
a(L439261046L
L0L
(lp2173
(lp2174
tp2175
a(L2771986134L
L1482838088L
(lp2176
L261335L
a(lp2177
tp2178
a(L1644639940L
L1482838088L
(lp2179
L261335L
a(lp2180
tp2181
a(L3247775842L
L2893118632L
(lp2182
L261335L
aL261335L
aL1047599L
a(lp2183
Vesp_log_early_timestamp
p2184
atp2185
a(L2774160877L
L1482838088L
(lp2186
L261335L
a(lp2187
tp2188
a(L2772432999L
L1482838088L
(lp2189
L261335L
a(lp2190
tp2191
a(L3464571732L
L796588947L
(lp2192
L261334L
a(lp2193
Vbootloader_mmap_get_free_pages
p2194
atp2195
a(L97689L
L0L
(lp2196
(lp2197
tp2198
a(L3547793818L
L0L
(lp2199
(lp2200
tp2201
a(L3263715122L
L0L
(lp2202
(lp2203
tp2204
a(L1848064986L
L0L
(lp2205
(lp2206
tp2207
a(L2879796396L
L0L
(lp2208
(lp2209
tp2210
a(L97422L
L0L
(lp2211
(lp2212
tp2213
a(L1994927413L
L3785322319L
(lp2214
(lp2215
Vbootloader_mmap
p2216
atp2217
a(L3263232586L
L2793292778L
(lp2218
L261335L
aL261334L
aL1047599L
a(lp2219
Vesp_log_early_timestamp
p2220
atp2221
a(L97689L
L0L
(lp2222
(lp2223
tp2224
a(L97689L
L0L
(lp2225
(lp2226
tp2227
a(L3673049918L
L828855355L
(lp2228
L1047600L
a(lp2229
Vmemcpy
p2230
atp2231
a(L606060230L
L3785322319L
(lp2232
(lp2233
Vbootloader_munmap
p2234
atp2235
a(L1585963033L
L0L
(lp2236
(lp2237
tp2238
a(L1129589830L
L2422941325L
(lp2239
L261334L
a(lp2240
Vbootloader_fill_random
p2241
atp2242
a(L3260511388L
L1443213481L
(lp2243
(lp2244
tp2245
a(L3260511388L
L1443213481L
(lp2246
(lp2247
tp2248
a(L178952332L
L0L
(lp2249
(lp2250
tp2251
a(L3021749L
L0L
(lp2252
(lp2253
tp2254
a(L576903666L
L0L
(lp2255
(lp2256
tp2257
a(L2179573801L
L0L
(lp2258
(lp2259
tp2260
a(L2879788119L
L0L
(lp2261
(lp2262
tp2263
a(L2393314628L
L1482838087L
(lp2264
L261334L
a(lp2265
tp2266
a(L2788414707L
L1443213481L
(lp2267
(lp2268
tp2269
a(L2648879649L
L0L
(lp2270
(lp2271
tp2272
a(L97422L
L0L
(lp2273
(lp2274
tp2275
a(L2790825184L
L0L
(lp2276
(lp2277
tp2278
a(L3580541702L
L0L
(lp2279
(lp2280
tp2281
a(L2342829182L
L0L
(lp2282
(lp2283
tp2284
a(L2554482676L
L3785322319L
(lp2285
(lp2286
Vbootloader_sha256_data
p2287
atp2288
a(L760241082L
L0L
(lp2289
(lp2290
tp2291
a(L700160972L
L1443213481L
(lp2292
(lp2293
tp2294
a(L386345307L
L0L
(lp2295
(lp2296
tp2297
a(L4218705003L
L0L
(lp2298
(lp2299
tp2300
a(L3653628312L
L1649106403L
(lp2301
L802816L
a(lp2302
tp2303
a(L1396502324L
L0L
(lp2304
(lp2305
tp2306
a(L3519097800L
L3785322319L
(lp2307
(lp2308
Vshould_load
p2309
atp2310
a(L762571608L
L0L
(lp2311
(lp2312
tp2313
a(L1149601217L
L3785322319L
(lp2314
(lp2315
Vesp_log_early_timestamp
p2316
atp2317
a(L2404954216L
L0L
(lp2318
(lp2319
tp2320
a(L307676863L
L1482838088L
(lp2321
L261335L
a(lp2322
tp2323
a(L1550171107L
L2215597279L
(lp2324
L261335L
aL261335L
aL1047599L
a(lp2325
tp2326
a(L97422L
L0L
(lp2327
(lp2328
tp2329
a(L97422L
L0L
(lp2330
(lp2331
tp2332
a(L1486298316L
L0L
(lp2333
(lp2334
tp2335
a(L97422L
L0L
(lp2336
(lp2337
tp2338
a(L97642L
L0L
(lp2339
(lp2340
tp2341
a(L3240740664L
L2851085587L
(lp2342
L261335L
aL261335L
aL261335L
a(lp2343
V__assert_func
p2344
atp2345
atp2346
sI1077744894
(Vwdt_hal_enable
p2347
(lp2348
(L2760970575L
L0L
(lp2349
(lp2350
tp2351
a(L3102529343L
L1565120027L
(lp2352
L524288L
a(lp2353
tp2354
a(L1110144735L
L1565120027L
(lp2355
L524288L
a(lp2356
tp2357
atp2358
sI1077740280
(Vbootloader_utility_get_selected_boot_partition
p2359
(lp2360
(L2194311293L
L0L
(lp2361
(lp2362
tp2363
a(L313067578L
L0L
(lp2364
(lp2365
tp2366
a(L550534449L
L3109772602L
(lp2367
L261334L
aL261334L
a(lp2368
Vesp_log_early_timestamp
p2369
atp2370
a(L3033760090L
L1961921684L
(lp2371
L1047600L
a(lp2372
tp2373
a(L413110324L
L0L
(lp2374
(lp2375
tp2376
a(L1618982369L
L3785322319L
(lp2377
(lp2378
Vbootloader_mmap
p2379
atp2380
a(L1056824545L
L3540189213L
(lp2381
L261334L
aL261334L
a(lp2382
Vesp_log_early_timestamp
p2383
atp2384
a(L4115095336L
L389816678L
(lp2385
L1047600L
aL1047600L
aL261334L
a(lp2386
Vmemcpy
p2387
aVmemcpy
p2388
aVbootloader_munmap
p2389
aVbootloader_common_ota_select_invalid
p2390
atp2391
a(L1785042075L
L0L
(lp2392
(lp2393
tp2394
a(L3343091681L
L3785322319L
(lp2395
(lp2396
Vbootloader_common_get_active_otadata
p2397
atp2398
a(L1184844615L
L0L
(lp2399
(lp2400
tp2401
a(L982349770L
L3785322319L
(lp2402
(lp2403
Vbootloader_common_ota_select_invalid
p2404
atp2405
a(L3380866552L
L1482838087L
(lp2406
L261334L
a(lp2407
tp2408
a(L1477165906L
L3733997075L
(lp2409
L261334L
aL1047600L
a(lp2410
Vesp_log_early_timestamp
p2411
atp2412
a(L1530666462L
L0L
(lp2413
(lp2414
tp2415
a(L136341332L
L3733997075L
(lp2416
L261334L
aL1047600L
a(lp2417
Vesp_log_early_timestamp
p2418
atp2419
a(L1332005837L
L0L
(lp2420
(lp2421
tp2422
a(L185032544L
L3785322319L
(lp2423
(lp2424
Vbootloader_common_ota_select_crc
p2425
atp2426
a(L2050326770L
L1443213481L
(lp2427
(lp2428
tp2429
a(L1801192043L
L3785322319L
(lp2430
(lp2431
Vbootloader_common_ota_select_crc
p2432
atp2433
a(L2277868796L
L0L
(lp2434
(lp2435
tp2436
a(L2875307927L
L1482838087L
(lp2437
L261334L
a(lp2438
tp2439
a(L3356196692L
L3552601953L
(lp2440
L261334L
a(lp2441
Vesp_log_early_timestamp
p2442
atp2443
a(L1217724385L
L1961921684L
(lp2444
L1047600L
a(lp2445
tp2446
a(L480370253L
L1837025366L
(lp2447
L261334L
a(lp2448
Vesp_log_early_timestamp
p2449
atp2450
atp2451
sI1077745144
(Vcache_hal_init
p2452
(lp2453
(L3510672031L
L3142084008L
(lp2454
L1047599L
aL1047599L
aL393412L
a(lp2455
tp2456
atp2457
sI1077745914
(Vrtc_clk_cpu_freq_get_config
p2458
(lp2459
(L656280173L
L1514296605L
(lp2460
L393291L
a(lp2461
tp2462
a(L227191390L
L0L
(lp2463
(lp2464
tp2465
a(L3321847242L
L0L
(lp2466
(lp2467
tp2468
a(L2476972308L
L3785322319L
(lp2469
(lp2470
Vrtc_clk_xtal_freq_get
p2471
atp2472
a(L3377742549L
L0L
(lp2473
(lp2474
tp2475
a(L1507479677L
L3785322319L
(lp2476
(lp2477
Vrtc_clk_xtal_freq_get
p2478
atp2479
a(L151497123L
L0L
(lp2480
(lp2481
tp2482
a(L3042581301L
L0L
(lp2483
(lp2484
tp2485
atp2486
sI1077728756
(Vbootloader_read_bootloader_header
p2487
(lp2488
(L2769214940L
L2422941325L
(lp2489
L261334L
a(lp2490
Vbootloader_flash_read
p2491
atp2492
a(L1055097502L
L3006340062L
(lp2493
L261334L
aL261335L
aL1047603L
a(lp2494
Vesp_log_early_timestamp
p2495
atp2496
a(L2690785588L
L0L
(lp2497
(lp2498
tp2499
atp2500
sI1077737204
(Vesp_rom_install_uart_printf
p2501
(lp2502
(L1700214642L
L810164937L
(lp2503
L261344L
aL261344L
aL1047601L
a(lp2504
tp2505
atp2506
sI1077741042
(Vbootloader_sha256_data
p2507
(lp2508
(L2859389061L
L0L
(lp2509
(lp2510
tp2511
a(L3819026734L
L2958027339L
(lp2512
L261335L
aL261335L
a(lp2513
tp2514
a(L244718421L
L3930493134L
(lp2515
L261335L
a(lp2516
V__assert_func
p2517
atp2518
a(L118090123L
L0L
(lp2519
(lp2520
tp2521
a(L379624975L
L267330567L
(lp2522
L261335L
aL261335L
a(lp2523
tp2524
a(L3717551640L
L2009575021L
(lp2525
L261334L
aL1047600L
a(lp2526
tp2527
atp2528
sI1077744876
(Vwdt_hal_write_protect_enable
p2529
(lp2530
(L2760970575L
L0L
(lp2531
(lp2532
tp2533
a(L3364537997L
L0L
(lp2534
(lp2535
tp2536
a(L1308590939L
L0L
(lp2537
(lp2538
tp2539
atp2540
sI1077737454
(Vbootloader_common_ota_select_invalid
p2541
(lp2542
(L1104547016L
L0L
(lp2543
(lp2544
tp2545
a(L1859233657L
L0L
(lp2546
(lp2547
tp2548
a(L972099759L
L0L
(lp2549
(lp2550
tp2551
atp2552
sI1077738728
(Vbootloader_fill_random
p2553
(lp2554
(L2879788119L
L0L
(lp2555
(lp2556
tp2557
a(L3185139804L
L1514296484L
(lp2558
L393254L
a(lp2559
tp2560
a(L97689L
L0L
(lp2561
(lp2562
tp2563
a(L112801L
L0L
(lp2564
(lp2565
tp2566
a(L4044807615L
L1128640366L
(lp2567
L261335L
aL261335L
aL261335L
a(lp2568
V__assert_func
p2569
atp2570
a(L3694434185L
L0L
(lp2571
(lp2572
tp2573
a(L2879796396L
L0L
(lp2574
(lp2575
tp2576
a(L3780984062L
L0L
(lp2577
(lp2578
tp2579
a(L2739587138L
L0L
(lp2580
(lp2581
tp2582
a(L626933813L
L0L
(lp2583
(lp2584
tp2585
atp2586
sI1077728484
(Vbootloader_clock_configure
p2587
(lp2588
(L1191245867L
L4233885728L
(lp2589
L1047603L
aL1047603L
a(lp2590
tp2591
a(L3636736353L
L1982168077L
(lp2592
L786432L
a(lp2593
Vrtc_clk_slow_src_get
p2594
atp2595
a(L195426755L
L0L
(lp2596
(lp2597
tp2598
a(L3497713963L
L3146775809L
(lp2599
L1048384L
aL1047808L
a(lp2600
Vrtc_clk_fast_src_get
p2601
atp2602
a(L178922541L
L0L
(lp2603
(lp2604
tp2605
a(L3463580427L
L1480675073L
(lp2606
L1048384L
aL1046528L
a(lp2607
Vrtc_clk_init
p2608
atp2609
a(L3535453010L
L3785322319L
(lp2610
(lp2611
Vrtc_clk_apb_freq_get
p2612
atp2613
a(L3482547818L
L1514296391L
(lp2614
L393224L
a(lp2615
tp2616
atp2617
sI1077746148
(Vrtc_clk_divider_set
p2618
(lp2619
(L2879796396L
L0L
(lp2620
(lp2621
tp2622
a(L3870635228L
L3785322319L
(lp2623
(lp2624
Vabort
p2625
atp2626
a(L687943816L
L3251661279L
(lp2627
L393224L
aL1047552L
aL522240L
aL526336L
a(lp2628
tp2629
atp2630
sI1077737190
(Vbootloader_flash_dummy_config
p2631
(lp2632
(L209183661L
L1880226080L
(lp2633
(lp2634
Vbootloader_configure_spi_pins
p2635
aVbootloader_flash_set_dummy_out
p2636
atp2637
atp2638
sI1077737440
(Vbootloader_common_ota_select_crc
p2639
(lp2640
(L2098857935L
L1961921685L
(lp2641
L1047601L
a(lp2642
tp2643
atp2644
sI1077738716
(Vbootloader_enable_wp
p2645
(lp2646
(L3980074596L
L3785322319L
(lp2647
(lp2648
Vbootloader_execute_flash_command
p2649
atp2650
atp2651
sI1077741276
(Vbootloader_ana_super_wdt_reset_config
p2652
(lp2653
(L3179480458L
L1514296391L
(lp2654
L393224L
a(lp2655
tp2656
a(L1148605675L
L0L
(lp2657
(lp2658
tp2659
a(L715420743L
L0L
(lp2660
(lp2661
tp2662
a(L1719237916L
L0L
(lp2663
(lp2664
tp2665
atp2666
sI1077745628
(Vrtc_clk_slow_src_set
p2667
(lp2668
(L1766779262L
L0L
(lp2669
(lp2670
tp2671
a(L1114665280L
L0L
(lp2672
(lp2673
tp2674
a(L2879796396L
L0L
(lp2675
(lp2676
tp2677
a(L1185970235L
L1514296391L
(lp2678
L393224L
a(lp2679
tp2680
a(L3927062152L
L9047251L
(lp2681
L1047599L
a(lp2682
Vrtc_clk_32k_enable
p2683
aVrtc_clk_rc32k_enable
p2684
atp2685
a(L404032431L
L2960162890L
(lp2686
L393224L
aL262144L
a(lp2687
tp2688
a(L1890741739L
L0L
(lp2689
(lp2690
tp2691
a(L2169318406L
L3042416930L
(lp2692
L393224L
aL524288L
a(lp2693
tp2694
a(L104981L
L3785322319L
(lp2695
(lp2696
Vabort
p2697
atp2698
atp2699
sI1077738970
(Vindex_to_partition
p2700
(lp2701
(L1943510957L
L0L
(lp2702
(lp2703
tp2704
a(L1388801751L
L0L
(lp2705
(lp2706
tp2707
a(L4124223616L
L0L
(lp2708
(lp2709
tp2710
a(L3587004395L
L0L
(lp2711
(lp2712
tp2713
a(L2235719512L
L0L
(lp2714
(lp2715
tp2716
a(L3902268800L
L0L
(lp2717
(lp2718
tp2719
a(L242915341L
L0L
(lp2720
(lp2721
tp2722
a(L3680069515L
L0L
(lp2723
(lp2724
tp2725
a(L3257844733L
L0L
(lp2726
(lp2727
tp2728
a(L2395953524L
L0L
(lp2729
(lp2730
tp2731
atp2732
sI1077744852
(Vwdt_hal_write_protect_disable
p2733
(lp2734
(L2186058023L
L1508694780L
(lp2735
L331140L
a(lp2736
tp2737
a(L905302370L
L0L
(lp2738
(lp2739
tp2740
a(L287236069L
L0L
(lp2741
(lp2742
tp2743
atp2744
sI1077736914
(Vbootloader_flash_xmc_startup
p2745
(lp2746
(L1784552760L
L2025521193L
(lp2747
L261344L
a(lp2748
Vis_xmc_chip_strict
p2749
atp2750
a(L178803377L
L0L
(lp2751
(lp2752
tp2753
a(L796514969L
L0L
(lp2754
(lp2755
tp2756
a(L2510857519L
L3785322319L
(lp2757
(lp2758
Vbootloader_flash_read_sfdp
p2759
atp2760
a(L3290694601L
L3789642157L
(lp2761
L261335L
aL261335L
aL1047601L
aL1047601L
aL1047601L
a(lp2762
Vesp_log_early_timestamp
p2763
aVbootloader_execute_flash_command
p2764
aVbootloader_execute_flash_command
p2765
aVbootloader_execute_flash_command
p2766
aVbootloader_execute_flash_command
p2767
aVbootloader_read_flash_id
p2768
aVis_xmc_chip_strict
p2769
atp2770
a(L1853101331L
L3748602905L
(lp2771
L261335L
aL1047601L
a(lp2772
Vesp_log_early_timestamp
p2773
atp2774
atp2775
sI1077728722
(Vbootloader_clear_bss_section
p2776
(lp2777
(L641959836L
L1110067593L
(lp2778
L261334L
aL261334L
aL1047603L
a(lp2779
tp2780
atp2781
sI1077737932
(Vbootloader_mmap
p2782
(lp2783
(L850532226L
L1490866818L
(lp2784
L261334L
a(lp2785
tp2786
a(L273676400L
L4124817652L
(lp2787
L261335L
aL261335L
a(lp2788
Vesp_log_early_timestamp
p2789
atp2790
a(L1217724385L
L1961921684L
(lp2791
L1047600L
a(lp2792
tp2793
a(L2365476636L
L0L
(lp2794
(lp2795
tp2796
a(L3836986954L
L496277792L
(lp2797
L261335L
aL261335L
aL1047600L
a(lp2798
Vesp_log_early_timestamp
p2799
atp2800
a(L178803377L
L0L
(lp2801
(lp2802
tp2803
a(L1512740234L
L0L
(lp2804
(lp2805
tp2806
a(L1883719883L
L0L
(lp2807
(lp2808
tp2809
a(L3921769684L
L132725599L
(lp2810
L261335L
aL261335L
a(lp2811
Vesp_log_early_timestamp
p2812
atp2813
a(L3289817582L
L3121101978L
(lp2814
L245760L
aL245760L
a(lp2815
Vcache_hal_disable
p2816
aVmmu_hal_map_region
p2817
aVcache_hal_enable
p2818
atp2819
atp2820
sI1077738188
(Vbootloader_flash_read
p2821
(lp2822
(L2106843274L
L0L
(lp2823
(lp2824
tp2825
a(L4065906764L
L4124817652L
(lp2826
L261335L
aL261335L
a(lp2827
Vesp_log_early_timestamp
p2828
atp2829
a(L2330363299L
L1961921684L
(lp2830
L1047600L
a(lp2831
tp2832
a(L3437187132L
L0L
(lp2833
(lp2834
tp2835
a(L1506122733L
L0L
(lp2836
(lp2837
tp2838
a(L779916744L
L132725599L
(lp2839
L261335L
aL261335L
a(lp2840
Vesp_log_early_timestamp
p2841
atp2842
a(L3723552643L
L0L
(lp2843
(lp2844
tp2845
a(L785597919L
L132725599L
(lp2846
L261335L
aL261335L
a(lp2847
Vesp_log_early_timestamp
p2848
atp2849
a(L2879788119L
L0L
(lp2850
(lp2851
tp2852
a(L3218868235L
L1482838087L
(lp2853
L261334L
a(lp2854
tp2855
a(L97422L
L0L
(lp2856
(lp2857
tp2858
a(L4070864493L
L1443213481L
(lp2859
(lp2860
tp2861
a(L4077002169L
L4180657803L
(lp2862
L247792L
a(lp2863
Vcache_hal_disable
p2864
aVmmu_hal_map_region
p2865
aVcache_hal_enable
p2866
atp2867
a(L2799732940L
L1481173819L
(lp2868
L247792L
a(lp2869
tp2870
a(L1677899894L
L2565307077L
(lp2871
L1047600L
a(lp2872
Vcache_hal_disable
p2873
aVcache_hal_enable
p2874
aVspi_to_esp_err
p2875
atp2876
atp2877
sI1077729230
(Vesp_cpu_configure_region_protection
p2878
(lp2879
(L2543877072L
L1292679788L
(lp2880
L561152L
aL65560L
aL65759L
aL557056L
aL65784L
aL68096L
aL81920L
aL81921L
aL585728L
aL98304L
aL98368L
aL262144L
aL589824L
a(lp2881
tp2882
atp2883
sI1077729480
(Vrtc_clk_init
p2884
(lp2885
(L1373870983L
L3526112047L
(lp2886
L393224L
aL1040392L
aL393291L
aL1047602L
a(lp2887
Vrtc_clk_divider_set
p2888
aVrtc_clk_8m_divider_set
p2889
aVrtc_clk_xtal_freq_update
p2890
aVrtc_clk_apb_freq_get
p2891
aVrtc_clk_apb_freq_update
p2892
aVrtc_clk_cpu_freq_get_config
p2893
aVrtc_clk_select_root_clk
p2894
aVrtc_clk_cpu_freq_mhz_to_config
p2895
atp2896
a(L3888284455L
L869639958L
(lp2897
L261336L
aL261336L
aL1047602L
a(lp2898
Vesp_log_early_timestamp
p2899
aVabort
p2900
atp2901
a(L2937641864L
L969623436L
(lp2902
L1047603L
aL1048512L
a(lp2903
Vrtc_clk_cpu_freq_set_config
p2904
aV__udivdi3
p2905
atp2906
a(L972091939L
L3785322319L
(lp2907
(lp2908
Vrtc_clk_32k_enable
p2909
atp2910
a(L1317584437L
L0L
(lp2911
(lp2912
tp2913
a(L104981L
L3785322319L
(lp2914
(lp2915
Vrtc_dig_clk8m_enable
p2916
atp2917
a(L3297128513L
L1880226080L
(lp2918
(lp2919
Vrtc_clk_fast_src_set
p2920
aVrtc_clk_slow_src_set
p2921
atp2922
atp2923
sI1077744584
(Vwdt_hal_config_stage
p2924
(lp2925
(L2760970575L
L0L
(lp2926
(lp2927
tp2928
a(L131589821L
L0L
(lp2929
(lp2930
tp2931
a(L3027019L
L0L
(lp2932
(lp2933
tp2934
a(L2879788119L
L0L
(lp2935
(lp2936
tp2937
a(L4032686966L
L1686011744L
(lp2938
L991232L
a(lp2939
tp2940
a(L227191390L
L0L
(lp2941
(lp2942
tp2943
a(L3870635228L
L3785322319L
(lp2944
(lp2945
Vabort
p2946
atp2947
a(L2575354239L
L1612836935L
(lp2948
L589824L
aL393242L
a(lp2949
tp2950
a(L3930063584L
L1961741024L
(lp2951
L1041408L
a(lp2952
tp2953
a(L2443368991L
L1961921932L
(lp2954
L1047680L
a(lp2955
tp2956
a(L131470657L
L0L
(lp2957
(lp2958
tp2959
a(L3027019L
L0L
(lp2960
(lp2961
tp2962
a(L2879788119L
L0L
(lp2963
(lp2964
tp2965
a(L1654776057L
L1682287993L
(lp2966
L950272L
a(lp2967
tp2968
a(L227191657L
L0L
(lp2969
(lp2970
tp2971
a(L2170570427L
L1961770902L
(lp2972
L1042432L
a(lp2973
tp2974
a(L2334311324L
L1596550423L
(lp2975
L655360L
a(lp2976
tp2977
a(L2990438281L
L0L
(lp2978
(lp2979
tp2980
a(L1253636996L
L1959979503L
(lp2981
L1024000L
a(lp2982
tp2983
atp2984
sI1077737162
(Vbootloader_flash_set_dummy_out
p2985
(lp2986
(L1067583329L
L1391334041L
(lp2987
L393219L
aL393218L
a(lp2988
tp2989
atp2990
sI1077739722
(Vbootloader_utility_load_partition_table
p2991
(lp2992
(L237419893L
L1837025366L
(lp2993
L261334L
a(lp2994
Vbootloader_mmap
p2995
atp2996
a(L2233894162L
L3733997075L
(lp2997
L261334L
aL1047600L
a(lp2998
Vesp_log_early_timestamp
p2999
atp3000
a(L178803377L
L0L
(lp3001
(lp3002
tp3003
a(L470173302L
L0L
(lp3004
(lp3005
tp3006
a(L3118888600L
L3785322319L
(lp3007
(lp3008
Vesp_partition_table_verify
p3009
atp3010
a(L14687501L
L3733997075L
(lp3011
L261334L
aL1047600L
a(lp3012
Vesp_log_early_timestamp
p3013
atp3014
a(L3432023079L
L1541552260L
(lp3015
L261334L
aL1047600L
aL261334L
aL261334L
aL261334L
aL261334L
aL261334L
aL1047600L
a(lp3016
Vesp_log_early_timestamp
p3017
aVesp_log_early_timestamp
p3018
atp3019
a(L2748503981L
L0L
(lp3020
(lp3021
tp3022
a(L671173234L
L2074520804L
(lp3023
L261334L
aL1047600L
a(lp3024
Vbootloader_munmap
p3025
aVesp_log_early_timestamp
p3026
atp3027
a(L2673928691L
L0L
(lp3028
(lp3029
tp3030
a(L227131808L
L0L
(lp3031
(lp3032
tp3033
a(L3845470978L
L1482838087L
(lp3034
L261334L
a(lp3035
tp3036
a(L401343067L
L2654917609L
(lp3037
L261334L
aL1047600L
a(lp3038
Vesp_log_early_timestamp
p3039
atp3040
a(L2251066186L
L0L
(lp3041
(lp3042
tp3043
a(L1827648759L
L0L
(lp3044
(lp3045
tp3046
a(L1184346610L
L0L
(lp3047
(lp3048
tp3049
a(L219124850L
L0L
(lp3050
(lp3051
tp3052
a(L2743872551L
L0L
(lp3053
(lp3054
tp3055
a(L3231392951L
L0L
(lp3056
(lp3057
tp3058
a(L2400504947L
L0L
(lp3059
(lp3060
tp3061
a(L3027019L
L0L
(lp3062
(lp3063
tp3064
a(L2879788119L
L0L
(lp3065
(lp3066
tp3067
a(L756851414L
L1482838087L
(lp3068
L261334L
a(lp3069
tp3070
a(L227221181L
L0L
(lp3071
(lp3072
tp3073
a(L227251239L
L0L
(lp3074
(lp3075
tp3076
a(L758340964L
L1482838087L
(lp3077
L261334L
a(lp3078
tp3079
a(L1283347286L
L1482838087L
(lp3080
L261334L
a(lp3081
tp3082
a(L757179115L
L1482838087L
(lp3083
L261334L
a(lp3084
tp3085
a(L758698456L
L1482838087L
(lp3086
L261334L
a(lp3087
tp3088
a(L759026157L
L1482838087L
(lp3089
L261334L
a(lp3090
tp3091
atp3092
sI1077740996
(Vbootloader_debug_buffer
p3093
(lp3094
(L112801L
L0L
(lp3095
(lp3096
tp3097
atp3098
sI1077737926
(Vbootloader_mmap_get_free_pages
p3099
(lp3100
(L1709773374L
L0L
(lp3101
(lp3102
tp3103
atp3104
sI1077740998
(Vbootloader_sha256_start
p3105
(lp3106
(L1980641933L
L1781470083L
(lp3107
L1047600L
aL261334L
aL1047600L
a(lp3108
tp3109
atp3110
ssS'functionsdups'
p3111
g95
((lp3112
tp3113
Rp3114
sS'immediatedups'
p3115
g95
((lp3116
tp3117
Rp3118
sS'functiondups'
p3119
g95
((lp3120
tp3121
Rp3122
sS'fuzzy'
p3123
(dp3124
L977014973L
I1077737518
sL505046424L
I1077728694
sL45806640L
I1077737892
sL3859585024L
I1077736458
sL2464933477L
I1077737204
sL1839604392L
I1077737382
sL3538491111L
I1077745742
sL3421935076L
I1077741236
sL1725537103L
I1077738514
sL472012852L
I1077746778
sL2362335833L
I1077729230
sL2091778873L
I1077745582
sL1009311409L
I1077738728
sL3487676280L
I1077741316
sL3009869055L
I1077742758
sL1164442237L
I1077728722
sL3152819191L
I1077741124
sL2845189515L
I1077740280
sL2511801258L
I1077744852
sL4262246290L
I1077737476
sL1419845120L
I1077738970
sL343203029L
I1077746560
sL311047209L
I1077728818
sL3315302845L
I1077737230
sL2201584671L
I1077745014
sL1155433462L
I1077729176
sL3494132461L
I1077744584
sL1751860417L
I1077729100
sL2475522855L
I1077745536
sL2047605921L
I1077746212
sL2339434844L
I1077727520
sL3405581137L
I1077741042
sL829931609L
I1077740682
sL4112106793L
I1077739722
sL3351736181L
I1077739150
sL3522118237L
I1077740998
sL4141825005L
I1077741276
sL3548090317L
I1077741564
sL190335078L
I1077745332
sL1346910856L
I1077735712
sL147622158L
I1077746090
sL1332800441L
I1077737846
sL1595397211L
I1077743768
sL855113659L
I1077745202
sL3577657971L
I1077736914
sL997719353L
I1077729480
sL2662060004L
I1077741396
sL1525074486L
I1077727650
sL2962095709L
I1077745914
sL1892613919L
I1077728902
sL2966529024L
I1077737788
sL3667395146L
I1077741474
sL3284256791L
I1077746148
sL2585701062L
I1077746702
sL2917343289L
I1077738496
sL2424587225L
I1077739102
sL3462602046L
I1077741358
sL2399615064L
I1077746234
sL1849950247L
I1077739036
sL724413134L
I1077741204
sL4277599125L
I1077744158
sL1964066933L
I1077745774
sL855119645L
I1077741194
sL250469515L
I1077745844
sL2323085712L
I1077738188
sL2288365837L
I1077745628
sL2600843756L
I1077740712
sL2262558768L
I1077735952
sL3842523619L
I1077745228
sL1283667310L
I1077728756
sL3481638888L
I1077745144
sL3878619201L
I1077736798
sL2069708083L
I1077745462
sL4160050586L
I1077745210
sL3186768000L
I1077745254
sL1895461001L
I1077738136
sL1061364278L
I1077729058
sL3962550872L
I1077728484
sL2863537113L
I1077735746
sL2683764225L
I1077744992
sL3306867298L
I1077739320
sL866857937L
I1077737932
sL1652088834L
I1077744894
sL1214175522L
I1077736034
sL2569263583L
I1077738844
ssb.