ccopy_reg
_reconstructor
p0
(crizzo
RizzoSignature
p1
c__builtin__
object
p2
Ntp3
Rp4
(dp5
S'formal'
p6
(dp7
L8149118L
I1074079036
sL762726257L
I1074054308
sL2258331273L
I1074054764
sL1936039030L
I1074071860
sL2508877209L
I1074071976
sL770509310L
I1074079420
sL1145492062L
I1074073456
sL3502751197L
I1074077588
sL4213015302L
I1074077572
sL3522147827L
I1074080536
sL181501390L
I1074078940
sL4276143811L
I1074071204
sL356395798L
I1074079508
sL2714068201L
I1074080336
sL2702580795L
I1074072500
sL2135037559L
I1074054108
sL2896295319L
I1074072028
sL1164539984L
I1074078472
sL2485902447L
I1074071952
sL1466447661L
I1074080096
sL403665481L
I1074054804
sL1808251532L
I1074073036
sL4050174756L
I1074079740
sL3269647282L
I1074074184
sL2770959736L
I1074055012
sL1711100075L
I1074080256
sL4248750695L
I1074075248
sL3067325839L
I1074073904
sL3395744058L
I1074079960
sL1203882908L
I1074080228
sL933294335L
I1074071744
sL3607071134L
I1074055100
sL3245043983L
I1074074496
sL2617392742L
I1074079856
sL59825140L
I1074080564
sL2416606575L
I1074055408
sL395994608L
I1074075440
sL1256436369L
I1074075276
sL3895723847L
I1074055052
sL3007247178L
I1074073540
sL3362405148L
I1074081360
sL346278873L
I1074073292
sL3327465262L
I1074081448
sL866460453L
I1074070556
sL2704588981L
I1074075496
sL1910401375L
I1074078812
sL2515126122L
I1074071996
sL3307282855L
I1074073184
sL316477268L
I1074079904
sL4207454274L
I1074081764
sL1043339424L
I1074075044
sL2138734570L
I1074076232
sL4235835373L
I1074077072
sL2091782713L
I1074081204
sL2688653017L
I1074073624
sL590478506L
I1074071508
sL2145103429L
I1074079564
sL4038945309L
I1074071560
sL1380515819L
I1074074804
sL2380038264L
I1074079536
sL4162636985L
I1074079012
sL777954553L
I1074075328
sL3869050682L
I1074078912
sL2815472760L
I1074073572
sL1496401048L
I1074074284
sL4130268548L
I1074053484
sL3426400656L
I1074072188
sL1652900655L
I1074080216
sL2636957319L
I1074073016
sL4028332468L
I1074075360
sL2997001746L
I1074072432
sL1998931348L
I1074080320
sL2528820233L
I1074070596
sL4148619250L
I1074081604
sL562673724L
I1074054876
sL1790743305L
I1074081704
sL3490055600L
I1074072608
sL1690492021L
I1074074772
sL3192298239L
I1074075144
sL2819127986L
I1074072152
sL459284958L
I1074071900
sL750544764L
I1074075668
sL1877634603L
I1074055484
sL247644673L
I1074079460
sL2550725836L
I1074073212
sL1521484660L
I1074075860
sL710093205L
I1074054848
sL485413668L
I1074076448
sL2678404201L
I1074080684
sL1276120256L
I1074072768
sL280060513L
I1074079328
sL1693402430L
I1074075120
sL2413791243L
I1074078844
sL1941410401L
I1074072804
sL765126470L
I1074075416
sL4151713192L
I1074071916
sL188664287L
I1074071172
sL4057506618L
I1074072132
sL423608795L
I1074071608
sL4108071224L
I1074081284
sL692536993L
I1074072472
sL4038749020L
I1074072576
sL1391905823L
I1074072100
sL3644390100L
I1074070724
sL4154495056L
I1074054780
sL3424398056L
I1074075196
sL3158840252L
I1074075916
sL1488053828L
I1074053592
sL963376286L
I1074081160
sL3600327535L
I1074073204
sL283304469L
I1074076324
sL1869070750L
I1074077876
sL277927786L
I1074053123
ssS'immediates'
p8
(dp9
sS'formaldups'
p10
c__builtin__
set
p11
((lp12
tp13
Rp14
sS'stringdups'
p15
g11
((lp16
tp17
Rp18
sS'fuzzydups'
p19
g11
((lp20
tp21
Rp22
sS'strings'
p23
(dp24
sS'functions'
p25
(dp26
I1074081284
(Vrtc_clk_8m_divider_set
p27
(lp28
(L4037466968L
L0L
(lp29
(lp30
tp31
a(L94425498L
L3785322319L
(lp32
(lp33
Vabort
p34
atp35
a(L459338589L
L0L
(lp36
(lp37
tp38
atp39
sI1074053120
(V_init
p40
(lp41
(L3493042598L
L0L
(lp42
(lp43
tp44
atp45
sI1074072576
(Vspi_to_esp_err
p46
(lp47
(L3428890598L
L0L
(lp48
(lp49
tp50
a(L2368591145L
L0L
(lp51
(lp52
tp53
a(L3952441574L
L0L
(lp54
(lp55
tp56
a(L3126521138L
L0L
(lp57
(lp58
tp59
atp60
sI1074080256
(Vrtc_clk_fast_src_set
p61
(lp62
(L1673089968L
L0L
(lp63
(lp64
tp65
a(L3020187L
L0L
(lp66
(lp67
tp68
a(L3827921190L
L3785322319L
(lp69
(lp70
Vabort
p71
atp72
a(L2661765896L
L0L
(lp73
(lp74
tp75
a(L612968270L
L0L
(lp76
(lp77
tp78
a(L300459962L
L0L
(lp79
(lp80
tp81
atp82
sI1074053123
(V_text_start
p83
(lp84
(L2911037513L
L0L
(lp85
(lp86
tp87
atp88
sI1074075916
(Vverify_load_addresses
p89
(lp90
(L2763563698L
L0L
(lp91
(lp92
tp93
a(L106L
L0L
(lp94
(lp95
tp96
a(L97642L
L0L
(lp97
(lp98
tp99
a(L2758762052L
L3785322319L
(lp100
(lp101
V__assert_func
p102
atp103
a(L2096098637L
L0L
(lp104
(lp105
tp106
a(L1755640250L
L0L
(lp107
(lp108
tp109
a(L106L
L0L
(lp110
(lp111
tp112
a(L1313465043L
L3785322319L
(lp113
(lp114
Vbootloader_util_regions_overlap
p115
atp116
a(L3997741526L
L3785322319L
(lp117
(lp118
Vbootloader_util_regions_overlap
p119
atp120
a(L2910371777L
L0L
(lp121
(lp122
tp123
a(L2907308273L
L3785322319L
(lp124
(lp125
Vbootloader_util_regions_overlap
p126
atp127
a(L1351513776L
L0L
(lp128
(lp129
tp130
a(L2990725092L
L0L
(lp131
(lp132
tp133
a(L1855994273L
L0L
(lp134
(lp135
tp136
a(L803571887L
L3785322319L
(lp137
(lp138
Vbootloader_util_regions_overlap
p139
atp140
a(L3028481L
L0L
(lp141
(lp142
tp143
a(L2108174806L
L3785322319L
(lp144
(lp145
Vbootloader_util_regions_overlap
p146
atp147
a(L1611368551L
L0L
(lp148
(lp149
tp150
a(L4152062167L
L3785322319L
(lp151
(lp152
Vverify_load_addresses
p153
atp154
a(L2792217009L
L0L
(lp155
(lp156
tp157
a(L3602967722L
L0L
(lp158
(lp159
tp160
a(L4190227191L
L0L
(lp161
(lp162
tp163
a(L269813293L
L0L
(lp164
(lp165
tp166
a(L697239146L
L0L
(lp167
(lp168
tp169
a(L106L
L0L
(lp170
(lp171
tp172
a(L4069239964L
L0L
(lp173
(lp174
tp175
a(L269813150L
L0L
(lp176
(lp177
tp178
a(L490080443L
L0L
(lp179
(lp180
tp181
a(L106L
L0L
(lp182
(lp183
tp184
a(L1781398511L
L3785322319L
(lp185
(lp186
Vesp_log_early_timestamp
p187
atp188
a(L4069239840L
L0L
(lp189
(lp190
tp191
a(L1303560427L
L0L
(lp192
(lp193
tp194
atp195
sI1074071560
(Vbootloader_read_flash_id
p196
(lp197
(L549578328L
L3785322319L
(lp198
(lp199
Vbootloader_execute_flash_command
p200
atp201
atp202
sI1074075144
(Vbootloader_sha256_data
p203
(lp204
(L1124031785L
L0L
(lp205
(lp206
tp207
a(L517118302L
L0L
(lp208
(lp209
tp210
a(L3578591745L
L3785322319L
(lp211
(lp212
V__assert_func
p213
atp214
a(L3301280463L
L0L
(lp215
(lp216
tp217
a(L1497207183L
L0L
(lp218
(lp219
tp220
a(L3768966327L
L0L
(lp221
(lp222
tp223
atp224
sI1074078472
(Vwdt_hal_config_stage
p225
(lp226
(L331558507L
L0L
(lp227
(lp228
tp229
a(L4279082939L
L0L
(lp230
(lp231
tp232
a(L93674324L
L0L
(lp233
(lp234
tp235
a(L2902417580L
L0L
(lp236
(lp237
tp238
a(L4014980692L
L0L
(lp239
(lp240
tp241
a(L3020187L
L0L
(lp242
(lp243
tp244
a(L94425498L
L3785322319L
(lp245
(lp246
Vabort
p247
atp248
a(L423058301L
L0L
(lp249
(lp250
tp251
a(L3496950L
L0L
(lp252
(lp253
tp254
a(L231353335L
L0L
(lp255
(lp256
tp257
a(L1005747740L
L0L
(lp258
(lp259
tp260
a(L4278159418L
L0L
(lp261
(lp262
tp263
a(L93674324L
L0L
(lp264
(lp265
tp266
a(L3020204L
L0L
(lp267
(lp268
tp269
a(L1167100867L
L0L
(lp270
(lp271
tp272
a(L3020187L
L0L
(lp273
(lp274
tp275
a(L106L
L0L
(lp276
(lp277
tp278
a(L2760628728L
L0L
(lp279
(lp280
tp281
a(L3779774882L
L0L
(lp282
(lp283
tp284
a(L1116133722L
L0L
(lp285
(lp286
tp287
atp288
sI1074075668
(Vprocess_image_header
p289
(lp290
(L3848749784L
L3785322319L
(lp291
(lp292
Vbootloader_flash_read
p293
atp294
a(L3020204L
L0L
(lp295
(lp296
tp297
a(L4130667142L
L0L
(lp298
(lp299
tp300
a(L3131381282L
L0L
(lp301
(lp302
tp303
a(L1161397362L
L3785322319L
(lp304
(lp305
Vbootloader_sha256_start
p306
atp307
a(L1948257695L
L3785322319L
(lp308
(lp309
Vbootloader_sha256_data
p310
atp311
a(L1095449651L
L0L
(lp312
(lp313
tp314
a(L3020204L
L0L
(lp315
(lp316
tp317
a(L664635244L
L0L
(lp318
(lp319
tp320
a(L3360570486L
L0L
(lp321
(lp322
tp323
a(L1833042934L
L3785322319L
(lp324
(lp325
Vesp_log_early_timestamp
p326
atp327
a(L3718883008L
L3785322319L
(lp328
(lp329
Vbootloader_common_check_chip_validity
p330
atp331
a(L3677035427L
L0L
(lp332
(lp333
tp334
a(L3028481L
L0L
(lp335
(lp336
tp337
a(L1519144444L
L3785322319L
(lp338
(lp339
Vesp_log_early_timestamp
p340
atp341
a(L2250109166L
L0L
(lp342
(lp343
tp344
a(L1235012870L
L0L
(lp345
(lp346
tp347
a(L3063569071L
L0L
(lp348
(lp349
tp350
atp351
sI1074079508
(Vefuse_hal_get_mac
p352
(lp353
(L3156687282L
L0L
(lp354
(lp355
tp356
atp357
sI1074070556
(Vesp_flash_encryption_enabled
p358
(lp359
(L3995948258L
L0L
(lp360
(lp361
tp362
a(L2910371777L
L0L
(lp363
(lp364
tp365
a(L3360570486L
L0L
(lp366
(lp367
tp368
a(L3016870L
L0L
(lp369
(lp370
tp371
a(L3745038218L
L0L
(lp372
(lp373
tp374
a(L957607403L
L0L
(lp375
(lp376
tp377
atp378
sI1074073624
(Vcache_ll_l1_get_bus
p379
(lp380
(L38157017L
L0L
(lp381
(lp382
tp383
a(L106L
L0L
(lp384
(lp385
tp386
a(L2685053141L
L0L
(lp387
(lp388
tp389
a(L2045239303L
L0L
(lp390
(lp391
tp392
a(L1182811810L
L0L
(lp393
(lp394
tp395
a(L3488241844L
L0L
(lp396
(lp397
tp398
a(L1100773692L
L0L
(lp399
(lp400
tp401
a(L3360570486L
L0L
(lp402
(lp403
tp404
a(L3001489720L
L0L
(lp405
(lp406
tp407
a(L3027019L
L0L
(lp408
(lp409
tp410
a(L2258867228L
L0L
(lp411
(lp412
tp413
a(L879331327L
L0L
(lp414
(lp415
tp416
a(L2258688482L
L0L
(lp417
(lp418
tp419
a(L3185186562L
L0L
(lp420
(lp421
tp422
a(L1830045725L
L0L
(lp423
(lp424
tp425
a(L3027019L
L0L
(lp426
(lp427
tp428
a(L1182990556L
L0L
(lp429
(lp430
tp431
a(L3121887467L
L0L
(lp432
(lp433
tp434
a(L2258688482L
L0L
(lp435
(lp436
tp437
a(L210099312L
L0L
(lp438
(lp439
tp440
a(L2258688482L
L0L
(lp441
(lp442
tp443
a(L4251494491L
L0L
(lp444
(lp445
tp446
a(L3008877888L
L0L
(lp447
(lp448
tp449
a(L3027019L
L0L
(lp450
(lp451
tp452
a(L2258867228L
L0L
(lp453
(lp454
tp455
a(L3615905830L
L0L
(lp456
(lp457
tp458
a(L2258867228L
L0L
(lp459
(lp460
tp461
a(L2289085423L
L0L
(lp462
(lp463
tp464
a(L2258718273L
L0L
(lp465
(lp466
tp467
a(L1827927790L
L0L
(lp468
(lp469
tp470
a(L2258867228L
L0L
(lp471
(lp472
tp473
a(L118522160L
L0L
(lp474
(lp475
tp476
a(L4059034771L
L0L
(lp477
(lp478
tp479
a(L766707517L
L0L
(lp480
(lp481
tp482
a(L3027019L
L0L
(lp483
(lp484
tp485
a(L2258867228L
L0L
(lp486
(lp487
tp488
a(L3105371653L
L0L
(lp489
(lp490
tp491
a(L2258867228L
L0L
(lp492
(lp493
tp494
a(L2289085423L
L0L
(lp495
(lp496
tp497
a(L2258718273L
L0L
(lp498
(lp499
tp500
a(L4080758378L
L0L
(lp501
(lp502
tp503
a(L2258867228L
L0L
(lp504
(lp505
tp506
a(L4275707207L
L0L
(lp507
(lp508
tp509
a(L2258867228L
L0L
(lp510
(lp511
tp512
a(L118522280L
L0L
(lp513
(lp514
tp515
a(L3827921190L
L3785322319L
(lp516
(lp517
Vabort
p518
atp519
a(L1299866374L
L0L
(lp520
(lp521
tp522
atp523
sI1074075416
(V__assert_func
p524
(lp525
(L1964292534L
L0L
(lp526
(lp527
tp528
a(L106L
L0L
(lp529
(lp530
tp531
atp532
sI1074080536
(Vrtc_clk_apb_freq_update
p533
(lp534
(L3456668081L
L0L
(lp535
(lp536
tp537
atp538
sI1074072100
(Vesp_log_early_timestamp
p539
(lp540
(L2288432772L
L0L
(lp541
(lp542
tp543
atp544
sI1074079012
(Vmmu_hal_init
p545
(lp546
(L1778984652L
L0L
(lp547
(lp548
tp549
a(L2796727275L
L0L
(lp550
(lp551
tp552
a(L3360570486L
L0L
(lp553
(lp554
tp555
atp556
sI1074072608
(Vbootloader_mmap
p557
(lp558
(L3239489837L
L0L
(lp559
(lp560
tp561
a(L2050934474L
L3785322319L
(lp562
(lp563
Vesp_log_early_timestamp
p564
atp565
a(L4258735684L
L0L
(lp566
(lp567
tp568
a(L1182811810L
L0L
(lp569
(lp570
tp571
a(L3496950L
L0L
(lp572
(lp573
tp574
a(L2420551887L
L0L
(lp575
(lp576
tp577
a(L2159588887L
L3785322319L
(lp578
(lp579
Vesp_log_early_timestamp
p580
atp581
a(L3829498095L
L0L
(lp582
(lp583
tp584
a(L1945397025L
L3785322319L
(lp585
(lp586
Vesp_log_early_timestamp
p587
atp588
a(L969118086L
L1832448559L
(lp589
(lp590
Vcache_hal_disable
p591
aVmmu_hal_map_region
p592
aVcache_hal_enable
p593
atp594
atp595
sI1074076448
(Vprocess_segments
p596
(lp597
(L933567253L
L0L
(lp598
(lp599
tp600
a(L3285816417L
L0L
(lp601
(lp602
tp603
a(L2393526353L
L0L
(lp604
(lp605
tp606
a(L106L
L0L
(lp607
(lp608
tp609
a(L1184913234L
L0L
(lp610
(lp611
tp612
a(L906736585L
L3785322319L
(lp613
(lp614
Vesp_log_early_timestamp
p615
atp616
a(L3491764960L
L3785322319L
(lp617
(lp618
Vbootloader_flash_read
p619
atp620
a(L494125747L
L3785322319L
(lp621
(lp622
Vesp_log_early_timestamp
p623
atp624
a(L3871473710L
L0L
(lp625
(lp626
tp627
a(L1300630146L
L0L
(lp628
(lp629
tp630
a(L738857969L
L3785322319L
(lp631
(lp632
Vbootloader_sha256_data
p633
atp634
a(L3124001501L
L0L
(lp635
(lp636
tp637
a(L2998439299L
L0L
(lp638
(lp639
tp640
a(L3287756636L
L0L
(lp641
(lp642
tp643
a(L3704197642L
L0L
(lp644
(lp645
tp646
a(L106L
L0L
(lp647
(lp648
tp649
a(L141486068L
L0L
(lp650
(lp651
tp652
a(L2587042390L
L0L
(lp653
(lp654
tp655
a(L1672479367L
L3785322319L
(lp656
(lp657
Vesp_log_early_timestamp
p658
atp659
a(L1114137787L
L0L
(lp660
(lp661
tp662
a(L3681988924L
L0L
(lp663
(lp664
tp665
a(L537883765L
L3785322319L
(lp666
(lp667
Vesp_log_early_timestamp
p668
atp669
a(L2347770645L
L3785322319L
(lp670
(lp671
Vverify_load_addresses
p672
atp673
a(L106L
L0L
(lp674
(lp675
tp676
a(L299546812L
L0L
(lp677
(lp678
tp679
a(L262831199L
L0L
(lp680
(lp681
tp682
a(L3735077394L
L3785322319L
(lp683
(lp684
Vbootloader_mmap
p685
atp686
a(L3791136851L
L3785322319L
(lp687
(lp688
Vesp_log_early_timestamp
p689
atp690
a(L727215778L
L0L
(lp691
(lp692
tp693
a(L1231372559L
L0L
(lp694
(lp695
tp696
a(L1652679798L
L3785322319L
(lp697
(lp698
Vbootloader_munmap
p699
atp700
a(L3425676091L
L0L
(lp701
(lp702
tp703
a(L1782223905L
L3785322319L
(lp704
(lp705
Vbootloader_fill_random
p706
atp707
a(L3570641403L
L0L
(lp708
(lp709
tp710
a(L3574335487L
L0L
(lp711
(lp712
tp713
a(L3450268858L
L0L
(lp714
(lp715
tp716
a(L3021749L
L0L
(lp717
(lp718
tp719
a(L4179164843L
L0L
(lp720
(lp721
tp722
a(L1084626871L
L0L
(lp723
(lp724
tp725
a(L2902417580L
L0L
(lp726
(lp727
tp728
a(L3870363213L
L0L
(lp729
(lp730
tp731
a(L1797921642L
L0L
(lp732
(lp733
tp734
a(L3437071223L
L0L
(lp735
(lp736
tp737
a(L3396129621L
L0L
(lp738
(lp739
tp740
a(L670934548L
L0L
(lp741
(lp742
tp743
a(L363643669L
L3785322319L
(lp744
(lp745
Vbootloader_sha256_data
p746
atp747
a(L90548756L
L0L
(lp748
(lp749
tp750
a(L4195963580L
L0L
(lp751
(lp752
tp753
a(L2394204398L
L0L
(lp754
(lp755
tp756
a(L512469530L
L0L
(lp757
(lp758
tp759
a(L308896050L
L3785322319L
(lp760
(lp761
Vshould_load
p762
atp763
a(L630320211L
L0L
(lp764
(lp765
tp766
a(L3028481L
L0L
(lp767
(lp768
tp769
a(L2176699418L
L3785322319L
(lp770
(lp771
Vbootloader_mmap_get_free_pages
p772
atp773
a(L847230985L
L0L
(lp774
(lp775
tp776
a(L3103552037L
L0L
(lp777
(lp778
tp779
atp780
sI1074055476
(Vbootloader_print_banner
p781
(lp782
(L2100504542L
L0L
(lp783
(lp784
tp785
atp786
sI1074071860
(Vbootloader_flash_set_dummy_out
p787
(lp788
(L4137913550L
L0L
(lp789
(lp790
tp791
atp792
sI1074080564
(Vrtc_clk_cpu_freq_to_xtal
p793
(lp794
(L2881516592L
L0L
(lp795
(lp796
tp797
a(L94425498L
L3785322319L
(lp798
(lp799
Vabort
p800
atp801
a(L4262214282L
L3785322319L
(lp802
(lp803
Vrtc_clk_apb_freq_update
p804
atp805
a(L2258867232L
L0L
(lp806
(lp807
tp808
a(L3455746600L
L0L
(lp809
(lp810
tp811
atp812
sI1074073904
(Vload_image
p813
(lp814
(L1160854804L
L1880226080L
(lp815
(lp816
Vbootloader_random_disable
p817
aVbootloader_ana_clock_glitch_reset_config
p818
atp819
a(L3893505478L
L0L
(lp820
(lp821
tp822
a(L106L
L0L
(lp823
(lp824
tp825
a(L1064066800L
L3758435744L
(lp826
(lp827
Vcache_hal_disable
p828
aVmmu_hal_init
p829
aVmmu_hal_map_region
p830
aVmmu_hal_map_region
p831
aVcache_ll_l1_get_bus
p832
aVcache_ll_l1_enable_bus
p833
aVcache_ll_l1_get_bus
p834
aVcache_ll_l1_enable_bus
p835
aVcache_hal_enable
p836
aVbootloader_console_deinit
p837
atp838
a(L3173783437L
L0L
(lp839
(lp840
tp841
a(L2902417580L
L0L
(lp842
(lp843
tp844
a(L479452245L
L3785322319L
(lp845
(lp846
Vesp_log_early_timestamp
p847
atp848
a(L3972638412L
L0L
(lp849
(lp850
tp851
a(L3965205798L
L0L
(lp852
(lp853
tp854
a(L3020204L
L0L
(lp855
(lp856
tp857
a(L2129589044L
L3785322319L
(lp858
(lp859
Vesp_log_early_timestamp
p860
atp861
a(L3982722640L
L0L
(lp862
(lp863
tp864
a(L2198938573L
L0L
(lp865
(lp866
tp867
atp868
sI1074075440
(Vabort
p869
(lp870
(L4183650812L
L0L
(lp871
(lp872
tp873
a(L409471316L
L0L
(lp874
(lp875
tp876
a(L106L
L0L
(lp877
(lp878
tp879
atp880
sI1074079536
(Vclk_ll_rtc_slow_get_src
p881
(lp882
(L3035903354L
L0L
(lp883
(lp884
tp885
a(L3020187L
L0L
(lp886
(lp887
tp888
a(L2902417580L
L0L
(lp889
(lp890
tp891
a(L2258688485L
L0L
(lp892
(lp893
tp894
a(L3360570486L
L0L
(lp895
(lp896
tp897
atp898
sI1074055484
(Vmpu_hal_set_region_access
p899
(lp900
(L3538356822L
L0L
(lp901
(lp902
tp903
a(L93674324L
L0L
(lp904
(lp905
tp906
a(L2910371777L
L0L
(lp907
(lp908
tp909
a(L3472092938L
L0L
(lp910
(lp911
tp912
a(L3020187L
L0L
(lp913
(lp914
tp915
a(L3360570486L
L0L
(lp916
(lp917
tp918
a(L2258718273L
L0L
(lp919
(lp920
tp921
a(L3446648619L
L0L
(lp922
(lp923
tp924
a(L3739532189L
L0L
(lp925
(lp926
tp927
a(L1300789895L
L0L
(lp928
(lp929
tp930
atp931
sI1074079036
(Vmmu_hal_map_region
p932
(lp933
(L2574493891L
L0L
(lp934
(lp935
tp936
a(L3827921190L
L3785322319L
(lp937
(lp938
Vabort
p939
atp940
a(L534729560L
L0L
(lp941
(lp942
tp943
a(L126725018L
L0L
(lp944
(lp945
tp946
a(L1941850866L
L0L
(lp947
(lp948
tp949
a(L3927575793L
L0L
(lp950
(lp951
tp952
a(L1182811810L
L0L
(lp953
(lp954
tp955
a(L976058283L
L0L
(lp956
(lp957
tp958
a(L1183020347L
L0L
(lp959
(lp960
tp961
a(L683702479L
L0L
(lp962
(lp963
tp964
a(L3755182012L
L0L
(lp965
(lp966
tp967
a(L1243412221L
L0L
(lp968
(lp969
tp970
a(L3934020622L
L0L
(lp971
(lp972
tp973
a(L1182811810L
L0L
(lp974
(lp975
tp976
a(L912970526L
L0L
(lp977
(lp978
tp979
a(L3921852064L
L0L
(lp980
(lp981
tp982
a(L97689L
L0L
(lp983
(lp984
tp985
a(L3360570486L
L0L
(lp986
(lp987
tp988
a(L4131373031L
L0L
(lp989
(lp990
tp991
a(L3481895623L
L0L
(lp992
(lp993
tp994
a(L4161876286L
L0L
(lp995
(lp996
tp997
a(L1683357957L
L0L
(lp998
(lp999
tp1000
a(L3119346700L
L0L
(lp1001
(lp1002
tp1003
a(L1845922268L
L0L
(lp1004
(lp1005
tp1006
a(L106L
L0L
(lp1007
(lp1008
tp1009
a(L3802071167L
L0L
(lp1010
(lp1011
tp1012
a(L1210444193L
L0L
(lp1013
(lp1014
tp1015
a(L3068186800L
L0L
(lp1016
(lp1017
tp1018
a(L3068186707L
L0L
(lp1019
(lp1020
tp1021
a(L3068186831L
L0L
(lp1022
(lp1023
tp1024
a(L1900089167L
L0L
(lp1025
(lp1026
tp1027
a(L1900089198L
L0L
(lp1028
(lp1029
tp1030
atp1031
sI1074075196
(Vbootloader_sha256_finish
p1032
(lp1033
(L2551432008L
L0L
(lp1034
(lp1035
tp1036
a(L1870210417L
L3785322319L
(lp1037
(lp1038
V__assert_func
p1039
atp1040
a(L2547485271L
L0L
(lp1041
(lp1042
tp1043
a(L4223027136L
L0L
(lp1044
(lp1045
tp1046
a(L3360570486L
L0L
(lp1047
(lp1048
tp1049
a(L4113021295L
L0L
(lp1050
(lp1051
tp1052
atp1053
sI1074071608
(Vbootloader_flash_xmc_startup
p1054
(lp1055
(L3020516798L
L3785322319L
(lp1056
(lp1057
Vis_xmc_chip_strict
p1058
atp1059
a(L2258688482L
L0L
(lp1060
(lp1061
tp1062
a(L3360570486L
L0L
(lp1063
(lp1064
tp1065
a(L251913992L
L3785322319L
(lp1066
(lp1067
Vbootloader_flash_read_sfdp
p1068
atp1069
a(L1761628868L
L267944800L
(lp1070
(lp1071
Vbootloader_execute_flash_command
p1072
aVbootloader_execute_flash_command
p1073
aVbootloader_execute_flash_command
p1074
aVbootloader_execute_flash_command
p1075
aVbootloader_read_flash_id
p1076
aVis_xmc_chip_strict
p1077
atp1078
a(L2677831625L
L3785322319L
(lp1079
(lp1080
Vesp_log_early_timestamp
p1081
atp1082
atp1083
sI1074072132
(Vbootloader_common_ota_select_crc
p1084
(lp1085
(L30038772L
L0L
(lp1086
(lp1087
tp1088
atp1089
sI1074070596
(Vbootloader_configure_spi_pins
p1090
(lp1091
(L273958702L
L0L
(lp1092
(lp1093
tp1094
a(L1203010559L
L0L
(lp1095
(lp1096
tp1097
a(L1327995678L
L0L
(lp1098
(lp1099
tp1100
a(L1746710265L
L0L
(lp1101
(lp1102
tp1103
a(L3027019L
L0L
(lp1104
(lp1105
tp1106
a(L470869690L
L0L
(lp1107
(lp1108
tp1109
a(L3360570486L
L0L
(lp1110
(lp1111
tp1112
a(L2175499521L
L0L
(lp1113
(lp1114
tp1115
atp1116
sI1074081604
(Vesp_rom_regi2c_read_mask
p1117
(lp1118
(L3674307446L
L0L
(lp1119
(lp1120
tp1121
a(L2276105082L
L3785322319L
(lp1122
(lp1123
V__assert_func
p1124
atp1125
a(L1203954113L
L3785322319L
(lp1126
(lp1127
Vi2c_rtc_enable_block
p1128
atp1129
a(L1073742234L
L0L
(lp1130
(lp1131
tp1132
a(L389021895L
L0L
(lp1133
(lp1134
tp1135
atp1136
sI1074080320
(Vrtc_clk_fast_src_get
p1137
(lp1138
(L987509813L
L0L
(lp1139
(lp1140
tp1141
atp1142
sI1074079564
(Vrtc_clk_cpu_freq_to_pll_mhz
p1143
(lp1144
(L3557054749L
L0L
(lp1145
(lp1146
tp1147
a(L3289424986L
L0L
(lp1148
(lp1149
tp1150
a(L106L
L0L
(lp1151
(lp1152
tp1153
a(L209917662L
L0L
(lp1154
(lp1155
tp1156
a(L106L
L0L
(lp1157
(lp1158
tp1159
a(L2102439282L
L0L
(lp1160
(lp1161
tp1162
a(L3320113876L
L0L
(lp1163
(lp1164
tp1165
a(L343526479L
L0L
(lp1166
(lp1167
tp1168
a(L3200045852L
L0L
(lp1169
(lp1170
tp1171
a(L2059386394L
L0L
(lp1172
(lp1173
tp1174
a(L94425498L
L3785322319L
(lp1175
(lp1176
Vabort
p1177
atp1178
atp1179
sI1074074184
(Vset_actual_ota_seq
p1180
(lp1181
(L4094723830L
L0L
(lp1182
(lp1183
tp1184
a(L451398408L
L0L
(lp1185
(lp1186
tp1187
a(L456228349L
L1832448559L
(lp1188
(lp1189
Vbootloader_common_ota_select_crc
p1190
aVesp_flash_encryption_enabled
p1191
aVbootloader_flash_erase_sector
p1192
atp1193
a(L3383023989L
L3785322319L
(lp1194
(lp1195
Vbootloader_flash_write
p1196
atp1197
a(L2494215071L
L3785322319L
(lp1198
(lp1199
Vesp_log_early_timestamp
p1200
atp1201
a(L3496950L
L0L
(lp1202
(lp1203
tp1204
atp1205
sI1074076232
(Vprocess_appended_hash_and_sig
p1206
(lp1207
(L1668084157L
L0L
(lp1208
(lp1209
tp1210
a(L2910371777L
L0L
(lp1211
(lp1212
tp1213
a(L1591589631L
L0L
(lp1214
(lp1215
tp1216
a(L2551256078L
L0L
(lp1217
(lp1218
tp1219
a(L1191821871L
L0L
(lp1220
(lp1221
tp1222
a(L10935902L
L3785322319L
(lp1223
(lp1224
Vesp_log_early_timestamp
p1225
atp1226
a(L2268304300L
L3785322319L
(lp1227
(lp1228
Vbootloader_flash_read
p1229
atp1230
a(L3871473710L
L0L
(lp1231
(lp1232
tp1233
atp1234
sI1074080336
(Vrtc_clk_cpu_freq_get_config
p1235
(lp1236
(L3255146706L
L0L
(lp1237
(lp1238
tp1239
a(L106L
L0L
(lp1240
(lp1241
tp1242
a(L3020187L
L0L
(lp1243
(lp1244
tp1245
a(L3020187L
L0L
(lp1246
(lp1247
tp1248
a(L1507007032L
L0L
(lp1249
(lp1250
tp1251
a(L4256376001L
L0L
(lp1252
(lp1253
tp1254
a(L2765873084L
L0L
(lp1255
(lp1256
tp1257
a(L700405753L
L0L
(lp1258
(lp1259
tp1260
a(L2351784277L
L0L
(lp1261
(lp1262
tp1263
a(L3830441154L
L0L
(lp1264
(lp1265
tp1266
a(L97689L
L0L
(lp1267
(lp1268
tp1269
a(L395895036L
L0L
(lp1270
(lp1271
tp1272
a(L187199457L
L0L
(lp1273
(lp1274
tp1275
a(L3203868300L
L0L
(lp1276
(lp1277
tp1278
a(L97422L
L0L
(lp1279
(lp1280
tp1281
a(L3892844563L
L1880226080L
(lp1282
(lp1283
Vesp_log_early_timestamp
p1284
aVabort
p1285
atp1286
a(L4009312783L
L0L
(lp1287
(lp1288
tp1289
a(L1784133073L
L0L
(lp1290
(lp1291
tp1292
a(L97422L
L0L
(lp1293
(lp1294
tp1295
a(L1868182167L
L0L
(lp1296
(lp1297
tp1298
a(L1551014231L
L0L
(lp1299
(lp1300
tp1301
a(L3682811537L
L0L
(lp1302
(lp1303
tp1304
atp1305
sI1074081360
(Vrtc_clk_cpu_freq_mhz_to_config
p1306
(lp1307
(L3854884831L
L0L
(lp1308
(lp1309
tp1310
a(L4277528218L
L0L
(lp1311
(lp1312
tp1313
a(L1367519831L
L0L
(lp1314
(lp1315
tp1316
a(L3788230391L
L0L
(lp1317
(lp1318
tp1319
a(L895147205L
L0L
(lp1320
(lp1321
tp1322
a(L3970036657L
L0L
(lp1323
(lp1324
tp1325
a(L4143315884L
L0L
(lp1326
(lp1327
tp1328
a(L3360570486L
L0L
(lp1329
(lp1330
tp1331
a(L1298905570L
L0L
(lp1332
(lp1333
tp1334
a(L3092964473L
L0L
(lp1335
(lp1336
tp1337
a(L1611367019L
L0L
(lp1338
(lp1339
tp1340
atp1341
sI1074055004
(Vbootloader_enable_random
p1342
(lp1343
(L1287383080L
L3785322319L
(lp1344
(lp1345
Vbootloader_random_enable
p1346
atp1347
atp1348
sI1074078812
(Vwdt_hal_write_protect_disable
p1349
(lp1350
(L2832862235L
L0L
(lp1351
(lp1352
tp1353
a(L4195472050L
L0L
(lp1354
(lp1355
tp1356
a(L3360570486L
L0L
(lp1357
(lp1358
tp1359
a(L1210571996L
L0L
(lp1360
(lp1361
tp1362
atp1363
sI1074071900
(Vbootloader_flash_dummy_config
p1364
(lp1365
(L799241116L
L1880226080L
(lp1366
(lp1367
Vbootloader_configure_spi_pins
p1368
aVbootloader_flash_set_dummy_out
p1369
atp1370
atp1371
sI1074072152
(Vbootloader_common_ota_select_valid
p1372
(lp1373
(L1563399710L
L3785322319L
(lp1374
(lp1375
Vbootloader_common_ota_select_invalid
p1376
atp1377
a(L3814720849L
L3785322319L
(lp1378
(lp1379
Vbootloader_common_ota_select_crc
p1380
atp1381
a(L3360570486L
L0L
(lp1382
(lp1383
tp1384
atp1385
sI1074055012
(Vbootloader_console_init
p1386
(lp1387
(L4138765370L
L1880226080L
(lp1388
(lp1389
Vrom_usb_cdc_set_descriptor_patch
p1390
aVesp_rom_install_channel_putc
p1391
atp1392
atp1393
sI1074073184
(Vbootloader_enable_wp
p1394
(lp1395
(L1117825804L
L3785322319L
(lp1396
(lp1397
Vbootloader_execute_flash_command
p1398
atp1399
atp1400
sI1074075488
(Vbootloader_ana_clock_glitch_reset_config
p1401
(lp1402
(L2100504542L
L0L
(lp1403
(lp1404
tp1405
atp1406
sI1074079328
(Vcache_hal_init
p1407
(lp1408
(L3208923422L
L0L
(lp1409
(lp1410
tp1411
atp1412
sI1074080096
(Vrtc_clk_slow_src_set
p1413
(lp1414
(L1480266289L
L0L
(lp1415
(lp1416
tp1417
a(L3020187L
L0L
(lp1418
(lp1419
tp1420
a(L3028481L
L0L
(lp1421
(lp1422
tp1423
a(L487821223L
L0L
(lp1424
(lp1425
tp1426
a(L791789484L
L0L
(lp1427
(lp1428
tp1429
a(L1851908495L
L0L
(lp1430
(lp1431
tp1432
a(L788926852L
L0L
(lp1433
(lp1434
tp1435
a(L3138544334L
L0L
(lp1436
(lp1437
tp1438
a(L94425498L
L3785322319L
(lp1439
(lp1440
Vabort
p1441
atp1442
atp1443
sI1074054764
(Vbootloader_flash_update_id
p1444
(lp1445
(L3918952310L
L3785322319L
(lp1446
(lp1447
Vbootloader_read_flash_id
p1448
atp1449
atp1450
sI1074053484
(Vcall_start_cpu0
p1451
(lp1452
(L982949849L
L0L
(lp1453
(lp1454
tp1455
a(L2011552890L
L0L
(lp1456
(lp1457
tp1458
a(L3212347974L
L3785322319L
(lp1459
(lp1460
Vbootloader_init
p1461
atp1462
a(L94425498L
L3785322319L
(lp1463
(lp1464
Vbootloader_reset
p1465
atp1466
a(L967143430L
L0L
(lp1467
(lp1468
tp1469
a(L1266600318L
L0L
(lp1470
(lp1471
tp1472
a(L240880266L
L3785322319L
(lp1473
(lp1474
Vbootloader_utility_load_partition_table
p1475
atp1476
a(L1776118154L
L3785322319L
(lp1477
(lp1478
Vesp_log_early_timestamp
p1479
atp1480
a(L405422123L
L3785322319L
(lp1481
(lp1482
Vbootloader_utility_get_selected_boot_partition
p1483
atp1484
a(L2090032635L
L3785322319L
(lp1485
(lp1486
Vbootloader_utility_load_boot_image
p1487
atp1488
atp1489
sI1074071916
(Vesp_rom_install_channel_putc
p1490
(lp1491
(L487865505L
L0L
(lp1492
(lp1493
tp1494
a(L3020187L
L0L
(lp1495
(lp1496
tp1497
a(L3360570486L
L0L
(lp1498
(lp1499
tp1500
a(L2233152548L
L0L
(lp1501
(lp1502
tp1503
a(L614459296L
L0L
(lp1504
(lp1505
tp1506
atp1507
sI1074075496
(Vprocess_checksum
p1508
(lp1509
(L1283966570L
L0L
(lp1510
(lp1511
tp1512
a(L2910371777L
L0L
(lp1513
(lp1514
tp1515
a(L186886970L
L0L
(lp1516
(lp1517
tp1518
a(L2910371777L
L0L
(lp1519
(lp1520
tp1521
a(L3020204L
L0L
(lp1522
(lp1523
tp1524
a(L2480703612L
L3785322319L
(lp1525
(lp1526
Vbootloader_sha256_data
p1527
atp1528
a(L4179073442L
L0L
(lp1529
(lp1530
tp1531
a(L1811888222L
L3785322319L
(lp1532
(lp1533
Vbootloader_flash_read
p1534
atp1535
a(L3126521138L
L0L
(lp1536
(lp1537
tp1538
a(L2697372915L
L0L
(lp1539
(lp1540
tp1541
a(L1691821859L
L3785322319L
(lp1542
(lp1543
Vesp_log_early_timestamp
p1544
atp1545
atp1546
sI1074073204
(Vbootloader_mmap_get_free_pages
p1547
(lp1548
(L1639067984L
L0L
(lp1549
(lp1550
tp1551
atp1552
sI1074073456
(Vlog_invalid_app_partition
p1553
(lp1554
(L1980766772L
L0L
(lp1555
(lp1556
tp1557
a(L3028464L
L0L
(lp1558
(lp1559
tp1560
a(L3463196146L
L3785322319L
(lp1561
(lp1562
Vesp_log_early_timestamp
p1563
atp1564
a(L4258735684L
L0L
(lp1565
(lp1566
tp1567
a(L3360570486L
L0L
(lp1568
(lp1569
tp1570
a(L2927556792L
L3785322319L
(lp1571
(lp1572
Vesp_log_early_timestamp
p1573
atp1574
a(L550656868L
L3785322319L
(lp1575
(lp1576
Vesp_log_early_timestamp
p1577
atp1578
atp1579
sI1074072432
(Vbootloader_common_get_active_otadata
p1580
(lp1581
(L3317503532L
L0L
(lp1582
(lp1583
tp1584
a(L2503049265L
L1832448559L
(lp1585
(lp1586
Vbootloader_common_ota_select_valid
p1587
aVbootloader_common_ota_select_valid
p1588
aVbootloader_common_select_otadata
p1589
atp1590
a(L735741265L
L0L
(lp1591
(lp1592
tp1593
atp1594
sI1074075248
(Vbootloader_console_flush_usb
p1595
(lp1596
(L2606598760L
L0L
(lp1597
(lp1598
tp1599
atp1600
sI1074079856
(Vrtc_clk_32k_enable
p1601
(lp1602
(L946127919L
L3785322319L
(lp1603
(lp1604
Vclk_ll_xtal32k_enable
p1605
atp1606
atp1607
sI1074054780
(Vbootloader_clear_bss_section
p1608
(lp1609
(L2614342329L
L0L
(lp1610
(lp1611
tp1612
atp1613
sI1074072188
(Vbootloader_common_check_chip_validity
p1614
(lp1615
(L2622756999L
L0L
(lp1616
(lp1617
tp1618
a(L4198319319L
L3785322319L
(lp1619
(lp1620
Vesp_log_early_timestamp
p1621
atp1622
a(L30338547L
L3785322319L
(lp1623
(lp1624
Vefuse_hal_chip_revision
p1625
atp1626
a(L106L
L0L
(lp1627
(lp1628
tp1629
a(L190069835L
L0L
(lp1630
(lp1631
tp1632
a(L1245739332L
L3785322319L
(lp1633
(lp1634
Vesp_log_early_timestamp
p1635
atp1636
a(L3028464L
L0L
(lp1637
(lp1638
tp1639
a(L216442299L
L0L
(lp1640
(lp1641
tp1642
a(L3021749L
L0L
(lp1643
(lp1644
tp1645
a(L2260104226L
L0L
(lp1646
(lp1647
tp1648
a(L2477610827L
L3785322319L
(lp1649
(lp1650
Vesp_log_early_timestamp
p1651
atp1652
a(L1306332629L
L0L
(lp1653
(lp1654
tp1655
a(L4014024819L
L0L
(lp1656
(lp1657
tp1658
atp1659
sI1074073212
(Vbootloader_fill_random
p1660
(lp1661
(L3643878329L
L0L
(lp1662
(lp1663
tp1664
a(L2243328911L
L3785322319L
(lp1665
(lp1666
V__assert_func
p1667
atp1668
a(L1882547218L
L0L
(lp1669
(lp1670
tp1671
a(L2910371777L
L0L
(lp1672
(lp1673
tp1674
a(L95634693L
L0L
(lp1675
(lp1676
tp1677
a(L3630908706L
L0L
(lp1678
(lp1679
tp1680
a(L160162640L
L0L
(lp1681
(lp1682
tp1683
a(L97689L
L0L
(lp1684
(lp1685
tp1686
a(L3360570486L
L0L
(lp1687
(lp1688
tp1689
atp1690
sI1074078844
(Vwdt_hal_set_flashboot_en
p1691
(lp1692
(L2375320464L
L0L
(lp1693
(lp1694
tp1695
a(L756681444L
L0L
(lp1696
(lp1697
tp1698
a(L3360570486L
L0L
(lp1699
(lp1700
tp1701
a(L4195988011L
L0L
(lp1702
(lp1703
tp1704
atp1705
sI1074071172
(Vbootloader_execute_flash_command
p1706
(lp1707
(L2481595632L
L3785322319L
(lp1708
(lp1709
Vbootloader_flash_execute_command_common
p1710
atp1711
atp1712
sI1074077572
(Vbootloader_load_image
p1713
(lp1714
(L1155870502L
L3785322319L
(lp1715
(lp1716
Vimage_load
p1717
atp1718
atp1719
sI1074074496
(Vbootloader_utility_get_selected_boot_partition
p1720
(lp1721
(L2803238495L
L0L
(lp1722
(lp1723
tp1724
a(L1299867982L
L0L
(lp1725
(lp1726
tp1727
a(L3360570486L
L0L
(lp1728
(lp1729
tp1730
a(L2026778922L
L0L
(lp1731
(lp1732
tp1733
a(L3099811430L
L3785322319L
(lp1734
(lp1735
Vesp_log_early_timestamp
p1736
atp1737
a(L29615170L
L0L
(lp1738
(lp1739
tp1740
a(L1375577398L
L3785322319L
(lp1741
(lp1742
Vbootloader_mmap
p1743
atp1744
a(L673742707L
L3785322319L
(lp1745
(lp1746
Vesp_log_early_timestamp
p1747
atp1748
a(L2701074868L
L1880226080L
(lp1749
(lp1750
Vbootloader_munmap
p1751
aVbootloader_common_ota_select_invalid
p1752
atp1753
a(L1103573946L
L0L
(lp1754
(lp1755
tp1756
a(L1876827316L
L3785322319L
(lp1757
(lp1758
Vbootloader_common_get_active_otadata
p1759
atp1760
a(L569346373L
L0L
(lp1761
(lp1762
tp1763
a(L3111084448L
L3785322319L
(lp1764
(lp1765
Vbootloader_common_ota_select_invalid
p1766
atp1767
a(L45272527L
L0L
(lp1768
(lp1769
tp1770
a(L847230968L
L0L
(lp1771
(lp1772
tp1773
a(L505081345L
L0L
(lp1774
(lp1775
tp1776
a(L919052234L
L3785322319L
(lp1777
(lp1778
Vbootloader_common_ota_select_crc
p1779
atp1780
a(L2287680455L
L0L
(lp1781
(lp1782
tp1783
a(L3542558037L
L3785322319L
(lp1784
(lp1785
Vbootloader_common_ota_select_crc
p1786
atp1787
a(L1299866312L
L0L
(lp1788
(lp1789
tp1790
a(L1644778714L
L0L
(lp1791
(lp1792
tp1793
a(L517953734L
L3785322319L
(lp1794
(lp1795
Vesp_log_early_timestamp
p1796
atp1797
a(L3171787430L
L0L
(lp1798
(lp1799
tp1800
a(L2961406176L
L3785322319L
(lp1801
(lp1802
Vesp_log_early_timestamp
p1803
atp1804
atp1805
sI1074055052
(Vesp_cpu_configure_region_protection
p1806
(lp1807
(L140317852L
L0L
(lp1808
(lp1809
tp1810
a(L180431425L
L3785322319L
(lp1811
(lp1812
Vmpu_hal_set_region_access
p1813
atp1814
a(L2537388152L
L3785322319L
(lp1815
(lp1816
Vmpu_hal_set_region_access
p1817
atp1818
atp1819
sI1074075276
(Vbootloader_console_write_one_char_usb
p1820
(lp1821
(L265481729L
L0L
(lp1822
(lp1823
tp1824
a(L1908255537L
L0L
(lp1825
(lp1826
tp1827
a(L3827921190L
L3785322319L
(lp1828
(lp1829
Vbootloader_console_flush_usb
p1830
atp1831
a(L3360570486L
L0L
(lp1832
(lp1833
tp1834
atp1835
sI1074081160
(Vrtc_clk_apb_freq_get
p1836
(lp1837
(L3393376248L
L0L
(lp1838
(lp1839
tp1840
atp1841
sI1074054804
(Vbootloader_read_bootloader_header
p1842
(lp1843
(L1637665460L
L3785322319L
(lp1844
(lp1845
Vbootloader_flash_read
p1846
atp1847
a(L3346276219L
L3785322319L
(lp1848
(lp1849
Vesp_log_early_timestamp
p1850
atp1851
a(L735741265L
L0L
(lp1852
(lp1853
tp1854
atp1855
sI1074077588
(Vesp_partition_table_verify
p1856
(lp1857
(L4081125108L
L0L
(lp1858
(lp1859
tp1860
a(L2289022158L
L0L
(lp1861
(lp1862
tp1863
a(L4090921686L
L0L
(lp1864
(lp1865
tp1866
a(L2910371777L
L0L
(lp1867
(lp1868
tp1869
a(L2810785767L
L0L
(lp1870
(lp1871
tp1872
a(L3360570486L
L0L
(lp1873
(lp1874
tp1875
a(L3190337587L
L0L
(lp1876
(lp1877
tp1878
a(L2069928857L
L0L
(lp1879
(lp1880
tp1881
a(L3020204L
L0L
(lp1882
(lp1883
tp1884
a(L4001610212L
L3785322319L
(lp1885
(lp1886
Vesp_log_early_timestamp
p1887
atp1888
a(L3216046226L
L3785322319L
(lp1889
(lp1890
Vesp_log_early_timestamp
p1891
atp1892
a(L2715396144L
L0L
(lp1893
(lp1894
tp1895
a(L2902417580L
L0L
(lp1896
(lp1897
tp1898
a(L3020204L
L0L
(lp1899
(lp1900
tp1901
a(L1237462827L
L3785322319L
(lp1902
(lp1903
Vesp_log_early_timestamp
p1904
atp1905
a(L3171787430L
L0L
(lp1906
(lp1907
tp1908
a(L1261099534L
L0L
(lp1909
(lp1910
tp1911
a(L2902417580L
L0L
(lp1912
(lp1913
tp1914
a(L4001610708L
L3785322319L
(lp1915
(lp1916
Vesp_log_early_timestamp
p1917
atp1918
a(L1305407469L
L0L
(lp1919
(lp1920
tp1921
a(L1167861556L
L0L
(lp1922
(lp1923
tp1924
a(L3914073261L
L0L
(lp1925
(lp1926
tp1927
a(L2910371777L
L0L
(lp1928
(lp1929
tp1930
a(L1235012932L
L0L
(lp1931
(lp1932
tp1933
a(L536960447L
L3785322319L
(lp1934
(lp1935
Vesp_log_early_timestamp
p1936
atp1937
atp1938
sI1074074772
(Vbootloader_reset
p1939
(lp1940
(L1036443311L
L3785322319L
(lp1941
(lp1942
Vbootloader_console_deinit
p1943
atp1944
a(L106L
L0L
(lp1945
(lp1946
tp1947
atp1948
sI1074071952
(Vefuse_hal_chip_revision
p1949
(lp1950
(L2719302832L
L1880226080L
(lp1951
(lp1952
Vefuse_hal_get_major_chip_version
p1953
aVefuse_hal_get_minor_chip_version
p1954
atp1955
atp1956
sI1074077072
(Vimage_load
p1957
(lp1958
(L3559420668L
L0L
(lp1959
(lp1960
tp1961
a(L1899869541L
L0L
(lp1962
(lp1963
tp1964
a(L979631281L
L0L
(lp1965
(lp1966
tp1967
a(L1525480527L
L0L
(lp1968
(lp1969
tp1970
a(L1043148059L
L0L
(lp1971
(lp1972
tp1973
a(L2796536461L
L0L
(lp1974
(lp1975
tp1976
a(L2237046490L
L3785322319L
(lp1977
(lp1978
Vesp_log_early_timestamp
p1979
atp1980
a(L2068384292L
L0L
(lp1981
(lp1982
tp1983
a(L1968553470L
L3785322319L
(lp1984
(lp1985
Vbootloader_sha256_finish
p1986
atp1987
a(L1945888860L
L0L
(lp1988
(lp1989
tp1990
a(L3225218531L
L0L
(lp1991
(lp1992
tp1993
a(L3802071166L
L0L
(lp1994
(lp1995
tp1996
a(L1301867039L
L3785322319L
(lp1997
(lp1998
Vprocess_image_header
p1999
atp2000
a(L560228796L
L0L
(lp2001
(lp2002
tp2003
a(L4185758499L
L0L
(lp2004
(lp2005
tp2006
a(L1530940255L
L3785322319L
(lp2007
(lp2008
Vprocess_segments
p2009
atp2010
a(L1233227930L
L0L
(lp2011
(lp2012
tp2013
a(L3299950084L
L0L
(lp2014
(lp2015
tp2016
a(L2570888687L
L3785322319L
(lp2017
(lp2018
Vprocess_checksum
p2019
atp2020
a(L425503098L
L3785322319L
(lp2021
(lp2022
Vprocess_appended_hash_and_sig
p2023
atp2024
a(L780930979L
L0L
(lp2025
(lp2026
tp2027
a(L2334355956L
L0L
(lp2028
(lp2029
tp2030
a(L3249289839L
L0L
(lp2031
(lp2032
tp2033
a(L1025739430L
L1880226080L
(lp2034
(lp2035
Vbootloader_sha256_finish
p2036
aVbootloader_debug_buffer
p2037
atp2038
a(L3524564351L
L1880226080L
(lp2039
(lp2040
Vesp_log_early_timestamp
p2041
aVbootloader_debug_buffer
p2042
atp2043
a(L1087646176L
L0L
(lp2044
(lp2045
tp2046
a(L2068384292L
L0L
(lp2047
(lp2048
tp2049
a(L3021148818L
L3785322319L
(lp2050
(lp2051
Vbootloader_sha256_finish
p2052
atp2053
a(L3028481L
L0L
(lp2054
(lp2055
tp2056
a(L139701033L
L0L
(lp2057
(lp2058
tp2059
a(L1308984548L
L0L
(lp2060
(lp2061
tp2062
a(L772115669L
L0L
(lp2063
(lp2064
tp2065
a(L2787789065L
L0L
(lp2066
(lp2067
tp2068
a(L85798113L
L0L
(lp2069
(lp2070
tp2071
a(L1351513776L
L0L
(lp2072
(lp2073
tp2074
a(L159346313L
L3785322319L
(lp2075
(lp2076
Vshould_load
p2077
atp2078
a(L4218574503L
L0L
(lp2079
(lp2080
tp2081
a(L3338774213L
L0L
(lp2082
(lp2083
tp2084
a(L3464541874L
L0L
(lp2085
(lp2086
tp2087
a(L3349572949L
L0L
(lp2088
(lp2089
tp2090
a(L2192292519L
L0L
(lp2091
(lp2092
tp2093
a(L106L
L0L
(lp2094
(lp2095
tp2096
a(L26615924L
L0L
(lp2097
(lp2098
tp2099
a(L1299866312L
L0L
(lp2100
(lp2101
tp2102
a(L490060329L
L0L
(lp2103
(lp2104
tp2105
atp2106
sI1074081936
(V_fini
p2107
(lp2108
(L3493042598L
L0L
(lp2109
(lp2110
tp2111
atp2112
sI1074054300
(Vbootloader_init_mem
p2113
(lp2114
(L1287383080L
L3785322319L
(lp2115
(lp2116
Vesp_cpu_configure_region_protection
p2117
atp2118
atp2119
sI1074072472
(Vbootloader_common_ota_select_invalid
p2120
(lp2121
(L4027567199L
L0L
(lp2122
(lp2123
tp2124
a(L3397985842L
L0L
(lp2125
(lp2126
tp2127
a(L2258867228L
L0L
(lp2128
(lp2129
tp2130
a(L3785235668L
L0L
(lp2131
(lp2132
tp2133
atp2134
sI1074054308
(Vbootloader_random_enable
p2135
(lp2136
(L1916561158L
L1157885199L
(lp2137
(lp2138
Vesp_rom_regi2c_write_mask
p2139
aVesp_rom_regi2c_write_mask
p2140
aVesp_rom_regi2c_write_mask
p2141
aVesp_rom_regi2c_write_mask
p2142
aVesp_rom_regi2c_write_mask
p2143
atp2144
atp2145
sI1074076324
(Vshould_load
p2146
(lp2147
(L50493514L
L0L
(lp2148
(lp2149
tp2150
a(L1182990556L
L0L
(lp2151
(lp2152
tp2153
a(L1326119820L
L0L
(lp2154
(lp2155
tp2156
a(L2306467100L
L0L
(lp2157
(lp2158
tp2159
a(L103712307L
L0L
(lp2160
(lp2161
tp2162
a(L2258897019L
L0L
(lp2163
(lp2164
tp2165
a(L3781799363L
L0L
(lp2166
(lp2167
tp2168
a(L3028464L
L0L
(lp2169
(lp2170
tp2171
a(L103007469L
L0L
(lp2172
(lp2173
tp2174
a(L1372082148L
L0L
(lp2175
(lp2176
tp2177
a(L1289456037L
L0L
(lp2178
(lp2179
tp2180
a(L1899864739L
L0L
(lp2181
(lp2182
tp2183
a(L3458855836L
L0L
(lp2184
(lp2185
tp2186
a(L3126521138L
L0L
(lp2187
(lp2188
tp2189
a(L1305407438L
L0L
(lp2190
(lp2191
tp2192
a(L1305407469L
L0L
(lp2193
(lp2194
tp2195
atp2196
sI1074075044
(Vindex_to_partition
p2197
(lp2198
(L4066096119L
L0L
(lp2199
(lp2200
tp2201
a(L1739185955L
L0L
(lp2202
(lp2203
tp2204
a(L2171552758L
L0L
(lp2205
(lp2206
tp2207
a(L2808906342L
L0L
(lp2208
(lp2209
tp2210
a(L2101481936L
L0L
(lp2211
(lp2212
tp2213
a(L3698927993L
L0L
(lp2214
(lp2215
tp2216
a(L2808826781L
L0L
(lp2217
(lp2218
tp2219
a(L3003398163L
L0L
(lp2220
(lp2221
tp2222
a(L2880709161L
L0L
(lp2223
(lp2224
tp2225
a(L1087646172L
L0L
(lp2226
(lp2227
tp2228
atp2229
sI1074071204
(Vbootloader_flash_unlock
p2230
(lp2231
(L1120579452L
L0L
(lp2232
(lp2233
tp2234
a(L4212373562L
L0L
(lp2235
(lp2236
tp2237
a(L4292483033L
L3785322319L
(lp2238
(lp2239
Vbootloader_execute_flash_command
p2240
atp2241
a(L106L
L0L
(lp2242
(lp2243
tp2244
a(L1303560644L
L0L
(lp2245
(lp2246
tp2247
a(L610618440L
L0L
(lp2248
(lp2249
tp2250
a(L106L
L0L
(lp2251
(lp2252
tp2253
a(L345249462L
L0L
(lp2254
(lp2255
tp2256
a(L106L
L0L
(lp2257
(lp2258
tp2259
a(L1024465569L
L0L
(lp2260
(lp2261
tp2262
a(L106L
L0L
(lp2263
(lp2264
tp2265
a(L1481761147L
L1880226080L
(lp2266
(lp2267
Vbootloader_execute_flash_command
p2268
aVbootloader_execute_flash_command
p2269
atp2270
a(L2258807654L
L0L
(lp2271
(lp2272
tp2273
a(L68784636L
L1880226080L
(lp2274
(lp2275
Vbootloader_execute_flash_command
p2276
aVbootloader_execute_flash_command
p2277
atp2278
a(L2184131636L
L1880226080L
(lp2279
(lp2280
Vbootloader_execute_flash_command
p2281
aVbootloader_execute_flash_command
p2282
atp2283
a(L654169905L
L3785322319L
(lp2284
(lp2285
Vbootloader_execute_flash_command
p2286
atp2287
a(L2993202392L
L0L
(lp2288
(lp2289
tp2290
a(L508800419L
L1880226080L
(lp2291
(lp2292
Vbootloader_execute_flash_command
p2293
aVbootloader_execute_flash_command
p2294
atp2295
a(L1303560369L
L0L
(lp2296
(lp2297
tp2298
a(L1596544945L
L0L
(lp2299
(lp2300
tp2301
a(L97689L
L0L
(lp2302
(lp2303
tp2304
a(L106L
L0L
(lp2305
(lp2306
tp2307
atp2308
sI1074079904
(Vrtc_clk_32k_enable
p2309
(lp2310
(L2450690147L
L0L
(lp2311
(lp2312
tp2313
a(L94425498L
L3785322319L
(lp2314
(lp2315
Vrtc_clk_32k_enable
p2316
atp2317
a(L3360570486L
L0L
(lp2318
(lp2319
tp2320
a(L1615826130L
L0L
(lp2321
(lp2322
tp2323
atp2324
sI1074074284
(Vbootloader_utility_load_partition_table
p2325
(lp2326
(L3128219304L
L3785322319L
(lp2327
(lp2328
Vbootloader_mmap
p2329
atp2330
a(L3059034396L
L3785322319L
(lp2331
(lp2332
Vesp_log_early_timestamp
p2333
atp2334
a(L2258688482L
L0L
(lp2335
(lp2336
tp2337
a(L3360570486L
L0L
(lp2338
(lp2339
tp2340
a(L255479872L
L3785322319L
(lp2341
(lp2342
Vesp_partition_table_verify
p2343
atp2344
a(L1224062835L
L0L
(lp2345
(lp2346
tp2347
a(L3761768803L
L0L
(lp2348
(lp2349
tp2350
a(L2311047843L
L3785322319L
(lp2351
(lp2352
Vbootloader_munmap
p2353
atp2354
a(L1077465744L
L3785322319L
(lp2355
(lp2356
Vesp_log_early_timestamp
p2357
atp2358
a(L3927622121L
L0L
(lp2359
(lp2360
tp2361
a(L3020187L
L0L
(lp2362
(lp2363
tp2364
a(L1532853611L
L0L
(lp2365
(lp2366
tp2367
a(L1036489382L
L0L
(lp2368
(lp2369
tp2370
a(L3020187L
L0L
(lp2371
(lp2372
tp2373
a(L475586725L
L0L
(lp2374
(lp2375
tp2376
a(L529263765L
L0L
(lp2377
(lp2378
tp2379
a(L775434204L
L0L
(lp2380
(lp2381
tp2382
a(L3579705151L
L0L
(lp2383
(lp2384
tp2385
a(L2387139071L
L0L
(lp2386
(lp2387
tp2388
a(L1599920163L
L0L
(lp2389
(lp2390
tp2391
atp2392
sI1074080684
(Vrtc_clk_cpu_freq_set_config
p2393
(lp2394
(L2558883280L
L0L
(lp2395
(lp2396
tp2397
a(L3020187L
L0L
(lp2398
(lp2399
tp2400
a(L3028464L
L0L
(lp2401
(lp2402
tp2403
a(L3992543406L
L3785322319L
(lp2404
(lp2405
Vrtc_clk_cpu_freq_to_xtal
p2406
atp2407
a(L2492250642L
L0L
(lp2408
(lp2409
tp2410
a(L3125828029L
L0L
(lp2411
(lp2412
tp2413
a(L1023638261L
L0L
(lp2414
(lp2415
tp2416
a(L4002786498L
L0L
(lp2417
(lp2418
tp2419
a(L2736411858L
L3785322319L
(lp2420
(lp2421
Vrtc_clk_cpu_freq_to_xtal
p2422
atp2423
a(L3360570486L
L0L
(lp2424
(lp2425
tp2426
a(L3020187L
L0L
(lp2427
(lp2428
tp2429
a(L106L
L0L
(lp2430
(lp2431
tp2432
a(L405604397L
L0L
(lp2433
(lp2434
tp2435
a(L3972819852L
L0L
(lp2436
(lp2437
tp2438
a(L106L
L0L
(lp2439
(lp2440
tp2441
a(L94425498L
L3785322319L
(lp2442
(lp2443
Vabort
p2444
atp2445
a(L4161029465L
L3785322319L
(lp2446
(lp2447
Vesp_rom_regi2c_write
p2448
atp2449
a(L2555545826L
L267944800L
(lp2450
(lp2451
Vesp_rom_regi2c_write
p2452
aVesp_rom_regi2c_write
p2453
aVesp_rom_regi2c_write_mask
p2454
aVesp_rom_regi2c_write_mask
p2455
aVesp_rom_regi2c_write
p2456
aVesp_rom_regi2c_write_mask
p2457
atp2458
a(L795507295L
L1880226080L
(lp2459
(lp2460
Vesp_rom_regi2c_write_mask
p2461
aVesp_rom_regi2c_read_mask
p2462
atp2463
a(L1512452853L
L3785322319L
(lp2464
(lp2465
Vrtc_clk_cpu_freq_to_pll_mhz
p2466
atp2467
a(L1212305965L
L3785322319L
(lp2468
(lp2469
Vesp_rom_regi2c_write
p2470
atp2471
a(L367702023L
L0L
(lp2472
(lp2473
tp2474
a(L3864121936L
L3785322319L
(lp2475
(lp2476
Vesp_log_early_timestamp
p2477
atp2478
a(L4238347245L
L0L
(lp2479
(lp2480
tp2481
a(L3020187L
L0L
(lp2482
(lp2483
tp2484
a(L106L
L0L
(lp2485
(lp2486
tp2487
a(L655015591L
L0L
(lp2488
(lp2489
tp2490
atp2491
sI1074071976
(Vefuse_hal_get_major_chip_version
p2492
(lp2493
(L3311646771L
L0L
(lp2494
(lp2495
tp2496
atp2497
sI1074081448
(Vi2c_rtc_enable_block
p2498
(lp2499
(L709244433L
L0L
(lp2500
(lp2501
tp2502
a(L3027019L
L0L
(lp2503
(lp2504
tp2505
a(L3245125502L
L0L
(lp2506
(lp2507
tp2508
a(L3245274457L
L0L
(lp2509
(lp2510
tp2511
a(L3360570486L
L0L
(lp2512
(lp2513
tp2514
a(L3246645110L
L0L
(lp2515
(lp2516
tp2517
a(L3460403425L
L0L
(lp2518
(lp2519
tp2520
a(L4112088884L
L0L
(lp2521
(lp2522
tp2523
a(L4193317465L
L0L
(lp2524
(lp2525
tp2526
a(L4193317589L
L0L
(lp2527
(lp2528
tp2529
a(L4193289596L
L0L
(lp2530
(lp2531
tp2532
atp2533
sI1074081704
(Vesp_rom_regi2c_write
p2534
(lp2535
(L3703009610L
L3785322319L
(lp2536
(lp2537
Vi2c_rtc_enable_block
p2538
atp2539
a(L2400232953L
L0L
(lp2540
(lp2541
tp2542
a(L3360570486L
L0L
(lp2543
(lp2544
tp2545
atp2546
sI1074072500
(Vbootloader_common_select_otadata
p2547
(lp2548
(L4071767857L
L0L
(lp2549
(lp2550
tp2551
a(L1999329187L
L0L
(lp2552
(lp2553
tp2554
a(L3846398843L
L0L
(lp2555
(lp2556
tp2557
a(L2501968171L
L0L
(lp2558
(lp2559
tp2560
a(L3360570486L
L0L
(lp2561
(lp2562
tp2563
a(L2045232488L
L0L
(lp2564
(lp2565
tp2566
a(L1243525916L
L0L
(lp2567
(lp2568
tp2569
a(L3094144427L
L0L
(lp2570
(lp2571
tp2572
a(L2399509845L
L0L
(lp2573
(lp2574
tp2575
a(L1641201884L
L0L
(lp2576
(lp2577
tp2578
atp2579
sI1074074804
(Vbootloader_utility_load_boot_image
p2580
(lp2581
(L2006516802L
L0L
(lp2582
(lp2583
tp2584
a(L2177418995L
L3785322319L
(lp2585
(lp2586
Vtry_load_partition
p2587
atp2588
a(L1305243774L
L3785322319L
(lp2589
(lp2590
Vload_image
p2591
atp2592
a(L713963461L
L3785322319L
(lp2593
(lp2594
Vesp_log_early_timestamp
p2595
atp2596
a(L3827921190L
L3785322319L
(lp2597
(lp2598
Vbootloader_reset
p2599
atp2600
a(L1953693036L
L3785322319L
(lp2601
(lp2602
Vindex_to_partition
p2603
atp2604
a(L1204373741L
L3785322319L
(lp2605
(lp2606
Vtry_load_partition
p2607
atp2608
a(L1899865696L
L0L
(lp2609
(lp2610
tp2611
a(L2695355117L
L3785322319L
(lp2612
(lp2613
Vset_actual_ota_seq
p2614
atp2615
a(L1868897605L
L3785322319L
(lp2616
(lp2617
Vlog_invalid_app_partition
p2618
atp2619
a(L831650730L
L0L
(lp2620
(lp2621
tp2622
a(L3021737L
L0L
(lp2623
(lp2624
tp2625
a(L695456438L
L0L
(lp2626
(lp2627
tp2628
a(L991365369L
L3785322319L
(lp2629
(lp2630
Vtry_load_partition
p2631
atp2632
a(L2966891072L
L3785322319L
(lp2633
(lp2634
Vesp_log_early_timestamp
p2635
atp2636
a(L2347390157L
L3785322319L
(lp2637
(lp2638
Vindex_to_partition
p2639
atp2640
a(L1204373741L
L3785322319L
(lp2641
(lp2642
Vtry_load_partition
p2643
atp2644
a(L3061261803L
L0L
(lp2645
(lp2646
tp2647
a(L3582858798L
L3785322319L
(lp2648
(lp2649
Vlog_invalid_app_partition
p2650
atp2651
a(L1857865672L
L3785322319L
(lp2652
(lp2653
Vesp_log_early_timestamp
p2654
atp2655
atp2656
sI1074077876
(Vwdt_hal_init
p2657
(lp2658
(L3873133098L
L0L
(lp2659
(lp2660
tp2661
a(L4247032859L
L0L
(lp2662
(lp2663
tp2664
a(L2767830699L
L0L
(lp2665
(lp2666
tp2667
a(L738051316L
L0L
(lp2668
(lp2669
tp2670
a(L216282295L
L0L
(lp2671
(lp2672
tp2673
a(L3360570486L
L0L
(lp2674
(lp2675
tp2676
a(L3455129057L
L0L
(lp2677
(lp2678
tp2679
atp2680
sI1074081204
(Vrtc_clk_divider_set
p2681
(lp2682
(L4037466968L
L0L
(lp2683
(lp2684
tp2685
a(L94425498L
L3785322319L
(lp2686
(lp2687
Vabort
p2688
atp2689
a(L415048212L
L0L
(lp2690
(lp2691
tp2692
atp2693
sI1074055100
(Vrtc_clk_init
p2694
(lp2695
(L3640908943L
L1157885199L
(lp2696
(lp2697
Vrtc_clk_divider_set
p2698
aVrtc_clk_8m_divider_set
p2699
aVrtc_clk_apb_freq_update
p2700
aVrtc_clk_cpu_freq_get_config
p2701
aVrtc_clk_cpu_freq_mhz_to_config
p2702
atp2703
a(L3760543746L
L1880226080L
(lp2704
(lp2705
Vesp_log_early_timestamp
p2706
aVabort
p2707
atp2708
a(L3445108346L
L3785322319L
(lp2709
(lp2710
Vrtc_clk_cpu_freq_set_config
p2711
atp2712
a(L912310137L
L3785322319L
(lp2713
(lp2714
Vrtc_clk_32k_enable
p2715
atp2716
a(L638483776L
L1832448559L
(lp2717
(lp2718
Vrtc_clk_8m_enable
p2719
aVrtc_clk_fast_src_set
p2720
aVrtc_clk_slow_src_set
p2721
atp2722
a(L3088275258L
L0L
(lp2723
(lp2724
tp2725
atp2726
sI1074071996
(Vefuse_hal_get_minor_chip_version
p2727
(lp2728
(L17102953L
L0L
(lp2729
(lp2730
tp2731
atp2732
sI1074079420
(Vcache_hal_disable
p2733
(lp2734
(L4037466985L
L0L
(lp2735
(lp2736
tp2737
a(L3078715247L
L0L
(lp2738
(lp2739
tp2740
a(L3028464L
L0L
(lp2741
(lp2742
tp2743
a(L2386387019L
L0L
(lp2744
(lp2745
tp2746
a(L3360570486L
L0L
(lp2747
(lp2748
tp2749
a(L963553663L
L0L
(lp2750
(lp2751
tp2752
atp2753
sI1074073016
(Vbootloader_flash_erase_sector
p2754
(lp2755
(L2523747629L
L3785322319L
(lp2756
(lp2757
Vspi_to_esp_err
p2758
atp2759
atp2760
sI1074070724
(Vbootloader_flash_execute_command_common
p2761
(lp2762
(L4095493370L
L0L
(lp2763
(lp2764
tp2765
a(L1298028158L
L0L
(lp2766
(lp2767
tp2768
a(L524786924L
L3785322319L
(lp2769
(lp2770
V__assert_func
p2771
atp2772
a(L3021749L
L0L
(lp2773
(lp2774
tp2775
a(L2295094974L
L0L
(lp2776
(lp2777
tp2778
a(L2083733883L
L0L
(lp2779
(lp2780
tp2781
a(L2946664954L
L0L
(lp2782
(lp2783
tp2784
a(L4121734194L
L0L
(lp2785
(lp2786
tp2787
a(L2187111236L
L0L
(lp2788
(lp2789
tp2790
a(L3342293388L
L0L
(lp2791
(lp2792
tp2793
a(L2783488991L
L0L
(lp2794
(lp2795
tp2796
a(L1568710516L
L0L
(lp2797
(lp2798
tp2799
a(L3333696662L
L0L
(lp2800
(lp2801
tp2802
a(L2393546375L
L0L
(lp2803
(lp2804
tp2805
a(L1895563696L
L0L
(lp2806
(lp2807
tp2808
a(L3360570486L
L0L
(lp2809
(lp2810
tp2811
atp2812
sI1074073540
(Vtry_load_partition
p2813
(lp2814
(L1898493800L
L0L
(lp2815
(lp2816
tp2817
a(L2454209732L
L3785322319L
(lp2818
(lp2819
Vbootloader_load_image
p2820
atp2821
a(L3360570486L
L0L
(lp2822
(lp2823
tp2824
atp2825
sI1074054848
(Vbootloader_check_bootloader_validity
p2826
(lp2827
(L2974709683L
L1880226080L
(lp2828
(lp2829
Vefuse_hal_chip_revision
p2830
aVbootloader_common_check_chip_validity
p2831
atp2832
atp2833
sI1074071744
(Vbootloader_flash_cs_timing_config
p2834
(lp2835
(L1198772310L
L0L
(lp2836
(lp2837
tp2838
atp2839
sI1074072768
(Vbootloader_munmap
p2840
(lp2841
(L1836759472L
L0L
(lp2842
(lp2843
tp2844
a(L4269233665L
L1880226080L
(lp2845
(lp2846
Vcache_hal_disable
p2847
aVmmu_hal_init
p2848
atp2849
a(L3360570486L
L0L
(lp2850
(lp2851
tp2852
atp2853
sI1074075328
(Vbootloader_console_write_char_usb
p2854
(lp2855
(L753395559L
L0L
(lp2856
(lp2857
tp2858
a(L1333949065L
L3785322319L
(lp2859
(lp2860
Vbootloader_console_write_one_char_usb
p2861
atp2862
a(L2695355117L
L3785322319L
(lp2863
(lp2864
Vbootloader_console_write_one_char_usb
p2865
atp2866
a(L367642441L
L0L
(lp2867
(lp2868
tp2869
a(L3360570486L
L0L
(lp2870
(lp2871
tp2872
atp2873
sI1074078912
(Vwdt_hal_write_protect_enable
p2874
(lp2875
(L387778158L
L0L
(lp2876
(lp2877
tp2878
a(L4195472050L
L0L
(lp2879
(lp2880
tp2881
a(L3360570486L
L0L
(lp2882
(lp2883
tp2884
a(L802523425L
L0L
(lp2885
(lp2886
tp2887
atp2888
sI1074073036
(Vbootloader_flash_write
p2889
(lp2890
(L3770380603L
L0L
(lp2891
(lp2892
tp2893
a(L2689513584L
L3785322319L
(lp2894
(lp2895
Vesp_log_early_timestamp
p2896
atp2897
a(L4258735684L
L0L
(lp2898
(lp2899
tp2900
a(L1610445075L
L0L
(lp2901
(lp2902
tp2903
a(L735741265L
L0L
(lp2904
(lp2905
tp2906
a(L3291333414L
L0L
(lp2907
(lp2908
tp2909
a(L201629677L
L3785322319L
(lp2910
(lp2911
Vesp_log_early_timestamp
p2912
atp2913
a(L3283691850L
L0L
(lp2914
(lp2915
tp2916
a(L915777315L
L3785322319L
(lp2917
(lp2918
Vesp_log_early_timestamp
p2919
atp2920
a(L3212356251L
L3785322319L
(lp2921
(lp2922
Vbootloader_flash_unlock
p2923
atp2924
a(L4210907913L
L0L
(lp2925
(lp2926
tp2927
a(L1269333272L
L0L
(lp2928
(lp2929
tp2930
a(L2927190544L
L3785322319L
(lp2931
(lp2932
Vspi_to_esp_err
p2933
atp2934
a(L3370899918L
L0L
(lp2935
(lp2936
tp2937
atp2938
sI1074073292
(Vbootloader_random_disable
p2939
(lp2940
(L3172850036L
L1157885199L
(lp2941
(lp2942
Vesp_rom_regi2c_write_mask
p2943
aVesp_rom_regi2c_write_mask
p2944
aVesp_rom_regi2c_write_mask
p2945
aVesp_rom_regi2c_write_mask
p2946
aVesp_rom_regi2c_write_mask
p2947
atp2948
atp2949
sI1074071508
(Vbootloader_flash_read_sfdp
p2950
(lp2951
(L711701400L
L0L
(lp2952
(lp2953
tp2954
a(L3802152279L
L3785322319L
(lp2955
(lp2956
V__assert_func
p2957
atp2958
a(L3704332455L
L3785322319L
(lp2959
(lp2960
Vbootloader_flash_execute_command_common
p2961
atp2962
atp2963
sI1074075860
(Vbootloader_util_regions_overlap
p2964
(lp2965
(L2762640130L
L0L
(lp2966
(lp2967
tp2968
a(L1547354270L
L0L
(lp2969
(lp2970
tp2971
a(L373910771L
L3785322319L
(lp2972
(lp2973
V__assert_func
p2974
atp2975
a(L97642L
L0L
(lp2976
(lp2977
tp2978
a(L2285113392L
L0L
(lp2979
(lp2980
tp2981
a(L366123053L
L0L
(lp2982
(lp2983
tp2984
a(L2258867228L
L0L
(lp2985
(lp2986
tp2987
a(L1253626734L
L0L
(lp2988
(lp2989
tp2990
a(L2258897019L
L0L
(lp2991
(lp2992
tp2993
a(L3109269495L
L0L
(lp2994
(lp2995
tp2996
atp2997
sI1074054876
(Vbootloader_config_wdt
p2998
(lp2999
(L2295781099L
L505859776L
(lp3000
(lp3001
Vwdt_hal_write_protect_disable
p3002
aVwdt_hal_set_flashboot_en
p3003
aVwdt_hal_write_protect_enable
p3004
aVwdt_hal_init
p3005
aVrtc_clk_slow_freq_get_hz
p3006
aVwdt_hal_write_protect_disable
p3007
aVwdt_hal_config_stage
p3008
aVwdt_hal_enable
p3009
aVwdt_hal_write_protect_enable
p3010
aVwdt_hal_write_protect_disable
p3011
aVwdt_hal_set_flashboot_en
p3012
aVwdt_hal_write_protect_enable
p3013
atp3014
atp3015
sI1074054108
(Vbootloader_clock_configure
p3016
(lp3017
(L2383056304L
L0L
(lp3018
(lp3019
tp3020
a(L106L
L0L
(lp3021
(lp3022
tp3023
a(L3053553473L
L1832448559L
(lp3024
(lp3025
Vrtc_clk_slow_src_get
p3026
aVrtc_clk_fast_src_get
p3027
aVrtc_clk_init
p3028
atp3029
a(L632080316L
L0L
(lp3030
(lp3031
tp3032
a(L4149543342L
L3785322319L
(lp3033
(lp3034
Vrtc_clk_apb_freq_get
p3035
atp3036
a(L106L
L0L
(lp3037
(lp3038
tp3039
a(L106L
L0L
(lp3040
(lp3041
tp3042
atp3043
sI1074072028
(Vis_xmc_chip_strict
p3044
(lp3045
(L1286841609L
L0L
(lp3046
(lp3047
tp3048
a(L2234016759L
L0L
(lp3049
(lp3050
tp3051
a(L1069027148L
L0L
(lp3052
(lp3053
tp3054
a(L3021749L
L0L
(lp3055
(lp3056
tp3057
a(L1900148749L
L0L
(lp3058
(lp3059
tp3060
a(L1936875721L
L0L
(lp3061
(lp3062
tp3063
a(L3356166509L
L0L
(lp3064
(lp3065
tp3066
a(L1937769451L
L0L
(lp3067
(lp3068
tp3069
a(L2137658907L
L0L
(lp3070
(lp3071
tp3072
a(L4265949734L
L0L
(lp3073
(lp3074
tp3075
a(L3360570486L
L0L
(lp3076
(lp3077
tp3078
atp3079
sI1074078940
(Vwdt_hal_enable
p3080
(lp3081
(L2299130915L
L0L
(lp3082
(lp3083
tp3084
a(L3713735258L
L0L
(lp3085
(lp3086
tp3087
a(L3360570486L
L0L
(lp3088
(lp3089
tp3090
a(L2847657174L
L0L
(lp3091
(lp3092
tp3093
atp3094
sI1074053592
(Vbootloader_init
p3095
(lp3096
(L1377998458L
L3785322319L
(lp3097
(lp3098
Vbootloader_init_mem
p3099
atp3100
a(L43829165L
L0L
(lp3101
(lp3102
tp3103
a(L395926790L
L3785322319L
(lp3104
(lp3105
V__assert_func
p3106
atp3107
a(L2915693327L
L0L
(lp3108
(lp3109
tp3110
a(L922536263L
L0L
(lp3111
(lp3112
tp3113
a(L545923861L
L665916544L
(lp3114
(lp3115
Vbootloader_clear_bss_section
p3116
aVcache_hal_init
p3117
aVmmu_hal_init
p3118
aVbootloader_clock_configure
p3119
aVbootloader_console_init
p3120
aVbootloader_print_banner
p3121
aVbootloader_flash_update_id
p3122
aVbootloader_flash_xmc_startup
p3123
atp3124
a(L2862636543L
L3785322319L
(lp3125
(lp3126
Vesp_log_early_timestamp
p3127
atp3128
a(L3360570486L
L0L
(lp3129
(lp3130
tp3131
a(L2444883382L
L3785322319L
(lp3132
(lp3133
Vbootloader_read_bootloader_header
p3134
atp3135
a(L2444883382L
L3785322319L
(lp3136
(lp3137
Vbootloader_check_bootloader_validity
p3138
atp3139
a(L493173359L
L1832448559L
(lp3140
(lp3141
Vbootloader_flash_dummy_config
p3142
aVbootloader_flash_cs_timing_config
p3143
aVbootloader_flash_unlock
p3144
atp3145
a(L93837694L
L0L
(lp3146
(lp3147
tp3148
a(L106L
L0L
(lp3149
(lp3150
tp3151
a(L2638526816L
L0L
(lp3152
(lp3153
tp3154
a(L2642220900L
L0L
(lp3155
(lp3156
tp3157
a(L1698823294L
L0L
(lp3158
(lp3159
tp3160
a(L2806354006L
L0L
(lp3161
(lp3162
tp3163
a(L829305146L
L1832448559L
(lp3164
(lp3165
Vcache_hal_disable
p3166
aVcache_hal_enable
p3167
aVbootloader_enable_wp
p3168
atp3169
a(L58713700L
L0L
(lp3170
(lp3171
tp3172
a(L106L
L0L
(lp3173
(lp3174
tp3175
a(L485233847L
L0L
(lp3176
(lp3177
tp3178
a(L153740758L
L3785322319L
(lp3179
(lp3180
Vesp_log_early_timestamp
p3181
atp3182
a(L493972181L
L0L
(lp3183
(lp3184
tp3185
a(L44163548L
L3785322319L
(lp3186
(lp3187
Vesp_log_early_timestamp
p3188
atp3189
a(L3009410653L
L0L
(lp3190
(lp3191
tp3192
a(L2329948708L
L1880226080L
(lp3193
(lp3194
Vbootloader_config_wdt
p3195
aVbootloader_enable_random
p3196
atp3197
a(L143684347L
L0L
(lp3198
(lp3199
tp3200
a(L106L
L0L
(lp3201
(lp3202
tp3203
a(L4125778103L
L0L
(lp3204
(lp3205
tp3206
a(L106L
L0L
(lp3207
(lp3208
tp3209
a(L2602842031L
L0L
(lp3210
(lp3211
tp3212
a(L350112978L
L3785322319L
(lp3213
(lp3214
Vesp_log_early_timestamp
p3215
atp3216
atp3217
sI1074079960
(Vrtc_clk_8m_enable
p3218
(lp3219
(L766638031L
L0L
(lp3220
(lp3221
tp3222
a(L251359019L
L0L
(lp3223
(lp3224
tp3225
a(L2837863465L
L0L
(lp3226
(lp3227
tp3228
a(L1544283026L
L0L
(lp3229
(lp3230
tp3231
a(L3679981654L
L0L
(lp3232
(lp3233
tp3234
a(L219577861L
L0L
(lp3235
(lp3236
tp3237
a(L1019709726L
L0L
(lp3238
(lp3239
tp3240
atp3241
sI1074080216
(Vrtc_clk_slow_src_get
p3242
(lp3243
(L376617603L
L3785322319L
(lp3244
(lp3245
Vclk_ll_rtc_slow_get_src
p3246
atp3247
atp3248
sI1074072804
(Vbootloader_flash_read
p3249
(lp3250
(L308813434L
L0L
(lp3251
(lp3252
tp3253
a(L1767421560L
L3785322319L
(lp3254
(lp3255
Vesp_log_early_timestamp
p3256
atp3257
a(L248424342L
L0L
(lp3258
(lp3259
tp3260
a(L1351513776L
L0L
(lp3261
(lp3262
tp3263
a(L1486740491L
L0L
(lp3264
(lp3265
tp3266
a(L668806596L
L3785322319L
(lp3267
(lp3268
Vesp_log_early_timestamp
p3269
atp3270
a(L3283691850L
L0L
(lp3271
(lp3272
tp3273
a(L452124577L
L3785322319L
(lp3274
(lp3275
Vesp_log_early_timestamp
p3276
atp3277
a(L3020204L
L0L
(lp3278
(lp3279
tp3280
a(L249313808L
L0L
(lp3281
(lp3282
tp3283
a(L97422L
L0L
(lp3284
(lp3285
tp3286
a(L1468429214L
L0L
(lp3287
(lp3288
tp3289
a(L2603769742L
L1832448559L
(lp3290
(lp3291
Vcache_hal_disable
p3292
aVmmu_hal_map_region
p3293
aVcache_hal_enable
p3294
atp3295
a(L2325454240L
L0L
(lp3296
(lp3297
tp3298
a(L3327694665L
L1832448559L
(lp3299
(lp3300
Vcache_hal_disable
p3301
aVcache_hal_enable
p3302
aVspi_to_esp_err
p3303
atp3304
atp3305
sI1074073572
(Vcache_ll_l1_enable_bus
p3306
(lp3307
(L2573914621L
L0L
(lp3308
(lp3309
tp3310
atp3311
sI1074079460
(Vcache_hal_enable
p3312
(lp3313
(L2253667318L
L0L
(lp3314
(lp3315
tp3316
a(L1567602063L
L0L
(lp3317
(lp3318
tp3319
a(L3450226664L
L0L
(lp3320
(lp3321
tp3322
a(L1641434447L
L0L
(lp3323
(lp3324
tp3325
a(L3360570486L
L0L
(lp3326
(lp3327
tp3328
a(L3639827707L
L0L
(lp3329
(lp3330
tp3331
atp3332
sI1074080228
(Vrtc_clk_slow_freq_get_hz
p3333
(lp3334
(L1826267122L
L3785322319L
(lp3335
(lp3336
Vclk_ll_rtc_slow_get_src
p3337
atp3338
a(L269676378L
L0L
(lp3339
(lp3340
tp3341
a(L3631005815L
L0L
(lp3342
(lp3343
tp3344
a(L664637755L
L0L
(lp3345
(lp3346
tp3347
a(L3360570486L
L0L
(lp3348
(lp3349
tp3350
atp3351
sI1074081764
(Vesp_rom_regi2c_write_mask
p3352
(lp3353
(L3373311251L
L0L
(lp3354
(lp3355
tp3356
a(L3086036810L
L3785322319L
(lp3357
(lp3358
V__assert_func
p3359
atp3360
a(L687825167L
L3785322319L
(lp3361
(lp3362
Vi2c_rtc_enable_block
p3363
atp3364
a(L19855118L
L0L
(lp3365
(lp3366
tp3367
a(L1297673067L
L0L
(lp3368
(lp3369
tp3370
a(L3209579579L
L0L
(lp3371
(lp3372
tp3373
a(L3360570486L
L0L
(lp3374
(lp3375
tp3376
atp3377
sI1074075360
(Vbootloader_console_deinit
p3378
(lp3379
(L1865575881L
L3785322319L
(lp3380
(lp3381
Vbootloader_console_flush_usb
p3382
atp3383
a(L2309289276L
L0L
(lp3384
(lp3385
tp3386
a(L1522044532L
L3785322319L
(lp3387
(lp3388
Vesp_rom_install_channel_putc
p3389
atp3390
atp3391
sI1074075112
(Vbootloader_debug_buffer
p3392
(lp3393
(L2100504542L
L0L
(lp3394
(lp3395
tp3396
atp3397
sI1074055408
(Vrom_usb_cdc_set_descriptor_patch
p3398
(lp3399
(L1560630381L
L3785322319L
(lp3400
(lp3401
Vefuse_hal_get_mac
p3402
atp3403
a(L1517225701L
L0L
(lp3404
(lp3405
tp3406
a(L3621186219L
L0L
(lp3407
(lp3408
tp3409
a(L2817538290L
L0L
(lp3410
(lp3411
tp3412
a(L2504726965L
L0L
(lp3413
(lp3414
tp3415
a(L3358507144L
L0L
(lp3416
(lp3417
tp3418
a(L3959910533L
L0L
(lp3419
(lp3420
tp3421
atp3422
sI1074075120
(Vbootloader_sha256_start
p3423
(lp3424
(L2865831692L
L0L
(lp3425
(lp3426
tp3427
atp3428
sI1074079740
(Vclk_ll_xtal32k_enable
p3429
(lp3430
(L2761186960L
L0L
(lp3431
(lp3432
tp3433
atp3434
ssS'functionsdups'
p3435
g11
((lp3436
tp3437
Rp3438
sS'immediatedups'
p3439
g11
((lp3440
tp3441
Rp3442
sS'functiondups'
p3443
g11
((lp3444
tp3445
Rp3446
sS'fuzzy'
p3447
(dp3448
L1536L
I1074075416
sL438947497L
I1074080096
sL1667084889L
I1074075196
sL3121027072L
I1074070596
sL2082889262L
I1074076232
sL3806389737L
I1074055408
sL1735277287L
I1074073036
sL1993052482L
I1074081764
sL1340445289L
I1074071608
sL2319042089L
I1074080228
sL3322762009L
I1074079036
sL1907123383L
I1074073904
sL1419132215L
I1074073212
sL114144873L
I1074081704
sL452216018L
I1074054108
sL1991897232L
I1074075360
sL3897252859L
I1074073456
sL2327783177L
I1074075496
sL4155517583L
I1074072768
sL3136542647L
I1074072804
sL1415908896L
I1074076448
sL3210669721L
I1074079904
sL4285059616L
I1074071204
sL1332800441L
I1074072432
sL1691001089L
I1074080336
sL1637411924L
I1074072188
sL896678462L
I1074072608
sL1345429244L
I1074075668
sL3190020590L
I1074077072
sL4160102055L
I1074074772
sL1205407754L
I1074074804
sL2191698036L
I1074054876
sL2385323127L
I1074073624
sL1635528231L
I1074078472
sL410277033L
I1074079564
sL4006207895L
I1074074184
sL1585411352L
I1074080684
sL3292745128L
I1074055100
sL3177181234L
I1074075916
sL2405032630L
I1074053484
sL3834155367L
I1074075860
sL567695527L
I1074075276
sL1299206787L
I1074074284
sL3883282432L
I1074076324
sL4173399607L
I1074077588
sL4278077574L
I1074074496
sL1667054119L
I1074070724
sL4158252195L
I1074053592
ssb.