ccopy_reg
_reconstructor
p0
(crizzo
RizzoSignature
p1
c__builtin__
object
p2
Ntp3
Rp4
(dp5
S'formal'
p6
(dp7
L1355159495L
I1074239432
sL3856765925L
I1074244964
sL2958862168L
I1074246700
sL3468298416L
I1074236612
sL1741170115L
I1074237804
sL3137685769L
I1074243900
sL1664312382L
I1074247636
sL3505757179L
I1074234604
sL268856855L
I1074268864
sL138009647L
I1074234644
sL1181169265L
I1074242988
sL3976128745L
I1074270464
sL4213015302L
I1074242684
sL463041666L
I1074246860
sL1454943397L
I1074237824
sL3783234402L
I1074246996
sL3545118830L
I1074267736
sL1564580706L
I1074245044
sL818480367L
I1074236508
sL3248221117L
I1074247056
sL2420455533L
I1074269368
sL2863282304L
I1074267139
sL4103874998L
I1074270304
sL1959081198L
I1074240468
sL2702580795L
I1074237168
sL2161201919L
I1074238072
sL2568602422L
I1074237500
sL3387824349L
I1074235796
sL612233294L
I1074238640
sL706737706L
I1074239708
sL2896295319L
I1074236708
sL69447444L
I1074240444
sL2613131260L
I1074237276
sL1674148343L
I1074245084
sL1927941589L
I1074240524
sL2682232989L
I1074269636
sL2485902447L
I1074236588
sL564397550L
I1074240696
sL2873562891L
I1074238400
sL2694490583L
I1074240888
sL3562425881L
I1074236868
sL4263947382L
I1074236412
sL3691354453L
I1074240076
sL48951736L
I1074237992
sL2235154283L
I1074242184
sL2166402678L
I1074235684
sL1585823442L
I1074244000
sL379058638L
I1074241560
sL1622896354L
I1074244028
sL2884652713L
I1074269684
sL2758900266L
I1074241432
sL3350021110L
I1074246232
sL2000651361L
I1074269464
sL426938157L
I1074235156
sL351311763L
I1074246948
sL2021586966L
I1074245388
sL3934645487L
I1074236680
sL2936866151L
I1074269392
sL3364913916L
I1074245176
sL1937456651L
I1074245504
sL3007247178L
I1074238608
sL1842486436L
I1074240944
sL2128774811L
I1074236444
sL2844920302L
I1074237552
sL3092480211L
I1074244508
sL1685548274L
I1074245028
sL3307282855L
I1074237964
sL2840751066L
I1074241340
sL3951815938L
I1074243932
sL3939485250L
I1074269600
sL1043339424L
I1074239980
sL7243517L
I1074244936
sL1888032017L
I1074240056
sL3380256487L
I1074235548
sL3790692972L
I1074244188
sL4134277361L
I1074245316
sL3371457387L
I1074269436
sL4038945309L
I1074235500
sL4034710493L
I1074244568
sL1322407281L
I1074242700
sL1341808985L
I1074240428
sL3876253865L
I1074238692
sL21429742L
I1074236780
sL361204269L
I1074238484
sL1696087219L
I1074267956
sL2140198974L
I1074246188
sL771111768L
I1074269868
sL2997001746L
I1074237100
sL4010584764L
I1074246668
sL152949160L
I1074268624
sL4248297601L
I1074244804
sL1602802495L
I1074236812
sL4033219551L
I1074269352
sL2819127986L
I1074236832
sL3455934272L
I1074247384
sL209135561L
I1074240232
sL1877634603L
I1074270544
sL3016363266L
I1074244216
sL1225633219L
I1074245360
sL1920715700L
I1074244780
sL3262741161L
I1074236264
sL1168915326L
I1074235448
sL1938522969L
I1074247548
sL2263182908L
I1074237984
sL2925091974L
I1074243584
sL3630163135L
I1074236696
sL188664287L
I1074235124
sL1499807873L
I1074244148
sL3670064932L
I1074268568
sL692536993L
I1074237140
sL35658698L
I1074244352
sL2160242728L
I1074244628
sL217496090L
I1074244756
sL1695532512L
I1074238744
sL3275313366L
I1074239220
sL2518607080L
I1074237244
sL586403589L
I1074244100
sL1587188833L
I1074247248
sL440921530L
I1074239740
sL3018942732L
I1074267628
sL76598382L
I1074239120
ssS'immediates'
p8
(dp9
sS'formaldups'
p10
c__builtin__
set
p11
((lp12
tp13
Rp14
sS'stringdups'
p15
g11
((lp16
tp17
Rp18
sS'fuzzydups'
p19
g11
((lp20
tp21
Rp22
sS'strings'
p23
(dp24
sS'functions'
p25
(dp26
I1074240516
(Vbootloader_ana_clock_glitch_reset_config
p27
(lp28
(L2100504542L
L0L
(lp29
(lp30
tp31
atp32
sI1074244100
(Vmmu_hal_init
p33
(lp34
(L2805587975L
L0L
(lp35
(lp36
tp37
a(L2010554219L
L0L
(lp38
(lp39
tp40
a(L3268103L
L0L
(lp41
(lp42
tp43
a(L3212334523L
L0L
(lp44
(lp45
tp46
a(L2010554219L
L0L
(lp47
(lp48
tp49
a(L3360570486L
L0L
(lp50
(lp51
tp52
atp53
sI1074244352
(Vrtc_clk_cpu_freq_to_pll_mhz
p54
(lp55
(L1393544349L
L0L
(lp56
(lp57
tp58
a(L2948700517L
L0L
(lp59
(lp60
tp61
a(L2947452442L
L0L
(lp62
(lp63
tp64
a(L3298441904L
L0L
(lp65
(lp66
tp67
a(L3680579786L
L0L
(lp68
(lp69
tp70
a(L1298905564L
L0L
(lp71
(lp72
tp73
a(L1841883306L
L3785322319L
(lp74
(lp75
Vrtc_clk_wait_for_slow_cycle
p76
atp77
a(L1611366957L
L0L
(lp78
(lp79
tp80
a(L1611366988L
L0L
(lp81
(lp82
tp83
a(L94425498L
L3785322319L
(lp84
(lp85
Vabort
p86
atp87
atp88
sI1074243584
(Vwdt_hal_config_stage
p89
(lp90
(L331558507L
L0L
(lp91
(lp92
tp93
a(L4279082939L
L0L
(lp94
(lp95
tp96
a(L93674324L
L0L
(lp97
(lp98
tp99
a(L2902417580L
L0L
(lp100
(lp101
tp102
a(L1396645752L
L0L
(lp103
(lp104
tp105
a(L3020187L
L0L
(lp106
(lp107
tp108
a(L94425498L
L3785322319L
(lp109
(lp110
Vabort
p111
atp112
a(L2161461704L
L0L
(lp113
(lp114
tp115
a(L3360570486L
L0L
(lp116
(lp117
tp118
a(L1457248181L
L0L
(lp119
(lp120
tp121
a(L1968552594L
L0L
(lp122
(lp123
tp124
a(L4278159418L
L0L
(lp125
(lp126
tp127
a(L93674324L
L0L
(lp128
(lp129
tp130
a(L3020204L
L0L
(lp131
(lp132
tp133
a(L1936393611L
L0L
(lp134
(lp135
tp136
a(L3020187L
L0L
(lp137
(lp138
tp139
a(L106L
L0L
(lp140
(lp141
tp142
a(L584867514L
L0L
(lp143
(lp144
tp145
a(L291899814L
L0L
(lp146
(lp147
tp148
a(L3686040579L
L0L
(lp149
(lp150
tp151
atp152
sI1074267136
(V_init
p153
(lp154
(L3493042598L
L0L
(lp155
(lp156
tp157
atp158
sI1074270464
(Vrtc_vddsdio_set_config
p159
(lp160
(L2189075524L
L0L
(lp161
(lp162
tp163
atp164
sI1074240524
(Vprocess_checksum
p165
(lp166
(L3552259966L
L0L
(lp167
(lp168
tp169
a(L2910371777L
L0L
(lp170
(lp171
tp172
a(L186886970L
L0L
(lp173
(lp174
tp175
a(L2910371777L
L0L
(lp176
(lp177
tp178
a(L3020204L
L0L
(lp179
(lp180
tp181
a(L2480703612L
L3785322319L
(lp182
(lp183
Vbootloader_sha256_data
p184
atp185
a(L4179073442L
L0L
(lp186
(lp187
tp188
a(L1811888222L
L3785322319L
(lp189
(lp190
Vbootloader_flash_read
p191
atp192
a(L3126521138L
L0L
(lp193
(lp194
tp195
a(L2878945149L
L0L
(lp196
(lp197
tp198
a(L2037853476L
L3785322319L
(lp199
(lp200
Vesp_log_early_timestamp
p201
atp202
atp203
sI1074237964
(Vbootloader_enable_wp
p204
(lp205
(L1117825804L
L3785322319L
(lp206
(lp207
Vbootloader_execute_flash_command
p208
atp209
atp210
sI1074245388
(Vrtc_clk_cpu_freq_to_xtal
p211
(lp212
(L3046116771L
L0L
(lp213
(lp214
tp215
a(L94425498L
L3785322319L
(lp216
(lp217
Vabort
p218
atp219
a(L623998474L
L3785322319L
(lp220
(lp221
Vrtc_clk_apb_freq_update
p222
atp223
a(L2258867232L
L0L
(lp224
(lp225
tp226
a(L1438407065L
L0L
(lp227
(lp228
tp229
atp230
sI1074246668
(Vrtc_clk_cal_ratio
p231
(lp232
(L3533138594L
L3785322319L
(lp233
(lp234
Vrtc_clk_cal_internal
p235
atp236
atp237
sI1074267139
(V_text_start
p238
(lp239
(L1817914933L
L0L
(lp240
(lp241
tp242
a(L93892250L
L0L
(lp243
(lp244
tp245
atp246
sI1074236680
(Vefuse_hal_get_minor_chip_version
p247
(lp248
(L3957579839L
L0L
(lp249
(lp250
tp251
atp252
sI1074269464
(Vbootloader_config_wdt
p253
(lp254
(L4027912329L
L505859776L
(lp255
(lp256
Vwdt_hal_write_protect_disable
p257
aVwdt_hal_set_flashboot_en
p258
aVwdt_hal_write_protect_enable
p259
aVwdt_hal_init
p260
aVrtc_clk_slow_freq_get_hz
p261
aVwdt_hal_write_protect_disable
p262
aVwdt_hal_config_stage
p263
aVwdt_hal_enable
p264
aVwdt_hal_write_protect_enable
p265
aVwdt_hal_write_protect_disable
p266
aVwdt_hal_set_flashboot_en
p267
aVwdt_hal_write_protect_enable
p268
atp269
atp270
sI1074244628
(Vrtc_clk_8m_enable
p271
(lp272
(L1116980035L
L0L
(lp273
(lp274
tp275
a(L611813754L
L0L
(lp276
(lp277
tp278
a(L2151320156L
L0L
(lp279
(lp280
tp281
a(L2201080984L
L0L
(lp282
(lp283
tp284
a(L3360570486L
L0L
(lp285
(lp286
tp287
a(L1318267208L
L0L
(lp288
(lp289
tp290
a(L2584494103L
L0L
(lp291
(lp292
tp293
atp294
sI1074238484
(Vcache_ll_l1_get_bus
p295
(lp296
(L2721956783L
L0L
(lp297
(lp298
tp299
a(L94425498L
L3785322319L
(lp300
(lp301
Vabort
p302
atp303
a(L3175393928L
L0L
(lp304
(lp305
tp306
a(L1799159593L
L0L
(lp307
(lp308
tp309
a(L892952750L
L0L
(lp310
(lp311
tp312
a(L1182811810L
L0L
(lp313
(lp314
tp315
a(L1101742417L
L0L
(lp316
(lp317
tp318
a(L1100767927L
L0L
(lp319
(lp320
tp321
a(L3360570486L
L0L
(lp322
(lp323
tp324
a(L2727400564L
L0L
(lp325
(lp326
tp327
a(L892952750L
L0L
(lp328
(lp329
tp330
a(L2258688482L
L0L
(lp331
(lp332
tp333
a(L1802308380L
L0L
(lp334
(lp335
tp336
a(L2258718273L
L0L
(lp337
(lp338
tp339
a(L2938197270L
L0L
(lp340
(lp341
tp342
a(L2767111967L
L0L
(lp343
(lp344
tp345
a(L2748646817L
L0L
(lp346
(lp347
tp348
a(L1641149277L
L0L
(lp349
(lp350
tp351
a(L3207711893L
L0L
(lp352
(lp353
tp354
a(L3027019L
L0L
(lp355
(lp356
tp357
a(L1299866560L
L0L
(lp358
(lp359
tp360
a(L1299866436L
L0L
(lp361
(lp362
tp363
atp364
sI1074234644
(Vbootloader_flash_execute_command_common
p365
(lp366
(L3865052895L
L0L
(lp367
(lp368
tp369
a(L3287175998L
L0L
(lp370
(lp371
tp372
a(L4121451103L
L3785322319L
(lp373
(lp374
V__assert_func
p375
atp376
a(L3021749L
L0L
(lp377
(lp378
tp379
a(L3999871974L
L0L
(lp380
(lp381
tp382
a(L543316797L
L0L
(lp383
(lp384
tp385
a(L2091933878L
L0L
(lp386
(lp387
tp388
a(L1702379862L
L0L
(lp389
(lp390
tp391
a(L3432464320L
L0L
(lp392
(lp393
tp394
a(L3539375712L
L0L
(lp395
(lp396
tp397
a(L3244449450L
L0L
(lp398
(lp399
tp400
a(L4233404408L
L0L
(lp401
(lp402
tp403
a(L2990329343L
L0L
(lp404
(lp405
tp406
a(L2051090536L
L0L
(lp407
(lp408
tp409
a(L3333696662L
L0L
(lp410
(lp411
tp412
a(L963425213L
L0L
(lp413
(lp414
tp415
a(L339491738L
L0L
(lp416
(lp417
tp418
a(L3360570486L
L0L
(lp419
(lp420
tp421
atp422
sI1074235156
(Vbootloader_flash_unlock
p423
(lp424
(L2142380611L
L3785322319L
(lp425
(lp426
Vesp_rom_spiflash_wait_idle
p427
atp428
a(L4212373562L
L0L
(lp429
(lp430
tp431
a(L4292483033L
L3785322319L
(lp432
(lp433
Vbootloader_execute_flash_command
p434
atp435
a(L106L
L0L
(lp436
(lp437
tp438
a(L1303560644L
L0L
(lp439
(lp440
tp441
a(L610618440L
L0L
(lp442
(lp443
tp444
a(L106L
L0L
(lp445
(lp446
tp447
a(L345249462L
L0L
(lp448
(lp449
tp450
a(L106L
L0L
(lp451
(lp452
tp453
a(L1024465569L
L0L
(lp454
(lp455
tp456
a(L106L
L0L
(lp457
(lp458
tp459
a(L1481761147L
L1880226080L
(lp460
(lp461
Vbootloader_execute_flash_command
p462
aVbootloader_execute_flash_command
p463
atp464
a(L2258807654L
L0L
(lp465
(lp466
tp467
a(L489806350L
L1832448559L
(lp468
(lp469
Vesp_rom_spiflash_wait_idle
p470
aVbootloader_execute_flash_command
p471
aVbootloader_execute_flash_command
p472
atp473
a(L879744646L
L1832448559L
(lp474
(lp475
Vesp_rom_spiflash_wait_idle
p476
aVbootloader_execute_flash_command
p477
aVbootloader_execute_flash_command
p478
atp479
a(L1840772931L
L1880226080L
(lp480
(lp481
Vesp_rom_spiflash_wait_idle
p482
aVbootloader_execute_flash_command
p483
atp484
a(L2993202392L
L0L
(lp485
(lp486
tp487
a(L508800419L
L1880226080L
(lp488
(lp489
Vbootloader_execute_flash_command
p490
aVbootloader_execute_flash_command
p491
atp492
a(L1303560369L
L0L
(lp493
(lp494
tp495
a(L1596544945L
L0L
(lp496
(lp497
tp498
a(L97689L
L0L
(lp499
(lp500
tp501
a(L106L
L0L
(lp502
(lp503
tp504
atp505
sI1074236444
(Vesp_rom_uart_tx_wait_idle
p506
(lp507
(L2733747073L
L0L
(lp508
(lp509
tp510
a(L1301079727L
L0L
(lp511
(lp512
tp513
a(L3597746521L
L0L
(lp514
(lp515
tp516
a(L3694491048L
L0L
(lp517
(lp518
tp519
a(L3055926844L
L0L
(lp520
(lp521
tp522
a(L3360570486L
L0L
(lp523
(lp524
tp525
atp526
sI1074238744
(Vload_image
p527
(lp528
(L4278320029L
L1880226080L
(lp529
(lp530
Vbootloader_random_disable
p531
aVbootloader_ana_clock_glitch_reset_config
p532
atp533
a(L3893505478L
L0L
(lp534
(lp535
tp536
a(L106L
L0L
(lp537
(lp538
tp539
a(L134254403L
L3758435744L
(lp540
(lp541
Vmmu_hal_init
p542
aVcache_ll_l1_get_bus
p543
aVcache_ll_l1_enable_bus
p544
aVcache_ll_l1_get_bus
p545
aVcache_ll_l1_enable_bus
p546
aVcache_ll_l1_get_bus
p547
aVcache_ll_l1_enable_bus
p548
aVcache_ll_l1_get_bus
p549
aVcache_ll_l1_enable_bus
p550
aVbootloader_console_deinit
p551
atp552
a(L2366773478L
L0L
(lp553
(lp554
tp555
a(L2902417580L
L0L
(lp556
(lp557
tp558
a(L3087200444L
L3785322319L
(lp559
(lp560
Vesp_log_early_timestamp
p561
atp562
a(L3455620645L
L0L
(lp563
(lp564
tp565
a(L3193235534L
L0L
(lp566
(lp567
tp568
a(L3020204L
L0L
(lp569
(lp570
tp571
a(L646578685L
L3785322319L
(lp572
(lp573
Vesp_log_early_timestamp
p574
atp575
a(L3093629574L
L0L
(lp576
(lp577
tp578
a(L4254185231L
L0L
(lp579
(lp580
tp581
atp582
sI1074236696
(Vesp_dport_access_reg_read
p583
(lp584
(L1099794772L
L0L
(lp585
(lp586
tp587
atp588
sI1074241560
(Vprocess_segments
p589
(lp590
(L933567253L
L0L
(lp591
(lp592
tp593
a(L3285816417L
L0L
(lp594
(lp595
tp596
a(L2393526353L
L0L
(lp597
(lp598
tp599
a(L106L
L0L
(lp600
(lp601
tp602
a(L1184913234L
L0L
(lp603
(lp604
tp605
a(L1118086683L
L3785322319L
(lp606
(lp607
Vesp_log_early_timestamp
p608
atp609
a(L3491764960L
L3785322319L
(lp610
(lp611
Vbootloader_flash_read
p612
atp613
a(L908816621L
L3785322319L
(lp614
(lp615
Vesp_log_early_timestamp
p616
atp617
a(L3871473710L
L0L
(lp618
(lp619
tp620
a(L1300630146L
L0L
(lp621
(lp622
tp623
a(L738857969L
L3785322319L
(lp624
(lp625
Vbootloader_sha256_data
p626
atp627
a(L3124001501L
L0L
(lp628
(lp629
tp630
a(L974643385L
L0L
(lp631
(lp632
tp633
a(L1810082356L
L0L
(lp634
(lp635
tp636
a(L4129104017L
L0L
(lp637
(lp638
tp639
a(L106L
L0L
(lp640
(lp641
tp642
a(L141486068L
L0L
(lp643
(lp644
tp645
a(L2587042390L
L0L
(lp646
(lp647
tp648
a(L1682130514L
L3785322319L
(lp649
(lp650
Vesp_log_early_timestamp
p651
atp652
a(L1114137787L
L0L
(lp653
(lp654
tp655
a(L568212210L
L0L
(lp656
(lp657
tp658
a(L749233863L
L3785322319L
(lp659
(lp660
Vesp_log_early_timestamp
p661
atp662
a(L2347770645L
L3785322319L
(lp663
(lp664
Vverify_load_addresses
p665
atp666
a(L106L
L0L
(lp667
(lp668
tp669
a(L299546812L
L0L
(lp670
(lp671
tp672
a(L262831199L
L0L
(lp673
(lp674
tp675
a(L3735077394L
L3785322319L
(lp676
(lp677
Vbootloader_mmap
p678
atp679
a(L175169014L
L3785322319L
(lp680
(lp681
Vesp_log_early_timestamp
p682
atp683
a(L1911351716L
L0L
(lp684
(lp685
tp686
a(L4205828899L
L0L
(lp687
(lp688
tp689
a(L1652679798L
L3785322319L
(lp690
(lp691
Vbootloader_munmap
p692
atp693
a(L3425676091L
L0L
(lp694
(lp695
tp696
a(L1782223905L
L3785322319L
(lp697
(lp698
Vbootloader_fill_random
p699
atp700
a(L3570641403L
L0L
(lp701
(lp702
tp703
a(L3574335487L
L0L
(lp704
(lp705
tp706
a(L3450268858L
L0L
(lp707
(lp708
tp709
a(L3021749L
L0L
(lp710
(lp711
tp712
a(L4179164843L
L0L
(lp713
(lp714
tp715
a(L1084626871L
L0L
(lp716
(lp717
tp718
a(L2902417580L
L0L
(lp719
(lp720
tp721
a(L167783179L
L0L
(lp722
(lp723
tp724
a(L1797921642L
L0L
(lp725
(lp726
tp727
a(L3437071223L
L0L
(lp728
(lp729
tp730
a(L3396129621L
L0L
(lp731
(lp732
tp733
a(L670934548L
L0L
(lp734
(lp735
tp736
a(L363643669L
L3785322319L
(lp737
(lp738
Vbootloader_sha256_data
p739
atp740
a(L90548756L
L0L
(lp741
(lp742
tp743
a(L4195963580L
L0L
(lp744
(lp745
tp746
a(L2394204398L
L0L
(lp747
(lp748
tp749
a(L617933722L
L0L
(lp750
(lp751
tp752
a(L308896050L
L3785322319L
(lp753
(lp754
Vshould_load
p755
atp756
a(L630320211L
L0L
(lp757
(lp758
tp759
a(L3028481L
L0L
(lp760
(lp761
tp762
a(L2176699418L
L3785322319L
(lp763
(lp764
Vbootloader_mmap_get_free_pages
p765
atp766
a(L847230985L
L0L
(lp767
(lp768
tp769
a(L3103552037L
L0L
(lp770
(lp771
tp772
atp773
sI1074236708
(Vis_xmc_chip_strict
p774
(lp775
(L1286841609L
L0L
(lp776
(lp777
tp778
a(L2234016759L
L0L
(lp779
(lp780
tp781
a(L1069027148L
L0L
(lp782
(lp783
tp784
a(L3021749L
L0L
(lp785
(lp786
tp787
a(L1900148749L
L0L
(lp788
(lp789
tp790
a(L1936875721L
L0L
(lp791
(lp792
tp793
a(L3356166509L
L0L
(lp794
(lp795
tp796
a(L1937769451L
L0L
(lp797
(lp798
tp799
a(L2137658907L
L0L
(lp800
(lp801
tp802
a(L4265949734L
L0L
(lp803
(lp804
tp805
a(L3360570486L
L0L
(lp806
(lp807
tp808
atp809
sI1074235684
(Vbootloader_flash_cs_timing_config
p810
(lp811
(L6299057L
L0L
(lp812
(lp813
tp814
atp815
sI1074246948
(Vesp_rom_spiflash_wait_idle
p816
(lp817
(L3233075887L
L0L
(lp818
(lp819
tp820
a(L2023766174L
L0L
(lp821
(lp822
tp823
a(L2805933868L
L0L
(lp824
(lp825
tp826
a(L3086959262L
L0L
(lp827
(lp828
tp829
a(L4161019926L
L3785322319L
(lp830
(lp831
Vesp_rom_spiflash_read_status
p832
atp833
atp834
sI1074237984
(Vbootloader_mmap_get_free_pages
p835
(lp836
(L1496516875L
L0L
(lp837
(lp838
tp839
atp840
sI1074246188
(Vrtc_clk_apb_freq_get
p841
(lp842
(L555214938L
L0L
(lp843
(lp844
tp845
atp846
sI1074246700
(Vrtc_clk_wait_for_slow_cycle
p847
(lp848
(L2966150366L
L0L
(lp849
(lp850
tp851
a(L287687718L
L0L
(lp852
(lp853
tp854
a(L3360570486L
L0L
(lp855
(lp856
tp857
a(L3728108016L
L0L
(lp858
(lp859
tp860
a(L2994547433L
L0L
(lp861
(lp862
tp863
a(L1031101807L
L0L
(lp864
(lp865
tp866
a(L592498203L
L3785322319L
(lp867
(lp868
Vesp_log_early_timestamp
p869
atp870
atp871
sI1074237992
(Vbootloader_fill_random
p872
(lp873
(L387180576L
L0L
(lp874
(lp875
tp876
a(L2924486945L
L3785322319L
(lp877
(lp878
V__assert_func
p879
atp880
a(L1882547218L
L0L
(lp881
(lp882
tp883
a(L2910371777L
L0L
(lp884
(lp885
tp886
a(L95634693L
L0L
(lp887
(lp888
tp889
a(L3630908706L
L0L
(lp890
(lp891
tp892
a(L160162640L
L0L
(lp893
(lp894
tp895
a(L97689L
L0L
(lp896
(lp897
tp898
a(L3360570486L
L0L
(lp899
(lp900
tp901
atp902
sI1074244148
(Vefuse_hal_get_rated_freq_mhz
p903
(lp904
(L3387138627L
L0L
(lp905
(lp906
tp907
a(L3671388797L
L0L
(lp908
(lp909
tp910
a(L3360570486L
L0L
(lp911
(lp912
tp913
atp914
sI1074240048
(Vbootloader_debug_buffer
p915
(lp916
(L2100504542L
L0L
(lp917
(lp918
tp919
atp920
sI1074243900
(Vwdt_hal_write_protect_disable
p921
(lp922
(L2720025117L
L0L
(lp923
(lp924
tp925
a(L4195472003L
L0L
(lp926
(lp927
tp928
a(L3360570486L
L0L
(lp929
(lp930
tp931
a(L1210571996L
L0L
(lp932
(lp933
tp934
atp935
sI1074241340
(Vprocess_appended_hash_and_sig
p936
(lp937
(L1668084157L
L0L
(lp938
(lp939
tp940
a(L2910371777L
L0L
(lp941
(lp942
tp943
a(L1591589631L
L0L
(lp944
(lp945
tp946
a(L2551256078L
L0L
(lp947
(lp948
tp949
a(L3884046905L
L0L
(lp950
(lp951
tp952
a(L2607376716L
L3785322319L
(lp953
(lp954
Vesp_log_early_timestamp
p955
atp956
a(L2268304300L
L3785322319L
(lp957
(lp958
Vbootloader_flash_read
p959
atp960
a(L3871473710L
L0L
(lp961
(lp962
tp963
atp964
sI1074237244
(Vspi_to_esp_err
p965
(lp966
(L3481169892L
L0L
(lp967
(lp968
tp969
a(L2420870439L
L0L
(lp970
(lp971
tp972
a(L3952441574L
L0L
(lp973
(lp974
tp975
a(L3126521138L
L0L
(lp976
(lp977
tp978
atp979
sI1074237500
(Vbootloader_munmap
p980
(lp981
(L1390725234L
L0L
(lp982
(lp983
tp984
a(L1679328888L
L0L
(lp985
(lp986
tp987
a(L3360570486L
L0L
(lp988
(lp989
tp990
atp991
sI1074244924
(Vrtc_clk_slow_src_get
p992
(lp993
(L376617603L
L3785322319L
(lp994
(lp995
Vclk_ll_rtc_slow_get_src
p996
atp997
atp998
sI1074267956
(Vbootloader_init
p999
(lp1000
(L1256100286L
L3785322319L
(lp1001
(lp1002
Vbootloader_init_mem
p1003
atp1004
a(L2496550926L
L0L
(lp1005
(lp1006
tp1007
a(L2027378118L
L3785322319L
(lp1008
(lp1009
V__assert_func
p1010
atp1011
a(L408886226L
L0L
(lp1012
(lp1013
tp1014
a(L3771730718L
L0L
(lp1015
(lp1016
tp1017
a(L3813782018L
L0L
(lp1018
(lp1019
tp1020
a(L1676258143L
L0L
(lp1021
(lp1022
tp1023
a(L3027019L
L0L
(lp1024
(lp1025
tp1026
a(L2165555555L
L0L
(lp1027
(lp1028
tp1029
a(L1797062121L
L1832448559L
(lp1030
(lp1031
Vbootloader_clear_bss_section
p1032
aVbootloader_common_vddsdio_configure
p1033
aVbootloader_clock_get_rated_freq_mhz
p1034
atp1035
a(L3987130017L
L1157885199L
(lp1036
(lp1037
Vbootloader_clock_configure
p1038
aVbootloader_console_init
p1039
aVbootloader_print_banner
p1040
aVbootloader_flash_update_id
p1041
aVbootloader_flash_xmc_startup
p1042
atp1043
a(L1371217416L
L3785322319L
(lp1044
(lp1045
Vesp_log_early_timestamp
p1046
atp1047
a(L2835491336L
L3785322319L
(lp1048
(lp1049
Vesp_log_early_timestamp
p1050
atp1051
a(L3360570486L
L0L
(lp1052
(lp1053
tp1054
a(L1375577398L
L3785322319L
(lp1055
(lp1056
Vbootloader_read_bootloader_header
p1057
atp1058
a(L2444883382L
L3785322319L
(lp1059
(lp1060
Vbootloader_check_bootloader_validity
p1061
atp1062
a(L1153606775L
L2485746240L
(lp1063
(lp1064
Vbootloader_flash_gpio_config
p1065
aVbootloader_flash_dummy_config
p1066
aVbootloader_flash_cs_timing_config
p1067
aVbootloader_flash_unlock
p1068
atp1069
a(L93837694L
L0L
(lp1070
(lp1071
tp1072
a(L106L
L0L
(lp1073
(lp1074
tp1075
a(L3226039662L
L0L
(lp1076
(lp1077
tp1078
a(L1265057524L
L0L
(lp1079
(lp1080
tp1081
a(L2806354006L
L0L
(lp1082
(lp1083
tp1084
a(L1944969037L
L3785322319L
(lp1085
(lp1086
Vbootloader_enable_wp
p1087
atp1088
a(L378895346L
L0L
(lp1089
(lp1090
tp1091
a(L1895147922L
L0L
(lp1092
(lp1093
tp1094
a(L3457636795L
L3785322319L
(lp1095
(lp1096
Vesp_log_early_timestamp
p1097
atp1098
a(L1837681143L
L0L
(lp1099
(lp1100
tp1101
a(L1873516030L
L0L
(lp1102
(lp1103
tp1104
a(L1895147922L
L0L
(lp1105
(lp1106
tp1107
a(L14182512L
L3785322319L
(lp1108
(lp1109
Vesp_log_early_timestamp
p1110
atp1111
a(L4263191691L
L1880226080L
(lp1112
(lp1113
Vwdt_reset_info_dump
p1114
aVwdt_reset_info_dump
p1115
atp1116
a(L385083117L
L0L
(lp1117
(lp1118
tp1119
a(L3028481L
L0L
(lp1120
(lp1121
tp1122
a(L2920982674L
L1880226080L
(lp1123
(lp1124
Vbootloader_config_wdt
p1125
aVbootloader_enable_random
p1126
atp1127
atp1128
sI1074240056
(Vbootloader_sha256_start
p1129
(lp1130
(L1535180675L
L0L
(lp1131
(lp1132
tp1133
atp1134
sI1074235448
(Vbootloader_flash_read_sfdp
p1135
(lp1136
(L711701400L
L0L
(lp1137
(lp1138
tp1139
a(L3334003234L
L3785322319L
(lp1140
(lp1141
V__assert_func
p1142
atp1143
a(L3704332455L
L3785322319L
(lp1144
(lp1145
Vbootloader_flash_execute_command_common
p1146
atp1147
atp1148
sI1074245176
(Vrtc_clk_cpu_freq_get_config
p1149
(lp1150
(L1549246068L
L0L
(lp1151
(lp1152
tp1153
a(L3020187L
L0L
(lp1154
(lp1155
tp1156
a(L3020187L
L0L
(lp1157
(lp1158
tp1159
a(L894730048L
L3785322319L
(lp1160
(lp1161
Vrtc_clk_xtal_freq_get
p1162
atp1163
a(L3789795478L
L0L
(lp1164
(lp1165
tp1166
a(L1100042805L
L1880226080L
(lp1167
(lp1168
Vesp_log_early_timestamp
p1169
aVabort
p1170
atp1171
a(L3930995869L
L0L
(lp1172
(lp1173
tp1174
a(L3020187L
L0L
(lp1175
(lp1176
tp1177
a(L3028481L
L0L
(lp1178
(lp1179
tp1180
a(L38508693L
L0L
(lp1181
(lp1182
tp1183
a(L187152368L
L0L
(lp1184
(lp1185
tp1186
a(L1161083655L
L0L
(lp1187
(lp1188
tp1189
a(L1395485899L
L0L
(lp1190
(lp1191
tp1192
a(L2070600034L
L0L
(lp1193
(lp1194
tp1195
atp1196
sI1074270536
(Vbootloader_print_banner
p1197
(lp1198
(L2100504542L
L0L
(lp1199
(lp1200
tp1201
atp1202
sI1074240076
(Vbootloader_sha256_data
p1203
(lp1204
(L4066096136L
L0L
(lp1205
(lp1206
tp1207
a(L3197877865L
L0L
(lp1208
(lp1209
tp1210
a(L3627025138L
L3785322319L
(lp1211
(lp1212
V__assert_func
p1213
atp1214
a(L498498478L
L0L
(lp1215
(lp1216
tp1217
a(L2968424575L
L0L
(lp1218
(lp1219
tp1220
a(L2910371777L
L0L
(lp1221
(lp1222
tp1223
a(L3360570486L
L0L
(lp1224
(lp1225
tp1226
a(L1911737285L
L0L
(lp1227
(lp1228
tp1229
a(L541898147L
L0L
(lp1230
(lp1231
tp1232
a(L953830545L
L0L
(lp1233
(lp1234
tp1235
a(L1259070655L
L0L
(lp1236
(lp1237
tp1238
a(L2241452291L
L0L
(lp1239
(lp1240
tp1241
a(L2032890799L
L0L
(lp1242
(lp1243
tp1244
a(L3028464L
L0L
(lp1245
(lp1246
tp1247
a(L1834917352L
L0L
(lp1248
(lp1249
tp1250
a(L1076698600L
L0L
(lp1251
(lp1252
tp1253
atp1254
sI1074244936
(Vrtc_clk_slow_freq_get_hz
p1255
(lp1256
(L1826267122L
L3785322319L
(lp1257
(lp1258
Vclk_ll_rtc_slow_get_src
p1259
atp1260
a(L3983387562L
L0L
(lp1261
(lp1262
tp1263
a(L3631005815L
L0L
(lp1264
(lp1265
tp1266
a(L702739851L
L0L
(lp1267
(lp1268
tp1269
a(L3360570486L
L0L
(lp1270
(lp1271
tp1272
atp1273
sI1074267736
(Vwdt_reset_info_dump
p1274
(lp1275
(L4037466985L
L0L
(lp1276
(lp1277
tp1278
a(L826419141L
L0L
(lp1279
(lp1280
tp1281
a(L527117834L
L0L
(lp1282
(lp1283
tp1284
a(L1103285333L
L0L
(lp1285
(lp1286
tp1287
a(L897464656L
L3785322319L
(lp1288
(lp1289
Vesp_log_early_timestamp
p1290
atp1291
a(L2967992533L
L0L
(lp1292
(lp1293
tp1294
a(L144195250L
L3785322319L
(lp1295
(lp1296
Vesp_log_early_timestamp
p1297
atp1298
a(L2899013701L
L0L
(lp1299
(lp1300
tp1301
atp1302
sI1074246996
(Vesp_rom_spiflash_enable_write
p1303
(lp1304
(L4294007845L
L3785322319L
(lp1305
(lp1306
Vesp_rom_spiflash_wait_idle
p1307
atp1308
a(L3137194272L
L0L
(lp1309
(lp1310
tp1311
a(L2258718275L
L0L
(lp1312
(lp1313
tp1314
a(L99543895L
L0L
(lp1315
(lp1316
tp1317
a(L2993202392L
L0L
(lp1318
(lp1319
tp1320
a(L1804543818L
L3785322319L
(lp1321
(lp1322
Vesp_rom_spiflash_read_status
p1323
atp1324
atp1325
sI1074247248
(Vesp_rom_spiflash_erase_sector
p1326
(lp1327
(L2657698512L
L0L
(lp1328
(lp1329
tp1330
a(L2258688483L
L0L
(lp1331
(lp1332
tp1333
a(L3360570486L
L0L
(lp1334
(lp1335
tp1336
a(L3212356251L
L3785322319L
(lp1337
(lp1338
Vesp_rom_spiflash_enable_write
p1339
atp1340
a(L184152988L
L0L
(lp1341
(lp1342
tp1343
a(L652636224L
L3785322319L
(lp1344
(lp1345
Vesp_rom_spiflash_wait_idle
p1346
atp1347
a(L3333707777L
L0L
(lp1348
(lp1349
tp1350
a(L3582858798L
L3785322319L
(lp1351
(lp1352
Vesp_rom_spiflash_wait_idle
p1353
atp1354
atp1355
sI1074270544
(Vmpu_hal_set_region_access
p1356
(lp1357
(L3538356822L
L0L
(lp1358
(lp1359
tp1360
a(L93674324L
L0L
(lp1361
(lp1362
tp1363
a(L2910371777L
L0L
(lp1364
(lp1365
tp1366
a(L3472092938L
L0L
(lp1367
(lp1368
tp1369
a(L3020187L
L0L
(lp1370
(lp1371
tp1372
a(L3360570486L
L0L
(lp1373
(lp1374
tp1375
a(L2258718273L
L0L
(lp1376
(lp1377
tp1378
a(L3446648619L
L0L
(lp1379
(lp1380
tp1381
a(L3739532189L
L0L
(lp1382
(lp1383
tp1384
a(L1300789895L
L0L
(lp1385
(lp1386
tp1387
atp1388
sI1074244188
(Vclk_ll_rtc_slow_get_src
p1389
(lp1390
(L3579154085L
L0L
(lp1391
(lp1392
tp1393
a(L3020187L
L0L
(lp1394
(lp1395
tp1396
a(L2902417580L
L0L
(lp1397
(lp1398
tp1399
a(L2258688485L
L0L
(lp1400
(lp1401
tp1402
a(L3360570486L
L0L
(lp1403
(lp1404
tp1405
atp1406
sI1074243932
(Vwdt_hal_set_flashboot_en
p1407
(lp1408
(L2375320464L
L0L
(lp1409
(lp1410
tp1411
a(L3915867581L
L0L
(lp1412
(lp1413
tp1414
a(L3360570486L
L0L
(lp1415
(lp1416
tp1417
a(L3198685869L
L0L
(lp1418
(lp1419
tp1420
atp1421
sI1074237276
(Vbootloader_mmap
p1422
(lp1423
(L1371566704L
L0L
(lp1424
(lp1425
tp1426
a(L3213398888L
L3785322319L
(lp1427
(lp1428
Vesp_log_early_timestamp
p1429
atp1430
a(L3871473710L
L0L
(lp1431
(lp1432
tp1433
a(L3729184599L
L0L
(lp1434
(lp1435
tp1436
a(L3601287321L
L3785322319L
(lp1437
(lp1438
Vesp_log_early_timestamp
p1439
atp1440
a(L343127800L
L0L
(lp1441
(lp1442
tp1443
a(L3140138275L
L3785322319L
(lp1444
(lp1445
Vesp_log_early_timestamp
p1446
atp1447
a(L2700202424L
L0L
(lp1448
(lp1449
tp1450
a(L2524678404L
L3785322319L
(lp1451
(lp1452
Vesp_log_early_timestamp
p1453
atp1454
a(L2796553509L
L0L
(lp1455
(lp1456
tp1457
atp1458
sI1074236508
(Vesp_rom_uart_set_clock_baudrate
p1459
(lp1460
(L3381693543L
L0L
(lp1461
(lp1462
tp1463
a(L2334982986L
L0L
(lp1464
(lp1465
tp1466
a(L2805931264L
L0L
(lp1467
(lp1468
tp1469
a(L3887231631L
L0L
(lp1470
(lp1471
tp1472
atp1473
sI1074246232
(Vrtc_clk_cal_internal
p1474
(lp1475
(L1876302533L
L0L
(lp1476
(lp1477
tp1478
a(L2034323484L
L3785322319L
(lp1479
(lp1480
V__assert_func
p1481
atp1482
a(L384777032L
L0L
(lp1483
(lp1484
tp1485
a(L54826884L
L0L
(lp1486
(lp1487
tp1488
a(L234746575L
L0L
(lp1489
(lp1490
tp1491
a(L861896856L
L3785322319L
(lp1492
(lp1493
Vrtc_clk_8m_enable
p1494
atp1495
a(L3886714587L
L3785322319L
(lp1496
(lp1497
Vrtc_clk_slow_src_get
p1498
atp1499
a(L1211065969L
L0L
(lp1500
(lp1501
tp1502
a(L97689L
L0L
(lp1503
(lp1504
tp1505
a(L1528385805L
L0L
(lp1506
(lp1507
tp1508
a(L3028464L
L0L
(lp1509
(lp1510
tp1511
a(L3028481L
L0L
(lp1512
(lp1513
tp1514
a(L3450258542L
L0L
(lp1515
(lp1516
tp1517
a(L671292429L
L3785322319L
(lp1518
(lp1519
Vrtc_clk_xtal_freq_get
p1520
atp1521
a(L2780079961L
L0L
(lp1522
(lp1523
tp1524
a(L826501131L
L0L
(lp1525
(lp1526
tp1527
a(L2195532465L
L3785322319L
(lp1528
(lp1529
Vesp_log_early_timestamp
p1530
atp1531
a(L3360570486L
L0L
(lp1532
(lp1533
tp1534
a(L106916348L
L0L
(lp1535
(lp1536
tp1537
a(L2997319531L
L0L
(lp1538
(lp1539
tp1540
a(L2910371777L
L0L
(lp1541
(lp1542
tp1543
a(L2902417580L
L0L
(lp1544
(lp1545
tp1546
a(L3023821615L
L0L
(lp1547
(lp1548
tp1549
a(L3631005548L
L0L
(lp1550
(lp1551
tp1552
a(L3765184871L
L0L
(lp1553
(lp1554
tp1555
a(L3352263364L
L0L
(lp1556
(lp1557
tp1558
a(L3028464L
L0L
(lp1559
(lp1560
tp1561
a(L4028024914L
L3785322319L
(lp1562
(lp1563
Vrtc_clk_8m_enable
p1564
atp1565
atp1566
sI1074244964
(Vrtc_clk_fast_src_set
p1567
(lp1568
(L3109630949L
L0L
(lp1569
(lp1570
tp1571
a(L3020187L
L0L
(lp1572
(lp1573
tp1574
a(L3827921190L
L3785322319L
(lp1575
(lp1576
Vabort
p1577
atp1578
a(L2904656757L
L0L
(lp1579
(lp1580
tp1581
a(L2553436348L
L0L
(lp1582
(lp1583
tp1584
a(L300459962L
L0L
(lp1585
(lp1586
tp1587
atp1588
sI1074270304
(Vrtc_vddsdio_get_config
p1589
(lp1590
(L1133339736L
L0L
(lp1591
(lp1592
tp1593
a(L3421108135L
L0L
(lp1594
(lp1595
tp1596
a(L3002774692L
L0L
(lp1597
(lp1598
tp1599
a(L526269410L
L0L
(lp1600
(lp1601
tp1602
a(L3892776265L
L0L
(lp1603
(lp1604
tp1605
a(L1813596024L
L0L
(lp1606
(lp1607
tp1608
a(L1306330959L
L0L
(lp1609
(lp1610
tp1611
a(L3813608488L
L0L
(lp1612
(lp1613
tp1614
atp1615
sI1074237804
(Vbootloader_flash_erase_sector
p1616
(lp1617
(L4129137686L
L1880226080L
(lp1618
(lp1619
Vesp_rom_spiflash_erase_sector
p1620
aVspi_to_esp_err
p1621
atp1622
atp1623
sI1074236780
(Vesp_log_early_timestamp
p1624
(lp1625
(L387765101L
L0L
(lp1626
(lp1627
tp1628
atp1629
sI1074235500
(Vbootloader_read_flash_id
p1630
(lp1631
(L549578328L
L3785322319L
(lp1632
(lp1633
Vbootloader_execute_flash_command
p1634
atp1635
atp1636
sI1074236264
(Vbootloader_flash_dummy_config
p1637
(lp1638
(L379397211L
L0L
(lp1639
(lp1640
tp1641
a(L2761717557L
L0L
(lp1642
(lp1643
tp1644
a(L1849044936L
L0L
(lp1645
(lp1646
tp1647
a(L3702150741L
L0L
(lp1648
(lp1649
tp1650
a(L1010450057L
L0L
(lp1651
(lp1652
tp1653
a(L3020204L
L0L
(lp1654
(lp1655
tp1656
a(L1610443405L
L0L
(lp1657
(lp1658
tp1659
a(L4032120524L
L0L
(lp1660
(lp1661
tp1662
a(L2336993863L
L0L
(lp1663
(lp1664
tp1665
a(L1298875775L
L0L
(lp1666
(lp1667
tp1668
a(L3880393601L
L0L
(lp1669
(lp1670
tp1671
a(L3433671740L
L0L
(lp1672
(lp1673
tp1674
a(L1610443436L
L0L
(lp1675
(lp1676
tp1677
atp1678
sI1074237552
(Vbootloader_flash_read
p1679
(lp1680
(L728393898L
L0L
(lp1681
(lp1682
tp1683
a(L87270939L
L3785322319L
(lp1684
(lp1685
Vesp_log_early_timestamp
p1686
atp1687
a(L1941789336L
L0L
(lp1688
(lp1689
tp1690
a(L3360570486L
L0L
(lp1691
(lp1692
tp1693
a(L2660352519L
L0L
(lp1694
(lp1695
tp1696
a(L1039718061L
L3785322319L
(lp1697
(lp1698
Vesp_log_early_timestamp
p1699
atp1700
a(L162336582L
L0L
(lp1701
(lp1702
tp1703
a(L1179571907L
L3785322319L
(lp1704
(lp1705
Vesp_log_early_timestamp
p1706
atp1707
a(L3020204L
L0L
(lp1708
(lp1709
tp1710
a(L3893043951L
L0L
(lp1711
(lp1712
tp1713
a(L97422L
L0L
(lp1714
(lp1715
tp1716
a(L674456573L
L0L
(lp1717
(lp1718
tp1719
a(L1253319443L
L0L
(lp1720
(lp1721
tp1722
a(L2896487103L
L3785322319L
(lp1723
(lp1724
V__assert_func
p1725
atp1726
a(L2383244345L
L0L
(lp1727
(lp1728
tp1729
a(L4030841379L
L0L
(lp1730
(lp1731
tp1732
a(L2946905801L
L1880226080L
(lp1733
(lp1734
Vesp_rom_spiflash_read
p1735
aVspi_to_esp_err
p1736
atp1737
atp1738
sI1074242684
(Vbootloader_load_image
p1739
(lp1740
(L1155870502L
L3785322319L
(lp1741
(lp1742
Vimage_load
p1743
atp1744
atp1745
sI1074247548
(Vesp_rom_spiflash_write_encrypted
p1746
(lp1747
(L1944247967L
L0L
(lp1748
(lp1749
tp1750
a(L4269090707L
L0L
(lp1751
(lp1752
tp1753
a(L97689L
L0L
(lp1754
(lp1755
tp1756
a(L3061232074L
L0L
(lp1757
(lp1758
tp1759
a(L3961054089L
L0L
(lp1760
(lp1761
tp1762
a(L1309309703L
L3785322319L
(lp1763
(lp1764
Vesp_rom_spiflash_write
p1765
atp1766
a(L1457684149L
L0L
(lp1767
(lp1768
tp1769
a(L735741265L
L0L
(lp1770
(lp1771
tp1772
atp1773
sI1074238072
(Vbootloader_random_disable
p1774
(lp1775
(L1556825775L
L0L
(lp1776
(lp1777
tp1778
atp1779
sI1074240888
(Vbootloader_util_regions_overlap
p1780
(lp1781
(L2762640130L
L0L
(lp1782
(lp1783
tp1784
a(L3455000357L
L0L
(lp1785
(lp1786
tp1787
a(L591145840L
L3785322319L
(lp1788
(lp1789
V__assert_func
p1790
atp1791
a(L97642L
L0L
(lp1792
(lp1793
tp1794
a(L294748017L
L0L
(lp1795
(lp1796
tp1797
a(L366123053L
L0L
(lp1798
(lp1799
tp1800
a(L2258867228L
L0L
(lp1801
(lp1802
tp1803
a(L1253626734L
L0L
(lp1804
(lp1805
tp1806
a(L2258897019L
L0L
(lp1807
(lp1808
tp1809
a(L3109269495L
L0L
(lp1810
(lp1811
tp1812
atp1813
sI1074244216
(Vrtc_clk_32k_enable_common
p1814
(lp1815
(L1829043071L
L0L
(lp1816
(lp1817
tp1818
a(L97689L
L0L
(lp1819
(lp1820
tp1821
a(L2218417250L
L0L
(lp1822
(lp1823
tp1824
a(L2196549806L
L0L
(lp1825
(lp1826
tp1827
a(L51458058L
L0L
(lp1828
(lp1829
tp1830
atp1831
sI1074237824
(Vbootloader_flash_write
p1832
(lp1833
(L3770380603L
L0L
(lp1834
(lp1835
tp1836
a(L2547417610L
L3785322319L
(lp1837
(lp1838
Vesp_log_early_timestamp
p1839
atp1840
a(L3833270346L
L0L
(lp1841
(lp1842
tp1843
a(L1610445075L
L0L
(lp1844
(lp1845
tp1846
a(L735741265L
L0L
(lp1847
(lp1848
tp1849
a(L3291333414L
L0L
(lp1850
(lp1851
tp1852
a(L3508304306L
L3785322319L
(lp1853
(lp1854
Vesp_log_early_timestamp
p1855
atp1856
a(L3283691850L
L0L
(lp1857
(lp1858
tp1859
a(L1591956746L
L3785322319L
(lp1860
(lp1861
Vesp_log_early_timestamp
p1862
atp1863
a(L3212356251L
L3785322319L
(lp1864
(lp1865
Vbootloader_flash_unlock
p1866
atp1867
a(L1799218633L
L0L
(lp1868
(lp1869
tp1870
a(L94425498L
L3785322319L
(lp1871
(lp1872
Vesp_rom_spiflash_write_encrypted
p1873
atp1874
a(L2927190544L
L3785322319L
(lp1875
(lp1876
Vspi_to_esp_err
p1877
atp1878
a(L2927190544L
L3785322319L
(lp1879
(lp1880
Vesp_rom_spiflash_write
p1881
atp1882
atp1883
sI1074245504
(Vrtc_clk_cpu_freq_set_config
p1884
(lp1885
(L3260862648L
L3785322319L
(lp1886
(lp1887
Vrtc_clk_xtal_freq_get
p1888
atp1889
a(L3020187L
L0L
(lp1890
(lp1891
tp1892
a(L3028464L
L0L
(lp1893
(lp1894
tp1895
a(L264223053L
L1880226080L
(lp1896
(lp1897
Vrtc_clk_cpu_freq_to_xtal
p1898
aVrtc_clk_wait_for_slow_cycle
p1899
atp1900
a(L94425498L
L3785322319L
(lp1901
(lp1902
Vrtc_clk_bbpll_disable
p1903
atp1904
a(L3978916712L
L0L
(lp1905
(lp1906
tp1907
a(L2977209154L
L0L
(lp1908
(lp1909
tp1910
a(L2736411858L
L3785322319L
(lp1911
(lp1912
Vrtc_clk_cpu_freq_to_xtal
p1913
atp1914
a(L3360570486L
L0L
(lp1915
(lp1916
tp1917
a(L3020187L
L0L
(lp1918
(lp1919
tp1920
a(L106L
L0L
(lp1921
(lp1922
tp1923
a(L1643816017L
L1880226080L
(lp1924
(lp1925
Vrtc_clk_wait_for_slow_cycle
p1926
aVrtc_clk_xtal_freq_get
p1927
atp1928
a(L106L
L0L
(lp1929
(lp1930
tp1931
a(L3578784539L
L0L
(lp1932
(lp1933
tp1934
a(L106L
L0L
(lp1935
(lp1936
tp1937
a(L83268611L
L0L
(lp1938
(lp1939
tp1940
a(L106L
L0L
(lp1941
(lp1942
tp1943
a(L82344823L
L0L
(lp1944
(lp1945
tp1946
a(L106L
L0L
(lp1947
(lp1948
tp1949
a(L1274797871L
L0L
(lp1950
(lp1951
tp1952
a(L3425862026L
L0L
(lp1953
(lp1954
tp1955
a(L1401029473L
L1880226080L
(lp1956
(lp1957
Vclk_ll_rtc_slow_get_src
p1958
aVrtc_clk_cpu_freq_to_pll_mhz
p1959
atp1960
a(L3121238206L
L0L
(lp1961
(lp1962
tp1963
a(L83268344L
L0L
(lp1964
(lp1965
tp1966
a(L82345090L
L0L
(lp1967
(lp1968
tp1969
a(L1299628291L
L0L
(lp1970
(lp1971
tp1972
a(L3918030032L
L0L
(lp1973
(lp1974
tp1975
a(L2258807646L
L0L
(lp1976
(lp1977
tp1978
a(L878473564L
L0L
(lp1979
(lp1980
tp1981
a(L2389426015L
L0L
(lp1982
(lp1983
tp1984
a(L1596574736L
L0L
(lp1985
(lp1986
tp1987
a(L2086626670L
L0L
(lp1988
(lp1989
tp1990
a(L1302638456L
L0L
(lp1991
(lp1992
tp1993
a(L810137203L
L0L
(lp1994
(lp1995
tp1996
a(L87353900L
L0L
(lp1997
(lp1998
tp1999
a(L3020187L
L0L
(lp2000
(lp2001
tp2002
a(L106L
L0L
(lp2003
(lp2004
tp2005
a(L2791725429L
L0L
(lp2006
(lp2007
tp2008
atp2009
sI1074242700
(Vesp_partition_table_verify
p2010
(lp2011
(L4221019429L
L0L
(lp2012
(lp2013
tp2014
a(L3612311543L
L0L
(lp2015
(lp2016
tp2017
a(L4090921686L
L0L
(lp2018
(lp2019
tp2020
a(L2910371777L
L0L
(lp2021
(lp2022
tp2023
a(L2810785767L
L0L
(lp2024
(lp2025
tp2026
a(L3360570486L
L0L
(lp2027
(lp2028
tp2029
a(L3190337587L
L0L
(lp2030
(lp2031
tp2032
a(L2069928857L
L0L
(lp2033
(lp2034
tp2035
a(L3020204L
L0L
(lp2036
(lp2037
tp2038
a(L245691717L
L3785322319L
(lp2039
(lp2040
Vesp_log_early_timestamp
p2041
atp2042
a(L552003060L
L3785322319L
(lp2043
(lp2044
Vesp_log_early_timestamp
p2045
atp2046
a(L3432911L
L0L
(lp2047
(lp2048
tp2049
a(L2902417580L
L0L
(lp2050
(lp2051
tp2052
a(L3020204L
L0L
(lp2053
(lp2054
tp2055
a(L1254851474L
L3785322319L
(lp2056
(lp2057
Vesp_log_early_timestamp
p2058
atp2059
a(L2867263840L
L0L
(lp2060
(lp2061
tp2062
a(L2365302570L
L0L
(lp2063
(lp2064
tp2065
a(L2902417580L
L0L
(lp2066
(lp2067
tp2068
a(L245690260L
L3785322319L
(lp2069
(lp2070
Vesp_log_early_timestamp
p2071
atp2072
a(L1305407469L
L0L
(lp2073
(lp2074
tp2075
a(L1167861556L
L0L
(lp2076
(lp2077
tp2078
a(L3914073261L
L0L
(lp2079
(lp2080
tp2081
a(L2910371777L
L0L
(lp2082
(lp2083
tp2084
a(L1235012932L
L0L
(lp2085
(lp2086
tp2087
a(L2167884577L
L3785322319L
(lp2088
(lp2089
Vesp_log_early_timestamp
p2090
atp2091
atp2092
sI1074236812
(Vbootloader_common_ota_select_crc
p2093
(lp2094
(L2530349931L
L0L
(lp2095
(lp2096
tp2097
atp2098
sI1074242184
(Vimage_load
p2099
(lp2100
(L3559420668L
L0L
(lp2101
(lp2102
tp2103
a(L1899869541L
L0L
(lp2104
(lp2105
tp2106
a(L979631281L
L0L
(lp2107
(lp2108
tp2109
a(L1525480527L
L0L
(lp2110
(lp2111
tp2112
a(L1043148059L
L0L
(lp2113
(lp2114
tp2115
a(L2796536461L
L0L
(lp2116
(lp2117
tp2118
a(L219902767L
L3785322319L
(lp2119
(lp2120
Vesp_log_early_timestamp
p2121
atp2122
a(L2068384292L
L0L
(lp2123
(lp2124
tp2125
a(L1968553470L
L3785322319L
(lp2126
(lp2127
Vbootloader_sha256_finish
p2128
atp2129
a(L1721531848L
L0L
(lp2130
(lp2131
tp2132
a(L3225218531L
L0L
(lp2133
(lp2134
tp2135
a(L3802071166L
L0L
(lp2136
(lp2137
tp2138
a(L1301867039L
L3785322319L
(lp2139
(lp2140
Vprocess_image_header
p2141
atp2142
a(L560228796L
L0L
(lp2143
(lp2144
tp2145
a(L4185758499L
L0L
(lp2146
(lp2147
tp2148
a(L1530940255L
L3785322319L
(lp2149
(lp2150
Vprocess_segments
p2151
atp2152
a(L1233227930L
L0L
(lp2153
(lp2154
tp2155
a(L2462932903L
L0L
(lp2156
(lp2157
tp2158
a(L2570888687L
L3785322319L
(lp2159
(lp2160
Vprocess_checksum
p2161
atp2162
a(L425503098L
L3785322319L
(lp2163
(lp2164
Vprocess_appended_hash_and_sig
p2165
atp2166
a(L780930979L
L0L
(lp2167
(lp2168
tp2169
a(L2334355956L
L0L
(lp2170
(lp2171
tp2172
a(L2239981356L
L0L
(lp2173
(lp2174
tp2175
a(L700839140L
L1880226080L
(lp2176
(lp2177
Vbootloader_sha256_finish
p2178
aVbootloader_debug_buffer
p2179
atp2180
a(L2547836173L
L1880226080L
(lp2181
(lp2182
Vesp_log_early_timestamp
p2183
aVbootloader_debug_buffer
p2184
atp2185
a(L1087646176L
L0L
(lp2186
(lp2187
tp2188
a(L2068384292L
L0L
(lp2189
(lp2190
tp2191
a(L3021148818L
L3785322319L
(lp2192
(lp2193
Vbootloader_sha256_finish
p2194
atp2195
a(L3028481L
L0L
(lp2196
(lp2197
tp2198
a(L139701033L
L0L
(lp2199
(lp2200
tp2201
a(L2878111010L
L0L
(lp2202
(lp2203
tp2204
a(L772115669L
L0L
(lp2205
(lp2206
tp2207
a(L2787789065L
L0L
(lp2208
(lp2209
tp2210
a(L85798113L
L0L
(lp2211
(lp2212
tp2213
a(L1351513776L
L0L
(lp2214
(lp2215
tp2216
a(L159346313L
L3785322319L
(lp2217
(lp2218
Vshould_load
p2219
atp2220
a(L4218574503L
L0L
(lp2221
(lp2222
tp2223
a(L3338774213L
L0L
(lp2224
(lp2225
tp2226
a(L3464541874L
L0L
(lp2227
(lp2228
tp2229
a(L3349572949L
L0L
(lp2230
(lp2231
tp2232
a(L2192292519L
L0L
(lp2233
(lp2234
tp2235
a(L106L
L0L
(lp2236
(lp2237
tp2238
a(L26615924L
L0L
(lp2239
(lp2240
tp2241
a(L1299866312L
L0L
(lp2242
(lp2243
tp2244
a(L490060329L
L0L
(lp2245
(lp2246
tp2247
atp2248
sI1074268568
(Vbootloader_common_vddsdio_configure
p2249
(lp2250
(L1829974089L
L3785322319L
(lp2251
(lp2252
Vrtc_vddsdio_get_config
p2253
atp2254
a(L3047969944L
L3785322319L
(lp2255
(lp2256
Vrtc_vddsdio_set_config
p2257
atp2258
a(L3360570486L
L0L
(lp2259
(lp2260
tp2261
atp2262
sI1074269592
(Vbootloader_enable_random
p2263
(lp2264
(L1287383080L
L3785322319L
(lp2265
(lp2266
Vbootloader_random_enable
p2267
atp2268
atp2269
sI1074235796
(Vbootloader_flash_gpio_config
p2270
(lp2271
(L3448878117L
L3785322319L
(lp2272
(lp2273
Vbootloader_common_get_chip_ver_pkg
p2274
atp2275
a(L106L
L0L
(lp2276
(lp2277
tp2278
a(L1998579353L
L0L
(lp2279
(lp2280
tp2281
a(L106L
L0L
(lp2282
(lp2283
tp2284
a(L961479410L
L0L
(lp2285
(lp2286
tp2287
a(L1365162803L
L0L
(lp2288
(lp2289
tp2290
a(L106L
L0L
(lp2291
(lp2292
tp2293
a(L4003626558L
L0L
(lp2294
(lp2295
tp2296
a(L2656511625L
L0L
(lp2297
(lp2298
tp2299
a(L3360570486L
L0L
(lp2300
(lp2301
tp2302
atp2303
sI1074244756
(Vrtc_clk_8m_enabled
p2304
(lp2305
(L1635618594L
L0L
(lp2306
(lp2307
tp2308
atp2309
sI1074238608
(Vtry_load_partition
p2310
(lp2311
(L1898493800L
L0L
(lp2312
(lp2313
tp2314
a(L2454209732L
L3785322319L
(lp2315
(lp2316
Vbootloader_load_image
p2317
atp2318
a(L3360570486L
L0L
(lp2319
(lp2320
tp2321
atp2322
sI1074239120
(Vset_actual_ota_seq
p2323
(lp2324
(L4094723830L
L0L
(lp2325
(lp2326
tp2327
a(L3473028212L
L0L
(lp2328
(lp2329
tp2330
a(L3553024017L
L1832448559L
(lp2331
(lp2332
Vbootloader_common_ota_select_crc
p2333
aVesp_flash_encryption_enabled
p2334
aVbootloader_flash_erase_sector
p2335
atp2336
a(L3383023989L
L3785322319L
(lp2337
(lp2338
Vbootloader_flash_write
p2339
atp2340
a(L3264649066L
L3785322319L
(lp2341
(lp2342
Vesp_log_early_timestamp
p2343
atp2344
a(L3496950L
L0L
(lp2345
(lp2346
tp2347
atp2348
sI1074247056
(Vesp_rom_spiflash_program_page_internal
p2349
(lp2350
(L2569069283L
L0L
(lp2351
(lp2352
tp2353
a(L2258688483L
L0L
(lp2354
(lp2355
tp2356
a(L3360570486L
L0L
(lp2357
(lp2358
tp2359
a(L874487604L
L0L
(lp2360
(lp2361
tp2362
a(L4235661475L
L3785322319L
(lp2363
(lp2364
Vesp_rom_spiflash_wait_idle
p2365
atp2366
a(L1299866312L
L0L
(lp2367
(lp2368
tp2369
a(L3212356251L
L3785322319L
(lp2370
(lp2371
Vesp_rom_spiflash_enable_write
p2372
atp2373
a(L1493157900L
L0L
(lp2374
(lp2375
tp2376
a(L1008842358L
L0L
(lp2377
(lp2378
tp2379
a(L2953702749L
L0L
(lp2380
(lp2381
tp2382
a(L2989032L
L0L
(lp2383
(lp2384
tp2385
a(L1965622133L
L0L
(lp2386
(lp2387
tp2388
a(L3110819530L
L0L
(lp2389
(lp2390
tp2391
a(L1958113242L
L0L
(lp2392
(lp2393
tp2394
a(L106L
L0L
(lp2395
(lp2396
tp2397
a(L3112950080L
L0L
(lp2398
(lp2399
tp2400
a(L1868606439L
L0L
(lp2401
(lp2402
tp2403
a(L1008983749L
L0L
(lp2404
(lp2405
tp2406
a(L1933954923L
L0L
(lp2407
(lp2408
tp2409
a(L1147866918L
L0L
(lp2410
(lp2411
tp2412
a(L3871602522L
L0L
(lp2413
(lp2414
tp2415
atp2416
sI1074235548
(Vbootloader_flash_xmc_startup
p2417
(lp2418
(L2007527597L
L3785322319L
(lp2419
(lp2420
Vis_xmc_chip_strict
p2421
atp2422
a(L2258688482L
L0L
(lp2423
(lp2424
tp2425
a(L3360570486L
L0L
(lp2426
(lp2427
tp2428
a(L251913992L
L3785322319L
(lp2429
(lp2430
Vbootloader_flash_read_sfdp
p2431
atp2432
a(L3093183620L
L267944800L
(lp2433
(lp2434
Vbootloader_execute_flash_command
p2435
aVbootloader_execute_flash_command
p2436
aVbootloader_execute_flash_command
p2437
aVbootloader_execute_flash_command
p2438
aVbootloader_read_flash_id
p2439
aVis_xmc_chip_strict
p2440
atp2441
a(L3994954364L
L3785322319L
(lp2442
(lp2443
Vesp_log_early_timestamp
p2444
atp2445
atp2446
sI1074244508
(Vrtc_clk_bbpll_disable
p2447
(lp2448
(L1007955500L
L0L
(lp2449
(lp2450
tp2451
a(L2472207241L
L0L
(lp2452
(lp2453
tp2454
a(L3360570486L
L0L
(lp2455
(lp2456
tp2457
atp2458
sI1074241432
(Vshould_load
p2459
(lp2460
(L1049568420L
L0L
(lp2461
(lp2462
tp2463
a(L1182990556L
L0L
(lp2464
(lp2465
tp2466
a(L388737285L
L0L
(lp2467
(lp2468
tp2469
a(L2306467100L
L0L
(lp2470
(lp2471
tp2472
a(L524505062L
L0L
(lp2473
(lp2474
tp2475
a(L2258897019L
L0L
(lp2476
(lp2477
tp2478
a(L3781799363L
L0L
(lp2479
(lp2480
tp2481
a(L3028464L
L0L
(lp2482
(lp2483
tp2484
a(L1833574973L
L0L
(lp2485
(lp2486
tp2487
a(L4277114872L
L0L
(lp2488
(lp2489
tp2490
a(L2824381917L
L0L
(lp2491
(lp2492
tp2493
a(L1243412227L
L0L
(lp2494
(lp2495
tp2496
a(L2011157548L
L0L
(lp2497
(lp2498
tp2499
a(L3126521138L
L0L
(lp2500
(lp2501
tp2502
a(L1305407438L
L0L
(lp2503
(lp2504
tp2505
a(L1305407469L
L0L
(lp2506
(lp2507
tp2508
atp2509
sI1074269352
(Vbootloader_flash_update_id
p2510
(lp2511
(L3994864411L
L3785322319L
(lp2512
(lp2513
Vbootloader_read_flash_id
p2514
atp2515
atp2516
sI1074245028
(Vrtc_clk_fast_src_get
p2517
(lp2518
(L3360419488L
L0L
(lp2519
(lp2520
tp2521
atp2522
sI1074269868
(Vrtc_clk_init
p2523
(lp2524
(L3027191313L
L0L
(lp2525
(lp2526
tp2527
a(L42671777L
L3785322319L
(lp2528
(lp2529
Vrtc_clk_cpu_freq_to_xtal
p2530
atp2531
a(L1050335063L
L3785322319L
(lp2532
(lp2533
Vrtc_clk_xtal_freq_get
p2534
atp2535
a(L89029051L
L0L
(lp2536
(lp2537
tp2538
a(L4187693717L
L3785322319L
(lp2539
(lp2540
Vrtc_clk_xtal_freq_estimate
p2541
atp2542
a(L1165738187L
L3785322319L
(lp2543
(lp2544
Vesp_log_early_timestamp
p2545
atp2546
a(L1235539582L
L1157885199L
(lp2547
(lp2548
Vesp_rom_uart_tx_wait_idle
p2549
aVrtc_clk_xtal_freq_update
p2550
aVrtc_clk_apb_freq_update
p2551
aVrtc_clk_cpu_freq_get_config
p2552
aVrtc_clk_cpu_freq_mhz_to_config
p2553
atp2554
a(L1472250234L
L1880226080L
(lp2555
(lp2556
Vesp_log_early_timestamp
p2557
aVabort
p2558
atp2559
a(L3028481L
L0L
(lp2560
(lp2561
tp2562
a(L4070631611L
L3785322319L
(lp2563
(lp2564
Vrtc_clk_xtal_freq_estimate
p2565
atp2566
a(L3368302670L
L3785322319L
(lp2567
(lp2568
Vesp_log_early_timestamp
p2569
atp2570
a(L2242669021L
L3785322319L
(lp2571
(lp2572
Vrtc_clk_cpu_freq_set_config
p2573
atp2574
a(L912310138L
L3785322319L
(lp2575
(lp2576
Vrtc_clk_32k_enable
p2577
atp2578
a(L3191820416L
L1832448559L
(lp2579
(lp2580
Vrtc_clk_8m_enable
p2581
aVrtc_clk_fast_src_set
p2582
aVrtc_clk_slow_src_set
p2583
atp2584
a(L1232958848L
L0L
(lp2585
(lp2586
tp2587
atp2588
sI1074236832
(Vbootloader_common_ota_select_valid
p2589
(lp2590
(L1563399710L
L3785322319L
(lp2591
(lp2592
Vbootloader_common_ota_select_invalid
p2593
atp2594
a(L3814720849L
L3785322319L
(lp2595
(lp2596
Vbootloader_common_ota_select_crc
p2597
atp2598
a(L3360570486L
L0L
(lp2599
(lp2600
tp2601
atp2602
sI1074244000
(Vwdt_hal_write_protect_enable
p2603
(lp2604
(L387778158L
L0L
(lp2605
(lp2606
tp2607
a(L4195472003L
L0L
(lp2608
(lp2609
tp2610
a(L3360570486L
L0L
(lp2611
(lp2612
tp2613
a(L802523425L
L0L
(lp2614
(lp2615
tp2616
atp2617
sI1074269600
(Vbootloader_console_init
p2618
(lp2619
(L3761484553L
L1832448559L
(lp2620
(lp2621
Vesp_rom_uart_tx_wait_idle
p2622
aVrtc_clk_apb_freq_get
p2623
aVesp_rom_uart_set_clock_baudrate
p2624
atp2625
atp2626
sI1074244780
(Vrtc_clk_8md256_enabled
p2627
(lp2628
(L791146723L
L0L
(lp2629
(lp2630
tp2631
atp2632
sI1074242988
(Vwdt_hal_init
p2633
(lp2634
(L451036725L
L0L
(lp2635
(lp2636
tp2637
a(L3747970116L
L0L
(lp2638
(lp2639
tp2640
a(L2805932845L
L0L
(lp2641
(lp2642
tp2643
a(L990556070L
L0L
(lp2644
(lp2645
tp2646
a(L3661820987L
L0L
(lp2647
(lp2648
tp2649
a(L3360570486L
L0L
(lp2650
(lp2651
tp2652
a(L3003609849L
L0L
(lp2653
(lp2654
tp2655
atp2656
sI1074240428
(Vbootloader_console_deinit
p2657
(lp2658
(L211274347L
L0L
(lp2659
(lp2660
tp2661
atp2662
sI1074236588
(Vefuse_hal_chip_revision
p2663
(lp2664
(L2719302832L
L1880226080L
(lp2665
(lp2666
Vefuse_hal_get_major_chip_version
p2667
aVefuse_hal_get_minor_chip_version
p2668
atp2669
atp2670
sI1074237100
(Vbootloader_common_get_active_otadata
p2671
(lp2672
(L3317503532L
L0L
(lp2673
(lp2674
tp2675
a(L2503049265L
L1832448559L
(lp2676
(lp2677
Vbootloader_common_ota_select_valid
p2678
aVbootloader_common_ota_select_valid
p2679
aVbootloader_common_select_otadata
p2680
atp2681
a(L735741265L
L0L
(lp2682
(lp2683
tp2684
atp2685
sI1074268856
(Vbootloader_init_mem
p2686
(lp2687
(L1287383080L
L3785322319L
(lp2688
(lp2689
Vesp_cpu_configure_region_protection
p2690
atp2691
atp2692
sI1074269368
(Vbootloader_clear_bss_section
p2693
(lp2694
(L1035474915L
L0L
(lp2695
(lp2696
tp2697
atp2698
sI1074238388
(Vbootloader_clock_get_rated_freq_mhz
p2699
(lp2700
(L376617603L
L3785322319L
(lp2701
(lp2702
Vefuse_hal_get_rated_freq_mhz
p2703
atp2704
atp2705
sI1074245044
(Vrtc_clk_xtal_freq_get
p2706
(lp2707
(L494606871L
L0L
(lp2708
(lp2709
tp2710
a(L2847936993L
L0L
(lp2711
(lp2712
tp2713
a(L2402598450L
L0L
(lp2714
(lp2715
tp2716
a(L3360570486L
L0L
(lp2717
(lp2718
tp2719
atp2720
sI1074238640
(Vcache_ll_l1_enable_bus
p2721
(lp2722
(L3709595376L
L0L
(lp2723
(lp2724
tp2725
atp2726
sI1074240944
(Vverify_load_addresses
p2727
(lp2728
(L2764487219L
L0L
(lp2729
(lp2730
tp2731
a(L106L
L0L
(lp2732
(lp2733
tp2734
a(L97642L
L0L
(lp2735
(lp2736
tp2737
a(L2235167441L
L3785322319L
(lp2738
(lp2739
V__assert_func
p2740
atp2741
a(L1501529359L
L0L
(lp2742
(lp2743
tp2744
a(L106L
L0L
(lp2745
(lp2746
tp2747
a(L3611123590L
L0L
(lp2748
(lp2749
tp2750
a(L106L
L0L
(lp2751
(lp2752
tp2753
a(L1011603130L
L3785322319L
(lp2754
(lp2755
Vbootloader_util_regions_overlap
p2756
atp2757
a(L3136115638L
L3785322319L
(lp2758
(lp2759
Vbootloader_util_regions_overlap
p2760
atp2761
a(L3028481L
L0L
(lp2762
(lp2763
tp2764
a(L3015387297L
L3785322319L
(lp2765
(lp2766
Vbootloader_util_regions_overlap
p2767
atp2768
a(L3178819057L
L0L
(lp2769
(lp2770
tp2771
a(L164461258L
L0L
(lp2772
(lp2773
tp2774
a(L257599400L
L0L
(lp2775
(lp2776
tp2777
a(L2661576437L
L0L
(lp2778
(lp2779
tp2780
a(L2503437888L
L0L
(lp2781
(lp2782
tp2783
a(L677569396L
L3785322319L
(lp2784
(lp2785
Vverify_load_addresses
p2786
atp2787
a(L1351513776L
L0L
(lp2788
(lp2789
tp2790
a(L3061261803L
L0L
(lp2791
(lp2792
tp2793
a(L2743341656L
L0L
(lp2794
(lp2795
tp2796
a(L3276482861L
L0L
(lp2797
(lp2798
tp2799
a(L2082301726L
L0L
(lp2800
(lp2801
tp2802
a(L4005203510L
L3785322319L
(lp2803
(lp2804
Vbootloader_util_regions_overlap
p2805
atp2806
a(L3028481L
L0L
(lp2807
(lp2808
tp2809
a(L2015525981L
L3785322319L
(lp2810
(lp2811
Vbootloader_util_regions_overlap
p2812
atp2813
a(L1621859327L
L0L
(lp2814
(lp2815
tp2816
a(L1591468573L
L0L
(lp2817
(lp2818
tp2819
a(L3570143626L
L0L
(lp2820
(lp2821
tp2822
a(L3723286975L
L0L
(lp2823
(lp2824
tp2825
a(L307916691L
L0L
(lp2826
(lp2827
tp2828
a(L697239146L
L0L
(lp2829
(lp2830
tp2831
a(L106L
L0L
(lp2832
(lp2833
tp2834
a(L955500233L
L0L
(lp2835
(lp2836
tp2837
a(L307916056L
L0L
(lp2838
(lp2839
tp2840
a(L490080443L
L0L
(lp2841
(lp2842
tp2843
a(L106L
L0L
(lp2844
(lp2845
tp2846
a(L1639055030L
L3785322319L
(lp2847
(lp2848
Vesp_log_early_timestamp
p2849
atp2850
a(L955500109L
L0L
(lp2851
(lp2852
tp2853
a(L1303560427L
L0L
(lp2854
(lp2855
tp2856
atp2857
sI1074244028
(Vwdt_hal_enable
p2858
(lp2859
(L2299130915L
L0L
(lp2860
(lp2861
tp2862
a(L165794138L
L0L
(lp2863
(lp2864
tp2865
a(L3360570486L
L0L
(lp2866
(lp2867
tp2868
a(L2847657174L
L0L
(lp2869
(lp2870
tp2871
atp2872
sI1074240444
(V__assert_func
p2873
(lp2874
(L3015227614L
L0L
(lp2875
(lp2876
tp2877
a(L106L
L0L
(lp2878
(lp2879
tp2880
atp2881
sI1074240696
(Vprocess_image_header
p2882
(lp2883
(L2432076612L
L3785322319L
(lp2884
(lp2885
Vbootloader_flash_read
p2886
atp2887
a(L3020204L
L0L
(lp2888
(lp2889
tp2890
a(L4130667142L
L0L
(lp2891
(lp2892
tp2893
a(L3131381282L
L0L
(lp2894
(lp2895
tp2896
a(L1161397362L
L3785322319L
(lp2897
(lp2898
Vbootloader_sha256_start
p2899
atp2900
a(L1948257695L
L3785322319L
(lp2901
(lp2902
Vbootloader_sha256_data
p2903
atp2904
a(L1095449651L
L0L
(lp2905
(lp2906
tp2907
a(L3020204L
L0L
(lp2908
(lp2909
tp2910
a(L702738166L
L0L
(lp2911
(lp2912
tp2913
a(L3360570486L
L0L
(lp2914
(lp2915
tp2916
a(L1956156063L
L3785322319L
(lp2917
(lp2918
Vesp_log_early_timestamp
p2919
atp2920
a(L3718883008L
L3785322319L
(lp2921
(lp2922
Vbootloader_common_check_chip_validity
p2923
atp2924
a(L3677035427L
L0L
(lp2925
(lp2926
tp2927
a(L3028481L
L0L
(lp2928
(lp2929
tp2930
a(L1066470238L
L3785322319L
(lp2931
(lp2932
Vesp_log_early_timestamp
p2933
atp2934
a(L2250109166L
L0L
(lp2935
(lp2936
tp2937
a(L1235012870L
L0L
(lp2938
(lp2939
tp2940
a(L3063569071L
L0L
(lp2941
(lp2942
tp2943
atp2944
sI1074236612
(Vefuse_hal_get_major_chip_version
p2945
(lp2946
(L1638136297L
L0L
(lp2947
(lp2948
tp2949
a(L894792960L
L0L
(lp2950
(lp2951
tp2952
a(L3783348505L
L0L
(lp2953
(lp2954
tp2955
a(L3360570486L
L0L
(lp2956
(lp2957
tp2958
atp2959
sI1074236868
(Vbootloader_common_check_chip_validity
p2960
(lp2961
(L392423210L
L0L
(lp2962
(lp2963
tp2964
a(L241761751L
L3785322319L
(lp2965
(lp2966
Vesp_log_early_timestamp
p2967
atp2968
a(L522103407L
L3785322319L
(lp2969
(lp2970
Vefuse_hal_chip_revision
p2971
atp2972
a(L106L
L0L
(lp2973
(lp2974
tp2975
a(L4098603684L
L0L
(lp2976
(lp2977
tp2978
a(L3320960775L
L3785322319L
(lp2979
(lp2980
Vesp_log_early_timestamp
p2981
atp2982
a(L3028464L
L0L
(lp2983
(lp2984
tp2985
a(L1397322129L
L0L
(lp2986
(lp2987
tp2988
a(L3021749L
L0L
(lp2989
(lp2990
tp2991
a(L3463022021L
L3785322319L
(lp2992
(lp2993
Vesp_log_early_timestamp
p2994
atp2995
a(L1299867982L
L0L
(lp2996
(lp2997
tp2998
a(L3360570486L
L0L
(lp2999
(lp3000
tp3001
atp3002
sI1074244804
(Vrtc_clk_slow_src_set
p3003
(lp3004
(L540459879L
L0L
(lp3005
(lp3006
tp3007
a(L3020187L
L0L
(lp3008
(lp3009
tp3010
a(L3028481L
L0L
(lp3011
(lp3012
tp3013
a(L487821223L
L0L
(lp3014
(lp3015
tp3016
a(L3164699159L
L0L
(lp3017
(lp3018
tp3019
a(L1851908495L
L0L
(lp3020
(lp3021
tp3022
a(L2729394930L
L0L
(lp3023
(lp3024
tp3025
a(L3138544334L
L0L
(lp3026
(lp3027
tp3028
a(L94425498L
L3785322319L
(lp3029
(lp3030
Vabort
p3031
atp3032
atp3033
sI1074245316
(Vrtc_clk_xtal_freq_update
p3034
(lp3035
(L328668897L
L0L
(lp3036
(lp3037
tp3038
a(L3509357017L
L0L
(lp3039
(lp3040
tp3041
a(L2266180931L
L0L
(lp3042
(lp3043
tp3044
atp3045
sI1074248388
(V_fini
p3046
(lp3047
(L3493042598L
L0L
(lp3048
(lp3049
tp3050
atp3051
sI1074238400
(Vlog_invalid_app_partition
p3052
(lp3053
(L3521327925L
L0L
(lp3054
(lp3055
tp3056
a(L3028464L
L0L
(lp3057
(lp3058
tp3059
a(L464326025L
L3785322319L
(lp3060
(lp3061
Vesp_log_early_timestamp
p3062
atp3063
a(L3833270346L
L0L
(lp3064
(lp3065
tp3066
a(L3360570486L
L0L
(lp3067
(lp3068
tp3069
a(L4216513345L
L3785322319L
(lp3070
(lp3071
Vesp_log_early_timestamp
p3072
atp3073
a(L1654679790L
L3785322319L
(lp3074
(lp3075
Vesp_log_early_timestamp
p3076
atp3077
atp3078
sI1074268864
(Vbootloader_random_enable
p3079
(lp3080
(L2481830133L
L0L
(lp3081
(lp3082
tp3083
atp3084
sI1074246860
(Vesp_rom_spiflash_read_status
p3085
(lp3086
(L2938520357L
L0L
(lp3087
(lp3088
tp3089
a(L1182811815L
L0L
(lp3090
(lp3091
tp3092
a(L3767893221L
L0L
(lp3093
(lp3094
tp3095
a(L106L
L0L
(lp3096
(lp3097
tp3098
a(L3778204656L
L0L
(lp3099
(lp3100
tp3101
a(L3274807848L
L0L
(lp3102
(lp3103
tp3104
a(L2123059967L
L0L
(lp3105
(lp3106
tp3107
a(L3146966332L
L0L
(lp3108
(lp3109
tp3110
a(L2392720019L
L0L
(lp3111
(lp3112
tp3113
atp3114
sI1074269636
(Vesp_cpu_configure_region_protection
p3115
(lp3116
(L2370813982L
L0L
(lp3117
(lp3118
tp3119
a(L180431425L
L3785322319L
(lp3120
(lp3121
Vmpu_hal_set_region_access
p3122
atp3123
a(L2537388152L
L3785322319L
(lp3124
(lp3125
Vmpu_hal_set_region_access
p3126
atp3127
atp3128
sI1074239432
(Vbootloader_utility_get_selected_boot_partition
p3129
(lp3130
(L2803238495L
L0L
(lp3131
(lp3132
tp3133
a(L1299867982L
L0L
(lp3134
(lp3135
tp3136
a(L3360570486L
L0L
(lp3137
(lp3138
tp3139
a(L3281482558L
L0L
(lp3140
(lp3141
tp3142
a(L3121032705L
L3785322319L
(lp3143
(lp3144
Vesp_log_early_timestamp
p3145
atp3146
a(L1726674248L
L0L
(lp3147
(lp3148
tp3149
a(L1375577398L
L3785322319L
(lp3150
(lp3151
Vbootloader_mmap
p3152
atp3153
a(L63610766L
L3785322319L
(lp3154
(lp3155
Vesp_log_early_timestamp
p3156
atp3157
a(L3101389472L
L1880226080L
(lp3158
(lp3159
Vbootloader_munmap
p3160
aVbootloader_common_ota_select_invalid
p3161
atp3162
a(L1103573946L
L0L
(lp3163
(lp3164
tp3165
a(L1876827316L
L3785322319L
(lp3166
(lp3167
Vbootloader_common_get_active_otadata
p3168
atp3169
a(L569346373L
L0L
(lp3170
(lp3171
tp3172
a(L3111084448L
L3785322319L
(lp3173
(lp3174
Vbootloader_common_ota_select_invalid
p3175
atp3176
a(L45272527L
L0L
(lp3177
(lp3178
tp3179
a(L847230968L
L0L
(lp3180
(lp3181
tp3182
a(L505081345L
L0L
(lp3183
(lp3184
tp3185
a(L919052234L
L3785322319L
(lp3186
(lp3187
Vbootloader_common_ota_select_crc
p3188
atp3189
a(L2287680455L
L0L
(lp3190
(lp3191
tp3192
a(L3542558037L
L3785322319L
(lp3193
(lp3194
Vbootloader_common_ota_select_crc
p3195
atp3196
a(L1299866312L
L0L
(lp3197
(lp3198
tp3199
a(L1849240841L
L0L
(lp3200
(lp3201
tp3202
a(L2152820954L
L3785322319L
(lp3203
(lp3204
Vesp_log_early_timestamp
p3205
atp3206
a(L2867263840L
L0L
(lp3207
(lp3208
tp3209
a(L4142632780L
L3785322319L
(lp3210
(lp3211
Vesp_log_early_timestamp
p3212
atp3213
atp3214
sI1074237140
(Vbootloader_common_ota_select_invalid
p3215
(lp3216
(L4027567199L
L0L
(lp3217
(lp3218
tp3219
a(L3397985842L
L0L
(lp3220
(lp3221
tp3222
a(L2258867228L
L0L
(lp3223
(lp3224
tp3225
a(L3785235668L
L0L
(lp3226
(lp3227
tp3228
atp3229
sI1074240468
(Vabort
p3230
(lp3231
(L2210763366L
L0L
(lp3232
(lp3233
tp3234
a(L409471316L
L0L
(lp3235
(lp3236
tp3237
a(L106L
L0L
(lp3238
(lp3239
tp3240
atp3241
sI1074247636
(Vesp_rom_spiflash_read
p3242
(lp3243
(L2741398415L
L0L
(lp3244
(lp3245
tp3246
a(L613499863L
L0L
(lp3247
(lp3248
tp3249
a(L340311750L
L0L
(lp3250
(lp3251
tp3252
a(L2355528925L
L0L
(lp3253
(lp3254
tp3255
a(L106L
L0L
(lp3256
(lp3257
tp3258
a(L633884026L
L0L
(lp3259
(lp3260
tp3261
a(L106L
L0L
(lp3262
(lp3263
tp3264
a(L1888794130L
L0L
(lp3265
(lp3266
tp3267
a(L1180742176L
L0L
(lp3268
(lp3269
tp3270
a(L391414589L
L0L
(lp3271
(lp3272
tp3273
a(L336550648L
L0L
(lp3274
(lp3275
tp3276
a(L834617250L
L0L
(lp3277
(lp3278
tp3279
a(L106L
L0L
(lp3280
(lp3281
tp3282
a(L2814283516L
L3785322319L
(lp3283
(lp3284
Vesp_rom_spiflash_wait_idle
p3285
atp3286
a(L3021737L
L0L
(lp3287
(lp3288
tp3289
a(L106L
L0L
(lp3290
(lp3291
tp3292
a(L1868280504L
L0L
(lp3293
(lp3294
tp3295
a(L106L
L0L
(lp3296
(lp3297
tp3298
a(L4039408969L
L0L
(lp3299
(lp3300
tp3301
a(L1221163038L
L0L
(lp3302
(lp3303
tp3304
a(L4122060822L
L0L
(lp3305
(lp3306
tp3307
a(L3654636374L
L0L
(lp3308
(lp3309
tp3310
a(L2989032L
L0L
(lp3311
(lp3312
tp3313
a(L3819849625L
L0L
(lp3314
(lp3315
tp3316
a(L2709531898L
L0L
(lp3317
(lp3318
tp3319
a(L1408515512L
L0L
(lp3320
(lp3321
tp3322
a(L3901822029L
L0L
(lp3323
(lp3324
tp3325
a(L3199016147L
L0L
(lp3326
(lp3327
tp3328
a(L2921907736L
L0L
(lp3329
(lp3330
tp3331
a(L4023125337L
L0L
(lp3332
(lp3333
tp3334
a(L1010694601L
L0L
(lp3335
(lp3336
tp3337
a(L1205497444L
L0L
(lp3338
(lp3339
tp3340
a(L965017001L
L0L
(lp3341
(lp3342
tp3343
a(L781550816L
L0L
(lp3344
(lp3345
tp3346
a(L2687789892L
L0L
(lp3347
(lp3348
tp3349
a(L1405253496L
L0L
(lp3350
(lp3351
tp3352
a(L2880310901L
L0L
(lp3353
(lp3354
tp3355
a(L97689L
L0L
(lp3356
(lp3357
tp3358
a(L1183020347L
L0L
(lp3359
(lp3360
tp3361
a(L4014024819L
L0L
(lp3362
(lp3363
tp3364
a(L3621567083L
L0L
(lp3365
(lp3366
tp3367
atp3368
sI1074268624
(Vbootloader_clock_configure
p3369
(lp3370
(L2559598596L
L1880226080L
(lp3371
(lp3372
Vesp_rom_uart_tx_wait_idle
p3373
aVefuse_hal_chip_revision
p3374
atp3375
a(L377556189L
L0L
(lp3376
(lp3377
tp3378
a(L883406775L
L0L
(lp3379
(lp3380
tp3381
a(L106L
L0L
(lp3382
(lp3383
tp3384
a(L4055587691L
L1832448559L
(lp3385
(lp3386
Vrtc_clk_slow_src_get
p3387
aVrtc_clk_fast_src_get
p3388
aVrtc_clk_init
p3389
atp3390
a(L2555738642L
L0L
(lp3391
(lp3392
tp3393
a(L1660176588L
L3785322319L
(lp3394
(lp3395
Vrtc_clk_apb_freq_get
p3396
atp3397
a(L106L
L0L
(lp3398
(lp3399
tp3400
a(L106L
L0L
(lp3401
(lp3402
tp3403
atp3404
sI1074269392
(Vbootloader_read_bootloader_header
p3405
(lp3406
(L2653072919L
L3785322319L
(lp3407
(lp3408
Vbootloader_flash_read
p3409
atp3410
a(L740409177L
L3785322319L
(lp3411
(lp3412
Vesp_log_early_timestamp
p3413
atp3414
a(L735741265L
L0L
(lp3415
(lp3416
tp3417
atp3418
sI1074239708
(Vbootloader_reset
p3419
(lp3420
(L1040804570L
L3785322319L
(lp3421
(lp3422
Vbootloader_console_deinit
p3423
atp3424
a(L106L
L0L
(lp3425
(lp3426
tp3427
atp3428
sI1074245084
(Vrtc_clk_cpu_freq_mhz_to_config
p3429
(lp3430
(L908718885L
L3785322319L
(lp3431
(lp3432
Vrtc_clk_xtal_freq_get
p3433
atp3434
a(L60460069L
L0L
(lp3435
(lp3436
tp3437
a(L3802072124L
L0L
(lp3438
(lp3439
tp3440
a(L3159006042L
L0L
(lp3441
(lp3442
tp3443
a(L3360570486L
L0L
(lp3444
(lp3445
tp3446
a(L895147205L
L0L
(lp3447
(lp3448
tp3449
a(L3970036657L
L0L
(lp3450
(lp3451
tp3452
a(L2731353429L
L0L
(lp3453
(lp3454
tp3455
a(L1555485793L
L0L
(lp3456
(lp3457
tp3458
a(L2258897023L
L0L
(lp3459
(lp3460
tp3461
a(L1947499251L
L0L
(lp3462
(lp3463
tp3464
a(L1306331021L
L0L
(lp3465
(lp3466
tp3467
atp3468
sI1074244568
(Vrtc_clk_32k_enable
p3469
(lp3470
(L753387299L
L0L
(lp3471
(lp3472
tp3473
a(L3776007933L
L3785322319L
(lp3474
(lp3475
Vrtc_clk_32k_enable_common
p3476
atp3477
a(L3496950L
L0L
(lp3478
(lp3479
tp3480
a(L3974686761L
L0L
(lp3481
(lp3482
tp3483
atp3484
sI1074247384
(Vesp_rom_spiflash_write
p3485
(lp3486
(L1137910083L
L0L
(lp3487
(lp3488
tp3489
a(L2258688483L
L0L
(lp3490
(lp3491
tp3492
a(L3360570486L
L0L
(lp3493
(lp3494
tp3495
a(L3368132847L
L0L
(lp3496
(lp3497
tp3498
a(L3106685981L
L0L
(lp3499
(lp3500
tp3501
a(L3488660639L
L3785322319L
(lp3502
(lp3503
Vesp_rom_spiflash_program_page_internal
p3504
atp3505
a(L3543402353L
L3785322319L
(lp3506
(lp3507
Vesp_rom_spiflash_program_page_internal
p3508
atp3509
a(L4222526342L
L0L
(lp3510
(lp3511
tp3512
a(L2004208511L
L0L
(lp3513
(lp3514
tp3515
a(L564470656L
L0L
(lp3516
(lp3517
tp3518
a(L2988842384L
L3785322319L
(lp3519
(lp3520
Vesp_rom_spiflash_program_page_internal
p3521
atp3522
a(L2302069176L
L0L
(lp3523
(lp3524
tp3525
atp3526
sI1074238692
(Vcache_ll_l1_enable_bus
p3527
(lp3528
(L3703586533L
L0L
(lp3529
(lp3530
tp3531
atp3532
sI1074267628
(Vcall_start_cpu0
p3533
(lp3534
(L1137852827L
L0L
(lp3535
(lp3536
tp3537
a(L549459388L
L0L
(lp3538
(lp3539
tp3540
a(L3212347974L
L3785322319L
(lp3541
(lp3542
Vbootloader_init
p3543
atp3544
a(L94425498L
L3785322319L
(lp3545
(lp3546
Vbootloader_reset
p3547
atp3548
a(L1122046408L
L0L
(lp3549
(lp3550
tp3551
a(L4099474112L
L0L
(lp3552
(lp3553
tp3554
a(L3015046664L
L3785322319L
(lp3555
(lp3556
Vbootloader_utility_load_partition_table
p3557
atp3558
a(L2761094216L
L3785322319L
(lp3559
(lp3560
Vesp_log_early_timestamp
p3561
atp3562
a(L405422123L
L3785322319L
(lp3563
(lp3564
Vbootloader_utility_get_selected_boot_partition
p3565
atp3566
a(L2055385849L
L3785322319L
(lp3567
(lp3568
Vbootloader_utility_load_boot_image
p3569
atp3570
atp3571
sI1074234604
(Vesp_flash_encryption_enabled
p3572
(lp3573
(L2932383536L
L0L
(lp3574
(lp3575
tp3576
a(L2910371777L
L0L
(lp3577
(lp3578
tp3579
a(L3360570486L
L0L
(lp3580
(lp3581
tp3582
a(L3016870L
L0L
(lp3583
(lp3584
tp3585
a(L3745038218L
L0L
(lp3586
(lp3587
tp3588
a(L957607403L
L0L
(lp3589
(lp3590
tp3591
atp3592
sI1074239980
(Vindex_to_partition
p3593
(lp3594
(L4066096119L
L0L
(lp3595
(lp3596
tp3597
a(L1739185955L
L0L
(lp3598
(lp3599
tp3600
a(L2171552758L
L0L
(lp3601
(lp3602
tp3603
a(L2808906342L
L0L
(lp3604
(lp3605
tp3606
a(L2101481936L
L0L
(lp3607
(lp3608
tp3609
a(L3698927993L
L0L
(lp3610
(lp3611
tp3612
a(L2808826781L
L0L
(lp3613
(lp3614
tp3615
a(L3003398163L
L0L
(lp3616
(lp3617
tp3618
a(L2880709161L
L0L
(lp3619
(lp3620
tp3621
a(L1087646172L
L0L
(lp3622
(lp3623
tp3624
atp3625
sI1074240232
(Vbootloader_sha256_finish
p3626
(lp3627
(L4066096136L
L0L
(lp3628
(lp3629
tp3630
a(L1918014298L
L0L
(lp3631
(lp3632
tp3633
a(L3627025138L
L3785322319L
(lp3634
(lp3635
V__assert_func
p3636
atp3637
a(L3020204L
L0L
(lp3638
(lp3639
tp3640
a(L1140538619L
L0L
(lp3641
(lp3642
tp3643
a(L2534656226L
L0L
(lp3644
(lp3645
tp3646
a(L2746554839L
L3785322319L
(lp3647
(lp3648
Vbootloader_sha256_data
p3649
atp3650
a(L2437171593L
L0L
(lp3651
(lp3652
tp3653
a(L770086497L
L3785322319L
(lp3654
(lp3655
Vbootloader_sha256_data
p3656
atp3657
a(L2482436287L
L0L
(lp3658
(lp3659
tp3660
a(L657425439L
L0L
(lp3661
(lp3662
tp3663
a(L3971462626L
L0L
(lp3664
(lp3665
tp3666
a(L657425439L
L0L
(lp3667
(lp3668
tp3669
a(L1808515429L
L0L
(lp3670
(lp3671
tp3672
a(L4004422193L
L0L
(lp3673
(lp3674
tp3675
a(L3347778L
L0L
(lp3676
(lp3677
tp3678
a(L3360570486L
L0L
(lp3679
(lp3680
tp3681
atp3682
sI1074235124
(Vbootloader_execute_flash_command
p3683
(lp3684
(L2481595632L
L3785322319L
(lp3685
(lp3686
Vbootloader_flash_execute_command_common
p3687
atp3688
atp3689
sI1074239220
(Vbootloader_utility_load_partition_table
p3690
(lp3691
(L3128219304L
L3785322319L
(lp3692
(lp3693
Vbootloader_mmap
p3694
atp3695
a(L770149735L
L3785322319L
(lp3696
(lp3697
Vesp_log_early_timestamp
p3698
atp3699
a(L2258688482L
L0L
(lp3700
(lp3701
tp3702
a(L3360570486L
L0L
(lp3703
(lp3704
tp3705
a(L255479872L
L3785322319L
(lp3706
(lp3707
Vesp_partition_table_verify
p3708
atp3709
a(L1224062835L
L0L
(lp3710
(lp3711
tp3712
a(L3761768803L
L0L
(lp3713
(lp3714
tp3715
a(L2311047843L
L3785322319L
(lp3716
(lp3717
Vbootloader_munmap
p3718
atp3719
a(L3398923045L
L3785322319L
(lp3720
(lp3721
Vesp_log_early_timestamp
p3722
atp3723
a(L3927622121L
L0L
(lp3724
(lp3725
tp3726
a(L3020187L
L0L
(lp3727
(lp3728
tp3729
a(L1532853611L
L0L
(lp3730
(lp3731
tp3732
a(L1036489382L
L0L
(lp3733
(lp3734
tp3735
a(L3020187L
L0L
(lp3736
(lp3737
tp3738
a(L475586725L
L0L
(lp3739
(lp3740
tp3741
a(L529263765L
L0L
(lp3742
(lp3743
tp3744
a(L775434204L
L0L
(lp3745
(lp3746
tp3747
a(L3579705151L
L0L
(lp3748
(lp3749
tp3750
a(L2387139071L
L0L
(lp3751
(lp3752
tp3753
a(L1599920163L
L0L
(lp3754
(lp3755
tp3756
atp3757
sI1074269436
(Vbootloader_check_bootloader_validity
p3758
(lp3759
(L1977038998L
L1880226080L
(lp3760
(lp3761
Vefuse_hal_chip_revision
p3762
aVbootloader_common_check_chip_validity
p3763
atp3764
atp3765
sI1074237168
(Vbootloader_common_select_otadata
p3766
(lp3767
(L4071767857L
L0L
(lp3768
(lp3769
tp3770
a(L1999329187L
L0L
(lp3771
(lp3772
tp3773
a(L3846398843L
L0L
(lp3774
(lp3775
tp3776
a(L2501968171L
L0L
(lp3777
(lp3778
tp3779
a(L3360570486L
L0L
(lp3780
(lp3781
tp3782
a(L2045232488L
L0L
(lp3783
(lp3784
tp3785
a(L1243525916L
L0L
(lp3786
(lp3787
tp3788
a(L3094144427L
L0L
(lp3789
(lp3790
tp3791
a(L2399509845L
L0L
(lp3792
(lp3793
tp3794
a(L1641201884L
L0L
(lp3795
(lp3796
tp3797
atp3798
sI1074245360
(Vrtc_clk_apb_freq_update
p3799
(lp3800
(L648133901L
L0L
(lp3801
(lp3802
tp3803
atp3804
sI1074239740
(Vbootloader_utility_load_boot_image
p3805
(lp3806
(L3385398614L
L0L
(lp3807
(lp3808
tp3809
a(L2177418995L
L3785322319L
(lp3810
(lp3811
Vtry_load_partition
p3812
atp3813
a(L1305243774L
L3785322319L
(lp3814
(lp3815
Vload_image
p3816
atp3817
a(L299665327L
L3785322319L
(lp3818
(lp3819
Vesp_log_early_timestamp
p3820
atp3821
a(L3827921190L
L3785322319L
(lp3822
(lp3823
Vbootloader_reset
p3824
atp3825
a(L1953693036L
L3785322319L
(lp3826
(lp3827
Vindex_to_partition
p3828
atp3829
a(L1204373741L
L3785322319L
(lp3830
(lp3831
Vtry_load_partition
p3832
atp3833
a(L1899865696L
L0L
(lp3834
(lp3835
tp3836
a(L2695355117L
L3785322319L
(lp3837
(lp3838
Vset_actual_ota_seq
p3839
atp3840
a(L1868897605L
L3785322319L
(lp3841
(lp3842
Vlog_invalid_app_partition
p3843
atp3844
a(L831650730L
L0L
(lp3845
(lp3846
tp3847
a(L3021737L
L0L
(lp3848
(lp3849
tp3850
a(L695456438L
L0L
(lp3851
(lp3852
tp3853
a(L1148002536L
L3785322319L
(lp3854
(lp3855
Vtry_load_partition
p3856
atp3857
a(L2590723623L
L3785322319L
(lp3858
(lp3859
Vesp_log_early_timestamp
p3860
atp3861
a(L2347390157L
L3785322319L
(lp3862
(lp3863
Vindex_to_partition
p3864
atp3865
a(L1204373741L
L3785322319L
(lp3866
(lp3867
Vtry_load_partition
p3868
atp3869
a(L3061261803L
L0L
(lp3870
(lp3871
tp3872
a(L3582858798L
L3785322319L
(lp3873
(lp3874
Vlog_invalid_app_partition
p3875
atp3876
a(L3663038107L
L3785322319L
(lp3877
(lp3878
Vesp_log_early_timestamp
p3879
atp3880
atp3881
sI1074236412
(Vbootloader_common_get_chip_ver_pkg
p3882
(lp3883
(L183333409L
L0L
(lp3884
(lp3885
tp3886
atp3887
sI1074269684
(Vrtc_clk_xtal_freq_estimate
p3888
(lp3889
(L3845076426L
L1880226080L
(lp3890
(lp3891
Vrtc_clk_8m_enabled
p3892
aVrtc_clk_8md256_enabled
p3893
atp3894
a(L2449794434L
L3785322319L
(lp3895
(lp3896
Vrtc_clk_8m_enable
p3897
atp3898
a(L293008461L
L3785322319L
(lp3899
(lp3900
Vrtc_clk_cal_ratio
p3901
atp3902
a(L1894802584L
L0L
(lp3903
(lp3904
tp3905
a(L1915120046L
L0L
(lp3906
(lp3907
tp3908
a(L2740879690L
L0L
(lp3909
(lp3910
tp3911
a(L1059750288L
L3785322319L
(lp3912
(lp3913
Vrtc_clk_8m_enable
p3914
atp3915
a(L3401468681L
L3785322319L
(lp3916
(lp3917
Vesp_log_early_timestamp
p3918
atp3919
a(L2894376164L
L0L
(lp3920
(lp3921
tp3922
a(L1641150486L
L0L
(lp3923
(lp3924
tp3925
a(L2507662435L
L3785322319L
(lp3926
(lp3927
Vesp_log_early_timestamp
p3928
atp3929
a(L2081406323L
L3785322319L
(lp3930
(lp3931
Vesp_log_early_timestamp
p3932
atp3933
atp3934
ssS'functionsdups'
p3935
g11
((lp3936
tp3937
Rp3938
sS'immediatedups'
p3939
g11
((lp3940
tp3941
Rp3942
sS'functiondups'
p3943
g11
((lp3944
tp3945
Rp3946
sS'fuzzy'
p3947
(dp3948
L438947497L
I1074244804
sL2170867428L
I1074269868
sL617583950L
I1074236868
sL430153639L
I1074235796
sL3121027072L
I1074270304
sL2082889262L
I1074241340
sL291131346L
I1074244352
sL835568324L
I1074246232
sL1340445289L
I1074235548
sL2919016435L
I1074235156
sL16208487L
I1074234644
sL2319042089L
I1074244936
sL1907123383L
I1074238744
sL3881399234L
I1074245388
sL151789201L
I1074269684
sL1419132215L
I1074237992
sL2469233929L
I1074240232
sL701833459L
I1074268624
sL2475522855L
I1074269600
sL3897252859L
I1074238400
sL1065525808L
I1074236708
sL1766137975L
I1074238608
sL2327783177L
I1074240524
sL2272466760L
I1074245176
sL2117292686L
I1074240944
sL1188065553L
I1074237552
sL1415908896L
I1074241560
sL94556391L
I1074244964
sL3210669721L
I1074244568
sL1332800441L
I1074237100
sL2884218272L
I1074267736
sL1345429244L
I1074240696
sL3190020590L
I1074242184
sL477634984L
I1074267956
sL4160102055L
I1074239708
sL4202185385L
I1074246948
sL1768086576L
I1074236264
sL4171975289L
I1074247248
sL1565254297L
I1074247548
sL1205407754L
I1074239740
sL2191698036L
I1074269464
sL1635528231L
I1074243584
sL519424169L
I1074246700
sL1060788199L
I1074245084
sL4006207895L
I1074239120
sL406720601L
I1074238484
sL737694352L
I1074247056
sL503029138L
I1074246996
sL1616763831L
I1074247636
sL2262558768L
I1074246860
sL424867129L
I1074247384
sL3834155367L
I1074240888
sL2405032630L
I1074267628
sL3338518926L
I1074237276
sL1299206787L
I1074239220
sL2123938668L
I1074245504
sL3883282432L
I1074241432
sL4173399607L
I1074242700
sL4278077574L
I1074239432
sL1667054119L
I1074240076
sL206902443L
I1074237824
ssb.