ccopy_reg
_reconstructor
p0
(crizzo
RizzoSignature
p1
c__builtin__
object
p2
Ntp3
Rp4
(dp5
S'formal'
p6
(dp7
L2005196428L
I1074245524
sL1741170115L
I1074238000
sL2087186284L
I1074236412
sL1913647619L
I1074269948
sL3984280162L
I1074244504
sL3746738248L
I1074239392
sL2628804010L
I1074270872
sL4213015302L
I1074243292
sL461860251L
I1074247312
sL286550283L
I1074270016
sL3976424482L
I1074234712
sL552298442L
I1074235280
sL2767810776L
I1074238020
sL2771134728L
I1074240200
sL2326361228L
I1074269368
sL2702580795L
I1074237376
sL2610420647L
I1074269792
sL2896295319L
I1074236900
sL25479346L
I1074240680
sL438696979L
I1074269920
sL1123431371L
I1074239512
sL1331791455L
I1074245616
sL1674148343L
I1074245672
sL1786019146L
I1074247680
sL4023292303L
I1074237452
sL3256726111L
I1074248008
sL658646528L
I1074268060
sL2485902447L
I1074236740
sL723138898L
I1074238180
sL424336643L
I1074269656
sL366218909L
I1074270052
sL368505532L
I1074245948
sL848906711L
I1074248172
sL353716291L
I1074244704
sL1585823442L
I1074244604
sL1622896354L
I1074244632
sL3092620558L
I1074235680
sL2521269785L
I1074236980
sL730944497L
I1074239876
sL2189223198L
I1074240440
sL3580313603L
I1074241944
sL2493713350L
I1074245380
sL183144L
I1074238844
sL2930276314L
I1074235832
sL4161584248L
I1074268568
sL4175577751L
I1074244752
sL2723725103L
I1074240876
sL1633709340L
I1074245356
sL2813809866L
I1074236764
sL2366387314L
I1074270720
sL1330922710L
I1074246816
sL1731035566L
I1074236576
sL676927194L
I1074268856
sL244922653L
I1074242812
sL2691843063L
I1074245976
sL3307282855L
I1074238160
sL127813144L
I1074243576
sL2834351222L
I1074244924
sL3065846068L
I1074235580
sL3553146178L
I1074267728
sL2195669076L
I1074245332
sL357647324L
I1074268864
sL3361686224L
I1074268624
sL3042952135L
I1074267720
sL3721992006L
I1074240892
sL1160735408L
I1074242072
sL1662035087L
I1074267836
sL3041505513L
I1074237484
sL4038945309L
I1074235632
sL1435968304L
I1074244788
sL4178015136L
I1074247480
sL1992104215L
I1074236872
sL1112935418L
I1074234756
sL4020657674L
I1074246088
sL2931540503L
I1074247624
sL1382567621L
I1074238236
sL105563623L
I1074240512
sL2997001746L
I1074237308
sL59949349L
I1074241140
sL1087228788L
I1074238996
sL76756778L
I1074240972
sL556795273L
I1074269724
sL2819127986L
I1074237032
sL3195929028L
I1074240176
sL3024810484L
I1074270276
sL1481764497L
I1074237012
sL1877634603L
I1074270944
sL2687718384L
I1074243308
sL2789355142L
I1074244188
sL1098683832L
I1074245144
sL3015462521L
I1074238644
sL3066643969L
I1074247280
sL886840080L
I1074237068
sL2062758462L
I1074236804
sL1347401601L
I1074240532
sL2248158928L
I1074238316
sL660825523L
I1074245204
sL3362774716L
I1074236660
sL3338519854L
I1074245904
sL2195659785L
I1074245552
sL540472814L
I1074247872
sL2263182908L
I1074238228
sL965583188L
I1074245764
sL114336524L
I1074269680
sL282668036L
I1074244536
sL963291061L
I1074248260
sL3630163135L
I1074236888
sL188664287L
I1074235248
sL2743385701L
I1074269352
sL2404540336L
I1074245496
sL2485146564L
I1074240916
sL692536993L
I1074237348
sL822000404L
I1074245632
sL921639684L
I1074235944
sL235684320L
I1074237744
sL3364903294L
I1074247576
sL675504051L
I1074236560
sL1817360290L
I1074241384
sL917018201L
I1074236972
sL237904351L
I1074241328
sL2758712477L
I1074241856
sL309068699L
I1074245084
sL1140246287L
I1074246772
sL2570362575L
I1074238728
sL3958998789L
I1074237692
sL4029637072L
I1074270100
ssS'immediates'
p8
(dp9
sS'formaldups'
p10
c__builtin__
set
p11
((lp12
tp13
Rp14
sS'stringdups'
p15
g11
((lp16
tp17
Rp18
sS'fuzzydups'
p19
g11
((lp20
tp21
Rp22
sS'strings'
p23
(dp24
sS'functions'
p25
(dp26
I1074245380
(Vrtc_clk_slow_src_set
p27
(lp28
(L585347011L
L2195759072L
(lp29
(lp30
tp31
a(L3020187L
L0L
(lp32
(lp33
tp34
a(L3028481L
L0L
(lp35
(lp36
tp37
a(L487821223L
L0L
(lp38
(lp39
tp40
a(L4271877108L
L1443213481L
(lp41
(lp42
tp43
a(L1851908495L
L0L
(lp44
(lp45
tp46
a(L1099319264L
L1443213481L
(lp47
(lp48
tp49
a(L3138544334L
L0L
(lp50
(lp51
tp52
a(L94425498L
L3785322319L
(lp53
(lp54
Vabort
p55
atp56
atp57
sI1074240512
(Vbootloader_sha256_start
p58
(lp59
(L1737386262L
L2534110409L
(lp60
(lp61
tp62
atp63
sI1074245632
(Vrtc_clk_xtal_freq_get
p64
(lp65
(L3313072792L
L1443213481L
(lp66
(lp67
tp68
a(L2847936993L
L0L
(lp69
(lp70
tp71
a(L2252934062L
L1443213481L
(lp72
(lp73
tp74
a(L3360570486L
L0L
(lp75
(lp76
tp77
atp78
sI1074247680
(Vesp_rom_spiflash_program_page_internal
p79
(lp80
(L2569069283L
L0L
(lp81
(lp82
tp83
a(L2258688483L
L0L
(lp84
(lp85
tp86
a(L3360570486L
L0L
(lp87
(lp88
tp89
a(L2295540031L
L1443213481L
(lp90
(lp91
tp92
a(L4235661475L
L3785322319L
(lp93
(lp94
Vesp_rom_spiflash_wait_idle
p95
atp96
a(L1299866312L
L0L
(lp97
(lp98
tp99
a(L3212356251L
L3785322319L
(lp100
(lp101
Vesp_rom_spiflash_enable_write
p102
atp103
a(L1834262847L
L2195759072L
(lp104
(lp105
tp106
a(L633937013L
L1443213481L
(lp107
(lp108
tp109
a(L2953702749L
L0L
(lp110
(lp111
tp112
a(L2989032L
L0L
(lp113
(lp114
tp115
a(L1965622133L
L0L
(lp116
(lp117
tp118
a(L809386272L
L2195759072L
(lp119
(lp120
tp121
a(L1958113242L
L0L
(lp122
(lp123
tp124
a(L106L
L0L
(lp125
(lp126
tp127
a(L3112950080L
L0L
(lp128
(lp129
tp130
a(L1868606439L
L0L
(lp131
(lp132
tp133
a(L147213506L
L1443213481L
(lp134
(lp135
tp136
a(L1933954923L
L0L
(lp137
(lp138
tp139
a(L1147866918L
L0L
(lp140
(lp141
tp142
a(L3871602522L
L0L
(lp143
(lp144
tp145
atp146
sI1074267136
(V_init
p147
(lp148
(L3493042598L
L0L
(lp149
(lp150
tp151
atp152
sI1074270720
(Vrtc_vddsdio_get_config
p153
(lp154
(L3097658956L
L1443213481L
(lp155
(lp156
tp157
a(L1750635626L
L0L
(lp158
(lp159
tp160
a(L3193418487L
L0L
(lp161
(lp162
tp163
a(L3511111289L
L1443213481L
(lp164
(lp165
tp166
a(L115635292L
L0L
(lp167
(lp168
tp169
a(L896053863L
L0L
(lp170
(lp171
tp172
a(L1306330959L
L0L
(lp173
(lp174
tp175
a(L1783408782L
L1443213481L
(lp176
(lp177
tp178
atp179
sI1074237452
(Vspi_to_esp_err
p180
(lp181
(L2749733621L
L1443213481L
(lp182
(lp183
tp184
a(L1872507229L
L1443213481L
(lp185
(lp186
tp187
a(L3952441574L
L0L
(lp188
(lp189
tp190
a(L3126521138L
L0L
(lp191
(lp192
tp193
atp194
sI1074238728
(Vcache_ll_l1_get_bus
p195
(lp196
(L2749735183L
L1443213481L
(lp197
(lp198
tp199
a(L94425498L
L3785322319L
(lp200
(lp201
Vabort
p202
atp203
a(L1872514061L
L1443213481L
(lp204
(lp205
tp206
a(L3824526338L
L1443213481L
(lp207
(lp208
tp209
a(L892952750L
L0L
(lp210
(lp211
tp212
a(L1182811810L
L0L
(lp213
(lp214
tp215
a(L1101742417L
L0L
(lp216
(lp217
tp218
a(L1100767927L
L0L
(lp219
(lp220
tp221
a(L3360570486L
L0L
(lp222
(lp223
tp224
a(L1872508791L
L1443213481L
(lp225
(lp226
tp227
a(L2882938163L
L0L
(lp228
(lp229
tp230
a(L2927201858L
L0L
(lp231
(lp232
tp233
a(L2258718273L
L0L
(lp234
(lp235
tp236
a(L2580713941L
L0L
(lp237
(lp238
tp239
a(L1872508791L
L1443213481L
(lp240
(lp241
tp242
a(L1872514061L
L1443213481L
(lp243
(lp244
tp245
a(L1641149277L
L0L
(lp246
(lp247
tp248
a(L1872508791L
L1443213481L
(lp249
(lp250
tp251
a(L3027019L
L0L
(lp252
(lp253
tp254
a(L1299866560L
L0L
(lp255
(lp256
tp257
a(L1299866436L
L0L
(lp258
(lp259
tp260
atp261
sI1074240532
(Vbootloader_sha256_data
p262
(lp263
(L4066096136L
L0L
(lp264
(lp265
tp266
a(L1697654611L
L2195759072L
(lp267
(lp268
tp269
a(L2213948952L
L242900614L
(lp270
(lp271
V__assert_func
p272
atp273
a(L498498478L
L0L
(lp274
(lp275
tp276
a(L3590389832L
L1443213481L
(lp277
(lp278
tp279
a(L2910371777L
L0L
(lp280
(lp281
tp282
a(L3360570486L
L0L
(lp283
(lp284
tp285
a(L1087685526L
L2195759072L
(lp286
(lp287
tp288
a(L426633611L
L1443213481L
(lp289
(lp290
tp291
a(L2584057186L
L1443213481L
(lp292
(lp293
tp294
a(L3342433287L
L1443213481L
(lp295
(lp296
tp297
a(L2526675390L
L242900614L
(lp298
(lp299
V__bswapsi2
p300
atp301
a(L942815853L
L2195759072L
(lp302
(lp303
tp304
a(L1872507229L
L1443213481L
(lp305
(lp306
tp307
a(L147213506L
L1443213481L
(lp308
(lp309
tp310
a(L3745004802L
L0L
(lp311
(lp312
tp313
atp314
sI1074238996
(Vload_image
p315
(lp316
(L3963348381L
L473788538L
(lp317
(lp318
Vesp_log_early_timestamp
p319
aVbootloader_random_disable
p320
aVbootloader_ana_clock_glitch_reset_config
p321
atp322
a(L2261049225L
L0L
(lp323
(lp324
tp325
a(L106L
L0L
(lp326
(lp327
tp328
a(L4185838750L
L1624138773L
(lp329
(lp330
Vmmu_hal_unmap_all
p331
aVcache_ll_l1_get_bus
p332
aVcache_ll_l1_enable_bus
p333
aVcache_ll_l1_get_bus
p334
aVcache_ll_l1_enable_bus
p335
aVcache_ll_l1_get_bus
p336
aVcache_ll_l1_enable_bus
p337
aVcache_ll_l1_get_bus
p338
aVcache_ll_l1_enable_bus
p339
aVbootloader_console_deinit
p340
atp341
a(L2843581588L
L1443213481L
(lp342
(lp343
tp344
a(L2902417580L
L0L
(lp345
(lp346
tp347
a(L3421811081L
L362179215L
(lp348
(lp349
Vesp_log_early_timestamp
p350
atp351
a(L2552261596L
L0L
(lp352
(lp353
tp354
a(L670464924L
L2195759072L
(lp355
(lp356
tp357
a(L3020204L
L0L
(lp358
(lp359
tp360
a(L3421811081L
L362179215L
(lp361
(lp362
Vesp_log_early_timestamp
p363
atp364
a(L3291469664L
L0L
(lp365
(lp366
tp367
a(L2591655545L
L0L
(lp368
(lp369
tp370
atp371
sI1074238228
(Vbootloader_mmap_get_free_pages
p372
(lp373
(L1496516875L
L0L
(lp374
(lp375
tp376
atp377
sI1074269724
(Vbootloader_check_bootloader_validity
p378
(lp379
(L2945382592L
L1069700966L
(lp380
(lp381
Vefuse_hal_chip_revision
p382
aVesp_log_early_timestamp
p383
aVbootloader_common_check_chip_validity
p384
atp385
atp386
sI1074245904
(Vrtc_clk_xtal_freq_update
p387
(lp388
(L3023525581L
L2195759072L
(lp389
(lp390
tp391
a(L3509357017L
L0L
(lp392
(lp393
tp394
a(L2266180931L
L0L
(lp395
(lp396
tp397
atp398
sI1074238236
(Vbootloader_fill_random
p399
(lp400
(L3377511333L
L2195759072L
(lp401
(lp402
tp403
a(L4033043682L
L4032149094L
(lp404
(lp405
V__assert_func
p406
atp407
a(L1882547218L
L0L
(lp408
(lp409
tp410
a(L2910371777L
L0L
(lp411
(lp412
tp413
a(L95634693L
L0L
(lp414
(lp415
tp416
a(L3630908706L
L0L
(lp417
(lp418
tp419
a(L160162640L
L0L
(lp420
(lp421
tp422
a(L97689L
L0L
(lp423
(lp424
tp425
a(L3360570486L
L0L
(lp426
(lp427
tp428
atp429
sI1074242072
(Vprocess_segments
p430
(lp431
(L1326203493L
L0L
(lp432
(lp433
tp434
a(L1640778736L
L0L
(lp435
(lp436
tp437
a(L3782401745L
L0L
(lp438
(lp439
tp440
a(L106L
L0L
(lp441
(lp442
tp443
a(L3028481L
L0L
(lp444
(lp445
tp446
a(L3014296803L
L3187408090L
(lp447
(lp448
Vesp_log_early_timestamp
p449
atp450
a(L761135359L
L3785322319L
(lp451
(lp452
Vbootloader_flash_read
p453
atp454
a(L3856957476L
L3187408090L
(lp455
(lp456
Vesp_log_early_timestamp
p457
atp458
a(L3871473710L
L0L
(lp459
(lp460
tp461
a(L219417435L
L0L
(lp462
(lp463
tp464
a(L616767314L
L3785322319L
(lp465
(lp466
Vbootloader_sha256_data
p467
atp468
a(L1599301852L
L1443213481L
(lp469
(lp470
tp471
a(L2258837437L
L0L
(lp472
(lp473
tp474
a(L1764156528L
L0L
(lp475
(lp476
tp477
a(L3028481L
L0L
(lp478
(lp479
tp480
a(L2231662647L
L3187408090L
(lp481
(lp482
Vesp_log_early_timestamp
p483
atp484
a(L268651496L
L1443213481L
(lp485
(lp486
tp487
a(L652851030L
L2195759072L
(lp488
(lp489
tp490
a(L3802069243L
L0L
(lp491
(lp492
tp493
a(L3696234693L
L1443213481L
(lp494
(lp495
tp496
a(L2258867228L
L0L
(lp497
(lp498
tp499
a(L2277415887L
L0L
(lp500
(lp501
tp502
a(L3177376558L
L0L
(lp503
(lp504
tp505
a(L3028481L
L0L
(lp506
(lp507
tp508
a(L3861001733L
L3187408090L
(lp509
(lp510
Vesp_log_early_timestamp
p511
atp512
a(L2640606608L
L0L
(lp513
(lp514
tp515
a(L3028481L
L0L
(lp516
(lp517
tp518
a(L3892729576L
L3833084538L
(lp519
(lp520
Vesp_log_early_timestamp
p521
atp522
a(L4033680444L
L404278070L
(lp523
(lp524
tp525
a(L2902417580L
L0L
(lp526
(lp527
tp528
a(L2902417580L
L0L
(lp529
(lp530
tp531
a(L1229952296L
L3785322319L
(lp532
(lp533
Vverify_load_addresses
p534
atp535
a(L3783935185L
L3785322319L
(lp536
(lp537
Vbootloader_mmap_get_free_pages
p538
atp539
a(L3028481L
L0L
(lp540
(lp541
tp542
a(L224879076L
L0L
(lp543
(lp544
tp545
a(L142590671L
L0L
(lp546
(lp547
tp548
a(L3028481L
L0L
(lp549
(lp550
tp551
a(L94425498L
L3785322319L
(lp552
(lp553
Vesp_log_early_timestamp
p554
atp555
a(L1961289970L
L1443213481L
(lp556
(lp557
tp558
a(L4085121624L
L3785322319L
(lp559
(lp560
Vshould_load
p561
atp562
a(L3028481L
L0L
(lp563
(lp564
tp565
a(L1038006420L
L3833084538L
(lp566
(lp567
Vesp_log_early_timestamp
p568
atp569
a(L106L
L0L
(lp570
(lp571
tp572
a(L3815630522L
L0L
(lp573
(lp574
tp575
a(L1646054028L
L3833084538L
(lp576
(lp577
Vesp_log_early_timestamp
p578
atp579
a(L2629678223L
L0L
(lp580
(lp581
tp582
a(L2684012095L
L0L
(lp583
(lp584
tp585
a(L3357777304L
L3785322319L
(lp586
(lp587
Vbootloader_mmap
p588
atp589
a(L3911420474L
L3187408090L
(lp590
(lp591
Vesp_log_early_timestamp
p592
atp593
a(L1698460186L
L0L
(lp594
(lp595
tp596
a(L3264682310L
L1443213481L
(lp597
(lp598
tp599
a(L4016429890L
L242900614L
(lp600
(lp601
Vmemcpy
p602
atp603
a(L1595421496L
L3785322319L
(lp604
(lp605
Vbootloader_munmap
p606
atp607
a(L2757579158L
L0L
(lp608
(lp609
tp610
a(L605525844L
L242900614L
(lp611
(lp612
Vbootloader_fill_random
p613
atp614
a(L3616854679L
L1443213481L
(lp615
(lp616
tp617
a(L3616854679L
L1443213481L
(lp618
(lp619
tp620
a(L3450268858L
L0L
(lp621
(lp622
tp623
a(L3021749L
L0L
(lp624
(lp625
tp626
a(L322434465L
L0L
(lp627
(lp628
tp629
a(L2494883302L
L0L
(lp630
(lp631
tp632
a(L2902417580L
L0L
(lp633
(lp634
tp635
a(L2213415704L
L1443213481L
(lp636
(lp637
tp638
a(L193456747L
L1443213481L
(lp639
(lp640
tp641
a(L1426980959L
L0L
(lp642
(lp643
tp644
a(L1841482652L
L0L
(lp645
(lp646
tp647
a(L653501462L
L0L
(lp648
(lp649
tp650
a(L3310548426L
L3785322319L
(lp651
(lp652
Vbootloader_sha256_data
p653
atp654
a(L90548756L
L0L
(lp655
(lp656
tp657
a(L1702191967L
L1443213481L
(lp658
(lp659
tp660
a(L2364005371L
L0L
(lp661
(lp662
tp663
atp664
sI1074239512
(Vbootloader_utility_load_partition_table
p665
(lp666
(L3401680957L
L3833084538L
(lp667
(lp668
Vbootloader_mmap
p669
atp670
a(L3861134865L
L2147981551L
(lp671
(lp672
Vesp_log_early_timestamp
p673
atp674
a(L2258688482L
L0L
(lp675
(lp676
tp677
a(L3360570486L
L0L
(lp678
(lp679
tp680
a(L2379286607L
L3785322319L
(lp681
(lp682
Vesp_partition_table_verify
p683
atp684
a(L2695471221L
L2147981551L
(lp685
(lp686
Vesp_log_early_timestamp
p687
atp688
a(L2693125842L
L403192672L
(lp689
(lp690
Vesp_log_early_timestamp
p691
aVesp_log_early_timestamp
p692
atp693
a(L650140130L
L0L
(lp694
(lp695
tp696
a(L2163909172L
L2801279232L
(lp697
(lp698
Vbootloader_munmap
p699
aVesp_log_early_timestamp
p700
atp701
a(L521126897L
L0L
(lp702
(lp703
tp704
a(L3028464L
L0L
(lp705
(lp706
tp707
a(L106L
L0L
(lp708
(lp709
tp710
a(L147213506L
L1443213481L
(lp711
(lp712
tp713
a(L2919580219L
L2147981551L
(lp714
(lp715
Vesp_log_early_timestamp
p716
atp717
a(L3990577774L
L0L
(lp718
(lp719
tp720
a(L3020187L
L0L
(lp721
(lp722
tp723
a(L3201555411L
L1443213481L
(lp724
(lp725
tp726
a(L1843602828L
L1443213481L
(lp727
(lp728
tp729
a(L326114897L
L1443213481L
(lp730
(lp731
tp732
a(L2487812812L
L1443213481L
(lp733
(lp734
tp735
a(L3478727216L
L1443213481L
(lp736
(lp737
tp738
a(L106L
L0L
(lp739
(lp740
tp741
a(L93674324L
L0L
(lp742
(lp743
tp744
a(L1872515523L
L1443213481L
(lp745
(lp746
tp747
a(L1215408024L
L1443213481L
(lp748
(lp749
tp750
a(L1872515506L
L1443213481L
(lp751
(lp752
tp753
a(L106L
L0L
(lp754
(lp755
tp756
a(L1872515506L
L1443213481L
(lp757
(lp758
tp759
a(L106L
L0L
(lp760
(lp761
tp762
a(L268651496L
L1443213481L
(lp763
(lp764
tp765
atp766
sI1074244632
(Vwdt_hal_enable
p767
(lp768
(L2299130915L
L0L
(lp769
(lp770
tp771
a(L165794138L
L0L
(lp772
(lp773
tp774
a(L3360570486L
L0L
(lp775
(lp776
tp777
a(L2847657174L
L0L
(lp778
(lp779
tp780
atp781
sI1074245144
(Vrtc_clk_32k_enable
p782
(lp783
(L753387299L
L0L
(lp784
(lp785
tp786
a(L3776007933L
L3785322319L
(lp787
(lp788
Vrtc_clk_32k_enable_common
p789
atp790
a(L3496950L
L0L
(lp791
(lp792
tp793
a(L707626330L
L2534110409L
(lp794
(lp795
tp796
atp797
sI1074235680
(Vbootloader_flash_xmc_startup
p798
(lp799
(L3433652179L
L242900614L
(lp800
(lp801
Vis_xmc_chip_strict
p802
atp803
a(L2258688482L
L0L
(lp804
(lp805
tp806
a(L3360570486L
L0L
(lp807
(lp808
tp809
a(L2860324232L
L3785322319L
(lp810
(lp811
Vbootloader_flash_read_sfdp
p812
atp813
a(L933155447L
L3609046414L
(lp814
(lp815
Vesp_log_early_timestamp
p816
aVbootloader_execute_flash_command
p817
aVbootloader_execute_flash_command
p818
aVbootloader_execute_flash_command
p819
aVbootloader_execute_flash_command
p820
aVbootloader_read_flash_id
p821
aVis_xmc_chip_strict
p822
atp823
a(L1000132677L
L3187408090L
(lp824
(lp825
Vesp_log_early_timestamp
p826
atp827
atp828
sI1074236972
(Vefuse_hal_get_disable_wafer_version_major
p829
(lp830
(L4194175088L
L0L
(lp831
(lp832
tp833
atp834
sI1074237484
(Vbootloader_mmap
p835
(lp836
(L3007611739L
L2195759072L
(lp837
(lp838
tp839
a(L1328961945L
L2147981551L
(lp840
(lp841
Vesp_log_early_timestamp
p842
atp843
a(L1596194698L
L1443213481L
(lp844
(lp845
tp846
a(L3729184599L
L0L
(lp847
(lp848
tp849
a(L4163264550L
L3187408090L
(lp850
(lp851
Vesp_log_early_timestamp
p852
atp853
a(L2258688482L
L0L
(lp854
(lp855
tp856
a(L3360570486L
L0L
(lp857
(lp858
tp859
a(L3419814624L
L1443213481L
(lp860
(lp861
tp862
a(L1441818867L
L1690040256L
(lp863
(lp864
tp865
a(L3433564204L
L362179215L
(lp866
(lp867
Vesp_log_early_timestamp
p868
atp869
a(L2543114737L
L2147981551L
(lp870
(lp871
Vesp_log_early_timestamp
p872
atp873
a(L1137490703L
L2195759072L
(lp874
(lp875
tp876
atp877
sI1074235944
(Vbootloader_flash_gpio_config
p878
(lp879
(L3362256192L
L3785322319L
(lp880
(lp881
Vbootloader_common_get_chip_ver_pkg
p882
atp883
a(L106L
L0L
(lp884
(lp885
tp886
a(L1998579353L
L0L
(lp887
(lp888
tp889
a(L106L
L0L
(lp890
(lp891
tp892
a(L1839763068L
L1443213481L
(lp893
(lp894
tp895
a(L2440320488L
L1396946377L
(lp896
(lp897
tp898
a(L106L
L0L
(lp899
(lp900
tp901
a(L4003626558L
L0L
(lp902
(lp903
tp904
a(L2164907201L
L2534110409L
(lp905
(lp906
tp907
a(L3360570486L
L0L
(lp908
(lp909
tp910
atp911
sI1074245672
(Vrtc_clk_cpu_freq_mhz_to_config
p912
(lp913
(L908718885L
L3785322319L
(lp914
(lp915
Vrtc_clk_xtal_freq_get
p916
atp917
a(L60460069L
L0L
(lp918
(lp919
tp920
a(L3802072124L
L0L
(lp921
(lp922
tp923
a(L3159006042L
L0L
(lp924
(lp925
tp926
a(L3360570486L
L0L
(lp927
(lp928
tp929
a(L895147205L
L0L
(lp930
(lp931
tp932
a(L3970036657L
L0L
(lp933
(lp934
tp935
a(L2731353429L
L0L
(lp936
(lp937
tp938
a(L1555485793L
L0L
(lp939
(lp940
tp941
a(L2258897023L
L0L
(lp942
(lp943
tp944
a(L1947499251L
L0L
(lp945
(lp946
tp947
a(L1306331021L
L0L
(lp948
(lp949
tp950
atp951
sI1074236980
(Vesp_log_early_timestamp
p952
(lp953
(L4015029253L
L1443213481L
(lp954
(lp955
tp956
atp957
sI1074249012
(V_fini
p958
(lp959
(L3493042598L
L0L
(lp960
(lp961
tp962
atp963
sI1074241328
(Vbootloader_util_regions_overlap
p964
(lp965
(L2762640130L
L0L
(lp966
(lp967
tp968
a(L1697654632L
L2195759072L
(lp969
(lp970
tp971
a(L2213948952L
L242900614L
(lp972
(lp973
V__assert_func
p974
atp975
a(L97642L
L0L
(lp976
(lp977
tp978
a(L1087686177L
L2195759072L
(lp979
(lp980
tp981
a(L366123053L
L0L
(lp982
(lp983
tp984
a(L2258867228L
L0L
(lp985
(lp986
tp987
a(L1253626734L
L0L
(lp988
(lp989
tp990
a(L2258897019L
L0L
(lp991
(lp992
tp993
a(L3109269495L
L0L
(lp994
(lp995
tp996
atp997
sI1074238000
(Vbootloader_flash_erase_sector
p998
(lp999
(L4129137686L
L1880226080L
(lp1000
(lp1001
Vesp_rom_spiflash_erase_sector
p1002
aVspi_to_esp_err
p1003
atp1004
atp1005
sI1074237744
(Vbootloader_flash_read
p1006
(lp1007
(L3022618172L
L0L
(lp1008
(lp1009
tp1010
a(L2493247481L
L2147981551L
(lp1011
(lp1012
Vesp_log_early_timestamp
p1013
atp1014
a(L852987398L
L1443213481L
(lp1015
(lp1016
tp1017
a(L1351513776L
L0L
(lp1018
(lp1019
tp1020
a(L1486740491L
L0L
(lp1021
(lp1022
tp1023
a(L4276228047L
L2147981551L
(lp1024
(lp1025
Vesp_log_early_timestamp
p1026
atp1027
a(L3283691850L
L0L
(lp1028
(lp1029
tp1030
a(L4276228016L
L2147981551L
(lp1031
(lp1032
Vesp_log_early_timestamp
p1033
atp1034
a(L3020204L
L0L
(lp1035
(lp1036
tp1037
a(L384130671L
L0L
(lp1038
(lp1039
tp1040
a(L97422L
L0L
(lp1041
(lp1042
tp1043
a(L515889772L
L2195759072L
(lp1044
(lp1045
tp1046
a(L3321969934L
L1690040256L
(lp1047
(lp1048
tp1049
a(L279744554L
L4032149094L
(lp1050
(lp1051
V__assert_func
p1052
atp1053
a(L4071371888L
L2534110409L
(lp1054
(lp1055
tp1056
a(L2438181396L
L1443213481L
(lp1057
(lp1058
tp1059
a(L1976506429L
L3635241909L
(lp1060
(lp1061
Vesp_rom_spiflash_read
p1062
aVspi_to_esp_err
p1063
atp1064
atp1065
sI1074244924
(Vrtc_clk_cpu_freq_to_pll_mhz
p1066
(lp1067
(L3231135830L
L0L
(lp1068
(lp1069
tp1070
a(L2102627717L
L2195759072L
(lp1071
(lp1072
tp1073
a(L2982280123L
L3380333161L
(lp1074
(lp1075
Vesp_rom_set_cpu_ticks_per_us
p1076
aVrtc_clk_wait_for_slow_cycle
p1077
atp1078
a(L708686908L
L1443213481L
(lp1079
(lp1080
tp1081
a(L3284807114L
L0L
(lp1082
(lp1083
tp1084
a(L94425498L
L3785322319L
(lp1085
(lp1086
Vabort
p1087
atp1088
a(L2258897019L
L0L
(lp1089
(lp1090
tp1091
a(L1113742378L
L0L
(lp1092
(lp1093
tp1094
a(L1306330990L
L0L
(lp1095
(lp1096
tp1097
atp1098
sI1074245948
(Vrtc_clk_apb_freq_update
p1099
(lp1100
(L3982322780L
L1443213481L
(lp1101
(lp1102
tp1103
atp1104
sI1074247480
(Vesp_rom_spiflash_read_status
p1105
(lp1106
(L3588638125L
L1443213481L
(lp1107
(lp1108
tp1109
a(L4250092034L
L2534110409L
(lp1110
(lp1111
tp1112
a(L4159619641L
L0L
(lp1113
(lp1114
tp1115
a(L2392720019L
L0L
(lp1116
(lp1117
tp1118
a(L2258688487L
L0L
(lp1119
(lp1120
tp1121
a(L4159619145L
L0L
(lp1122
(lp1123
tp1124
a(L3241763332L
L1443213481L
(lp1125
(lp1126
tp1127
a(L3117156279L
L0L
(lp1128
(lp1129
tp1130
a(L2123059967L
L0L
(lp1131
(lp1132
tp1133
a(L582177370L
L0L
(lp1134
(lp1135
tp1136
atp1137
sI1074267720
(Vesp_bootloader_get_description
p1138
(lp1139
(L2248573785L
L2195759072L
(lp1140
(lp1141
tp1142
atp1143
sI1074238020
(Vbootloader_flash_write
p1144
(lp1145
(L3770380603L
L0L
(lp1146
(lp1147
tp1148
a(L2654201950L
L2147981551L
(lp1149
(lp1150
Vesp_log_early_timestamp
p1151
atp1152
a(L4207910112L
L1443213481L
(lp1153
(lp1154
tp1155
a(L1610445075L
L0L
(lp1156
(lp1157
tp1158
a(L735741265L
L0L
(lp1159
(lp1160
tp1161
a(L3291333414L
L0L
(lp1162
(lp1163
tp1164
a(L416217162L
L2147981551L
(lp1165
(lp1166
Vesp_log_early_timestamp
p1167
atp1168
a(L3283691850L
L0L
(lp1169
(lp1170
tp1171
a(L212182276L
L3187408090L
(lp1172
(lp1173
Vesp_log_early_timestamp
p1174
atp1175
a(L3212356251L
L3785322319L
(lp1176
(lp1177
Vbootloader_flash_unlock
p1178
atp1179
a(L1799218633L
L0L
(lp1180
(lp1181
tp1182
a(L94425498L
L3785322319L
(lp1183
(lp1184
Vesp_rom_spiflash_write_encrypted
p1185
atp1186
a(L2927190544L
L3785322319L
(lp1187
(lp1188
Vspi_to_esp_err
p1189
atp1190
a(L2927190544L
L3785322319L
(lp1191
(lp1192
Vesp_rom_spiflash_write
p1193
atp1194
atp1195
sI1074236740
(Vefuse_hal_chip_revision
p1196
(lp1197
(L2719302832L
L1880226080L
(lp1198
(lp1199
Vefuse_hal_get_major_chip_version
p1200
aVefuse_hal_get_minor_chip_version
p1201
atp1202
atp1203
sI1074248260
(Vesp_rom_spiflash_read
p1204
(lp1205
(L1499485309L
L1690040256L
(lp1206
(lp1207
tp1208
a(L3114780042L
L1679261929L
(lp1209
(lp1210
tp1211
a(L2860271684L
L0L
(lp1212
(lp1213
tp1214
a(L1872504408L
L1443213481L
(lp1215
(lp1216
tp1217
a(L106L
L0L
(lp1218
(lp1219
tp1220
a(L633884026L
L0L
(lp1221
(lp1222
tp1223
a(L106L
L0L
(lp1224
(lp1225
tp1226
a(L1100272902L
L1443213481L
(lp1227
(lp1228
tp1229
a(L1372101025L
L1690040256L
(lp1230
(lp1231
tp1232
a(L974197278L
L2195759072L
(lp1233
(lp1234
tp1235
a(L336550648L
L0L
(lp1236
(lp1237
tp1238
a(L3167414617L
L1443213481L
(lp1239
(lp1240
tp1241
a(L106L
L0L
(lp1242
(lp1243
tp1244
a(L3138763340L
L362179215L
(lp1245
(lp1246
Vesp_rom_spiflash_wait_idle
p1247
atp1248
a(L3021737L
L0L
(lp1249
(lp1250
tp1251
a(L106L
L0L
(lp1252
(lp1253
tp1254
a(L1868280504L
L0L
(lp1255
(lp1256
tp1257
a(L106L
L0L
(lp1258
(lp1259
tp1260
a(L750281353L
L0L
(lp1261
(lp1262
tp1263
a(L3897437082L
L0L
(lp1264
(lp1265
tp1266
a(L4122060822L
L0L
(lp1267
(lp1268
tp1269
a(L483218220L
L1443213481L
(lp1270
(lp1271
tp1272
a(L2989032L
L0L
(lp1273
(lp1274
tp1275
a(L3819849625L
L0L
(lp1276
(lp1277
tp1278
a(L1082031446L
L2195759072L
(lp1279
(lp1280
tp1281
a(L1872504408L
L1443213481L
(lp1282
(lp1283
tp1284
a(L147213506L
L1443213481L
(lp1285
(lp1286
tp1287
a(L2062799182L
L2534110409L
(lp1288
(lp1289
tp1290
a(L2921907736L
L0L
(lp1291
(lp1292
tp1293
a(L3677617742L
L1443213481L
(lp1294
(lp1295
tp1296
a(L2483025066L
L1679261929L
(lp1297
(lp1298
tp1299
a(L2136664087L
L1443213481L
(lp1300
(lp1301
tp1302
a(L3000478599L
L2195759072L
(lp1303
(lp1304
tp1305
a(L3333707777L
L0L
(lp1306
(lp1307
tp1308
a(L3251955268L
L0L
(lp1309
(lp1310
tp1311
a(L3418540920L
L0L
(lp1312
(lp1313
tp1314
a(L4183823801L
L1443213481L
(lp1315
(lp1316
tp1317
a(L97689L
L0L
(lp1318
(lp1319
tp1320
a(L2258897019L
L0L
(lp1321
(lp1322
tp1323
a(L4014024819L
L0L
(lp1324
(lp1325
tp1326
a(L3621567083L
L0L
(lp1327
(lp1328
tp1329
atp1330
sI1074241856
(Vprocess_appended_hash_and_sig
p1331
(lp1332
(L1668084157L
L0L
(lp1333
(lp1334
tp1335
a(L2910371777L
L0L
(lp1336
(lp1337
tp1338
a(L4285188111L
L0L
(lp1339
(lp1340
tp1341
a(L1151175705L
L0L
(lp1342
(lp1343
tp1344
a(L97689L
L0L
(lp1345
(lp1346
tp1347
a(L2250231589L
L3187408090L
(lp1348
(lp1349
Vesp_log_early_timestamp
p1350
atp1351
a(L268651496L
L1443213481L
(lp1352
(lp1353
tp1354
a(L1464893571L
L3785322319L
(lp1355
(lp1356
Vbootloader_flash_read
p1357
atp1358
a(L735741265L
L0L
(lp1359
(lp1360
tp1361
atp1362
sI1074270016
(Vbootloader_console_init
p1363
(lp1364
(L3806010175L
L988378406L
(lp1365
(lp1366
Vesp_rom_uart_tx_wait_idle
p1367
aVrtc_clk_apb_freq_get
p1368
aVesp_rom_uart_set_clock_baudrate
p1369
atp1370
atp1371
sI1074270276
(Vrtc_clk_init
p1372
(lp1373
(L1100006719L
L1443213481L
(lp1374
(lp1375
tp1376
a(L42671777L
L3785322319L
(lp1377
(lp1378
Vrtc_clk_cpu_freq_to_xtal
p1379
atp1380
a(L739905763L
L1743007695L
(lp1381
(lp1382
Vrtc_clk_xtal_freq_get
p1383
atp1384
a(L3028481L
L0L
(lp1385
(lp1386
tp1387
a(L4284274517L
L3785322319L
(lp1388
(lp1389
Vrtc_clk_xtal_freq_estimate
p1390
atp1391
a(L2576622952L
L3187408090L
(lp1392
(lp1393
Vesp_log_early_timestamp
p1394
atp1395
a(L1822030105L
L3065544262L
(lp1396
(lp1397
Vesp_rom_uart_tx_wait_idle
p1398
aVrtc_clk_xtal_freq_update
p1399
aVrtc_clk_apb_freq_update
p1400
aVrtc_clk_cpu_freq_get_config
p1401
aVrtc_clk_cpu_freq_mhz_to_config
p1402
atp1403
a(L521302419L
L2704288053L
(lp1404
(lp1405
Vesp_log_early_timestamp
p1406
aVabort
p1407
atp1408
a(L2902417580L
L0L
(lp1409
(lp1410
tp1411
a(L1899970065L
L0L
(lp1412
(lp1413
tp1414
a(L377687546L
L3785322319L
(lp1415
(lp1416
Vrtc_clk_xtal_freq_estimate
p1417
atp1418
a(L2163742247L
L3187408090L
(lp1419
(lp1420
Vesp_log_early_timestamp
p1421
atp1422
a(L299116989L
L2426646996L
(lp1423
(lp1424
Vrtc_clk_cpu_freq_set_config
p1425
aV__udivdi3
p1426
atp1427
a(L912310138L
L3785322319L
(lp1428
(lp1429
Vrtc_clk_32k_enable
p1430
atp1431
a(L3191820416L
L1832448559L
(lp1432
(lp1433
Vrtc_clk_8m_enable
p1434
aVrtc_clk_fast_src_set
p1435
aVrtc_clk_slow_src_set
p1436
atp1437
a(L1232958848L
L0L
(lp1438
(lp1439
tp1440
atp1441
sI1074248008
(Vesp_rom_spiflash_write
p1442
(lp1443
(L924384987L
L1679261929L
(lp1444
(lp1445
tp1446
a(L2258688483L
L0L
(lp1447
(lp1448
tp1449
a(L3360570486L
L0L
(lp1450
(lp1451
tp1452
a(L3368132847L
L0L
(lp1453
(lp1454
tp1455
a(L3106685981L
L0L
(lp1456
(lp1457
tp1458
a(L3488660639L
L3785322319L
(lp1459
(lp1460
Vesp_rom_spiflash_program_page_internal
p1461
atp1462
a(L3543402353L
L3785322319L
(lp1463
(lp1464
Vesp_rom_spiflash_program_page_internal
p1465
atp1466
a(L4222526342L
L0L
(lp1467
(lp1468
tp1469
a(L2004208511L
L0L
(lp1470
(lp1471
tp1472
a(L564470656L
L0L
(lp1473
(lp1474
tp1475
a(L441922648L
L3785322319L
(lp1476
(lp1477
Vesp_rom_spiflash_program_page_internal
p1478
atp1479
a(L2302069176L
L0L
(lp1480
(lp1481
tp1482
atp1483
sI1074245204
(Vrtc_clk_8m_enable
p1484
(lp1485
(L2359152383L
L2195759072L
(lp1486
(lp1487
tp1488
a(L2145669267L
L1443213481L
(lp1489
(lp1490
tp1491
a(L2151320156L
L0L
(lp1492
(lp1493
tp1494
a(L1262936142L
L1443213481L
(lp1495
(lp1496
tp1497
a(L3360570486L
L0L
(lp1498
(lp1499
tp1500
a(L1318267208L
L0L
(lp1501
(lp1502
tp1503
a(L1085208965L
L1443213481L
(lp1504
(lp1505
tp1506
atp1507
sI1074237012
(Vbootloader_common_ota_select_crc
p1508
(lp1509
(L2925798959L
L1443213481L
(lp1510
(lp1511
tp1512
atp1513
sI1074267728
(Vcall_start_cpu0
p1514
(lp1515
(L342432055L
L1443213481L
(lp1516
(lp1517
tp1518
a(L4207910112L
L1443213481L
(lp1519
(lp1520
tp1521
a(L3212347974L
L3785322319L
(lp1522
(lp1523
Vbootloader_init
p1524
atp1525
a(L94425498L
L3785322319L
(lp1526
(lp1527
Vbootloader_reset
p1528
atp1529
a(L1872507246L
L1443213481L
(lp1530
(lp1531
tp1532
a(L4207910112L
L1443213481L
(lp1533
(lp1534
tp1535
a(L356913563L
L2218577417L
(lp1536
(lp1537
Vmemset
p1538
aVbootloader_utility_load_partition_table
p1539
atp1540
a(L3014296803L
L3187408090L
(lp1541
(lp1542
Vesp_log_early_timestamp
p1543
atp1544
a(L405422123L
L3785322319L
(lp1545
(lp1546
Vbootloader_utility_get_selected_boot_partition
p1547
atp1548
a(L2025208509L
L242900614L
(lp1549
(lp1550
Vbootloader_utility_load_boot_image
p1551
atp1552
atp1553
sI1074244188
(Vwdt_hal_config_stage
p1554
(lp1555
(L331558507L
L0L
(lp1556
(lp1557
tp1558
a(L4279082939L
L0L
(lp1559
(lp1560
tp1561
a(L93674324L
L0L
(lp1562
(lp1563
tp1564
a(L2902417580L
L0L
(lp1565
(lp1566
tp1567
a(L1506709436L
L1443213481L
(lp1568
(lp1569
tp1570
a(L3020187L
L0L
(lp1571
(lp1572
tp1573
a(L94425498L
L3785322319L
(lp1574
(lp1575
Vabort
p1576
atp1577
a(L1999536000L
L1443213481L
(lp1578
(lp1579
tp1580
a(L3360570486L
L0L
(lp1581
(lp1582
tp1583
a(L2402105077L
L1443213481L
(lp1584
(lp1585
tp1586
a(L3297501927L
L1443213481L
(lp1587
(lp1588
tp1589
a(L4278159418L
L0L
(lp1590
(lp1591
tp1592
a(L93674324L
L0L
(lp1593
(lp1594
tp1595
a(L3020204L
L0L
(lp1596
(lp1597
tp1598
a(L2956541743L
L1443213481L
(lp1599
(lp1600
tp1601
a(L3020187L
L0L
(lp1602
(lp1603
tp1604
a(L106L
L0L
(lp1605
(lp1606
tp1607
a(L1473987957L
L1443213481L
(lp1608
(lp1609
tp1610
a(L927955509L
L1443213481L
(lp1611
(lp1612
tp1613
a(L3740367810L
L1443213481L
(lp1614
(lp1615
tp1616
atp1617
sI1074236764
(Vefuse_hal_flash_encryption_enabled
p1618
(lp1619
(L221474917L
L1443213481L
(lp1620
(lp1621
tp1622
a(L2910371777L
L0L
(lp1623
(lp1624
tp1625
a(L3360570486L
L0L
(lp1626
(lp1627
tp1628
a(L3016870L
L0L
(lp1629
(lp1630
tp1631
a(L3745038218L
L0L
(lp1632
(lp1633
tp1634
a(L957607403L
L0L
(lp1635
(lp1636
tp1637
atp1638
sI1074234712
(Vbootloader_common_get_chip_ver_pkg
p1639
(lp1640
(L3197874814L
L1443213481L
(lp1641
(lp1642
tp1643
atp1644
sI1074245976
(Vrtc_clk_cpu_freq_to_xtal
p1645
(lp1646
(L767415990L
L3785322319L
(lp1647
(lp1648
Vesp_rom_set_cpu_ticks_per_us
p1649
atp1650
a(L94425498L
L3785322319L
(lp1651
(lp1652
Vabort
p1653
atp1654
a(L749912951L
L671729222L
(lp1655
(lp1656
Vrtc_clk_apb_freq_update
p1657
atp1658
a(L2258867230L
L0L
(lp1659
(lp1660
tp1661
a(L1803595874L
L2195759072L
(lp1662
(lp1663
tp1664
atp1665
sI1074244704
(Vmmu_hal_unmap_all
p1666
(lp1667
(L3970138582L
L1443213481L
(lp1668
(lp1669
tp1670
a(L2010554219L
L0L
(lp1671
(lp1672
tp1673
a(L147213506L
L1443213481L
(lp1674
(lp1675
tp1676
a(L3212334523L
L0L
(lp1677
(lp1678
tp1679
a(L2010554219L
L0L
(lp1680
(lp1681
tp1682
a(L3360570486L
L0L
(lp1683
(lp1684
tp1685
atp1686
sI1074269792
(Vbootloader_config_wdt
p1687
(lp1688
(L3447475412L
L603716358L
(lp1689
(lp1690
Vwdt_hal_write_protect_disable
p1691
aVwdt_hal_set_flashboot_en
p1692
aVwdt_hal_write_protect_enable
p1693
aVwdt_hal_init
p1694
aVrtc_clk_slow_freq_get_hz
p1695
aVwdt_hal_write_protect_disable
p1696
aV__udivdi3
p1697
aVwdt_hal_config_stage
p1698
aVwdt_hal_enable
p1699
aVwdt_hal_write_protect_enable
p1700
aVwdt_hal_write_protect_disable
p1701
aVwdt_hal_set_flashboot_en
p1702
aVwdt_hal_write_protect_enable
p1703
atp1704
atp1705
sI1074240876
(Vbootloader_console_deinit
p1706
(lp1707
(L1858531217L
L1443213481L
(lp1708
(lp1709
tp1710
atp1711
sI1074238316
(Vbootloader_random_disable
p1712
(lp1713
(L482324986L
L2935979744L
(lp1714
(lp1715
tp1716
atp1717
sI1074270052
(Vesp_cpu_configure_region_protection
p1718
(lp1719
(L3233924472L
L581251951L
(lp1720
(lp1721
Vmemcpy
p1722
atp1723
a(L180431425L
L3785322319L
(lp1724
(lp1725
Vmpu_hal_set_region_access
p1726
atp1727
a(L2537388152L
L3785322319L
(lp1728
(lp1729
Vmpu_hal_set_region_access
p1730
atp1731
atp1732
sI1074237032
(Vbootloader_common_ota_select_valid
p1733
(lp1734
(L1563399710L
L3785322319L
(lp1735
(lp1736
Vbootloader_common_ota_select_invalid
p1737
atp1738
a(L3814720849L
L3785322319L
(lp1739
(lp1740
Vbootloader_common_ota_select_crc
p1741
atp1742
a(L3360570486L
L0L
(lp1743
(lp1744
tp1745
atp1746
sI1074241384
(Vverify_load_addresses
p1747
(lp1748
(L2764487219L
L0L
(lp1749
(lp1750
tp1751
a(L106L
L0L
(lp1752
(lp1753
tp1754
a(L97642L
L0L
(lp1755
(lp1756
tp1757
a(L1682572953L
L4032149094L
(lp1758
(lp1759
V__assert_func
p1760
atp1761
a(L371731316L
L2195759072L
(lp1762
(lp1763
tp1764
a(L106L
L0L
(lp1765
(lp1766
tp1767
a(L3747671351L
L2195759072L
(lp1768
(lp1769
tp1770
a(L106L
L0L
(lp1771
(lp1772
tp1773
a(L159211233L
L4171435875L
(lp1774
(lp1775
Vbootloader_util_regions_overlap
p1776
atp1777
a(L3369736729L
L581251951L
(lp1778
(lp1779
Vbootloader_util_regions_overlap
p1780
atp1781
a(L3028481L
L0L
(lp1782
(lp1783
tp1784
a(L129067213L
L242900614L
(lp1785
(lp1786
Vbootloader_util_regions_overlap
p1787
atp1788
a(L51970127L
L2534110409L
(lp1789
(lp1790
tp1791
a(L3212477138L
L1443213481L
(lp1792
(lp1793
tp1794
a(L1032381749L
L0L
(lp1795
(lp1796
tp1797
a(L2837304413L
L0L
(lp1798
(lp1799
tp1800
a(L677569396L
L3785322319L
(lp1801
(lp1802
Vverify_load_addresses
p1803
atp1804
a(L1351513776L
L0L
(lp1805
(lp1806
tp1807
a(L956755582L
L0L
(lp1808
(lp1809
tp1810
a(L1550159667L
L1443213481L
(lp1811
(lp1812
tp1813
a(L2297907636L
L2195759072L
(lp1814
(lp1815
tp1816
a(L106L
L0L
(lp1817
(lp1818
tp1819
a(L1378880375L
L2195759072L
(lp1820
(lp1821
tp1822
a(L106L
L0L
(lp1823
(lp1824
tp1825
a(L1933245593L
L581251951L
(lp1826
(lp1827
Vbootloader_util_regions_overlap
p1828
atp1829
a(L3028481L
L0L
(lp1830
(lp1831
tp1832
a(L2219806806L
L581251951L
(lp1833
(lp1834
Vbootloader_util_regions_overlap
p1835
atp1836
a(L3186102034L
L1690040256L
(lp1837
(lp1838
tp1839
a(L1284972329L
L1443213481L
(lp1840
(lp1841
tp1842
a(L3236457224L
L1443213481L
(lp1843
(lp1844
tp1845
a(L2743341656L
L0L
(lp1846
(lp1847
tp1848
a(L182882711L
L0L
(lp1849
(lp1850
tp1851
a(L2268367078L
L2195759072L
(lp1852
(lp1853
tp1854
a(L297163306L
L0L
(lp1855
(lp1856
tp1857
a(L1900059593L
L0L
(lp1858
(lp1859
tp1860
a(L376010266L
L2534110409L
(lp1861
(lp1862
tp1863
a(L1319531632L
L1443213481L
(lp1864
(lp1865
tp1866
a(L3929371936L
L0L
(lp1867
(lp1868
tp1869
a(L147213506L
L1443213481L
(lp1870
(lp1871
tp1872
a(L4072848040L
L0L
(lp1873
(lp1874
tp1875
a(L106L
L0L
(lp1876
(lp1877
tp1878
a(L268651496L
L1443213481L
(lp1879
(lp1880
tp1881
a(L147213506L
L1443213481L
(lp1882
(lp1883
tp1884
a(L3020204L
L0L
(lp1885
(lp1886
tp1887
a(L885671544L
L2275292552L
(lp1888
(lp1889
Vesp_log_early_timestamp
p1890
atp1891
a(L1303560396L
L0L
(lp1892
(lp1893
tp1894
a(L268651496L
L1443213481L
(lp1895
(lp1896
tp1897
a(L1303560427L
L0L
(lp1898
(lp1899
tp1900
atp1901
sI1074241140
(Vprocess_image_header
p1902
(lp1903
(L3301900732L
L2218577417L
(lp1904
(lp1905
Vmemset
p1906
aVbootloader_flash_read
p1907
atp1908
a(L3020204L
L0L
(lp1909
(lp1910
tp1911
a(L4205021202L
L0L
(lp1912
(lp1913
tp1914
a(L321261932L
L0L
(lp1915
(lp1916
tp1917
a(L1161397362L
L3785322319L
(lp1918
(lp1919
Vbootloader_sha256_start
p1920
atp1921
a(L2062774299L
L3785322319L
(lp1922
(lp1923
Vbootloader_sha256_data
p1924
atp1925
a(L1291118193L
L0L
(lp1926
(lp1927
tp1928
a(L3028481L
L0L
(lp1929
(lp1930
tp1931
a(L559062533L
L3187408090L
(lp1932
(lp1933
Vesp_log_early_timestamp
p1934
atp1935
a(L147213506L
L1443213481L
(lp1936
(lp1937
tp1938
a(L2983970029L
L0L
(lp1939
(lp1940
tp1941
a(L4235213884L
L3785322319L
(lp1942
(lp1943
Vbootloader_common_check_chip_validity
p1944
atp1945
a(L4144303915L
L0L
(lp1946
(lp1947
tp1948
a(L3028481L
L0L
(lp1949
(lp1950
tp1951
a(L3714328738L
L3187408090L
(lp1952
(lp1953
Vesp_log_early_timestamp
p1954
atp1955
a(L2852701393L
L0L
(lp1956
(lp1957
tp1958
a(L2122516551L
L0L
(lp1959
(lp1960
tp1961
a(L3064492592L
L0L
(lp1962
(lp1963
tp1964
atp1965
sI1074246772
(Vrtc_clk_apb_freq_get
p1966
(lp1967
(L189810653L
L1679261929L
(lp1968
(lp1969
tp1970
atp1971
sI1074235248
(Vbootloader_execute_flash_command
p1972
(lp1973
(L2481595632L
L3785322319L
(lp1974
(lp1975
Vbootloader_flash_execute_command_common
p1976
atp1977
atp1978
sI1074247280
(Vrtc_clk_cal_ratio
p1979
(lp1980
(L3870710856L
L195123093L
(lp1981
(lp1982
Vrtc_clk_cal_internal
p1983
aV__udivdi3
p1984
atp1985
atp1986
sI1074240892
(V__assert_func
p1987
(lp1988
(L3115292802L
L2195759072L
(lp1989
(lp1990
tp1991
a(L106L
L0L
(lp1992
(lp1993
tp1994
atp1995
sI1074238844
(Vtry_load_partition
p1996
(lp1997
(L1263750142L
L0L
(lp1998
(lp1999
tp2000
a(L2258688482L
L0L
(lp2001
(lp2002
tp2003
a(L3360570486L
L0L
(lp2004
(lp2005
tp2006
a(L530241438L
L3785322319L
(lp2007
(lp2008
Vbootloader_load_image
p2009
atp2010
a(L4168266278L
L3187408090L
(lp2011
(lp2012
Vesp_log_early_timestamp
p2013
atp2014
atp2015
sI1074237308
(Vbootloader_common_get_active_otadata
p2016
(lp2017
(L3317503532L
L0L
(lp2018
(lp2019
tp2020
a(L2503049265L
L1832448559L
(lp2021
(lp2022
Vbootloader_common_ota_select_valid
p2023
aVbootloader_common_ota_select_valid
p2024
aVbootloader_common_select_otadata
p2025
atp2026
a(L735741265L
L0L
(lp2027
(lp2028
tp2029
atp2030
sI1074234744
(Vesp_flash_encryption_enabled
p2031
(lp2032
(L376617603L
L3785322319L
(lp2033
(lp2034
Vefuse_hal_flash_encryption_enabled
p2035
atp2036
atp2037
sI1074245496
(Vrtc_clk_slow_src_get
p2038
(lp2039
(L1566794270L
L1443213481L
(lp2040
(lp2041
tp2042
a(L3020187L
L0L
(lp2043
(lp2044
tp2045
a(L2902417580L
L0L
(lp2046
(lp2047
tp2048
a(L2258688485L
L0L
(lp2049
(lp2050
tp2051
a(L3360570486L
L0L
(lp2052
(lp2053
tp2054
atp2055
sI1074239876
(Vbootloader_utility_get_selected_boot_partition
p2056
(lp2057
(L2938832293L
L0L
(lp2058
(lp2059
tp2060
a(L2250662613L
L1443213481L
(lp2061
(lp2062
tp2063
a(L3987062097L
L2147981551L
(lp2064
(lp2065
Vesp_log_early_timestamp
p2066
atp2067
a(L558289164L
L1443213481L
(lp2068
(lp2069
tp2070
a(L3360570486L
L0L
(lp2071
(lp2072
tp2073
a(L3118387733L
L3785322319L
(lp2074
(lp2075
Vbootloader_mmap
p2076
atp2077
a(L3080008394L
L2147981551L
(lp2078
(lp2079
Vesp_log_early_timestamp
p2080
atp2081
a(L937961821L
L2410515468L
(lp2082
(lp2083
Vmemcpy
p2084
aVmemcpy
p2085
aVbootloader_munmap
p2086
aVbootloader_common_ota_select_invalid
p2087
atp2088
a(L2911028409L
L0L
(lp2089
(lp2090
tp2091
a(L726754926L
L3785322319L
(lp2092
(lp2093
Vbootloader_common_get_active_otadata
p2094
atp2095
a(L106L
L0L
(lp2096
(lp2097
tp2098
a(L4179097382L
L0L
(lp2099
(lp2100
tp2101
a(L788494392L
L3785322319L
(lp2102
(lp2103
Vbootloader_common_ota_select_invalid
p2104
atp2105
a(L638952356L
L1443213481L
(lp2106
(lp2107
tp2108
a(L1522345576L
L3833084538L
(lp2109
(lp2110
Vesp_log_early_timestamp
p2111
atp2112
a(L4207910112L
L1443213481L
(lp2113
(lp2114
tp2115
a(L1641201884L
L0L
(lp2116
(lp2117
tp2118
a(L3196944801L
L2147981551L
(lp2119
(lp2120
Vesp_log_early_timestamp
p2121
atp2122
a(L2302032704L
L0L
(lp2123
(lp2124
tp2125
a(L1173788779L
L3785322319L
(lp2126
(lp2127
Vbootloader_common_ota_select_crc
p2128
atp2129
a(L178397698L
L1443213481L
(lp2130
(lp2131
tp2132
a(L1324800084L
L3785322319L
(lp2133
(lp2134
Vbootloader_common_ota_select_crc
p2135
atp2136
a(L1299866312L
L0L
(lp2137
(lp2138
tp2139
a(L2704362655L
L1443213481L
(lp2140
(lp2141
tp2142
a(L344024800L
L3833084538L
(lp2143
(lp2144
Vesp_log_early_timestamp
p2145
atp2146
a(L1194215008L
L3833084538L
(lp2147
(lp2148
Vesp_log_early_timestamp
p2149
atp2150
atp2151
sI1074236804
(Vefuse_hal_get_major_chip_version
p2152
(lp2153
(L1572156932L
L2195759072L
(lp2154
(lp2155
tp2156
a(L894792960L
L0L
(lp2157
(lp2158
tp2159
a(L724635033L
L0L
(lp2160
(lp2161
tp2162
a(L3360570486L
L0L
(lp2163
(lp2164
tp2165
atp2166
sI1074234756
(Vbootloader_flash_execute_command_common
p2167
(lp2168
(L1988465817L
L0L
(lp2169
(lp2170
tp2171
a(L2946944720L
L2195759072L
(lp2172
(lp2173
tp2174
a(L2213948952L
L242900614L
(lp2175
(lp2176
V__assert_func
p2177
atp2178
a(L3021749L
L0L
(lp2179
(lp2180
tp2181
a(L1160973241L
L2195759072L
(lp2182
(lp2183
tp2184
a(L2792673601L
L1679261929L
(lp2185
(lp2186
tp2187
a(L3792188146L
L0L
(lp2188
(lp2189
tp2190
a(L4024113366L
L0L
(lp2191
(lp2192
tp2193
a(L3275299125L
L1443213481L
(lp2194
(lp2195
tp2196
a(L2232084959L
L2534110409L
(lp2197
(lp2198
tp2199
a(L1099389923L
L0L
(lp2200
(lp2201
tp2202
a(L857553440L
L2195759072L
(lp2203
(lp2204
tp2205
a(L3877681344L
L0L
(lp2206
(lp2207
tp2208
a(L73134175L
L1443213481L
(lp2209
(lp2210
tp2211
a(L1270255739L
L0L
(lp2212
(lp2213
tp2214
a(L3691039583L
L0L
(lp2215
(lp2216
tp2217
a(L3411317116L
L0L
(lp2218
(lp2219
tp2220
a(L3360570486L
L0L
(lp2221
(lp2222
tp2223
atp2224
sI1074245764
(Vrtc_clk_cpu_freq_get_config
p2225
(lp2226
(L4245581454L
L1443213481L
(lp2227
(lp2228
tp2229
a(L3020187L
L0L
(lp2230
(lp2231
tp2232
a(L3020187L
L0L
(lp2233
(lp2234
tp2235
a(L2734221335L
L242900614L
(lp2236
(lp2237
Vrtc_clk_xtal_freq_get
p2238
atp2239
a(L3789795478L
L0L
(lp2240
(lp2241
tp2242
a(L672805395L
L2704288053L
(lp2243
(lp2244
Vesp_log_early_timestamp
p2245
aVabort
p2246
atp2247
a(L3849169076L
L1443213481L
(lp2248
(lp2249
tp2250
a(L3020187L
L0L
(lp2251
(lp2252
tp2253
a(L3028481L
L0L
(lp2254
(lp2255
tp2256
a(L38508693L
L0L
(lp2257
(lp2258
tp2259
a(L187152368L
L0L
(lp2260
(lp2261
tp2262
a(L1161083655L
L0L
(lp2263
(lp2264
tp2265
a(L1395485899L
L0L
(lp2266
(lp2267
tp2268
a(L2070600034L
L0L
(lp2269
(lp2270
tp2271
atp2272
sI1074237068
(Vbootloader_common_check_chip_validity
p2273
(lp2274
(L2080115690L
L0L
(lp2275
(lp2276
tp2277
a(L3255759481L
L3187408090L
(lp2278
(lp2279
Vesp_log_early_timestamp
p2280
atp2281
a(L1299867982L
L0L
(lp2282
(lp2283
tp2284
a(L3360570486L
L0L
(lp2285
(lp2286
tp2287
a(L521940037L
L3785322319L
(lp2288
(lp2289
Vefuse_hal_chip_revision
p2290
atp2291
a(L332291457L
L1443213481L
(lp2292
(lp2293
tp2294
a(L780168284L
L362179215L
(lp2295
(lp2296
Vesp_log_early_timestamp
p2297
atp2298
a(L3028464L
L0L
(lp2299
(lp2300
tp2301
a(L573448730L
L0L
(lp2302
(lp2303
tp2304
a(L106L
L0L
(lp2305
(lp2306
tp2307
a(L3027019L
L0L
(lp2308
(lp2309
tp2310
a(L106L
L0L
(lp2311
(lp2312
tp2313
a(L3212356251L
L3785322319L
(lp2314
(lp2315
Vefuse_hal_get_disable_wafer_version_major
p2316
atp2317
a(L2465410698L
L362179215L
(lp2318
(lp2319
Vesp_log_early_timestamp
p2320
atp2321
atp2322
sI1074268568
(Vbootloader_common_vddsdio_configure
p2323
(lp2324
(L1829974089L
L3785322319L
(lp2325
(lp2326
Vrtc_vddsdio_get_config
p2327
atp2328
a(L351649043L
L3833084538L
(lp2329
(lp2330
Vrtc_vddsdio_set_config
p2331
atp2332
a(L3360570486L
L0L
(lp2333
(lp2334
tp2335
atp2336
sI1074270872
(Vrtc_vddsdio_set_config
p2337
(lp2338
(L3557742407L
L1443213481L
(lp2339
(lp2340
tp2341
atp2342
sI1074240916
(Vabort
p2343
(lp2344
(L2564459292L
L1690040256L
(lp2345
(lp2346
tp2347
a(L409471316L
L0L
(lp2348
(lp2349
tp2350
a(L106L
L0L
(lp2351
(lp2352
tp2353
atp2354
sI1074245524
(Vrtc_clk_slow_freq_get_hz
p2355
(lp2356
(L1826267122L
L3785322319L
(lp2357
(lp2358
Vrtc_clk_slow_src_get
p2359
atp2360
a(L1872507229L
L1443213481L
(lp2361
(lp2362
tp2363
a(L2221201615L
L1443213481L
(lp2364
(lp2365
tp2366
a(L3360570486L
L0L
(lp2367
(lp2368
tp2369
atp2370
sI1074268060
(Vbootloader_init
p2371
(lp2372
(L2778985116L
L362179215L
(lp2373
(lp2374
Vbootloader_init_mem
p2375
atp2376
a(L2588916198L
L2195759072L
(lp2377
(lp2378
tp2379
a(L2569579240L
L242900614L
(lp2380
(lp2381
V__assert_func
p2382
atp2383
a(L2041988382L
L2534110409L
(lp2384
(lp2385
tp2386
a(L2946990947L
L2195759072L
(lp2387
(lp2388
tp2389
a(L3813782018L
L0L
(lp2390
(lp2391
tp2392
a(L2946991009L
L2195759072L
(lp2393
(lp2394
tp2395
a(L3027019L
L0L
(lp2396
(lp2397
tp2398
a(L2946991040L
L2195759072L
(lp2399
(lp2400
tp2401
a(L3436439188L
L1832448559L
(lp2402
(lp2403
Vbootloader_clear_bss_section
p2404
aVbootloader_common_vddsdio_configure
p2405
aVbootloader_clock_get_rated_freq_mhz
p2406
atp2407
a(L106L
L0L
(lp2408
(lp2409
tp2410
a(L788547690L
L2769615034L
(lp2411
(lp2412
Vbootloader_clock_configure
p2413
aVbootloader_console_init
p2414
aVbootloader_print_banner
p2415
aVbootloader_flash_update_id
p2416
aVbootloader_flash_xmc_startup
p2417
atp2418
a(L3014296803L
L3187408090L
(lp2419
(lp2420
Vesp_log_early_timestamp
p2421
atp2422
a(L3165444564L
L3187408090L
(lp2423
(lp2424
Vesp_log_early_timestamp
p2425
atp2426
a(L3360570486L
L0L
(lp2427
(lp2428
tp2429
a(L2444883382L
L3785322319L
(lp2430
(lp2431
Vbootloader_read_bootloader_header
p2432
atp2433
a(L2444883382L
L3785322319L
(lp2434
(lp2435
Vbootloader_check_bootloader_validity
p2436
atp2437
a(L2444883382L
L3785322319L
(lp2438
(lp2439
Vbootloader_init_spi_flash
p2440
atp2441
a(L1947007263L
L2195759072L
(lp2442
(lp2443
tp2444
a(L254817508L
L0L
(lp2445
(lp2446
tp2447
a(L93892250L
L0L
(lp2448
(lp2449
tp2450
a(L2915015718L
L0L
(lp2451
(lp2452
tp2453
a(L1460895057L
L2218577417L
(lp2454
(lp2455
Vbootloader_config_wdt
p2456
aVbootloader_enable_random
p2457
atp2458
a(L1895147938L
L0L
(lp2459
(lp2460
tp2461
a(L2680457259L
L0L
(lp2462
(lp2463
tp2464
a(L3027019L
L0L
(lp2465
(lp2466
tp2467
a(L97315L
L0L
(lp2468
(lp2469
tp2470
a(L3014296803L
L3187408090L
(lp2471
(lp2472
Vesp_log_early_timestamp
p2473
atp2474
a(L1766563386L
L3187408090L
(lp2475
(lp2476
Vesp_log_early_timestamp
p2477
atp2478
a(L3164960223L
L0L
(lp2479
(lp2480
tp2481
a(L1895147938L
L0L
(lp2482
(lp2483
tp2484
a(L156585483L
L1880226080L
(lp2485
(lp2486
Vwdt_reset_info_dump
p2487
aVwdt_reset_info_dump
p2488
atp2489
atp2490
sI1074244752
(Vefuse_hal_get_rated_freq_mhz
p2491
(lp2492
(L1158870592L
L1443213481L
(lp2493
(lp2494
tp2495
a(L338960367L
L0L
(lp2496
(lp2497
tp2498
a(L3360570486L
L0L
(lp2499
(lp2500
tp2501
atp2502
sI1074235280
(Vbootloader_flash_unlock
p2503
(lp2504
(L1368360454L
L242900614L
(lp2505
(lp2506
Vesp_rom_spiflash_wait_idle
p2507
atp2508
a(L1574074940L
L0L
(lp2509
(lp2510
tp2511
a(L1667462067L
L3785322319L
(lp2512
(lp2513
Vbootloader_execute_flash_command
p2514
atp2515
a(L106L
L0L
(lp2516
(lp2517
tp2518
a(L1013678540L
L0L
(lp2519
(lp2520
tp2521
a(L2529045083L
L0L
(lp2522
(lp2523
tp2524
a(L990750093L
L1832448559L
(lp2525
(lp2526
Vesp_rom_spiflash_wait_idle
p2527
aVbootloader_execute_flash_command
p2528
aVbootloader_execute_flash_command
p2529
atp2530
a(L993671302L
L1832448559L
(lp2531
(lp2532
Vesp_rom_spiflash_wait_idle
p2533
aVbootloader_execute_flash_command
p2534
aVbootloader_execute_flash_command
p2535
atp2536
a(L1209048744L
L1880226080L
(lp2537
(lp2538
Vesp_rom_spiflash_wait_idle
p2539
aVbootloader_execute_flash_command
p2540
atp2541
a(L3162775668L
L0L
(lp2542
(lp2543
tp2544
a(L2435612105L
L0L
(lp2545
(lp2546
tp2547
a(L3664359624L
L0L
(lp2548
(lp2549
tp2550
a(L2074930120L
L1880226080L
(lp2551
(lp2552
Vbootloader_execute_flash_command
p2553
aVbootloader_execute_flash_command
p2554
atp2555
a(L2125014318L
L0L
(lp2556
(lp2557
tp2558
a(L568821667L
L0L
(lp2559
(lp2560
tp2561
a(L1711531685L
L1880226080L
(lp2562
(lp2563
Vbootloader_execute_flash_command
p2564
aVbootloader_execute_flash_command
p2565
atp2566
a(L3658700047L
L0L
(lp2567
(lp2568
tp2569
a(L3269997774L
L0L
(lp2570
(lp2571
tp2572
a(L106L
L0L
(lp2573
(lp2574
tp2575
a(L2993202392L
L0L
(lp2576
(lp2577
tp2578
atp2579
sI1074236560
(Vesp_rom_set_cpu_ticks_per_us
p2580
(lp2581
(L396058732L
L2195759072L
(lp2582
(lp2583
tp2584
atp2585
sI1074247312
(Vrtc_clk_wait_for_slow_cycle
p2586
(lp2587
(L2844697221L
L2624587680L
(lp2588
(lp2589
tp2590
a(L287687718L
L0L
(lp2591
(lp2592
tp2593
a(L3360570486L
L0L
(lp2594
(lp2595
tp2596
a(L3843203427L
L1443213481L
(lp2597
(lp2598
tp2599
a(L1300789833L
L0L
(lp2600
(lp2601
tp2602
a(L1259765481L
L0L
(lp2603
(lp2604
tp2605
a(L17340776L
L1443213481L
(lp2606
(lp2607
tp2608
a(L329680227L
L3187408090L
(lp2609
(lp2610
Vesp_log_early_timestamp
p2611
atp2612
atp2613
sI1074270100
(Vrtc_clk_xtal_freq_estimate
p2614
(lp2615
(L1823831978L
L1880226080L
(lp2616
(lp2617
Vrtc_clk_8m_enabled
p2618
aVrtc_clk_8md256_enabled
p2619
atp2620
a(L2449794434L
L3785322319L
(lp2621
(lp2622
Vrtc_clk_8m_enable
p2623
atp2624
a(L3726876033L
L2704288053L
(lp2625
(lp2626
Vrtc_clk_cal_ratio
p2627
aV__udivdi3
p2628
atp2629
a(L3934977694L
L0L
(lp2630
(lp2631
tp2632
a(L3955289886L
L0L
(lp2633
(lp2634
tp2635
a(L2553207239L
L3187408090L
(lp2636
(lp2637
Vesp_log_early_timestamp
p2638
atp2639
a(L2307427870L
L0L
(lp2640
(lp2641
tp2642
a(L1281346514L
L3785322319L
(lp2643
(lp2644
Vrtc_clk_8m_enable
p2645
atp2646
a(L3909119106L
L0L
(lp2647
(lp2648
tp2649
a(L2298857999L
L3187408090L
(lp2650
(lp2651
Vesp_log_early_timestamp
p2652
atp2653
a(L3304487880L
L0L
(lp2654
(lp2655
tp2656
a(L1641150486L
L0L
(lp2657
(lp2658
tp2659
a(L2026357443L
L3187408090L
(lp2660
(lp2661
Vesp_log_early_timestamp
p2662
atp2663
atp2664
sI1074244504
(Vwdt_hal_write_protect_disable
p2665
(lp2666
(L3085072089L
L1443213481L
(lp2667
(lp2668
tp2669
a(L4195472003L
L0L
(lp2670
(lp2671
tp2672
a(L3360570486L
L0L
(lp2673
(lp2674
tp2675
a(L1210571996L
L0L
(lp2676
(lp2677
tp2678
atp2679
sI1074241944
(Vshould_load
p2680
(lp2681
(L4190720747L
L2534110409L
(lp2682
(lp2683
tp2684
a(L1182990556L
L0L
(lp2685
(lp2686
tp2687
a(L1744532171L
L1443213481L
(lp2688
(lp2689
tp2690
a(L2306467100L
L0L
(lp2691
(lp2692
tp2693
a(L4034276159L
L1443213481L
(lp2694
(lp2695
tp2696
a(L2258897019L
L0L
(lp2697
(lp2698
tp2699
a(L3781799363L
L0L
(lp2700
(lp2701
tp2702
a(L3028464L
L0L
(lp2703
(lp2704
tp2705
a(L166133047L
L2195759072L
(lp2706
(lp2707
tp2708
a(L4277114872L
L0L
(lp2709
(lp2710
tp2711
a(L2824381917L
L0L
(lp2712
(lp2713
tp2714
a(L1243412227L
L0L
(lp2715
(lp2716
tp2717
a(L2011157548L
L0L
(lp2718
(lp2719
tp2720
a(L3126521138L
L0L
(lp2721
(lp2722
tp2723
a(L1305407438L
L0L
(lp2724
(lp2725
tp2726
a(L1305407469L
L0L
(lp2727
(lp2728
tp2729
atp2730
sI1074247576
(Vesp_rom_spiflash_wait_idle
p2731
(lp2732
(L1698121947L
L1443213481L
(lp2733
(lp2734
tp2735
a(L2023766174L
L0L
(lp2736
(lp2737
tp2738
a(L147213506L
L1443213481L
(lp2739
(lp2740
tp2741
a(L3086959262L
L0L
(lp2742
(lp2743
tp2744
a(L4161019926L
L3785322319L
(lp2745
(lp2746
Vesp_rom_spiflash_read_status
p2747
atp2748
atp2749
sI1074269352
(Vbootloader_flash_update_id
p2750
(lp2751
(L296988142L
L3833084538L
(lp2752
(lp2753
Vbootloader_read_flash_id
p2754
atp2755
atp2756
sI1074237348
(Vbootloader_common_ota_select_invalid
p2757
(lp2758
(L4027567199L
L0L
(lp2759
(lp2760
tp2761
a(L3397985842L
L0L
(lp2762
(lp2763
tp2764
a(L2258867228L
L0L
(lp2765
(lp2766
tp2767
a(L3785235668L
L0L
(lp2768
(lp2769
tp2770
atp2771
sI1074236576
(Vesp_rom_uart_tx_wait_idle
p2772
(lp2773
(L3110839460L
L2534110409L
(lp2774
(lp2775
tp2776
a(L1301079727L
L0L
(lp2777
(lp2778
tp2779
a(L597952197L
L0L
(lp2780
(lp2781
tp2782
a(L1971823332L
L0L
(lp2783
(lp2784
tp2785
a(L3055926844L
L0L
(lp2786
(lp2787
tp2788
a(L3360570486L
L0L
(lp2789
(lp2790
tp2791
a(L3694491048L
L0L
(lp2792
(lp2793
tp2794
a(L106L
L0L
(lp2795
(lp2796
tp2797
atp2798
sI1074239392
(Vset_actual_ota_seq
p2799
(lp2800
(L4094723830L
L0L
(lp2801
(lp2802
tp2803
a(L3504298995L
L2195759072L
(lp2804
(lp2805
tp2806
a(L3856681007L
L961634322L
(lp2807
(lp2808
Vmemset
p2809
aVbootloader_common_ota_select_crc
p2810
aVesp_flash_encryption_enabled
p2811
aVbootloader_flash_erase_sector
p2812
atp2813
a(L2768623893L
L3785322319L
(lp2814
(lp2815
Vbootloader_flash_write
p2816
atp2817
a(L3693339703L
L2147981551L
(lp2818
(lp2819
Vesp_log_early_timestamp
p2820
atp2821
a(L3903819434L
L2147981551L
(lp2822
(lp2823
Vesp_log_early_timestamp
p2824
atp2825
a(L3360570486L
L0L
(lp2826
(lp2827
tp2828
atp2829
sI1074246816
(Vrtc_clk_cal_internal
p2830
(lp2831
(L4103044880L
L1443213481L
(lp2832
(lp2833
tp2834
a(L3906046821L
L4032149094L
(lp2835
(lp2836
V__assert_func
p2837
atp2838
a(L3821006588L
L1443213481L
(lp2839
(lp2840
tp2841
a(L1673513644L
L0L
(lp2842
(lp2843
tp2844
a(L2719210992L
L4021370767L
(lp2845
(lp2846
Vrtc_clk_slow_src_get
p2847
atp2848
a(L3008910671L
L0L
(lp2849
(lp2850
tp2851
a(L97689L
L0L
(lp2852
(lp2853
tp2854
a(L1872507229L
L1443213481L
(lp2855
(lp2856
tp2857
a(L3028464L
L0L
(lp2858
(lp2859
tp2860
a(L3028481L
L0L
(lp2861
(lp2862
tp2863
a(L147213506L
L1443213481L
(lp2864
(lp2865
tp2866
a(L3455571058L
L1374507264L
(lp2867
(lp2868
V__udivdi3
p2869
aVrtc_clk_xtal_freq_get
p2870
atp2871
a(L2780079961L
L0L
(lp2872
(lp2873
tp2874
a(L4208562267L
L1443213481L
(lp2875
(lp2876
tp2877
a(L4114459891L
L3187408090L
(lp2878
(lp2879
Vesp_log_early_timestamp
p2880
atp2881
a(L2258688482L
L0L
(lp2882
(lp2883
tp2884
a(L3360570486L
L0L
(lp2885
(lp2886
tp2887
a(L3553505594L
L0L
(lp2888
(lp2889
tp2890
a(L403361192L
L0L
(lp2891
(lp2892
tp2893
a(L3243404432L
L3785322319L
(lp2894
(lp2895
Vrtc_clk_8m_enable
p2896
atp2897
a(L390546255L
L2195759072L
(lp2898
(lp2899
tp2900
a(L3586367509L
L1443213481L
(lp2901
(lp2902
tp2903
a(L2910371777L
L0L
(lp2904
(lp2905
tp2906
a(L2902417580L
L0L
(lp2907
(lp2908
tp2909
a(L3082259486L
L1443213481L
(lp2910
(lp2911
tp2912
a(L3020204L
L0L
(lp2913
(lp2914
tp2915
a(L603598685L
L1443213481L
(lp2916
(lp2917
tp2918
a(L3429540926L
L0L
(lp2919
(lp2920
tp2921
a(L3028464L
L0L
(lp2922
(lp2923
tp2924
a(L615477255L
L242900614L
(lp2925
(lp2926
Vrtc_clk_8m_enable
p2927
atp2928
atp2929
sI1074238892
(Vcache_ll_l1_enable_bus
p2930
(lp2931
(L318252209L
L1443213481L
(lp2932
(lp2933
tp2934
atp2935
sI1074240680
(Vbootloader_sha256_finish
p2936
(lp2937
(L4066096136L
L0L
(lp2938
(lp2939
tp2940
a(L1697654722L
L2195759072L
(lp2941
(lp2942
tp2943
a(L2213948952L
L242900614L
(lp2944
(lp2945
V__assert_func
p2946
atp2947
a(L3020204L
L0L
(lp2948
(lp2949
tp2950
a(L2888288470L
L2534110409L
(lp2951
(lp2952
tp2953
a(L2534656226L
L0L
(lp2954
(lp2955
tp2956
a(L2740629735L
L4171435875L
(lp2957
(lp2958
Vbootloader_sha256_data
p2959
atp2960
a(L2946948570L
L2195759072L
(lp2961
(lp2962
tp2963
a(L354914383L
L2790500905L
(lp2964
(lp2965
V__bswapsi2
p2966
aVbootloader_sha256_data
p2967
atp2968
a(L2946948756L
L2195759072L
(lp2969
(lp2970
tp2971
a(L657425439L
L0L
(lp2972
(lp2973
tp2974
a(L4173600236L
L1443213481L
(lp2975
(lp2976
tp2977
a(L657425439L
L0L
(lp2978
(lp2979
tp2980
a(L2046284480L
L2195759072L
(lp2981
(lp2982
tp2983
a(L3616504601L
L4171435875L
(lp2984
(lp2985
V__bswapsi2
p2986
atp2987
a(L3347778L
L0L
(lp2988
(lp2989
tp2990
a(L3360570486L
L0L
(lp2991
(lp2992
tp2993
atp2994
sI1074238632
(Vbootloader_clock_get_rated_freq_mhz
p2995
(lp2996
(L376617603L
L3785322319L
(lp2997
(lp2998
Vefuse_hal_get_rated_freq_mhz
p2999
atp3000
atp3001
sI1074268856
(Vbootloader_init_mem
p3002
(lp3003
(L1287383080L
L3785322319L
(lp3004
(lp3005
Vesp_cpu_configure_region_protection
p3006
atp3007
atp3008
sI1074269368
(Vbootloader_init_spi_flash
p3009
(lp3010
(L1876290435L
L1994585993L
(lp3011
(lp3012
Vbootloader_flash_gpio_config
p3013
aVbootloader_flash_dummy_config
p3014
aVbootloader_flash_cs_timing_config
p3015
aVbootloader_flash_unlock
p3016
atp3017
a(L499308289L
L1443213481L
(lp3018
(lp3019
tp3020
a(L1872507246L
L1443213481L
(lp3021
(lp3022
tp3023
a(L147213506L
L1443213481L
(lp3024
(lp3025
tp3026
a(L83726857L
L2426646996L
(lp3027
(lp3028
Vesp_log_early_timestamp
p3029
aVbootloader_flash_get_spi_mode
p3030
atp3031
a(L93674324L
L0L
(lp3032
(lp3033
tp3034
a(L4183135214L
L1443213481L
(lp3035
(lp3036
tp3037
a(L147213506L
L1443213481L
(lp3038
(lp3039
tp3040
a(L3875746660L
L362179215L
(lp3041
(lp3042
Vesp_log_early_timestamp
p3043
atp3044
a(L93674324L
L0L
(lp3045
(lp3046
tp3047
a(L4183135214L
L1443213481L
(lp3048
(lp3049
tp3050
a(L1872507229L
L1443213481L
(lp3051
(lp3052
tp3053
a(L268651496L
L1443213481L
(lp3054
(lp3055
tp3056
a(L1872507229L
L1443213481L
(lp3057
(lp3058
tp3059
a(L1872507229L
L1443213481L
(lp3060
(lp3061
tp3062
a(L268651496L
L1443213481L
(lp3063
(lp3064
tp3065
a(L1872515506L
L1443213481L
(lp3066
(lp3067
tp3068
a(L1005860105L
L3187408090L
(lp3069
(lp3070
Vesp_log_early_timestamp
p3071
atp3072
a(L93674324L
L0L
(lp3073
(lp3074
tp3075
a(L3422553167L
L0L
(lp3076
(lp3077
tp3078
a(L1707909459L
L0L
(lp3079
(lp3080
tp3081
a(L4101522284L
L0L
(lp3082
(lp3083
tp3084
a(L3944678822L
L2082837423L
(lp3085
(lp3086
Vbootloader_enable_wp
p3087
atp3088
a(L3907331784L
L0L
(lp3089
(lp3090
tp3091
atp3092
sI1074238644
(Vlog_invalid_app_partition
p3093
(lp3094
(L2157385331L
L2195759072L
(lp3095
(lp3096
tp3097
a(L3028464L
L0L
(lp3098
(lp3099
tp3100
a(L1760520779L
L3833084538L
(lp3101
(lp3102
Vesp_log_early_timestamp
p3103
atp3104
a(L4207910112L
L1443213481L
(lp3105
(lp3106
tp3107
a(L3360570486L
L0L
(lp3108
(lp3109
tp3110
a(L3212513603L
L3833084538L
(lp3111
(lp3112
Vesp_log_early_timestamp
p3113
atp3114
a(L431938678L
L2147981551L
(lp3115
(lp3116
Vesp_log_early_timestamp
p3117
atp3118
atp3119
sI1074244788
(Vrtc_clk_32k_enable_common
p3120
(lp3121
(L2821256590L
L2195759072L
(lp3122
(lp3123
tp3124
a(L97422L
L0L
(lp3125
(lp3126
tp3127
a(L2218417248L
L0L
(lp3128
(lp3129
tp3130
a(L339634797L
L1443213481L
(lp3131
(lp3132
tp3133
a(L51458120L
L0L
(lp3134
(lp3135
tp3136
atp3137
sI1074267836
(Vwdt_reset_info_dump
p3138
(lp3139
(L4037458708L
L0L
(lp3140
(lp3141
tp3142
a(L2865144428L
L4200222560L
(lp3143
(lp3144
tp3145
a(L217258670L
L0L
(lp3146
(lp3147
tp3148
a(L1103285333L
L0L
(lp3149
(lp3150
tp3151
a(L3750088731L
L2147981551L
(lp3152
(lp3153
Vesp_log_early_timestamp
p3154
atp3155
a(L3245125974L
L1443213481L
(lp3156
(lp3157
tp3158
a(L2920131454L
L4200222560L
(lp3159
(lp3160
tp3161
a(L3355528239L
L2147981551L
(lp3162
(lp3163
Vesp_log_early_timestamp
p3164
atp3165
atp3166
sI1074240176
(Vbootloader_reset
p3167
(lp3168
(L479276581L
L2147981551L
(lp3169
(lp3170
Vbootloader_console_deinit
p3171
atp3172
a(L106L
L0L
(lp3173
(lp3174
tp3175
atp3176
sI1074245552
(Vrtc_clk_fast_src_set
p3177
(lp3178
(L1089140614L
L1443213481L
(lp3179
(lp3180
tp3181
a(L3020187L
L0L
(lp3182
(lp3183
tp3184
a(L3827921190L
L3785322319L
(lp3185
(lp3186
Vabort
p3187
atp3188
a(L2578095160L
L1443213481L
(lp3189
(lp3190
tp3191
a(L4159388630L
L1443213481L
(lp3192
(lp3193
tp3194
a(L300459962L
L0L
(lp3195
(lp3196
tp3197
atp3198
sI1074235580
(Vbootloader_flash_read_sfdp
p3199
(lp3200
(L711701400L
L0L
(lp3201
(lp3202
tp3203
a(L17919673L
L4032149094L
(lp3204
(lp3205
V__assert_func
p3206
atp3207
a(L3704332455L
L3785322319L
(lp3208
(lp3209
Vbootloader_flash_execute_command_common
p3210
atp3211
atp3212
sI1074235832
(Vbootloader_flash_cs_timing_config
p3213
(lp3214
(L1222249594L
L1690040256L
(lp3215
(lp3216
tp3217
atp3218
sI1074240440
(Vindex_to_partition
p3219
(lp3220
(L4066096119L
L0L
(lp3221
(lp3222
tp3223
a(L1101255660L
L0L
(lp3224
(lp3225
tp3226
a(L1955702725L
L0L
(lp3227
(lp3228
tp3229
a(L3698927993L
L0L
(lp3230
(lp3231
tp3232
a(L2808906342L
L0L
(lp3233
(lp3234
tp3235
a(L4211744375L
L0L
(lp3236
(lp3237
tp3238
a(L3097778015L
L0L
(lp3239
(lp3240
tp3241
a(L1816235430L
L0L
(lp3242
(lp3243
tp3244
a(L2179185678L
L0L
(lp3245
(lp3246
tp3247
a(L3369319173L
L0L
(lp3248
(lp3249
tp3250
atp3251
sI1074244536
(Vwdt_hal_set_flashboot_en
p3252
(lp3253
(L2375320464L
L0L
(lp3254
(lp3255
tp3256
a(L3915867581L
L0L
(lp3257
(lp3258
tp3259
a(L3360570486L
L0L
(lp3260
(lp3261
tp3262
a(L3823116953L
L1443213481L
(lp3263
(lp3264
tp3265
atp3266
sI1074240964
(Vbootloader_ana_clock_glitch_reset_config
p3267
(lp3268
(L2100504542L
L0L
(lp3269
(lp3270
tp3271
atp3272
sI1074237376
(Vbootloader_common_select_otadata
p3273
(lp3274
(L4071767857L
L0L
(lp3275
(lp3276
tp3277
a(L1999329187L
L0L
(lp3278
(lp3279
tp3280
a(L3846398843L
L0L
(lp3281
(lp3282
tp3283
a(L2501968171L
L0L
(lp3284
(lp3285
tp3286
a(L3360570486L
L0L
(lp3287
(lp3288
tp3289
a(L2045232488L
L0L
(lp3290
(lp3291
tp3292
a(L1243525916L
L0L
(lp3293
(lp3294
tp3295
a(L3094144427L
L0L
(lp3296
(lp3297
tp3298
a(L2399509845L
L0L
(lp3299
(lp3300
tp3301
a(L1641201884L
L0L
(lp3302
(lp3303
tp3304
atp3305
sI1074247872
(Vesp_rom_spiflash_erase_sector
p3306
(lp3307
(L3892694408L
L1679261929L
(lp3308
(lp3309
tp3310
a(L2258688483L
L0L
(lp3311
(lp3312
tp3313
a(L3360570486L
L0L
(lp3314
(lp3315
tp3316
a(L3212356251L
L3785322319L
(lp3317
(lp3318
Vesp_rom_spiflash_enable_write
p3319
atp3320
a(L184152988L
L0L
(lp3321
(lp3322
tp3323
a(L1036552696L
L362179215L
(lp3324
(lp3325
Vesp_rom_spiflash_wait_idle
p3326
atp3327
a(L3333707777L
L0L
(lp3328
(lp3329
tp3330
a(L3582858798L
L3785322319L
(lp3331
(lp3332
Vesp_rom_spiflash_wait_idle
p3333
atp3334
atp3335
sI1074268864
(Vbootloader_random_enable
p3336
(lp3337
(L2397175084L
L664430240L
(lp3338
(lp3339
tp3340
atp3341
sI1074240972
(Vprocess_checksum
p3342
(lp3343
(L166193219L
L242900614L
(lp3344
(lp3345
Vmemset
p3346
atp3347
a(L3028481L
L0L
(lp3348
(lp3349
tp3350
a(L186886970L
L0L
(lp3351
(lp3352
tp3353
a(L2902417580L
L0L
(lp3354
(lp3355
tp3356
a(L3028481L
L0L
(lp3357
(lp3358
tp3359
a(L169792351L
L3187408090L
(lp3360
(lp3361
Vesp_log_early_timestamp
p3362
atp3363
a(L268651496L
L1443213481L
(lp3364
(lp3365
tp3366
a(L3236648107L
L3785322319L
(lp3367
(lp3368
Vbootloader_flash_read
p3369
atp3370
a(L735741265L
L0L
(lp3371
(lp3372
tp3373
a(L3020204L
L0L
(lp3374
(lp3375
tp3376
a(L2480703612L
L3785322319L
(lp3377
(lp3378
Vbootloader_sha256_data
p3379
atp3380
a(L3436105237L
L0L
(lp3381
(lp3382
tp3383
a(L106L
L0L
(lp3384
(lp3385
tp3386
atp3387
sI1074236872
(Vefuse_hal_get_minor_chip_version
p3388
(lp3389
(L2292056065L
L1443213481L
(lp3390
(lp3391
tp3392
atp3393
sI1074240200
(Vbootloader_utility_load_boot_image
p3394
(lp3395
(L421993435L
L242900614L
(lp3396
(lp3397
Vmemset
p3398
atp3399
a(L2177418995L
L3785322319L
(lp3400
(lp3401
Vtry_load_partition
p3402
atp3403
a(L1305243774L
L3785322319L
(lp3404
(lp3405
Vload_image
p3406
atp3407
a(L4114459891L
L3187408090L
(lp3408
(lp3409
Vesp_log_early_timestamp
p3410
atp3411
a(L3827921190L
L3785322319L
(lp3412
(lp3413
Vbootloader_reset
p3414
atp3415
a(L1953693036L
L3785322319L
(lp3416
(lp3417
Vindex_to_partition
p3418
atp3419
a(L1204373741L
L3785322319L
(lp3420
(lp3421
Vtry_load_partition
p3422
atp3423
a(L1899865696L
L0L
(lp3424
(lp3425
tp3426
a(L2695355117L
L3785322319L
(lp3427
(lp3428
Vset_actual_ota_seq
p3429
atp3430
a(L1868897605L
L3785322319L
(lp3431
(lp3432
Vlog_invalid_app_partition
p3433
atp3434
a(L831650730L
L0L
(lp3435
(lp3436
tp3437
a(L3021737L
L0L
(lp3438
(lp3439
tp3440
a(L695456438L
L0L
(lp3441
(lp3442
tp3443
a(L315114854L
L3833084538L
(lp3444
(lp3445
Vtry_load_partition
p3446
atp3447
a(L89447667L
L2147981551L
(lp3448
(lp3449
Vesp_log_early_timestamp
p3450
atp3451
a(L2347390157L
L3785322319L
(lp3452
(lp3453
Vindex_to_partition
p3454
atp3455
a(L1204373741L
L3785322319L
(lp3456
(lp3457
Vtry_load_partition
p3458
atp3459
a(L3061261803L
L0L
(lp3460
(lp3461
tp3462
a(L3582858798L
L3785322319L
(lp3463
(lp3464
Vlog_invalid_app_partition
p3465
atp3466
a(L3581752791L
L2704288053L
(lp3467
(lp3468
Vesp_log_early_timestamp
p3469
aVmemset
p3470
atp3471
atp3472
sI1074246088
(Vrtc_clk_cpu_freq_set_config
p3473
(lp3474
(L1040494747L
L3833084538L
(lp3475
(lp3476
Vrtc_clk_xtal_freq_get
p3477
atp3478
a(L2308773007L
L0L
(lp3479
(lp3480
tp3481
a(L3253451229L
L1880226080L
(lp3482
(lp3483
Vrtc_clk_cpu_freq_to_xtal
p3484
aVrtc_clk_wait_for_slow_cycle
p3485
atp3486
a(L2243645672L
L0L
(lp3487
(lp3488
tp3489
a(L4002786498L
L0L
(lp3490
(lp3491
tp3492
a(L2736411858L
L3785322319L
(lp3493
(lp3494
Vrtc_clk_cpu_freq_to_xtal
p3495
atp3496
a(L3360570486L
L0L
(lp3497
(lp3498
tp3499
a(L2755207760L
L1832448559L
(lp3500
(lp3501
Vrtc_clk_cpu_freq_to_xtal
p3502
aVrtc_clk_wait_for_slow_cycle
p3503
aVrtc_clk_bbpll_disable
p3504
atp3505
a(L3020187L
L0L
(lp3506
(lp3507
tp3508
a(L106L
L0L
(lp3509
(lp3510
tp3511
a(L2730236852L
L1156451872L
(lp3512
(lp3513
Vrtc_clk_wait_for_slow_cycle
p3514
aVrtc_clk_xtal_freq_get
p3515
atp3516
a(L106L
L0L
(lp3517
(lp3518
tp3519
a(L3776069396L
L1443213481L
(lp3520
(lp3521
tp3522
a(L83268611L
L0L
(lp3523
(lp3524
tp3525
a(L106L
L0L
(lp3526
(lp3527
tp3528
a(L82345090L
L0L
(lp3529
(lp3530
tp3531
a(L106L
L0L
(lp3532
(lp3533
tp3534
a(L2258718273L
L0L
(lp3535
(lp3536
tp3537
a(L3298883534L
L0L
(lp3538
(lp3539
tp3540
a(L3519990574L
L1443213481L
(lp3541
(lp3542
tp3543
a(L2508198718L
L1743007695L
(lp3544
(lp3545
Vrtc_clk_cpu_freq_to_pll_mhz
p3546
atp3547
a(L935233121L
L2534110409L
(lp3548
(lp3549
tp3550
a(L83268344L
L0L
(lp3551
(lp3552
tp3553
a(L82344823L
L0L
(lp3554
(lp3555
tp3556
a(L1569180676L
L0L
(lp3557
(lp3558
tp3559
a(L2258837488L
L0L
(lp3560
(lp3561
tp3562
a(L4233337962L
L1443213481L
(lp3563
(lp3564
tp3565
a(L1482311963L
L0L
(lp3566
(lp3567
tp3568
a(L133411965L
L0L
(lp3569
(lp3570
tp3571
a(L3673491036L
L0L
(lp3572
(lp3573
tp3574
a(L4197990447L
L0L
(lp3575
(lp3576
tp3577
a(L903154985L
L0L
(lp3578
(lp3579
tp3580
a(L3020187L
L0L
(lp3581
(lp3582
tp3583
a(L106L
L0L
(lp3584
(lp3585
tp3586
a(L1317698645L
L93324751L
(lp3587
(lp3588
Vesp_rom_set_cpu_ticks_per_us
p3589
atp3590
atp3591
sI1074247624
(Vesp_rom_spiflash_enable_write
p3592
(lp3593
(L2885777558L
L1303911398L
(lp3594
(lp3595
Vesp_rom_spiflash_wait_idle
p3596
atp3597
a(L3333707777L
L0L
(lp3598
(lp3599
tp3600
a(L2258688484L
L0L
(lp3601
(lp3602
tp3603
a(L99543895L
L0L
(lp3604
(lp3605
tp3606
a(L2993202392L
L0L
(lp3607
(lp3608
tp3609
a(L1265538927L
L242900614L
(lp3610
(lp3611
Vesp_rom_spiflash_read_status
p3612
atp3613
atp3614
sI1074269656
(Vbootloader_clear_bss_section
p3615
(lp3616
(L2193193874L
L4032149094L
(lp3617
(lp3618
Vmemset
p3619
atp3620
atp3621
sI1074245332
(Vrtc_clk_8m_enabled
p3622
(lp3623
(L563532105L
L1443213481L
(lp3624
(lp3625
tp3626
atp3627
sI1074238160
(Vbootloader_enable_wp
p3628
(lp3629
(L1117825804L
L3785322319L
(lp3630
(lp3631
Vbootloader_execute_flash_command
p3632
atp3633
atp3634
sI1074268624
(Vbootloader_clock_configure
p3635
(lp3636
(L2559598596L
L1880226080L
(lp3637
(lp3638
Vesp_rom_uart_tx_wait_idle
p3639
aVefuse_hal_chip_revision
p3640
atp3641
a(L1757625900L
L1443213481L
(lp3642
(lp3643
tp3644
a(L741498227L
L1443213481L
(lp3645
(lp3646
tp3647
a(L106L
L0L
(lp3648
(lp3649
tp3650
a(L4228321918L
L1405109379L
(lp3651
(lp3652
Vrtc_clk_slow_src_get
p3653
aVrtc_clk_fast_src_get
p3654
aVrtc_clk_init
p3655
atp3656
a(L2538867838L
L2195759072L
(lp3657
(lp3658
tp3659
a(L1038013235L
L3833084538L
(lp3660
(lp3661
Vrtc_clk_apb_freq_get
p3662
atp3663
a(L106L
L0L
(lp3664
(lp3665
tp3666
a(L106L
L0L
(lp3667
(lp3668
tp3669
atp3670
sI1074243292
(Vbootloader_load_image
p3671
(lp3672
(L1155870502L
L3785322319L
(lp3673
(lp3674
Vimage_load
p3675
atp3676
atp3677
sI1074245084
(Vrtc_clk_bbpll_disable
p3678
(lp3679
(L3512291683L
L1690040256L
(lp3680
(lp3681
tp3682
a(L2472207241L
L0L
(lp3683
(lp3684
tp3685
a(L3360570486L
L0L
(lp3686
(lp3687
tp3688
atp3689
sI1074236888
(Vesp_dport_access_reg_read
p3690
(lp3691
(L1099794772L
L0L
(lp3692
(lp3693
tp3694
atp3695
sI1074236900
(Vis_xmc_chip_strict
p3696
(lp3697
(L1286841609L
L0L
(lp3698
(lp3699
tp3700
a(L2234016759L
L0L
(lp3701
(lp3702
tp3703
a(L1069027148L
L0L
(lp3704
(lp3705
tp3706
a(L3021749L
L0L
(lp3707
(lp3708
tp3709
a(L1900148749L
L0L
(lp3710
(lp3711
tp3712
a(L1936875721L
L0L
(lp3713
(lp3714
tp3715
a(L3356166509L
L0L
(lp3716
(lp3717
tp3718
a(L1937769451L
L0L
(lp3719
(lp3720
tp3721
a(L2137658907L
L0L
(lp3722
(lp3723
tp3724
a(L4265949734L
L0L
(lp3725
(lp3726
tp3727
a(L3360570486L
L0L
(lp3728
(lp3729
tp3730
atp3731
sI1074238180
(Vbootloader_flash_get_spi_mode
p3732
(lp3733
(L1418320346L
L1443213481L
(lp3734
(lp3735
tp3736
a(L2046153171L
L0L
(lp3737
(lp3738
tp3739
a(L893866618L
L0L
(lp3740
(lp3741
tp3742
a(L894790139L
L0L
(lp3743
(lp3744
tp3745
a(L822032846L
L0L
(lp3746
(lp3747
tp3748
a(L3360570486L
L0L
(lp3749
(lp3750
tp3751
atp3752
sI1074238944
(Vcache_ll_l1_enable_bus
p3753
(lp3754
(L318252209L
L1443213481L
(lp3755
(lp3756
tp3757
atp3758
sI1074269920
(Vbootloader_enable_random
p3759
(lp3760
(L859804465L
L2704288053L
(lp3761
(lp3762
Vesp_log_early_timestamp
p3763
aVbootloader_random_enable
p3764
atp3765
atp3766
sI1074270944
(Vmpu_hal_set_region_access
p3767
(lp3768
(L3538356822L
L0L
(lp3769
(lp3770
tp3771
a(L93674324L
L0L
(lp3772
(lp3773
tp3774
a(L2910371777L
L0L
(lp3775
(lp3776
tp3777
a(L3472092938L
L0L
(lp3778
(lp3779
tp3780
a(L3020187L
L0L
(lp3781
(lp3782
tp3783
a(L3360570486L
L0L
(lp3784
(lp3785
tp3786
a(L2258718273L
L0L
(lp3787
(lp3788
tp3789
a(L3446648619L
L0L
(lp3790
(lp3791
tp3792
a(L3739532189L
L0L
(lp3793
(lp3794
tp3795
a(L1300789895L
L0L
(lp3796
(lp3797
tp3798
atp3799
sI1074243308
(Vesp_partition_table_verify
p3800
(lp3801
(L44179228L
L1443213481L
(lp3802
(lp3803
tp3804
a(L3031150553L
L1443213481L
(lp3805
(lp3806
tp3807
a(L1184829782L
L0L
(lp3808
(lp3809
tp3810
a(L3020204L
L0L
(lp3811
(lp3812
tp3813
a(L26389654L
L3187408090L
(lp3814
(lp3815
Vesp_log_early_timestamp
p3816
atp3817
a(L1235012963L
L0L
(lp3818
(lp3819
tp3820
a(L3190337587L
L0L
(lp3821
(lp3822
tp3823
a(L2069928857L
L0L
(lp3824
(lp3825
tp3826
a(L2902417580L
L0L
(lp3827
(lp3828
tp3829
a(L2543114737L
L2147981551L
(lp3830
(lp3831
Vesp_log_early_timestamp
p3832
atp3833
a(L1715222413L
L1443213481L
(lp3834
(lp3835
tp3836
a(L3020204L
L0L
(lp3837
(lp3838
tp3839
a(L3020204L
L0L
(lp3840
(lp3841
tp3842
a(L1328961945L
L2147981551L
(lp3843
(lp3844
Vesp_log_early_timestamp
p3845
atp3846
a(L4207910112L
L1443213481L
(lp3847
(lp3848
tp3849
a(L1235012932L
L0L
(lp3850
(lp3851
tp3852
a(L458256366L
L4021370767L
(lp3853
(lp3854
Vmemcmp
p3855
atp3856
a(L3020204L
L0L
(lp3857
(lp3858
tp3859
a(L2543114737L
L2147981551L
(lp3860
(lp3861
Vesp_log_early_timestamp
p3862
atp3863
a(L1305407469L
L0L
(lp3864
(lp3865
tp3866
a(L1167861556L
L0L
(lp3867
(lp3868
tp3869
a(L818997085L
L0L
(lp3870
(lp3871
tp3872
a(L3360570486L
L0L
(lp3873
(lp3874
tp3875
a(L3020204L
L0L
(lp3876
(lp3877
tp3878
a(L3999534504L
L3187408090L
(lp3879
(lp3880
Vesp_log_early_timestamp
p3881
atp3882
atp3883
sI1074245356
(Vrtc_clk_8md256_enabled
p3884
(lp3885
(L4014027530L
L1443213481L
(lp3886
(lp3887
tp3888
atp3889
sI1074248172
(Vesp_rom_spiflash_write_encrypted
p3890
(lp3891
(L1944247967L
L0L
(lp3892
(lp3893
tp3894
a(L3825342292L
L1443213481L
(lp3895
(lp3896
tp3897
a(L97689L
L0L
(lp3898
(lp3899
tp3900
a(L3061232074L
L0L
(lp3901
(lp3902
tp3903
a(L1562911102L
L1443213481L
(lp3904
(lp3905
tp3906
a(L1309309703L
L3785322319L
(lp3907
(lp3908
Vesp_rom_spiflash_write
p3909
atp3910
a(L2269233063L
L1443213481L
(lp3911
(lp3912
tp3913
a(L735741265L
L0L
(lp3914
(lp3915
tp3916
atp3917
sI1074236660
(Vesp_rom_uart_set_clock_baudrate
p3918
(lp3919
(L1471953879L
L1443213481L
(lp3920
(lp3921
tp3922
a(L1872515506L
L1443213481L
(lp3923
(lp3924
tp3925
a(L147213506L
L1443213481L
(lp3926
(lp3927
tp3928
a(L3104172142L
L1443213481L
(lp3929
(lp3930
tp3931
atp3932
sI1074269948
(Vbootloader_print_banner
p3933
(lp3934
(L3569996224L
L1385564105L
(lp3935
(lp3936
Vesp_bootloader_get_description
p3937
aVesp_log_early_timestamp
p3938
aVesp_log_early_timestamp
p3939
aVesp_log_early_timestamp
p3940
atp3941
atp3942
sI1074235632
(Vbootloader_read_flash_id
p3943
(lp3944
(L549578328L
L3785322319L
(lp3945
(lp3946
Vbootloader_execute_flash_command
p3947
atp3948
atp3949
sI1074245616
(Vrtc_clk_fast_src_get
p3950
(lp3951
(L2217920473L
L1443213481L
(lp3952
(lp3953
tp3954
atp3955
sI1074269680
(Vbootloader_read_bootloader_header
p3956
(lp3957
(L2948018849L
L242900614L
(lp3958
(lp3959
Vbootloader_flash_read
p3960
atp3961
a(L804259852L
L3187408090L
(lp3962
(lp3963
Vesp_log_early_timestamp
p3964
atp3965
a(L735741265L
L0L
(lp3966
(lp3967
tp3968
atp3969
sI1074237692
(Vbootloader_munmap
p3970
(lp3971
(L4096859803L
L2195759072L
(lp3972
(lp3973
tp3974
a(L4150885370L
L2624587680L
(lp3975
(lp3976
tp3977
a(L3360570486L
L0L
(lp3978
(lp3979
tp3980
atp3981
sI1074236412
(Vbootloader_flash_dummy_config
p3982
(lp3983
(L2633298977L
L1443213481L
(lp3984
(lp3985
tp3986
a(L2761717557L
L0L
(lp3987
(lp3988
tp3989
a(L1849044936L
L0L
(lp3990
(lp3991
tp3992
a(L2198646520L
L2195759072L
(lp3993
(lp3994
tp3995
a(L1857500547L
L1443213481L
(lp3996
(lp3997
tp3998
a(L3020204L
L0L
(lp3999
(lp4000
tp4001
a(L1610443405L
L0L
(lp4002
(lp4003
tp4004
a(L4032120524L
L0L
(lp4005
(lp4006
tp4007
a(L2336993863L
L0L
(lp4008
(lp4009
tp4010
a(L1298875775L
L0L
(lp4011
(lp4012
tp4013
a(L3880393601L
L0L
(lp4014
(lp4015
tp4016
a(L2272848587L
L1443213481L
(lp4017
(lp4018
tp4019
a(L1610443436L
L0L
(lp4020
(lp4021
tp4022
atp4023
sI1074242812
(Vimage_load
p4024
(lp4025
(L3048705773L
L0L
(lp4026
(lp4027
tp4028
a(L3463713141L
L0L
(lp4029
(lp4030
tp4031
a(L3309803581L
L0L
(lp4032
(lp4033
tp4034
a(L256049682L
L0L
(lp4035
(lp4036
tp4037
a(L1935188817L
L0L
(lp4038
(lp4039
tp4040
a(L3028481L
L0L
(lp4041
(lp4042
tp4043
a(L3021749L
L0L
(lp4044
(lp4045
tp4046
a(L106L
L0L
(lp4047
(lp4048
tp4049
a(L585264737L
L0L
(lp4050
(lp4051
tp4052
a(L1145291904L
L3785322319L
(lp4053
(lp4054
Vprocess_image_header
p4055
atp4056
a(L823859500L
L0L
(lp4057
(lp4058
tp4059
a(L3061291474L
L0L
(lp4060
(lp4061
tp4062
a(L4106474008L
L3785322319L
(lp4063
(lp4064
Vprocess_segments
p4065
atp4066
a(L3868840998L
L0L
(lp4067
(lp4068
tp4069
a(L2962085561L
L1443213481L
(lp4070
(lp4071
tp4072
a(L1827898452L
L3785322319L
(lp4073
(lp4074
Vprocess_checksum
p4075
atp4076
a(L2214715179L
L3785322319L
(lp4077
(lp4078
Vprocess_appended_hash_and_sig
p4079
atp4080
a(L3028481L
L0L
(lp4081
(lp4082
tp4083
a(L2902417580L
L0L
(lp4084
(lp4085
tp4086
a(L3285560995L
L3785322319L
(lp4087
(lp4088
Vbootloader_sha256_finish
p4089
atp4090
a(L3946560000L
L0L
(lp4091
(lp4092
tp4093
a(L93674324L
L0L
(lp4094
(lp4095
tp4096
a(L2674734805L
L2195759072L
(lp4097
(lp4098
tp4099
a(L1168805591L
L1443213481L
(lp4100
(lp4101
tp4102
a(L1179424413L
L0L
(lp4103
(lp4104
tp4105
a(L3928150917L
L0L
(lp4106
(lp4107
tp4108
a(L106L
L0L
(lp4109
(lp4110
tp4111
a(L3871473710L
L0L
(lp4112
(lp4113
tp4114
a(L3884726427L
L0L
(lp4115
(lp4116
tp4117
a(L106L
L0L
(lp4118
(lp4119
tp4120
a(L3020187L
L0L
(lp4121
(lp4122
tp4123
a(L1337906930L
L3187408090L
(lp4124
(lp4125
Vesp_log_early_timestamp
p4126
atp4127
a(L2868044067L
L0L
(lp4128
(lp4129
tp4130
a(L1179764900L
L0L
(lp4131
(lp4132
tp4133
a(L2332746046L
L3785322319L
(lp4134
(lp4135
Vbootloader_sha256_finish
p4136
atp4137
a(L3721568057L
L242900614L
(lp4138
(lp4139
Vmemset
p4140
atp4141
a(L3020204L
L0L
(lp4142
(lp4143
tp4144
a(L3039742375L
L1443213481L
(lp4145
(lp4146
tp4147
a(L106L
L0L
(lp4148
(lp4149
tp4150
a(L3307179591L
L2839326997L
(lp4151
(lp4152
Vmemset
p4153
aVbootloader_sha256_finish
p4154
aVbootloader_debug_buffer
p4155
aVmemcmp
p4156
atp4157
a(L3433271982L
L2266857161L
(lp4158
(lp4159
Vesp_log_early_timestamp
p4160
aVbootloader_debug_buffer
p4161
atp4162
a(L3741653406L
L3785322319L
(lp4163
(lp4164
Vshould_load
p4165
atp4166
a(L2764257181L
L0L
(lp4167
(lp4168
tp4169
a(L3338774213L
L0L
(lp4170
(lp4171
tp4172
a(L193456747L
L1443213481L
(lp4173
(lp4174
tp4175
a(L3349572949L
L0L
(lp4176
(lp4177
tp4178
a(L2192292519L
L0L
(lp4179
(lp4180
tp4181
a(L106L
L0L
(lp4182
(lp4183
tp4184
a(L1702191967L
L1443213481L
(lp4185
(lp4186
tp4187
a(L1299866312L
L0L
(lp4188
(lp4189
tp4190
a(L3010020263L
L0L
(lp4191
(lp4192
tp4193
atp4194
sI1074244604
(Vwdt_hal_write_protect_enable
p4195
(lp4196
(L387778158L
L0L
(lp4197
(lp4198
tp4199
a(L4195472003L
L0L
(lp4200
(lp4201
tp4202
a(L3360570486L
L0L
(lp4203
(lp4204
tp4205
a(L802523425L
L0L
(lp4206
(lp4207
tp4208
atp4209
sI1074243576
(Vwdt_hal_init
p4210
(lp4211
(L1845705415L
L242900614L
(lp4212
(lp4213
Vmemset
p4214
atp4215
a(L106L
L0L
(lp4216
(lp4217
tp4218
a(L147213506L
L1443213481L
(lp4219
(lp4220
tp4221
a(L3076988543L
L0L
(lp4222
(lp4223
tp4224
a(L746843176L
L3294285696L
(lp4225
(lp4226
tp4227
a(L3028464L
L0L
(lp4228
(lp4229
tp4230
a(L268651496L
L1443213481L
(lp4231
(lp4232
tp4233
a(L213928354L
L1443213481L
(lp4234
(lp4235
tp4236
a(L1646580088L
L3294285696L
(lp4237
(lp4238
tp4239
a(L3360570486L
L0L
(lp4240
(lp4241
tp4242
atp4243
sI1074240504
(Vbootloader_debug_buffer
p4244
(lp4245
(L2100504542L
L0L
(lp4246
(lp4247
tp4248
atp4249
ssS'functionsdups'
p4250
g11
((lp4251
tp4252
Rp4253
sS'immediatedups'
p4254
g11
((lp4255
tp4256
Rp4257
sS'functiondups'
p4258
g11
((lp4259
tp4260
Rp4261
sS'fuzzy'
p4262
(dp4263
L366261972L
I1074270276
sL2376760616L
I1074243308
sL1898962604L
I1074238728
sL3223682214L
I1074248172
sL4033782891L
I1074244536
sL1651792242L
I1074247624
sL1500945776L
I1074268060
sL800708016L
I1074239512
sL2092869556L
I1074247872
sL1772626723L
I1074235832
sL2539816556L
I1074236660
sL3032120501L
I1074245764
sL2471313117L
I1074240680
sL2641888616L
I1074246816
sL381028389L
I1074240892
sL3711025829L
I1074240200
sL3500016395L
I1074242072
sL1962232032L
I1074245632
sL797548049L
I1074240512
sL3374853808L
I1074269656
sL2859057779L
I1074269352
sL2835607711L
I1074270016
sL2095240828L
I1074234756
sL1348852091L
I1074248260
sL2182127758L
I1074270100
sL3221945515L
I1074245904
sL1485246373L
I1074240972
sL3525303483L
I1074245496
sL1247030641L
I1074268864
sL214341344L
I1074244704
sL1729011238L
I1074241944
sL1959102959L
I1074237484
sL4242478965L
I1074238236
sL2216531249L
I1074245524
sL579471141L
I1074269920
sL1096063205L
I1074236804
sL2906154889L
I1074247576
sL1065525808L
I1074236900
sL2849727465L
I1074238996
sL1821770661L
I1074237692
sL332090111L
I1074236576
sL282843886L
I1074237744
sL3703425408L
I1074245204
sL2038713658L
I1074246772
sL2688270468L
I1074269724
sL2708185770L
I1074241328
sL3890904617L
I1074245976
sL3530961461L
I1074270720
sL1605229163L
I1074239876
sL1210592366L
I1074245380
sL1332800441L
I1074237308
sL209111356L
I1074245552
sL3183721996L
I1074235280
sL3558783183L
I1074238020
sL1377360842L
I1074244788
sL2726707668L
I1074268568
sL3300368739L
I1074267836
sL1161792488L
I1074241140
sL4091350277L
I1074247680
sL2871786995L
I1074269792
sL3578810761L
I1074235580
sL2018002450L
I1074235680
sL531949167L
I1074237068
sL1060788199L
I1074245672
sL1444874434L
I1074269948
sL994994961L
I1074238644
sL2663898648L
I1074269680
sL1155028103L
I1074270052
sL627477382L
I1074235944
sL814911857L
I1074240532
sL3280013925L
I1074238316
sL1862804207L
I1074244188
sL2806886186L
I1074268624
sL1815510750L
I1074244924
sL963803290L
I1074246088
sL3715950101L
I1074244504
sL3420458249L
I1074247480
sL3274368577L
I1074238844
sL3246158480L
I1074239392
sL1872673135L
I1074240176
sL1214705044L
I1074236412
sL4155364446L
I1074237032
sL755401973L
I1074267728
sL230862646L
I1074237452
sL2452281182L
I1074247312
sL1564551092L
I1074241856
sL1122585247L
I1074243576
sL3659714901L
I1074241384
sL2752268667L
I1074244752
sL3428612389L
I1074247280
sL1950296771L
I1074248008
sL1396037064L
I1074245144
sL1014311563L
I1074242812
sL1596982735L
I1074269368
ssb.