ccopy_reg
_reconstructor
p0
(crizzo
RizzoSignature
p1
c__builtin__
object
p2
Ntp3
Rp4
(dp5
S'formal'
p6
(dp7
L4225157591L
I1074238828
sL2005196428L
I1074245940
sL2087186284L
I1074236416
sL1741170115L
I1074238000
sL1913647619L
I1074269752
sL3984280162L
I1074244432
sL3746738248L
I1074239308
sL2628804010L
I1074270676
sL4213015302L
I1074243220
sL461860251L
I1074247728
sL286550283L
I1074269820
sL3976424482L
I1074234716
sL552298442L
I1074235284
sL2767810776L
I1074238020
sL5464944L
I1074245112
sL2771134728L
I1074240128
sL2326361228L
I1074269172
sL2702580795L
I1074237376
sL3584576135L
I1074245604
sL2610420647L
I1074269596
sL2896295319L
I1074236900
sL25479346L
I1074240608
sL438696979L
I1074269724
sL1331791455L
I1074246032
sL1674148343L
I1074246088
sL1786019146L
I1074248096
sL4023292303L
I1074237452
sL3879881731L
I1074267788
sL3256726111L
I1074248424
sL2485902447L
I1074236740
sL723138898L
I1074238180
sL424336643L
I1074269460
sL366218909L
I1074269856
sL368505532L
I1074246364
sL1450005286L
I1074238776
sL332506269L
I1074239428
sL848906711L
I1074248588
sL1585823442L
I1074244532
sL1622896354L
I1074244560
sL3092620558L
I1074235684
sL2521269785L
I1074236980
sL2189223198L
I1074240368
sL3580313603L
I1074241872
sL2493713350L
I1074245796
sL183144L
I1074238728
sL2930276314L
I1074235836
sL4161584248L
I1074268364
sL4175577751L
I1074244660
sL2723725103L
I1074240804
sL1633709340L
I1074245772
sL2813809866L
I1074236764
sL2366387314L
I1074270524
sL1330922710L
I1074247232
sL1731035566L
I1074236576
sL676927194L
I1074268660
sL244922653L
I1074242740
sL2691843063L
I1074246392
sL3307282855L
I1074238160
sL127813144L
I1074243504
sL2834351222L
I1074244832
sL3065846068L
I1074235584
sL3553146178L
I1074267680
sL2195669076L
I1074245748
sL357647324L
I1074268668
sL1772514345L
I1074238944
sL3042952135L
I1074267672
sL3721992006L
I1074240820
sL1160735408L
I1074242000
sL4038945309L
I1074235636
sL3041505513L
I1074237484
sL1435968304L
I1074244696
sL4178015136L
I1074247896
sL1992104215L
I1074236872
sL1112935418L
I1074234760
sL4020657674L
I1074246504
sL2931540503L
I1074248040
sL1382567621L
I1074238236
sL105563623L
I1074240440
sL2997001746L
I1074237308
sL59949349L
I1074241068
sL76756778L
I1074240900
sL556795273L
I1074269528
sL2819127986L
I1074237032
sL3195929028L
I1074240104
sL3024810484L
I1074270080
sL3300909439L
I1074236564
sL1481764497L
I1074237012
sL1877634603L
I1074270748
sL2687718384L
I1074243236
sL2789355142L
I1074244116
sL1098683832L
I1074245052
sL3015462521L
I1074238644
sL3066643969L
I1074247696
sL886840080L
I1074237068
sL2062758462L
I1074236804
sL828360338L
I1074239796
sL1347401601L
I1074240460
sL2248158928L
I1074238316
sL660825523L
I1074245620
sL3362774716L
I1074236660
sL3338519854L
I1074246320
sL2195659785L
I1074245968
sL540472814L
I1074248288
sL2263182908L
I1074238228
sL965583188L
I1074246180
sL114336524L
I1074269484
sL282668036L
I1074244464
sL963291061L
I1074248676
sL3630163135L
I1074236888
sL188664287L
I1074235252
sL2743385701L
I1074269156
sL2404540336L
I1074245912
sL3381706866L
I1074268420
sL2485146564L
I1074240844
sL692536993L
I1074237348
sL822000404L
I1074246048
sL921639684L
I1074235948
sL235684320L
I1074237744
sL3364903294L
I1074247992
sL1817360290L
I1074241312
sL917018201L
I1074236972
sL237904351L
I1074241256
sL2758712477L
I1074241784
sL309068699L
I1074244992
sL1140246287L
I1074247188
sL960642745L
I1074244632
sL3958998789L
I1074237692
sL4029637072L
I1074269904
ssS'immediates'
p8
(dp9
sS'formaldups'
p10
c__builtin__
set
p11
((lp12
tp13
Rp14
sS'stringdups'
p15
g11
((lp16
tp17
Rp18
sS'fuzzydups'
p19
g11
((lp20
tp21
Rp22
sS'strings'
p23
(dp24
sS'functions'
p25
(dp26
I1074236416
(Vbootloader_flash_dummy_config
p27
(lp28
(L2633298977L
L1443213481L
(lp29
(lp30
tp31
a(L2761717557L
L0L
(lp32
(lp33
tp34
a(L1849044936L
L0L
(lp35
(lp36
tp37
a(L2198646520L
L2195759072L
(lp38
(lp39
tp40
a(L1857500547L
L1443213481L
(lp41
(lp42
tp43
a(L3020204L
L0L
(lp44
(lp45
tp46
a(L1610443405L
L0L
(lp47
(lp48
tp49
a(L4032120524L
L0L
(lp50
(lp51
tp52
a(L2336993863L
L0L
(lp53
(lp54
tp55
a(L1298875775L
L0L
(lp56
(lp57
tp58
a(L3880393601L
L0L
(lp59
(lp60
tp61
a(L2272848587L
L1443213481L
(lp62
(lp63
tp64
a(L1610443436L
L0L
(lp65
(lp66
tp67
atp68
sI1074267136
(V_init
p69
(lp70
(L3493042598L
L0L
(lp71
(lp72
tp73
atp74
sI1074237452
(Vspi_to_esp_err
p75
(lp76
(L2749733621L
L1443213481L
(lp77
(lp78
tp79
a(L1872507229L
L1443213481L
(lp80
(lp81
tp82
a(L3952441574L
L0L
(lp83
(lp84
tp85
a(L3126521138L
L0L
(lp86
(lp87
tp88
atp89
sI1074268420
(Vbootloader_clock_configure
p90
(lp91
(L2559598596L
L1880226080L
(lp92
(lp93
Vesp_rom_uart_tx_wait_idle
p94
aVefuse_hal_chip_revision
p95
atp96
a(L1757625900L
L1443213481L
(lp97
(lp98
tp99
a(L741498227L
L1443213481L
(lp100
(lp101
tp102
a(L106L
L0L
(lp103
(lp104
tp105
a(L435491390L
L1405109379L
(lp106
(lp107
Vrtc_clk_slow_src_get
p108
aVrtc_clk_fast_src_get
p109
aVrtc_clk_init
p110
atp111
a(L3287840219L
L3785322319L
(lp112
(lp113
Vrtc_clk_32k_enabled
p114
atp115
a(L4283346264L
L3785322319L
(lp116
(lp117
Vrtc_clk_32k_bootstrap
p118
atp119
a(L2538867838L
L2195759072L
(lp120
(lp121
tp122
a(L1038013235L
L3833084538L
(lp123
(lp124
Vrtc_clk_apb_freq_get
p125
atp126
a(L106L
L0L
(lp127
(lp128
tp129
a(L106L
L0L
(lp130
(lp131
tp132
atp133
sI1074238728
(Vtry_load_partition
p134
(lp135
(L1263750142L
L0L
(lp136
(lp137
tp138
a(L2258688482L
L0L
(lp139
(lp140
tp141
a(L3360570486L
L0L
(lp142
(lp143
tp144
a(L530241438L
L3785322319L
(lp145
(lp146
Vbootloader_load_image
p147
atp148
a(L4168266278L
L3187408090L
(lp149
(lp150
Vesp_log_early_timestamp
p151
atp152
atp153
sI1074267672
(Vesp_bootloader_get_description
p154
(lp155
(L2248573785L
L2195759072L
(lp156
(lp157
tp158
atp159
sI1074238228
(Vbootloader_mmap_get_free_pages
p160
(lp161
(L1496516875L
L0L
(lp162
(lp163
tp164
atp165
sI1074244116
(Vwdt_hal_config_stage
p166
(lp167
(L331558507L
L0L
(lp168
(lp169
tp170
a(L4279082939L
L0L
(lp171
(lp172
tp173
a(L93674324L
L0L
(lp174
(lp175
tp176
a(L2902417580L
L0L
(lp177
(lp178
tp179
a(L1506709436L
L1443213481L
(lp180
(lp181
tp182
a(L3020187L
L0L
(lp183
(lp184
tp185
a(L94425498L
L3785322319L
(lp186
(lp187
Vabort
p188
atp189
a(L1999536000L
L1443213481L
(lp190
(lp191
tp192
a(L3360570486L
L0L
(lp193
(lp194
tp195
a(L2402105077L
L1443213481L
(lp196
(lp197
tp198
a(L3297501927L
L1443213481L
(lp199
(lp200
tp201
a(L4278159418L
L0L
(lp202
(lp203
tp204
a(L93674324L
L0L
(lp205
(lp206
tp207
a(L3020204L
L0L
(lp208
(lp209
tp210
a(L2956541743L
L1443213481L
(lp211
(lp212
tp213
a(L3020187L
L0L
(lp214
(lp215
tp216
a(L106L
L0L
(lp217
(lp218
tp219
a(L1473987957L
L1443213481L
(lp220
(lp221
tp222
a(L927955509L
L1443213481L
(lp223
(lp224
tp225
a(L3740367810L
L1443213481L
(lp226
(lp227
tp228
atp229
sI1074247188
(Vrtc_clk_apb_freq_get
p230
(lp231
(L189810653L
L1679261929L
(lp232
(lp233
tp234
atp235
sI1074269724
(Vbootloader_enable_random
p236
(lp237
(L859804465L
L2704288053L
(lp238
(lp239
Vesp_log_early_timestamp
p240
aVbootloader_random_enable
p241
atp242
atp243
sI1074270748
(Vmpu_hal_set_region_access
p244
(lp245
(L3538356822L
L0L
(lp246
(lp247
tp248
a(L93674324L
L0L
(lp249
(lp250
tp251
a(L2910371777L
L0L
(lp252
(lp253
tp254
a(L3472092938L
L0L
(lp255
(lp256
tp257
a(L3020187L
L0L
(lp258
(lp259
tp260
a(L3360570486L
L0L
(lp261
(lp262
tp263
a(L2258718273L
L0L
(lp264
(lp265
tp266
a(L3446648619L
L0L
(lp267
(lp268
tp269
a(L3739532189L
L0L
(lp270
(lp271
tp272
a(L1300789895L
L0L
(lp273
(lp274
tp275
atp276
sI1074247696
(Vrtc_clk_cal_ratio
p277
(lp278
(L3870710856L
L195123093L
(lp279
(lp280
Vrtc_clk_cal_internal
p281
aV__udivdi3
p282
atp283
atp284
sI1074238236
(Vbootloader_fill_random
p285
(lp286
(L3377511333L
L2195759072L
(lp287
(lp288
tp289
a(L4033043682L
L4032149094L
(lp290
(lp291
V__assert_func
p292
atp293
a(L1882547218L
L0L
(lp294
(lp295
tp296
a(L2910371777L
L0L
(lp297
(lp298
tp299
a(L95634693L
L0L
(lp300
(lp301
tp302
a(L3630908706L
L0L
(lp303
(lp304
tp305
a(L160162640L
L0L
(lp306
(lp307
tp308
a(L97689L
L0L
(lp309
(lp310
tp311
a(L3360570486L
L0L
(lp312
(lp313
tp314
atp315
sI1074269460
(Vbootloader_clear_bss_section
p316
(lp317
(L2193193874L
L4032149094L
(lp318
(lp319
Vmemset
p320
atp321
atp322
sI1074244632
(Vmmu_hal_unmap_all
p323
(lp324
(L3970138582L
L1443213481L
(lp325
(lp326
tp327
a(L2010554219L
L0L
(lp328
(lp329
tp330
a(L3360570486L
L0L
(lp331
(lp332
tp333
atp334
sI1074245912
(Vrtc_clk_slow_src_get
p335
(lp336
(L1566794270L
L1443213481L
(lp337
(lp338
tp339
a(L3020187L
L0L
(lp340
(lp341
tp342
a(L2902417580L
L0L
(lp343
(lp344
tp345
a(L2258688485L
L0L
(lp346
(lp347
tp348
a(L3360570486L
L0L
(lp349
(lp350
tp351
atp352
sI1074240804
(Vbootloader_console_deinit
p353
(lp354
(L1858531217L
L1443213481L
(lp355
(lp356
tp357
atp358
sI1074235684
(Vbootloader_flash_xmc_startup
p359
(lp360
(L3433652179L
L242900614L
(lp361
(lp362
Vis_xmc_chip_strict
p363
atp364
a(L2258688482L
L0L
(lp365
(lp366
tp367
a(L3360570486L
L0L
(lp368
(lp369
tp370
a(L2860324232L
L3785322319L
(lp371
(lp372
Vbootloader_flash_read_sfdp
p373
atp374
a(L933155447L
L3609046414L
(lp375
(lp376
Vesp_log_early_timestamp
p377
aVbootloader_execute_flash_command
p378
aVbootloader_execute_flash_command
p379
aVbootloader_execute_flash_command
p380
aVbootloader_execute_flash_command
p381
aVbootloader_read_flash_id
p382
aVis_xmc_chip_strict
p383
atp384
a(L1000132677L
L3187408090L
(lp385
(lp386
Vesp_log_early_timestamp
p387
atp388
atp389
sI1074246180
(Vrtc_clk_cpu_freq_get_config
p390
(lp391
(L4245581454L
L1443213481L
(lp392
(lp393
tp394
a(L3020187L
L0L
(lp395
(lp396
tp397
a(L3020187L
L0L
(lp398
(lp399
tp400
a(L2734221335L
L242900614L
(lp401
(lp402
Vrtc_clk_xtal_freq_get
p403
atp404
a(L3789795478L
L0L
(lp405
(lp406
tp407
a(L672805395L
L2704288053L
(lp408
(lp409
Vesp_log_early_timestamp
p410
aVabort
p411
atp412
a(L3849169076L
L1443213481L
(lp413
(lp414
tp415
a(L3020187L
L0L
(lp416
(lp417
tp418
a(L3028481L
L0L
(lp419
(lp420
tp421
a(L38508693L
L0L
(lp422
(lp423
tp424
a(L187152368L
L0L
(lp425
(lp426
tp427
a(L1161083655L
L0L
(lp428
(lp429
tp430
a(L1395485899L
L0L
(lp431
(lp432
tp433
a(L2070600034L
L0L
(lp434
(lp435
tp436
atp437
sI1074269484
(Vbootloader_read_bootloader_header
p438
(lp439
(L2948018849L
L242900614L
(lp440
(lp441
Vbootloader_flash_read
p442
atp443
a(L804259852L
L3187408090L
(lp444
(lp445
Vesp_log_early_timestamp
p446
atp447
a(L735741265L
L0L
(lp448
(lp449
tp450
atp451
sI1074241312
(Vverify_load_addresses
p452
(lp453
(L2764487219L
L0L
(lp454
(lp455
tp456
a(L106L
L0L
(lp457
(lp458
tp459
a(L97642L
L0L
(lp460
(lp461
tp462
a(L1682572953L
L4032149094L
(lp463
(lp464
V__assert_func
p465
atp466
a(L371731316L
L2195759072L
(lp467
(lp468
tp469
a(L106L
L0L
(lp470
(lp471
tp472
a(L3747671351L
L2195759072L
(lp473
(lp474
tp475
a(L106L
L0L
(lp476
(lp477
tp478
a(L159211233L
L4171435875L
(lp479
(lp480
Vbootloader_util_regions_overlap
p481
atp482
a(L3369736729L
L581251951L
(lp483
(lp484
Vbootloader_util_regions_overlap
p485
atp486
a(L3028481L
L0L
(lp487
(lp488
tp489
a(L129067213L
L242900614L
(lp490
(lp491
Vbootloader_util_regions_overlap
p492
atp493
a(L51970127L
L2534110409L
(lp494
(lp495
tp496
a(L3212477138L
L1443213481L
(lp497
(lp498
tp499
a(L1032381749L
L0L
(lp500
(lp501
tp502
a(L2837304413L
L0L
(lp503
(lp504
tp505
a(L677569396L
L3785322319L
(lp506
(lp507
Vverify_load_addresses
p508
atp509
a(L1351513776L
L0L
(lp510
(lp511
tp512
a(L956755582L
L0L
(lp513
(lp514
tp515
a(L1550159667L
L1443213481L
(lp516
(lp517
tp518
a(L2297907636L
L2195759072L
(lp519
(lp520
tp521
a(L106L
L0L
(lp522
(lp523
tp524
a(L1378880375L
L2195759072L
(lp525
(lp526
tp527
a(L106L
L0L
(lp528
(lp529
tp530
a(L1933245593L
L581251951L
(lp531
(lp532
Vbootloader_util_regions_overlap
p533
atp534
a(L3028481L
L0L
(lp535
(lp536
tp537
a(L2219806806L
L581251951L
(lp538
(lp539
Vbootloader_util_regions_overlap
p540
atp541
a(L3186102034L
L1690040256L
(lp542
(lp543
tp544
a(L1284972329L
L1443213481L
(lp545
(lp546
tp547
a(L3236457224L
L1443213481L
(lp548
(lp549
tp550
a(L2743341656L
L0L
(lp551
(lp552
tp553
a(L182882711L
L0L
(lp554
(lp555
tp556
a(L2268367078L
L2195759072L
(lp557
(lp558
tp559
a(L297163306L
L0L
(lp560
(lp561
tp562
a(L1900059593L
L0L
(lp563
(lp564
tp565
a(L376010266L
L2534110409L
(lp566
(lp567
tp568
a(L1319531632L
L1443213481L
(lp569
(lp570
tp571
a(L3929371936L
L0L
(lp572
(lp573
tp574
a(L147213506L
L1443213481L
(lp575
(lp576
tp577
a(L4072848040L
L0L
(lp578
(lp579
tp580
a(L106L
L0L
(lp581
(lp582
tp583
a(L268651496L
L1443213481L
(lp584
(lp585
tp586
a(L147213506L
L1443213481L
(lp587
(lp588
tp589
a(L3020204L
L0L
(lp590
(lp591
tp592
a(L885671544L
L2275292552L
(lp593
(lp594
Vesp_log_early_timestamp
p595
atp596
a(L1303560396L
L0L
(lp597
(lp598
tp599
a(L268651496L
L1443213481L
(lp600
(lp601
tp602
a(L1303560427L
L0L
(lp603
(lp604
tp605
atp606
sI1074267680
(Vcall_start_cpu0
p607
(lp608
(L342432055L
L1443213481L
(lp609
(lp610
tp611
a(L4207910112L
L1443213481L
(lp612
(lp613
tp614
a(L3212347974L
L3785322319L
(lp615
(lp616
Vbootloader_init
p617
atp618
a(L94425498L
L3785322319L
(lp619
(lp620
Vbootloader_reset
p621
atp622
a(L1872507246L
L1443213481L
(lp623
(lp624
tp625
a(L4207910112L
L1443213481L
(lp626
(lp627
tp628
a(L356913563L
L2218577417L
(lp629
(lp630
Vmemset
p631
aVbootloader_utility_load_partition_table
p632
atp633
a(L3014296803L
L3187408090L
(lp634
(lp635
Vesp_log_early_timestamp
p636
atp637
a(L405422123L
L3785322319L
(lp638
(lp639
Vbootloader_utility_get_selected_boot_partition
p640
atp641
a(L2025208509L
L242900614L
(lp642
(lp643
Vbootloader_utility_load_boot_image
p644
atp645
atp646
sI1074237484
(Vbootloader_mmap
p647
(lp648
(L3007611739L
L2195759072L
(lp649
(lp650
tp651
a(L1328961945L
L2147981551L
(lp652
(lp653
Vesp_log_early_timestamp
p654
atp655
a(L1596194698L
L1443213481L
(lp656
(lp657
tp658
a(L3729184599L
L0L
(lp659
(lp660
tp661
a(L4163264550L
L3187408090L
(lp662
(lp663
Vesp_log_early_timestamp
p664
atp665
a(L2258688482L
L0L
(lp666
(lp667
tp668
a(L3360570486L
L0L
(lp669
(lp670
tp671
a(L3419814624L
L1443213481L
(lp672
(lp673
tp674
a(L1441818867L
L1690040256L
(lp675
(lp676
tp677
a(L3433564204L
L362179215L
(lp678
(lp679
Vesp_log_early_timestamp
p680
atp681
a(L2543114737L
L2147981551L
(lp682
(lp683
Vesp_log_early_timestamp
p684
atp685
a(L1137490703L
L2195759072L
(lp686
(lp687
tp688
atp689
sI1074236972
(Vefuse_hal_get_disable_wafer_version_major
p690
(lp691
(L4194175088L
L0L
(lp692
(lp693
tp694
atp695
sI1074235948
(Vbootloader_flash_gpio_config
p696
(lp697
(L3362256192L
L3785322319L
(lp698
(lp699
Vbootloader_common_get_chip_ver_pkg
p700
atp701
a(L106L
L0L
(lp702
(lp703
tp704
a(L1998579353L
L0L
(lp705
(lp706
tp707
a(L106L
L0L
(lp708
(lp709
tp710
a(L1839763068L
L1443213481L
(lp711
(lp712
tp713
a(L2440320488L
L1396946377L
(lp714
(lp715
tp716
a(L106L
L0L
(lp717
(lp718
tp719
a(L4003626558L
L0L
(lp720
(lp721
tp722
a(L2164907201L
L2534110409L
(lp723
(lp724
tp725
a(L3360570486L
L0L
(lp726
(lp727
tp728
atp729
sI1074241068
(Vprocess_image_header
p730
(lp731
(L3301900732L
L2218577417L
(lp732
(lp733
Vmemset
p734
aVbootloader_flash_read
p735
atp736
a(L3020204L
L0L
(lp737
(lp738
tp739
a(L4205021202L
L0L
(lp740
(lp741
tp742
a(L321261932L
L0L
(lp743
(lp744
tp745
a(L1161397362L
L3785322319L
(lp746
(lp747
Vbootloader_sha256_start
p748
atp749
a(L2062774299L
L3785322319L
(lp750
(lp751
Vbootloader_sha256_data
p752
atp753
a(L1291118193L
L0L
(lp754
(lp755
tp756
a(L3028481L
L0L
(lp757
(lp758
tp759
a(L559062533L
L3187408090L
(lp760
(lp761
Vesp_log_early_timestamp
p762
atp763
a(L147213506L
L1443213481L
(lp764
(lp765
tp766
a(L2983970029L
L0L
(lp767
(lp768
tp769
a(L4235213884L
L3785322319L
(lp770
(lp771
Vbootloader_common_check_chip_validity
p772
atp773
a(L4144303915L
L0L
(lp774
(lp775
tp776
a(L3028481L
L0L
(lp777
(lp778
tp779
a(L3714328738L
L3187408090L
(lp780
(lp781
Vesp_log_early_timestamp
p782
atp783
a(L2852701393L
L0L
(lp784
(lp785
tp786
a(L2122516551L
L0L
(lp787
(lp788
tp789
a(L3064492592L
L0L
(lp790
(lp791
tp792
atp793
sI1074269752
(Vbootloader_print_banner
p794
(lp795
(L3569996224L
L1385564105L
(lp796
(lp797
Vesp_bootloader_get_description
p798
aVesp_log_early_timestamp
p799
aVesp_log_early_timestamp
p800
aVesp_log_early_timestamp
p801
atp802
atp803
sI1074240820
(V__assert_func
p804
(lp805
(L3115292802L
L2195759072L
(lp806
(lp807
tp808
a(L106L
L0L
(lp809
(lp810
tp811
atp812
sI1074239796
(Vbootloader_utility_get_selected_boot_partition
p813
(lp814
(L2938832293L
L0L
(lp815
(lp816
tp817
a(L2250662613L
L1443213481L
(lp818
(lp819
tp820
a(L3987062097L
L2147981551L
(lp821
(lp822
Vesp_log_early_timestamp
p823
atp824
a(L558289164L
L1443213481L
(lp825
(lp826
tp827
a(L3360570486L
L0L
(lp828
(lp829
tp830
a(L3118387733L
L3785322319L
(lp831
(lp832
Vbootloader_mmap
p833
atp834
a(L3080008394L
L2147981551L
(lp835
(lp836
Vesp_log_early_timestamp
p837
atp838
a(L937961821L
L2410515468L
(lp839
(lp840
Vmemcpy
p841
aVmemcpy
p842
aVbootloader_munmap
p843
aVbootloader_common_ota_select_invalid
p844
atp845
a(L2911028409L
L0L
(lp846
(lp847
tp848
a(L726754926L
L3785322319L
(lp849
(lp850
Vbootloader_common_get_active_otadata
p851
atp852
a(L106L
L0L
(lp853
(lp854
tp855
a(L4179097382L
L0L
(lp856
(lp857
tp858
a(L788494392L
L3785322319L
(lp859
(lp860
Vbootloader_common_ota_select_invalid
p861
atp862
a(L638952356L
L1443213481L
(lp863
(lp864
tp865
a(L1522345576L
L3833084538L
(lp866
(lp867
Vesp_log_early_timestamp
p868
atp869
a(L4207910112L
L1443213481L
(lp870
(lp871
tp872
a(L1641201884L
L0L
(lp873
(lp874
tp875
a(L3196944801L
L2147981551L
(lp876
(lp877
Vesp_log_early_timestamp
p878
atp879
a(L2302032704L
L0L
(lp880
(lp881
tp882
a(L1173788779L
L3785322319L
(lp883
(lp884
Vbootloader_common_ota_select_crc
p885
atp886
a(L178397698L
L1443213481L
(lp887
(lp888
tp889
a(L1324800084L
L3785322319L
(lp890
(lp891
Vbootloader_common_ota_select_crc
p892
atp893
a(L1299866312L
L0L
(lp894
(lp895
tp896
a(L2704362655L
L1443213481L
(lp897
(lp898
tp899
a(L2384714272L
L3833084538L
(lp900
(lp901
Vesp_log_early_timestamp
p902
atp903
a(L1194215008L
L3833084538L
(lp904
(lp905
Vesp_log_early_timestamp
p906
atp907
atp908
sI1074236980
(Vesp_log_early_timestamp
p909
(lp910
(L4015029253L
L1443213481L
(lp911
(lp912
tp913
atp914
sI1074244660
(Vefuse_hal_get_rated_freq_mhz
p915
(lp916
(L1158870592L
L1443213481L
(lp917
(lp918
tp919
a(L338960367L
L0L
(lp920
(lp921
tp922
a(L3360570486L
L0L
(lp923
(lp924
tp925
atp926
sI1074245940
(Vrtc_clk_slow_freq_get_hz
p927
(lp928
(L1826267122L
L3785322319L
(lp929
(lp930
Vrtc_clk_slow_src_get
p931
atp932
a(L1872507229L
L1443213481L
(lp933
(lp934
tp935
a(L2221201615L
L1443213481L
(lp936
(lp937
tp938
a(L3360570486L
L0L
(lp939
(lp940
tp941
atp942
sI1074270524
(Vrtc_vddsdio_get_config
p943
(lp944
(L3097658956L
L1443213481L
(lp945
(lp946
tp947
a(L1750635626L
L0L
(lp948
(lp949
tp950
a(L3193418487L
L0L
(lp951
(lp952
tp953
a(L3511111289L
L1443213481L
(lp954
(lp955
tp956
a(L115635292L
L0L
(lp957
(lp958
tp959
a(L896053863L
L0L
(lp960
(lp961
tp962
a(L1306330959L
L0L
(lp963
(lp964
tp965
a(L1783408782L
L1443213481L
(lp966
(lp967
tp968
atp969
sI1074238000
(Vbootloader_flash_erase_sector
p970
(lp971
(L4129137686L
L1880226080L
(lp972
(lp973
Vesp_rom_spiflash_erase_sector
p974
aVspi_to_esp_err
p975
atp976
atp977
sI1074237744
(Vbootloader_flash_read
p978
(lp979
(L3022618172L
L0L
(lp980
(lp981
tp982
a(L2493247481L
L2147981551L
(lp983
(lp984
Vesp_log_early_timestamp
p985
atp986
a(L852987398L
L1443213481L
(lp987
(lp988
tp989
a(L1351513776L
L0L
(lp990
(lp991
tp992
a(L1486740491L
L0L
(lp993
(lp994
tp995
a(L4276228047L
L2147981551L
(lp996
(lp997
Vesp_log_early_timestamp
p998
atp999
a(L3283691850L
L0L
(lp1000
(lp1001
tp1002
a(L4276228016L
L2147981551L
(lp1003
(lp1004
Vesp_log_early_timestamp
p1005
atp1006
a(L3020204L
L0L
(lp1007
(lp1008
tp1009
a(L384130671L
L0L
(lp1010
(lp1011
tp1012
a(L97422L
L0L
(lp1013
(lp1014
tp1015
a(L515889772L
L2195759072L
(lp1016
(lp1017
tp1018
a(L3321969934L
L1690040256L
(lp1019
(lp1020
tp1021
a(L279744554L
L4032149094L
(lp1022
(lp1023
V__assert_func
p1024
atp1025
a(L4071371888L
L2534110409L
(lp1026
(lp1027
tp1028
a(L2438181396L
L1443213481L
(lp1029
(lp1030
tp1031
a(L1976506429L
L3635241909L
(lp1032
(lp1033
Vesp_rom_spiflash_read
p1034
aVspi_to_esp_err
p1035
atp1036
atp1037
sI1074247728
(Vrtc_clk_wait_for_slow_cycle
p1038
(lp1039
(L2844697221L
L2624587680L
(lp1040
(lp1041
tp1042
a(L287687718L
L0L
(lp1043
(lp1044
tp1045
a(L3360570486L
L0L
(lp1046
(lp1047
tp1048
a(L3843203427L
L1443213481L
(lp1049
(lp1050
tp1051
a(L1300789833L
L0L
(lp1052
(lp1053
tp1054
a(L1259765481L
L0L
(lp1055
(lp1056
tp1057
a(L17340776L
L1443213481L
(lp1058
(lp1059
tp1060
a(L329680227L
L3187408090L
(lp1061
(lp1062
Vesp_log_early_timestamp
p1063
atp1064
atp1065
sI1074238776
(Vcache_ll_l1_enable_bus
p1066
(lp1067
(L318252209L
L1443213481L
(lp1068
(lp1069
tp1070
atp1071
sI1074247992
(Vesp_rom_spiflash_wait_idle
p1072
(lp1073
(L1698121947L
L1443213481L
(lp1074
(lp1075
tp1076
a(L2023766174L
L0L
(lp1077
(lp1078
tp1079
a(L147213506L
L1443213481L
(lp1080
(lp1081
tp1082
a(L3086959262L
L0L
(lp1083
(lp1084
tp1085
a(L4161019926L
L3785322319L
(lp1086
(lp1087
Vesp_rom_spiflash_read_status
p1088
atp1089
atp1090
sI1074238020
(Vbootloader_flash_write
p1091
(lp1092
(L3770380603L
L0L
(lp1093
(lp1094
tp1095
a(L2654201950L
L2147981551L
(lp1096
(lp1097
Vesp_log_early_timestamp
p1098
atp1099
a(L4207910112L
L1443213481L
(lp1100
(lp1101
tp1102
a(L1610445075L
L0L
(lp1103
(lp1104
tp1105
a(L735741265L
L0L
(lp1106
(lp1107
tp1108
a(L3291333414L
L0L
(lp1109
(lp1110
tp1111
a(L416217162L
L2147981551L
(lp1112
(lp1113
Vesp_log_early_timestamp
p1114
atp1115
a(L3283691850L
L0L
(lp1116
(lp1117
tp1118
a(L212182276L
L3187408090L
(lp1119
(lp1120
Vesp_log_early_timestamp
p1121
atp1122
a(L3212356251L
L3785322319L
(lp1123
(lp1124
Vbootloader_flash_unlock
p1125
atp1126
a(L1799218633L
L0L
(lp1127
(lp1128
tp1129
a(L94425498L
L3785322319L
(lp1130
(lp1131
Vesp_rom_spiflash_write_encrypted
p1132
atp1133
a(L2927190544L
L3785322319L
(lp1134
(lp1135
Vspi_to_esp_err
p1136
atp1137
a(L2927190544L
L3785322319L
(lp1138
(lp1139
Vesp_rom_spiflash_write
p1140
atp1141
atp1142
sI1074236740
(Vefuse_hal_chip_revision
p1143
(lp1144
(L2719302832L
L1880226080L
(lp1145
(lp1146
Vefuse_hal_get_major_chip_version
p1147
aVefuse_hal_get_minor_chip_version
p1148
atp1149
atp1150
sI1074247232
(Vrtc_clk_cal_internal
p1151
(lp1152
(L4103044880L
L1443213481L
(lp1153
(lp1154
tp1155
a(L3906046821L
L4032149094L
(lp1156
(lp1157
V__assert_func
p1158
atp1159
a(L3821006588L
L1443213481L
(lp1160
(lp1161
tp1162
a(L1673513644L
L0L
(lp1163
(lp1164
tp1165
a(L2719210992L
L4021370767L
(lp1166
(lp1167
Vrtc_clk_slow_src_get
p1168
atp1169
a(L3008910671L
L0L
(lp1170
(lp1171
tp1172
a(L97689L
L0L
(lp1173
(lp1174
tp1175
a(L1872507229L
L1443213481L
(lp1176
(lp1177
tp1178
a(L3028464L
L0L
(lp1179
(lp1180
tp1181
a(L3028481L
L0L
(lp1182
(lp1183
tp1184
a(L147213506L
L1443213481L
(lp1185
(lp1186
tp1187
a(L3455571058L
L1374507264L
(lp1188
(lp1189
V__udivdi3
p1190
aVrtc_clk_xtal_freq_get
p1191
atp1192
a(L2780079961L
L0L
(lp1193
(lp1194
tp1195
a(L4208562267L
L1443213481L
(lp1196
(lp1197
tp1198
a(L4114459891L
L3187408090L
(lp1199
(lp1200
Vesp_log_early_timestamp
p1201
atp1202
a(L2258688482L
L0L
(lp1203
(lp1204
tp1205
a(L3360570486L
L0L
(lp1206
(lp1207
tp1208
a(L3553505594L
L0L
(lp1209
(lp1210
tp1211
a(L403361192L
L0L
(lp1212
(lp1213
tp1214
a(L3243404432L
L3785322319L
(lp1215
(lp1216
Vrtc_clk_8m_enable
p1217
atp1218
a(L390546255L
L2195759072L
(lp1219
(lp1220
tp1221
a(L3586367509L
L1443213481L
(lp1222
(lp1223
tp1224
a(L2910371777L
L0L
(lp1225
(lp1226
tp1227
a(L2902417580L
L0L
(lp1228
(lp1229
tp1230
a(L3082259486L
L1443213481L
(lp1231
(lp1232
tp1233
a(L3020204L
L0L
(lp1234
(lp1235
tp1236
a(L603598685L
L1443213481L
(lp1237
(lp1238
tp1239
a(L3429540926L
L0L
(lp1240
(lp1241
tp1242
a(L3028464L
L0L
(lp1243
(lp1244
tp1245
a(L615477255L
L242900614L
(lp1246
(lp1247
Vrtc_clk_8m_enable
p1248
atp1249
atp1250
sI1074239308
(Vset_actual_ota_seq
p1251
(lp1252
(L4094723830L
L0L
(lp1253
(lp1254
tp1255
a(L3504298995L
L2195759072L
(lp1256
(lp1257
tp1258
a(L3856681007L
L961634322L
(lp1259
(lp1260
Vmemset
p1261
aVbootloader_common_ota_select_crc
p1262
aVesp_flash_encryption_enabled
p1263
aVbootloader_flash_erase_sector
p1264
atp1265
a(L2768623893L
L3785322319L
(lp1266
(lp1267
Vbootloader_flash_write
p1268
atp1269
a(L3693339703L
L2147981551L
(lp1270
(lp1271
Vesp_log_early_timestamp
p1272
atp1273
a(L3903819434L
L2147981551L
(lp1274
(lp1275
Vesp_log_early_timestamp
p1276
atp1277
a(L3360570486L
L0L
(lp1278
(lp1279
tp1280
atp1281
sI1074240844
(Vabort
p1282
(lp1283
(L2564459292L
L1690040256L
(lp1284
(lp1285
tp1286
a(L409471316L
L0L
(lp1287
(lp1288
tp1289
a(L106L
L0L
(lp1290
(lp1291
tp1292
atp1293
sI1074269528
(Vbootloader_check_bootloader_validity
p1294
(lp1295
(L2945382592L
L1069700966L
(lp1296
(lp1297
Vefuse_hal_chip_revision
p1298
aVesp_log_early_timestamp
p1299
aVbootloader_common_check_chip_validity
p1300
atp1301
atp1302
sI1074237012
(Vbootloader_common_ota_select_crc
p1303
(lp1304
(L2925798959L
L1443213481L
(lp1305
(lp1306
tp1307
atp1308
sI1074244432
(Vwdt_hal_write_protect_disable
p1309
(lp1310
(L3085072089L
L1443213481L
(lp1311
(lp1312
tp1313
a(L4195472003L
L0L
(lp1314
(lp1315
tp1316
a(L3360570486L
L0L
(lp1317
(lp1318
tp1319
a(L1210571996L
L0L
(lp1320
(lp1321
tp1322
atp1323
sI1074241872
(Vshould_load
p1324
(lp1325
(L4190720747L
L2534110409L
(lp1326
(lp1327
tp1328
a(L1182990556L
L0L
(lp1329
(lp1330
tp1331
a(L1744532171L
L1443213481L
(lp1332
(lp1333
tp1334
a(L2306467100L
L0L
(lp1335
(lp1336
tp1337
a(L4034276159L
L1443213481L
(lp1338
(lp1339
tp1340
a(L2258897019L
L0L
(lp1341
(lp1342
tp1343
a(L3781799363L
L0L
(lp1344
(lp1345
tp1346
a(L3028464L
L0L
(lp1347
(lp1348
tp1349
a(L166133047L
L2195759072L
(lp1350
(lp1351
tp1352
a(L4277114872L
L0L
(lp1353
(lp1354
tp1355
a(L2824381917L
L0L
(lp1356
(lp1357
tp1358
a(L1243412227L
L0L
(lp1359
(lp1360
tp1361
a(L2011157548L
L0L
(lp1362
(lp1363
tp1364
a(L3126521138L
L0L
(lp1365
(lp1366
tp1367
a(L1305407438L
L0L
(lp1368
(lp1369
tp1370
a(L1305407469L
L0L
(lp1371
(lp1372
tp1373
atp1374
sI1074245968
(Vrtc_clk_fast_src_set
p1375
(lp1376
(L1089140614L
L1443213481L
(lp1377
(lp1378
tp1379
a(L3020187L
L0L
(lp1380
(lp1381
tp1382
a(L3827921190L
L3785322319L
(lp1383
(lp1384
Vabort
p1385
atp1386
a(L2578095160L
L1443213481L
(lp1387
(lp1388
tp1389
a(L4159388630L
L1443213481L
(lp1390
(lp1391
tp1392
a(L300459962L
L0L
(lp1393
(lp1394
tp1395
atp1396
sI1074234716
(Vbootloader_common_get_chip_ver_pkg
p1397
(lp1398
(L3197874814L
L1443213481L
(lp1399
(lp1400
tp1401
atp1402
sI1074236764
(Vefuse_hal_flash_encryption_enabled
p1403
(lp1404
(L221474917L
L1443213481L
(lp1405
(lp1406
tp1407
a(L2910371777L
L0L
(lp1408
(lp1409
tp1410
a(L3360570486L
L0L
(lp1411
(lp1412
tp1413
a(L3016870L
L0L
(lp1414
(lp1415
tp1416
a(L3745038218L
L0L
(lp1417
(lp1418
tp1419
a(L957607403L
L0L
(lp1420
(lp1421
tp1422
atp1423
sI1074244696
(Vrtc_clk_32k_enable_common
p1424
(lp1425
(L2821256590L
L2195759072L
(lp1426
(lp1427
tp1428
a(L97422L
L0L
(lp1429
(lp1430
tp1431
a(L2218417248L
L0L
(lp1432
(lp1433
tp1434
a(L339634797L
L1443213481L
(lp1435
(lp1436
tp1437
a(L51458120L
L0L
(lp1438
(lp1439
tp1440
atp1441
sI1074240608
(Vbootloader_sha256_finish
p1442
(lp1443
(L4066096136L
L0L
(lp1444
(lp1445
tp1446
a(L1697654722L
L2195759072L
(lp1447
(lp1448
tp1449
a(L2213948952L
L242900614L
(lp1450
(lp1451
V__assert_func
p1452
atp1453
a(L3020204L
L0L
(lp1454
(lp1455
tp1456
a(L2888288470L
L2534110409L
(lp1457
(lp1458
tp1459
a(L2534656226L
L0L
(lp1460
(lp1461
tp1462
a(L2740629735L
L4171435875L
(lp1463
(lp1464
Vbootloader_sha256_data
p1465
atp1466
a(L2946948570L
L2195759072L
(lp1467
(lp1468
tp1469
a(L354914383L
L2790500905L
(lp1470
(lp1471
V__bswapsi2
p1472
aVbootloader_sha256_data
p1473
atp1474
a(L2946948756L
L2195759072L
(lp1475
(lp1476
tp1477
a(L657425439L
L0L
(lp1478
(lp1479
tp1480
a(L4173600236L
L1443213481L
(lp1481
(lp1482
tp1483
a(L657425439L
L0L
(lp1484
(lp1485
tp1486
a(L2046284480L
L2195759072L
(lp1487
(lp1488
tp1489
a(L3616504601L
L4171435875L
(lp1490
(lp1491
V__bswapsi2
p1492
atp1493
a(L3347778L
L0L
(lp1494
(lp1495
tp1496
a(L3360570486L
L0L
(lp1497
(lp1498
tp1499
atp1500
sI1074248288
(Vesp_rom_spiflash_erase_sector
p1501
(lp1502
(L3892694408L
L1679261929L
(lp1503
(lp1504
tp1505
a(L2258688483L
L0L
(lp1506
(lp1507
tp1508
a(L3360570486L
L0L
(lp1509
(lp1510
tp1511
a(L3212356251L
L3785322319L
(lp1512
(lp1513
Vesp_rom_spiflash_enable_write
p1514
atp1515
a(L184152988L
L0L
(lp1516
(lp1517
tp1518
a(L1036552696L
L362179215L
(lp1519
(lp1520
Vesp_rom_spiflash_wait_idle
p1521
atp1522
a(L3333707777L
L0L
(lp1523
(lp1524
tp1525
a(L3582858798L
L3785322319L
(lp1526
(lp1527
Vesp_rom_spiflash_wait_idle
p1528
atp1529
atp1530
sI1074238316
(Vbootloader_random_disable
p1531
(lp1532
(L482324986L
L2935979744L
(lp1533
(lp1534
tp1535
atp1536
sI1074238828
(Vcache_ll_l1_get_bus
p1537
(lp1538
(L2749735183L
L1443213481L
(lp1539
(lp1540
tp1541
a(L94425498L
L3785322319L
(lp1542
(lp1543
Vabort
p1544
atp1545
a(L1872514061L
L1443213481L
(lp1546
(lp1547
tp1548
a(L2895466817L
L1443213481L
(lp1549
(lp1550
tp1551
a(L892952750L
L0L
(lp1552
(lp1553
tp1554
a(L1182811810L
L0L
(lp1555
(lp1556
tp1557
a(L4062036744L
L0L
(lp1558
(lp1559
tp1560
a(L3360570486L
L0L
(lp1561
(lp1562
tp1563
a(L1872508791L
L1443213481L
(lp1564
(lp1565
tp1566
a(L3007055246L
L0L
(lp1567
(lp1568
tp1569
a(L3069752967L
L0L
(lp1570
(lp1571
tp1572
a(L2258867228L
L0L
(lp1573
(lp1574
tp1575
a(L1087012479L
L0L
(lp1576
(lp1577
tp1578
a(L4059034926L
L0L
(lp1579
(lp1580
tp1581
a(L1872508791L
L1443213481L
(lp1582
(lp1583
tp1584
a(L1872514061L
L1443213481L
(lp1585
(lp1586
tp1587
a(L1641149277L
L0L
(lp1588
(lp1589
tp1590
a(L1872508791L
L1443213481L
(lp1591
(lp1592
tp1593
a(L899412127L
L0L
(lp1594
(lp1595
tp1596
a(L106L
L0L
(lp1597
(lp1598
tp1599
a(L1299866436L
L0L
(lp1600
(lp1601
tp1602
atp1603
sI1074240104
(Vbootloader_reset
p1604
(lp1605
(L479276581L
L2147981551L
(lp1606
(lp1607
Vbootloader_console_deinit
p1608
atp1609
a(L106L
L0L
(lp1610
(lp1611
tp1612
atp1613
sI1074237032
(Vbootloader_common_ota_select_valid
p1614
(lp1615
(L1563399710L
L3785322319L
(lp1616
(lp1617
Vbootloader_common_ota_select_invalid
p1618
atp1619
a(L3814720849L
L3785322319L
(lp1620
(lp1621
Vbootloader_common_ota_select_crc
p1622
atp1623
a(L3360570486L
L0L
(lp1624
(lp1625
tp1626
atp1627
sI1074246504
(Vrtc_clk_cpu_freq_set_config
p1628
(lp1629
(L1040494747L
L3833084538L
(lp1630
(lp1631
Vrtc_clk_xtal_freq_get
p1632
atp1633
a(L2308773007L
L0L
(lp1634
(lp1635
tp1636
a(L3253451229L
L1880226080L
(lp1637
(lp1638
Vrtc_clk_cpu_freq_to_xtal
p1639
aVrtc_clk_wait_for_slow_cycle
p1640
atp1641
a(L2243645672L
L0L
(lp1642
(lp1643
tp1644
a(L4002786498L
L0L
(lp1645
(lp1646
tp1647
a(L2736411858L
L3785322319L
(lp1648
(lp1649
Vrtc_clk_cpu_freq_to_xtal
p1650
atp1651
a(L3360570486L
L0L
(lp1652
(lp1653
tp1654
a(L2755207760L
L1832448559L
(lp1655
(lp1656
Vrtc_clk_cpu_freq_to_xtal
p1657
aVrtc_clk_wait_for_slow_cycle
p1658
aVrtc_clk_bbpll_disable
p1659
atp1660
a(L3020187L
L0L
(lp1661
(lp1662
tp1663
a(L106L
L0L
(lp1664
(lp1665
tp1666
a(L2730236852L
L1156451872L
(lp1667
(lp1668
Vrtc_clk_wait_for_slow_cycle
p1669
aVrtc_clk_xtal_freq_get
p1670
atp1671
a(L106L
L0L
(lp1672
(lp1673
tp1674
a(L3776069396L
L1443213481L
(lp1675
(lp1676
tp1677
a(L83268611L
L0L
(lp1678
(lp1679
tp1680
a(L106L
L0L
(lp1681
(lp1682
tp1683
a(L82345090L
L0L
(lp1684
(lp1685
tp1686
a(L106L
L0L
(lp1687
(lp1688
tp1689
a(L2258718273L
L0L
(lp1690
(lp1691
tp1692
a(L3298883534L
L0L
(lp1693
(lp1694
tp1695
a(L3519990574L
L1443213481L
(lp1696
(lp1697
tp1698
a(L2508198718L
L1743007695L
(lp1699
(lp1700
Vrtc_clk_cpu_freq_to_pll_mhz
p1701
atp1702
a(L935233121L
L2534110409L
(lp1703
(lp1704
tp1705
a(L83268344L
L0L
(lp1706
(lp1707
tp1708
a(L82344823L
L0L
(lp1709
(lp1710
tp1711
a(L1569180676L
L0L
(lp1712
(lp1713
tp1714
a(L2258837488L
L0L
(lp1715
(lp1716
tp1717
a(L4233337962L
L1443213481L
(lp1718
(lp1719
tp1720
a(L1482311963L
L0L
(lp1721
(lp1722
tp1723
a(L133411965L
L0L
(lp1724
(lp1725
tp1726
a(L3673491036L
L0L
(lp1727
(lp1728
tp1729
a(L4197990447L
L0L
(lp1730
(lp1731
tp1732
a(L903154985L
L0L
(lp1733
(lp1734
tp1735
a(L3020187L
L0L
(lp1736
(lp1737
tp1738
a(L106L
L0L
(lp1739
(lp1740
tp1741
a(L1317698645L
L93324751L
(lp1742
(lp1743
Vesp_rom_set_cpu_ticks_per_us
p1744
atp1745
atp1746
sI1074248040
(Vesp_rom_spiflash_enable_write
p1747
(lp1748
(L2885777558L
L1303911398L
(lp1749
(lp1750
Vesp_rom_spiflash_wait_idle
p1751
atp1752
a(L3333707777L
L0L
(lp1753
(lp1754
tp1755
a(L2258688484L
L0L
(lp1756
(lp1757
tp1758
a(L99543895L
L0L
(lp1759
(lp1760
tp1761
a(L2993202392L
L0L
(lp1762
(lp1763
tp1764
a(L1265538927L
L242900614L
(lp1765
(lp1766
Vesp_rom_spiflash_read_status
p1767
atp1768
atp1769
sI1074235252
(Vbootloader_execute_flash_command
p1770
(lp1771
(L2481595632L
L3785322319L
(lp1772
(lp1773
Vbootloader_flash_execute_command_common
p1774
atp1775
atp1776
sI1074245748
(Vrtc_clk_8m_enabled
p1777
(lp1778
(L563532105L
L1443213481L
(lp1779
(lp1780
tp1781
atp1782
sI1074269820
(Vbootloader_console_init
p1783
(lp1784
(L3806010175L
L988378406L
(lp1785
(lp1786
Vesp_rom_uart_tx_wait_idle
p1787
aVrtc_clk_apb_freq_get
p1788
aVesp_rom_uart_set_clock_baudrate
p1789
atp1790
atp1791
sI1074240368
(Vindex_to_partition
p1792
(lp1793
(L4066096119L
L0L
(lp1794
(lp1795
tp1796
a(L1101255660L
L0L
(lp1797
(lp1798
tp1799
a(L1955702725L
L0L
(lp1800
(lp1801
tp1802
a(L3698927993L
L0L
(lp1803
(lp1804
tp1805
a(L2808906342L
L0L
(lp1806
(lp1807
tp1808
a(L4211744375L
L0L
(lp1809
(lp1810
tp1811
a(L3097778015L
L0L
(lp1812
(lp1813
tp1814
a(L1816235430L
L0L
(lp1815
(lp1816
tp1817
a(L2179185678L
L0L
(lp1818
(lp1819
tp1820
a(L3369319173L
L0L
(lp1821
(lp1822
tp1823
atp1824
sI1074244464
(Vwdt_hal_set_flashboot_en
p1825
(lp1826
(L2375320464L
L0L
(lp1827
(lp1828
tp1829
a(L3915867581L
L0L
(lp1830
(lp1831
tp1832
a(L3360570486L
L0L
(lp1833
(lp1834
tp1835
a(L3823116953L
L1443213481L
(lp1836
(lp1837
tp1838
atp1839
sI1074237308
(Vbootloader_common_get_active_otadata
p1840
(lp1841
(L3317503532L
L0L
(lp1842
(lp1843
tp1844
a(L2503049265L
L1832448559L
(lp1845
(lp1846
Vbootloader_common_ota_select_valid
p1847
aVbootloader_common_ota_select_valid
p1848
aVbootloader_common_select_otadata
p1849
atp1850
a(L735741265L
L0L
(lp1851
(lp1852
tp1853
atp1854
sI1074234748
(Vesp_flash_encryption_enabled
p1855
(lp1856
(L376617603L
L3785322319L
(lp1857
(lp1858
Vefuse_hal_flash_encryption_enabled
p1859
atp1860
atp1861
sI1074240892
(Vbootloader_ana_clock_glitch_reset_config
p1862
(lp1863
(L2100504542L
L0L
(lp1864
(lp1865
tp1866
atp1867
sI1074236804
(Vefuse_hal_get_major_chip_version
p1868
(lp1869
(L1572156932L
L2195759072L
(lp1870
(lp1871
tp1872
a(L894792960L
L0L
(lp1873
(lp1874
tp1875
a(L724635033L
L0L
(lp1876
(lp1877
tp1878
a(L3360570486L
L0L
(lp1879
(lp1880
tp1881
atp1882
sI1074240900
(Vprocess_checksum
p1883
(lp1884
(L166193219L
L242900614L
(lp1885
(lp1886
Vmemset
p1887
atp1888
a(L3028481L
L0L
(lp1889
(lp1890
tp1891
a(L186886970L
L0L
(lp1892
(lp1893
tp1894
a(L2902417580L
L0L
(lp1895
(lp1896
tp1897
a(L3028481L
L0L
(lp1898
(lp1899
tp1900
a(L169792351L
L3187408090L
(lp1901
(lp1902
Vesp_log_early_timestamp
p1903
atp1904
a(L268651496L
L1443213481L
(lp1905
(lp1906
tp1907
a(L3236648107L
L3785322319L
(lp1908
(lp1909
Vbootloader_flash_read
p1910
atp1911
a(L735741265L
L0L
(lp1912
(lp1913
tp1914
a(L3020204L
L0L
(lp1915
(lp1916
tp1917
a(L2480703612L
L3785322319L
(lp1918
(lp1919
Vbootloader_sha256_data
p1920
atp1921
a(L3436105237L
L0L
(lp1922
(lp1923
tp1924
a(L106L
L0L
(lp1925
(lp1926
tp1927
atp1928
sI1074267788
(Vbootloader_init
p1929
(lp1930
(L2778985116L
L362179215L
(lp1931
(lp1932
Vbootloader_init_mem
p1933
atp1934
a(L2588916198L
L2195759072L
(lp1935
(lp1936
tp1937
a(L2569579240L
L242900614L
(lp1938
(lp1939
V__assert_func
p1940
atp1941
a(L2041988382L
L2534110409L
(lp1942
(lp1943
tp1944
a(L2946990947L
L2195759072L
(lp1945
(lp1946
tp1947
a(L3813782018L
L0L
(lp1948
(lp1949
tp1950
a(L2946991009L
L2195759072L
(lp1951
(lp1952
tp1953
a(L3027019L
L0L
(lp1954
(lp1955
tp1956
a(L2946991040L
L2195759072L
(lp1957
(lp1958
tp1959
a(L231109807L
L1832448559L
(lp1960
(lp1961
Vbootloader_clear_bss_section
p1962
aVbootloader_common_vddsdio_configure
p1963
aVbootloader_clock_get_rated_freq_mhz
p1964
atp1965
a(L704471746L
L3801032783L
(lp1966
(lp1967
Vbootloader_clock_configure
p1968
aVbootloader_console_init
p1969
aVbootloader_print_banner
p1970
aVbootloader_flash_update_id
p1971
aVbootloader_flash_xmc_startup
p1972
atp1973
a(L3014296803L
L3187408090L
(lp1974
(lp1975
Vesp_log_early_timestamp
p1976
atp1977
a(L4245842452L
L3187408090L
(lp1978
(lp1979
Vesp_log_early_timestamp
p1980
atp1981
a(L3360570486L
L0L
(lp1982
(lp1983
tp1984
a(L2444883382L
L3785322319L
(lp1985
(lp1986
Vbootloader_read_bootloader_header
p1987
atp1988
a(L2444883382L
L3785322319L
(lp1989
(lp1990
Vbootloader_check_bootloader_validity
p1991
atp1992
a(L2444883382L
L3785322319L
(lp1993
(lp1994
Vbootloader_init_spi_flash
p1995
atp1996
a(L1231697567L
L2195759072L
(lp1997
(lp1998
tp1999
a(L3289072036L
L0L
(lp2000
(lp2001
tp2002
a(L3016266L
L0L
(lp2003
(lp2004
tp2005
a(L106L
L0L
(lp2006
(lp2007
tp2008
a(L3027019L
L0L
(lp2009
(lp2010
tp2011
a(L106L
L0L
(lp2012
(lp2013
tp2014
a(L1460895057L
L2218577417L
(lp2015
(lp2016
Vbootloader_config_wdt
p2017
aVbootloader_enable_random
p2018
atp2019
a(L1895147938L
L0L
(lp2020
(lp2021
tp2022
a(L2303211161L
L0L
(lp2023
(lp2024
tp2025
a(L106L
L0L
(lp2026
(lp2027
tp2028
a(L3027019L
L0L
(lp2029
(lp2030
tp2031
a(L97315L
L0L
(lp2032
(lp2033
tp2034
a(L106L
L0L
(lp2035
(lp2036
tp2037
a(L2993276994L
L3187408090L
(lp2038
(lp2039
Vesp_log_early_timestamp
p2040
atp2041
a(L106L
L0L
(lp2042
(lp2043
tp2044
a(L130705695L
L0L
(lp2045
(lp2046
tp2047
a(L362903958L
L0L
(lp2048
(lp2049
tp2050
a(L434980089L
L3695866153L
(lp2051
(lp2052
tp2053
a(L362391907L
L0L
(lp2054
(lp2055
tp2056
a(L3342615532L
L3187408090L
(lp2057
(lp2058
Vesp_log_early_timestamp
p2059
atp2060
a(L1596194698L
L1443213481L
(lp2061
(lp2062
tp2063
a(L362903958L
L0L
(lp2064
(lp2065
tp2066
a(L106L
L0L
(lp2067
(lp2068
tp2069
a(L3014296803L
L3187408090L
(lp2070
(lp2071
Vesp_log_early_timestamp
p2072
atp2073
a(L541866494L
L3187408090L
(lp2074
(lp2075
Vesp_log_early_timestamp
p2076
atp2077
atp2078
sI1074240128
(Vbootloader_utility_load_boot_image
p2079
(lp2080
(L421993435L
L242900614L
(lp2081
(lp2082
Vmemset
p2083
atp2084
a(L2177418995L
L3785322319L
(lp2085
(lp2086
Vtry_load_partition
p2087
atp2088
a(L1305243774L
L3785322319L
(lp2089
(lp2090
Vload_image
p2091
atp2092
a(L4114459891L
L3187408090L
(lp2093
(lp2094
Vesp_log_early_timestamp
p2095
atp2096
a(L3827921190L
L3785322319L
(lp2097
(lp2098
Vbootloader_reset
p2099
atp2100
a(L1953693036L
L3785322319L
(lp2101
(lp2102
Vindex_to_partition
p2103
atp2104
a(L1204373741L
L3785322319L
(lp2105
(lp2106
Vtry_load_partition
p2107
atp2108
a(L1899865696L
L0L
(lp2109
(lp2110
tp2111
a(L2695355117L
L3785322319L
(lp2112
(lp2113
Vset_actual_ota_seq
p2114
atp2115
a(L1868897605L
L3785322319L
(lp2116
(lp2117
Vlog_invalid_app_partition
p2118
atp2119
a(L831650730L
L0L
(lp2120
(lp2121
tp2122
a(L3021737L
L0L
(lp2123
(lp2124
tp2125
a(L695456438L
L0L
(lp2126
(lp2127
tp2128
a(L315114854L
L3833084538L
(lp2129
(lp2130
Vtry_load_partition
p2131
atp2132
a(L89447667L
L2147981551L
(lp2133
(lp2134
Vesp_log_early_timestamp
p2135
atp2136
a(L2347390157L
L3785322319L
(lp2137
(lp2138
Vindex_to_partition
p2139
atp2140
a(L1204373741L
L3785322319L
(lp2141
(lp2142
Vtry_load_partition
p2143
atp2144
a(L3061261803L
L0L
(lp2145
(lp2146
tp2147
a(L3582858798L
L3785322319L
(lp2148
(lp2149
Vlog_invalid_app_partition
p2150
atp2151
a(L3581752791L
L2704288053L
(lp2152
(lp2153
Vesp_log_early_timestamp
p2154
aVmemset
p2155
atp2156
atp2157
sI1074244992
(Vrtc_clk_bbpll_disable
p2158
(lp2159
(L3512291683L
L1690040256L
(lp2160
(lp2161
tp2162
a(L2472207241L
L0L
(lp2163
(lp2164
tp2165
a(L3360570486L
L0L
(lp2166
(lp2167
tp2168
atp2169
sI1074270080
(Vrtc_clk_init
p2170
(lp2171
(L1100006719L
L1443213481L
(lp2172
(lp2173
tp2174
a(L42671777L
L3785322319L
(lp2175
(lp2176
Vrtc_clk_cpu_freq_to_xtal
p2177
atp2178
a(L739905763L
L1743007695L
(lp2179
(lp2180
Vrtc_clk_xtal_freq_get
p2181
atp2182
a(L3028481L
L0L
(lp2183
(lp2184
tp2185
a(L4284274517L
L3785322319L
(lp2186
(lp2187
Vrtc_clk_xtal_freq_estimate
p2188
atp2189
a(L2576622952L
L3187408090L
(lp2190
(lp2191
Vesp_log_early_timestamp
p2192
atp2193
a(L1822030105L
L3065544262L
(lp2194
(lp2195
Vesp_rom_uart_tx_wait_idle
p2196
aVrtc_clk_xtal_freq_update
p2197
aVrtc_clk_apb_freq_update
p2198
aVrtc_clk_cpu_freq_get_config
p2199
aVrtc_clk_cpu_freq_mhz_to_config
p2200
atp2201
a(L521302419L
L2704288053L
(lp2202
(lp2203
Vesp_log_early_timestamp
p2204
aVabort
p2205
atp2206
a(L2902417580L
L0L
(lp2207
(lp2208
tp2209
a(L1899970065L
L0L
(lp2210
(lp2211
tp2212
a(L377687546L
L3785322319L
(lp2213
(lp2214
Vrtc_clk_xtal_freq_estimate
p2215
atp2216
a(L2163742247L
L3187408090L
(lp2217
(lp2218
Vesp_log_early_timestamp
p2219
atp2220
a(L299116989L
L2426646996L
(lp2221
(lp2222
Vrtc_clk_cpu_freq_set_config
p2223
aV__udivdi3
p2224
atp2225
a(L912310138L
L3785322319L
(lp2226
(lp2227
Vrtc_clk_32k_enable
p2228
atp2229
a(L3191820416L
L1832448559L
(lp2230
(lp2231
Vrtc_clk_8m_enable
p2232
aVrtc_clk_fast_src_set
p2233
aVrtc_clk_slow_src_set
p2234
atp2235
a(L1232958848L
L0L
(lp2236
(lp2237
tp2238
atp2239
sI1074237068
(Vbootloader_common_check_chip_validity
p2240
(lp2241
(L2080115690L
L0L
(lp2242
(lp2243
tp2244
a(L3255759481L
L3187408090L
(lp2245
(lp2246
Vesp_log_early_timestamp
p2247
atp2248
a(L1299867982L
L0L
(lp2249
(lp2250
tp2251
a(L3360570486L
L0L
(lp2252
(lp2253
tp2254
a(L521940037L
L3785322319L
(lp2255
(lp2256
Vefuse_hal_chip_revision
p2257
atp2258
a(L332291457L
L1443213481L
(lp2259
(lp2260
tp2261
a(L780168284L
L362179215L
(lp2262
(lp2263
Vesp_log_early_timestamp
p2264
atp2265
a(L3028464L
L0L
(lp2266
(lp2267
tp2268
a(L573448730L
L0L
(lp2269
(lp2270
tp2271
a(L106L
L0L
(lp2272
(lp2273
tp2274
a(L3027019L
L0L
(lp2275
(lp2276
tp2277
a(L106L
L0L
(lp2278
(lp2279
tp2280
a(L3212356251L
L3785322319L
(lp2281
(lp2282
Vefuse_hal_get_disable_wafer_version_major
p2283
atp2284
a(L2465410698L
L362179215L
(lp2285
(lp2286
Vesp_log_early_timestamp
p2287
atp2288
atp2289
sI1074245772
(Vrtc_clk_8md256_enabled
p2290
(lp2291
(L4014027530L
L1443213481L
(lp2292
(lp2293
tp2294
atp2295
sI1074248588
(Vesp_rom_spiflash_write_encrypted
p2296
(lp2297
(L1944247967L
L0L
(lp2298
(lp2299
tp2300
a(L3825342292L
L1443213481L
(lp2301
(lp2302
tp2303
a(L97689L
L0L
(lp2304
(lp2305
tp2306
a(L3061232074L
L0L
(lp2307
(lp2308
tp2309
a(L1562911102L
L1443213481L
(lp2310
(lp2311
tp2312
a(L1309309703L
L3785322319L
(lp2313
(lp2314
Vesp_rom_spiflash_write
p2315
atp2316
a(L2269233063L
L1443213481L
(lp2317
(lp2318
tp2319
a(L735741265L
L0L
(lp2320
(lp2321
tp2322
atp2323
sI1074234760
(Vbootloader_flash_execute_command_common
p2324
(lp2325
(L1988465817L
L0L
(lp2326
(lp2327
tp2328
a(L2946944720L
L2195759072L
(lp2329
(lp2330
tp2331
a(L2213948952L
L242900614L
(lp2332
(lp2333
V__assert_func
p2334
atp2335
a(L3021749L
L0L
(lp2336
(lp2337
tp2338
a(L1160973241L
L2195759072L
(lp2339
(lp2340
tp2341
a(L2792673601L
L1679261929L
(lp2342
(lp2343
tp2344
a(L3792188146L
L0L
(lp2345
(lp2346
tp2347
a(L4024113366L
L0L
(lp2348
(lp2349
tp2350
a(L3275299125L
L1443213481L
(lp2351
(lp2352
tp2353
a(L2232084959L
L2534110409L
(lp2354
(lp2355
tp2356
a(L1099389923L
L0L
(lp2357
(lp2358
tp2359
a(L857553440L
L2195759072L
(lp2360
(lp2361
tp2362
a(L3877681344L
L0L
(lp2363
(lp2364
tp2365
a(L73134175L
L1443213481L
(lp2366
(lp2367
tp2368
a(L1270255739L
L0L
(lp2369
(lp2370
tp2371
a(L3691039583L
L0L
(lp2372
(lp2373
tp2374
a(L3411317116L
L0L
(lp2375
(lp2376
tp2377
a(L3360570486L
L0L
(lp2378
(lp2379
tp2380
atp2381
sI1074243220
(Vbootloader_load_image
p2382
(lp2383
(L1155870502L
L3785322319L
(lp2384
(lp2385
Vimage_load
p2386
atp2387
atp2388
sI1074236564
(Vesp_rom_set_cpu_ticks_per_us
p2389
(lp2390
(L2671138469L
L1443213481L
(lp2391
(lp2392
tp2393
atp2394
sI1074235284
(Vbootloader_flash_unlock
p2395
(lp2396
(L1368360454L
L242900614L
(lp2397
(lp2398
Vesp_rom_spiflash_wait_idle
p2399
atp2400
a(L1574074940L
L0L
(lp2401
(lp2402
tp2403
a(L1667462067L
L3785322319L
(lp2404
(lp2405
Vbootloader_execute_flash_command
p2406
atp2407
a(L106L
L0L
(lp2408
(lp2409
tp2410
a(L1013678540L
L0L
(lp2411
(lp2412
tp2413
a(L2529045083L
L0L
(lp2414
(lp2415
tp2416
a(L990750093L
L1832448559L
(lp2417
(lp2418
Vesp_rom_spiflash_wait_idle
p2419
aVbootloader_execute_flash_command
p2420
aVbootloader_execute_flash_command
p2421
atp2422
a(L993671302L
L1832448559L
(lp2423
(lp2424
Vesp_rom_spiflash_wait_idle
p2425
aVbootloader_execute_flash_command
p2426
aVbootloader_execute_flash_command
p2427
atp2428
a(L1209048744L
L1880226080L
(lp2429
(lp2430
Vesp_rom_spiflash_wait_idle
p2431
aVbootloader_execute_flash_command
p2432
atp2433
a(L3162775668L
L0L
(lp2434
(lp2435
tp2436
a(L2435612105L
L0L
(lp2437
(lp2438
tp2439
a(L3664359624L
L0L
(lp2440
(lp2441
tp2442
a(L2074930120L
L1880226080L
(lp2443
(lp2444
Vbootloader_execute_flash_command
p2445
aVbootloader_execute_flash_command
p2446
atp2447
a(L2125014318L
L0L
(lp2448
(lp2449
tp2450
a(L568821667L
L0L
(lp2451
(lp2452
tp2453
a(L1711531685L
L1880226080L
(lp2454
(lp2455
Vbootloader_execute_flash_command
p2456
aVbootloader_execute_flash_command
p2457
atp2458
a(L3658700047L
L0L
(lp2459
(lp2460
tp2461
a(L3269997774L
L0L
(lp2462
(lp2463
tp2464
a(L106L
L0L
(lp2465
(lp2466
tp2467
a(L2993202392L
L0L
(lp2468
(lp2469
tp2470
atp2471
sI1074269596
(Vbootloader_config_wdt
p2472
(lp2473
(L3447475412L
L603716358L
(lp2474
(lp2475
Vwdt_hal_write_protect_disable
p2476
aVwdt_hal_set_flashboot_en
p2477
aVwdt_hal_write_protect_enable
p2478
aVwdt_hal_init
p2479
aVrtc_clk_slow_freq_get_hz
p2480
aVwdt_hal_write_protect_disable
p2481
aV__udivdi3
p2482
aVwdt_hal_config_stage
p2483
aVwdt_hal_enable
p2484
aVwdt_hal_write_protect_enable
p2485
aVwdt_hal_write_protect_disable
p2486
aVwdt_hal_set_flashboot_en
p2487
aVwdt_hal_write_protect_enable
p2488
atp2489
atp2490
sI1074246032
(Vrtc_clk_fast_src_get
p2491
(lp2492
(L2217920473L
L1443213481L
(lp2493
(lp2494
tp2495
atp2496
sI1074245796
(Vrtc_clk_slow_src_set
p2497
(lp2498
(L585347011L
L2195759072L
(lp2499
(lp2500
tp2501
a(L3020187L
L0L
(lp2502
(lp2503
tp2504
a(L3028481L
L0L
(lp2505
(lp2506
tp2507
a(L487821223L
L0L
(lp2508
(lp2509
tp2510
a(L4271877108L
L1443213481L
(lp2511
(lp2512
tp2513
a(L1851908495L
L0L
(lp2514
(lp2515
tp2516
a(L1099319264L
L1443213481L
(lp2517
(lp2518
tp2519
a(L3138544334L
L0L
(lp2520
(lp2521
tp2522
a(L94425498L
L3785322319L
(lp2523
(lp2524
Vabort
p2525
atp2526
atp2527
sI1074243236
(Vesp_partition_table_verify
p2528
(lp2529
(L44179228L
L1443213481L
(lp2530
(lp2531
tp2532
a(L3031150553L
L1443213481L
(lp2533
(lp2534
tp2535
a(L1184829782L
L0L
(lp2536
(lp2537
tp2538
a(L3020204L
L0L
(lp2539
(lp2540
tp2541
a(L26389654L
L3187408090L
(lp2542
(lp2543
Vesp_log_early_timestamp
p2544
atp2545
a(L1235012963L
L0L
(lp2546
(lp2547
tp2548
a(L3190337587L
L0L
(lp2549
(lp2550
tp2551
a(L2069928857L
L0L
(lp2552
(lp2553
tp2554
a(L2902417580L
L0L
(lp2555
(lp2556
tp2557
a(L2543114737L
L2147981551L
(lp2558
(lp2559
Vesp_log_early_timestamp
p2560
atp2561
a(L1715222413L
L1443213481L
(lp2562
(lp2563
tp2564
a(L3020204L
L0L
(lp2565
(lp2566
tp2567
a(L3020204L
L0L
(lp2568
(lp2569
tp2570
a(L1328961945L
L2147981551L
(lp2571
(lp2572
Vesp_log_early_timestamp
p2573
atp2574
a(L4207910112L
L1443213481L
(lp2575
(lp2576
tp2577
a(L1235012932L
L0L
(lp2578
(lp2579
tp2580
a(L458256366L
L4021370767L
(lp2581
(lp2582
Vmemcmp
p2583
atp2584
a(L3020204L
L0L
(lp2585
(lp2586
tp2587
a(L2543114737L
L2147981551L
(lp2588
(lp2589
Vesp_log_early_timestamp
p2590
atp2591
a(L1305407469L
L0L
(lp2592
(lp2593
tp2594
a(L1167861556L
L0L
(lp2595
(lp2596
tp2597
a(L818997085L
L0L
(lp2598
(lp2599
tp2600
a(L3360570486L
L0L
(lp2601
(lp2602
tp2603
a(L3020204L
L0L
(lp2604
(lp2605
tp2606
a(L3999534504L
L3187408090L
(lp2607
(lp2608
Vesp_log_early_timestamp
p2609
atp2610
atp2611
sI1074237348
(Vbootloader_common_ota_select_invalid
p2612
(lp2613
(L4027567199L
L0L
(lp2614
(lp2615
tp2616
a(L3397985842L
L0L
(lp2617
(lp2618
tp2619
a(L2258867228L
L0L
(lp2620
(lp2621
tp2622
a(L3785235668L
L0L
(lp2623
(lp2624
tp2625
atp2626
sI1074236576
(Vesp_rom_uart_tx_wait_idle
p2627
(lp2628
(L3110839460L
L2534110409L
(lp2629
(lp2630
tp2631
a(L1301079727L
L0L
(lp2632
(lp2633
tp2634
a(L597952197L
L0L
(lp2635
(lp2636
tp2637
a(L1971823332L
L0L
(lp2638
(lp2639
tp2640
a(L3055926844L
L0L
(lp2641
(lp2642
tp2643
a(L3360570486L
L0L
(lp2644
(lp2645
tp2646
a(L3694491048L
L0L
(lp2647
(lp2648
tp2649
a(L106L
L0L
(lp2650
(lp2651
tp2652
atp2653
sI1074246048
(Vrtc_clk_xtal_freq_get
p2654
(lp2655
(L3313072792L
L1443213481L
(lp2656
(lp2657
tp2658
a(L2847936993L
L0L
(lp2659
(lp2660
tp2661
a(L2252934062L
L1443213481L
(lp2662
(lp2663
tp2664
a(L3360570486L
L0L
(lp2665
(lp2666
tp2667
atp2668
sI1074248096
(Vesp_rom_spiflash_program_page_internal
p2669
(lp2670
(L2569069283L
L0L
(lp2671
(lp2672
tp2673
a(L2258688483L
L0L
(lp2674
(lp2675
tp2676
a(L3360570486L
L0L
(lp2677
(lp2678
tp2679
a(L2295540031L
L1443213481L
(lp2680
(lp2681
tp2682
a(L4235661475L
L3785322319L
(lp2683
(lp2684
Vesp_rom_spiflash_wait_idle
p2685
atp2686
a(L1299866312L
L0L
(lp2687
(lp2688
tp2689
a(L3212356251L
L3785322319L
(lp2690
(lp2691
Vesp_rom_spiflash_enable_write
p2692
atp2693
a(L1834262847L
L2195759072L
(lp2694
(lp2695
tp2696
a(L633937013L
L1443213481L
(lp2697
(lp2698
tp2699
a(L2953702749L
L0L
(lp2700
(lp2701
tp2702
a(L2989032L
L0L
(lp2703
(lp2704
tp2705
a(L1965622133L
L0L
(lp2706
(lp2707
tp2708
a(L809386272L
L2195759072L
(lp2709
(lp2710
tp2711
a(L1958113242L
L0L
(lp2712
(lp2713
tp2714
a(L106L
L0L
(lp2715
(lp2716
tp2717
a(L3112950080L
L0L
(lp2718
(lp2719
tp2720
a(L1868606439L
L0L
(lp2721
(lp2722
tp2723
a(L147213506L
L1443213481L
(lp2724
(lp2725
tp2726
a(L1933954923L
L0L
(lp2727
(lp2728
tp2729
a(L1147866918L
L0L
(lp2730
(lp2731
tp2732
a(L3871602522L
L0L
(lp2733
(lp2734
tp2735
atp2736
sI1074269856
(Vesp_cpu_configure_region_protection
p2737
(lp2738
(L3233924472L
L581251951L
(lp2739
(lp2740
Vmemcpy
p2741
atp2742
a(L180431425L
L3785322319L
(lp2743
(lp2744
Vmpu_hal_set_region_access
p2745
atp2746
a(L2537388152L
L3785322319L
(lp2747
(lp2748
Vmpu_hal_set_region_access
p2749
atp2750
atp2751
sI1074238632
(Vbootloader_clock_get_rated_freq_mhz
p2752
(lp2753
(L376617603L
L3785322319L
(lp2754
(lp2755
Vefuse_hal_get_rated_freq_mhz
p2756
atp2757
atp2758
sI1074244532
(Vwdt_hal_write_protect_enable
p2759
(lp2760
(L387778158L
L0L
(lp2761
(lp2762
tp2763
a(L4195472003L
L0L
(lp2764
(lp2765
tp2766
a(L3360570486L
L0L
(lp2767
(lp2768
tp2769
a(L802523425L
L0L
(lp2770
(lp2771
tp2772
atp2773
sI1074242740
(Vimage_load
p2774
(lp2775
(L3048705773L
L0L
(lp2776
(lp2777
tp2778
a(L3463713141L
L0L
(lp2779
(lp2780
tp2781
a(L3309803581L
L0L
(lp2782
(lp2783
tp2784
a(L256049682L
L0L
(lp2785
(lp2786
tp2787
a(L1935188817L
L0L
(lp2788
(lp2789
tp2790
a(L3028481L
L0L
(lp2791
(lp2792
tp2793
a(L3021749L
L0L
(lp2794
(lp2795
tp2796
a(L106L
L0L
(lp2797
(lp2798
tp2799
a(L585264737L
L0L
(lp2800
(lp2801
tp2802
a(L1145291904L
L3785322319L
(lp2803
(lp2804
Vprocess_image_header
p2805
atp2806
a(L823859500L
L0L
(lp2807
(lp2808
tp2809
a(L3061291474L
L0L
(lp2810
(lp2811
tp2812
a(L4106474008L
L3785322319L
(lp2813
(lp2814
Vprocess_segments
p2815
atp2816
a(L3868840998L
L0L
(lp2817
(lp2818
tp2819
a(L2962085561L
L1443213481L
(lp2820
(lp2821
tp2822
a(L1827898452L
L3785322319L
(lp2823
(lp2824
Vprocess_checksum
p2825
atp2826
a(L2214715179L
L3785322319L
(lp2827
(lp2828
Vprocess_appended_hash_and_sig
p2829
atp2830
a(L3028481L
L0L
(lp2831
(lp2832
tp2833
a(L2902417580L
L0L
(lp2834
(lp2835
tp2836
a(L3285560995L
L3785322319L
(lp2837
(lp2838
Vbootloader_sha256_finish
p2839
atp2840
a(L3946560000L
L0L
(lp2841
(lp2842
tp2843
a(L93674324L
L0L
(lp2844
(lp2845
tp2846
a(L2674734805L
L2195759072L
(lp2847
(lp2848
tp2849
a(L1168805591L
L1443213481L
(lp2850
(lp2851
tp2852
a(L1179424413L
L0L
(lp2853
(lp2854
tp2855
a(L3928150917L
L0L
(lp2856
(lp2857
tp2858
a(L106L
L0L
(lp2859
(lp2860
tp2861
a(L3871473710L
L0L
(lp2862
(lp2863
tp2864
a(L3884726427L
L0L
(lp2865
(lp2866
tp2867
a(L106L
L0L
(lp2868
(lp2869
tp2870
a(L3020187L
L0L
(lp2871
(lp2872
tp2873
a(L1337906930L
L3187408090L
(lp2874
(lp2875
Vesp_log_early_timestamp
p2876
atp2877
a(L2868044067L
L0L
(lp2878
(lp2879
tp2880
a(L1179764900L
L0L
(lp2881
(lp2882
tp2883
a(L2332746046L
L3785322319L
(lp2884
(lp2885
Vbootloader_sha256_finish
p2886
atp2887
a(L3721568057L
L242900614L
(lp2888
(lp2889
Vmemset
p2890
atp2891
a(L3020204L
L0L
(lp2892
(lp2893
tp2894
a(L3039742375L
L1443213481L
(lp2895
(lp2896
tp2897
a(L106L
L0L
(lp2898
(lp2899
tp2900
a(L3307179591L
L2839326997L
(lp2901
(lp2902
Vmemset
p2903
aVbootloader_sha256_finish
p2904
aVbootloader_debug_buffer
p2905
aVmemcmp
p2906
atp2907
a(L3433271982L
L2266857161L
(lp2908
(lp2909
Vesp_log_early_timestamp
p2910
aVbootloader_debug_buffer
p2911
atp2912
a(L3741653406L
L3785322319L
(lp2913
(lp2914
Vshould_load
p2915
atp2916
a(L2764257181L
L0L
(lp2917
(lp2918
tp2919
a(L3338774213L
L0L
(lp2920
(lp2921
tp2922
a(L193456747L
L1443213481L
(lp2923
(lp2924
tp2925
a(L3349572949L
L0L
(lp2926
(lp2927
tp2928
a(L2192292519L
L0L
(lp2929
(lp2930
tp2931
a(L106L
L0L
(lp2932
(lp2933
tp2934
a(L1702191967L
L1443213481L
(lp2935
(lp2936
tp2937
a(L1299866312L
L0L
(lp2938
(lp2939
tp2940
a(L3010020263L
L0L
(lp2941
(lp2942
tp2943
atp2944
sI1074238644
(Vlog_invalid_app_partition
p2945
(lp2946
(L2157385331L
L2195759072L
(lp2947
(lp2948
tp2949
a(L3028464L
L0L
(lp2950
(lp2951
tp2952
a(L1760520779L
L3833084538L
(lp2953
(lp2954
Vesp_log_early_timestamp
p2955
atp2956
a(L4207910112L
L1443213481L
(lp2957
(lp2958
tp2959
a(L3360570486L
L0L
(lp2960
(lp2961
tp2962
a(L3212513603L
L3833084538L
(lp2963
(lp2964
Vesp_log_early_timestamp
p2965
atp2966
a(L431938678L
L2147981551L
(lp2967
(lp2968
Vesp_log_early_timestamp
p2969
atp2970
atp2971
sI1074240432
(Vbootloader_debug_buffer
p2972
(lp2973
(L2100504542L
L0L
(lp2974
(lp2975
tp2976
atp2977
sI1074243504
(Vwdt_hal_init
p2978
(lp2979
(L1845705415L
L242900614L
(lp2980
(lp2981
Vmemset
p2982
atp2983
a(L106L
L0L
(lp2984
(lp2985
tp2986
a(L147213506L
L1443213481L
(lp2987
(lp2988
tp2989
a(L3076988543L
L0L
(lp2990
(lp2991
tp2992
a(L746843176L
L3294285696L
(lp2993
(lp2994
tp2995
a(L3028464L
L0L
(lp2996
(lp2997
tp2998
a(L268651496L
L1443213481L
(lp2999
(lp3000
tp3001
a(L213928354L
L1443213481L
(lp3002
(lp3003
tp3004
a(L1646580088L
L3294285696L
(lp3005
(lp3006
tp3007
a(L3360570486L
L0L
(lp3008
(lp3009
tp3010
atp3011
sI1074246320
(Vrtc_clk_xtal_freq_update
p3012
(lp3013
(L3023525581L
L2195759072L
(lp3014
(lp3015
tp3016
a(L3509357017L
L0L
(lp3017
(lp3018
tp3019
a(L2266180931L
L0L
(lp3020
(lp3021
tp3022
atp3023
sI1074235836
(Vbootloader_flash_cs_timing_config
p3024
(lp3025
(L1222249594L
L1690040256L
(lp3026
(lp3027
tp3028
atp3029
sI1074245052
(Vrtc_clk_32k_enable
p3030
(lp3031
(L753387299L
L0L
(lp3032
(lp3033
tp3034
a(L3776007933L
L3785322319L
(lp3035
(lp3036
Vrtc_clk_32k_enable_common
p3037
atp3038
a(L3496950L
L0L
(lp3039
(lp3040
tp3041
a(L707626330L
L2534110409L
(lp3042
(lp3043
tp3044
atp3045
sI1074240440
(Vbootloader_sha256_start
p3046
(lp3047
(L1737386262L
L2534110409L
(lp3048
(lp3049
tp3050
atp3051
sI1074239428
(Vbootloader_utility_load_partition_table
p3052
(lp3053
(L3401680957L
L3833084538L
(lp3054
(lp3055
Vbootloader_mmap
p3056
atp3057
a(L3861134865L
L2147981551L
(lp3058
(lp3059
Vesp_log_early_timestamp
p3060
atp3061
a(L2258688482L
L0L
(lp3062
(lp3063
tp3064
a(L3360570486L
L0L
(lp3065
(lp3066
tp3067
a(L2379286607L
L3785322319L
(lp3068
(lp3069
Vesp_partition_table_verify
p3070
atp3071
a(L2695471221L
L2147981551L
(lp3072
(lp3073
Vesp_log_early_timestamp
p3074
atp3075
a(L186702866L
L403192672L
(lp3076
(lp3077
Vesp_log_early_timestamp
p3078
aVesp_log_early_timestamp
p3079
atp3080
a(L650140130L
L0L
(lp3081
(lp3082
tp3083
a(L2163909172L
L2801279232L
(lp3084
(lp3085
Vbootloader_munmap
p3086
aVesp_log_early_timestamp
p3087
atp3088
a(L521126897L
L0L
(lp3089
(lp3090
tp3091
a(L3028464L
L0L
(lp3092
(lp3093
tp3094
a(L106L
L0L
(lp3095
(lp3096
tp3097
a(L147213506L
L1443213481L
(lp3098
(lp3099
tp3100
a(L2919580219L
L2147981551L
(lp3101
(lp3102
Vesp_log_early_timestamp
p3103
atp3104
a(L3990577774L
L0L
(lp3105
(lp3106
tp3107
a(L3020187L
L0L
(lp3108
(lp3109
tp3110
a(L3201555411L
L1443213481L
(lp3111
(lp3112
tp3113
a(L1843602828L
L1443213481L
(lp3114
(lp3115
tp3116
a(L326114897L
L1443213481L
(lp3117
(lp3118
tp3119
a(L2487812812L
L1443213481L
(lp3120
(lp3121
tp3122
a(L3478727216L
L1443213481L
(lp3123
(lp3124
tp3125
a(L106L
L0L
(lp3126
(lp3127
tp3128
a(L93674324L
L0L
(lp3129
(lp3130
tp3131
a(L1872515523L
L1443213481L
(lp3132
(lp3133
tp3134
a(L1215408024L
L1443213481L
(lp3135
(lp3136
tp3137
a(L1872515506L
L1443213481L
(lp3138
(lp3139
tp3140
a(L106L
L0L
(lp3141
(lp3142
tp3143
a(L1872515506L
L1443213481L
(lp3144
(lp3145
tp3146
a(L106L
L0L
(lp3147
(lp3148
tp3149
a(L268651496L
L1443213481L
(lp3150
(lp3151
tp3152
atp3153
sI1074268364
(Vbootloader_common_vddsdio_configure
p3154
(lp3155
(L1829974089L
L3785322319L
(lp3156
(lp3157
Vrtc_vddsdio_get_config
p3158
atp3159
a(L351649043L
L3833084538L
(lp3160
(lp3161
Vrtc_vddsdio_set_config
p3162
atp3163
a(L3360570486L
L0L
(lp3164
(lp3165
tp3166
atp3167
sI1074235584
(Vbootloader_flash_read_sfdp
p3168
(lp3169
(L711701400L
L0L
(lp3170
(lp3171
tp3172
a(L17919673L
L4032149094L
(lp3173
(lp3174
V__assert_func
p3175
atp3176
a(L3704332455L
L3785322319L
(lp3177
(lp3178
Vbootloader_flash_execute_command_common
p3179
atp3180
atp3181
sI1074237376
(Vbootloader_common_select_otadata
p3182
(lp3183
(L4071767857L
L0L
(lp3184
(lp3185
tp3186
a(L1999329187L
L0L
(lp3187
(lp3188
tp3189
a(L3846398843L
L0L
(lp3190
(lp3191
tp3192
a(L2501968171L
L0L
(lp3193
(lp3194
tp3195
a(L3360570486L
L0L
(lp3196
(lp3197
tp3198
a(L2045232488L
L0L
(lp3199
(lp3200
tp3201
a(L1243525916L
L0L
(lp3202
(lp3203
tp3204
a(L3094144427L
L0L
(lp3205
(lp3206
tp3207
a(L2399509845L
L0L
(lp3208
(lp3209
tp3210
a(L1641201884L
L0L
(lp3211
(lp3212
tp3213
atp3214
sI1074240460
(Vbootloader_sha256_data
p3215
(lp3216
(L4066096136L
L0L
(lp3217
(lp3218
tp3219
a(L1697654611L
L2195759072L
(lp3220
(lp3221
tp3222
a(L2213948952L
L242900614L
(lp3223
(lp3224
V__assert_func
p3225
atp3226
a(L498498478L
L0L
(lp3227
(lp3228
tp3229
a(L3590389832L
L1443213481L
(lp3230
(lp3231
tp3232
a(L2910371777L
L0L
(lp3233
(lp3234
tp3235
a(L3360570486L
L0L
(lp3236
(lp3237
tp3238
a(L1087685526L
L2195759072L
(lp3239
(lp3240
tp3241
a(L426633611L
L1443213481L
(lp3242
(lp3243
tp3244
a(L2584057186L
L1443213481L
(lp3245
(lp3246
tp3247
a(L3342433287L
L1443213481L
(lp3248
(lp3249
tp3250
a(L2526675390L
L242900614L
(lp3251
(lp3252
V__bswapsi2
p3253
atp3254
a(L942815853L
L2195759072L
(lp3255
(lp3256
tp3257
a(L1872507229L
L1443213481L
(lp3258
(lp3259
tp3260
a(L147213506L
L1443213481L
(lp3261
(lp3262
tp3263
a(L3745004802L
L0L
(lp3264
(lp3265
tp3266
atp3267
sI1074236872
(Vefuse_hal_get_minor_chip_version
p3268
(lp3269
(L2292056065L
L1443213481L
(lp3270
(lp3271
tp3272
atp3273
sI1074246088
(Vrtc_clk_cpu_freq_mhz_to_config
p3274
(lp3275
(L908718885L
L3785322319L
(lp3276
(lp3277
Vrtc_clk_xtal_freq_get
p3278
atp3279
a(L60460069L
L0L
(lp3280
(lp3281
tp3282
a(L3802072124L
L0L
(lp3283
(lp3284
tp3285
a(L3159006042L
L0L
(lp3286
(lp3287
tp3288
a(L3360570486L
L0L
(lp3289
(lp3290
tp3291
a(L895147205L
L0L
(lp3292
(lp3293
tp3294
a(L3970036657L
L0L
(lp3295
(lp3296
tp3297
a(L2731353429L
L0L
(lp3298
(lp3299
tp3300
a(L1555485793L
L0L
(lp3301
(lp3302
tp3303
a(L2258897023L
L0L
(lp3304
(lp3305
tp3306
a(L1947499251L
L0L
(lp3307
(lp3308
tp3309
a(L1306331021L
L0L
(lp3310
(lp3311
tp3312
atp3313
sI1074249428
(V_fini
p3314
(lp3315
(L3493042598L
L0L
(lp3316
(lp3317
tp3318
atp3319
sI1074244560
(Vwdt_hal_enable
p3320
(lp3321
(L2299130915L
L0L
(lp3322
(lp3323
tp3324
a(L165794138L
L0L
(lp3325
(lp3326
tp3327
a(L3360570486L
L0L
(lp3328
(lp3329
tp3330
a(L2847657174L
L0L
(lp3331
(lp3332
tp3333
atp3334
sI1074242000
(Vprocess_segments
p3335
(lp3336
(L1326203493L
L0L
(lp3337
(lp3338
tp3339
a(L1640778736L
L0L
(lp3340
(lp3341
tp3342
a(L3782401745L
L0L
(lp3343
(lp3344
tp3345
a(L106L
L0L
(lp3346
(lp3347
tp3348
a(L3028481L
L0L
(lp3349
(lp3350
tp3351
a(L3014296803L
L3187408090L
(lp3352
(lp3353
Vesp_log_early_timestamp
p3354
atp3355
a(L761135359L
L3785322319L
(lp3356
(lp3357
Vbootloader_flash_read
p3358
atp3359
a(L3856957476L
L3187408090L
(lp3360
(lp3361
Vesp_log_early_timestamp
p3362
atp3363
a(L3871473710L
L0L
(lp3364
(lp3365
tp3366
a(L219417435L
L0L
(lp3367
(lp3368
tp3369
a(L616767314L
L3785322319L
(lp3370
(lp3371
Vbootloader_sha256_data
p3372
atp3373
a(L1599301852L
L1443213481L
(lp3374
(lp3375
tp3376
a(L2258837437L
L0L
(lp3377
(lp3378
tp3379
a(L1764156528L
L0L
(lp3380
(lp3381
tp3382
a(L3028481L
L0L
(lp3383
(lp3384
tp3385
a(L2231662647L
L3187408090L
(lp3386
(lp3387
Vesp_log_early_timestamp
p3388
atp3389
a(L268651496L
L1443213481L
(lp3390
(lp3391
tp3392
a(L652851030L
L2195759072L
(lp3393
(lp3394
tp3395
a(L3802069243L
L0L
(lp3396
(lp3397
tp3398
a(L3696234693L
L1443213481L
(lp3399
(lp3400
tp3401
a(L2258867228L
L0L
(lp3402
(lp3403
tp3404
a(L2277415887L
L0L
(lp3405
(lp3406
tp3407
a(L3177376558L
L0L
(lp3408
(lp3409
tp3410
a(L3028481L
L0L
(lp3411
(lp3412
tp3413
a(L3861001733L
L3187408090L
(lp3414
(lp3415
Vesp_log_early_timestamp
p3416
atp3417
a(L2640606608L
L0L
(lp3418
(lp3419
tp3420
a(L3028481L
L0L
(lp3421
(lp3422
tp3423
a(L3892729576L
L3833084538L
(lp3424
(lp3425
Vesp_log_early_timestamp
p3426
atp3427
a(L4033680444L
L404278070L
(lp3428
(lp3429
tp3430
a(L2902417580L
L0L
(lp3431
(lp3432
tp3433
a(L2902417580L
L0L
(lp3434
(lp3435
tp3436
a(L1229952296L
L3785322319L
(lp3437
(lp3438
Vverify_load_addresses
p3439
atp3440
a(L3783935185L
L3785322319L
(lp3441
(lp3442
Vbootloader_mmap_get_free_pages
p3443
atp3444
a(L3028481L
L0L
(lp3445
(lp3446
tp3447
a(L224879076L
L0L
(lp3448
(lp3449
tp3450
a(L142590671L
L0L
(lp3451
(lp3452
tp3453
a(L3028481L
L0L
(lp3454
(lp3455
tp3456
a(L94425498L
L3785322319L
(lp3457
(lp3458
Vesp_log_early_timestamp
p3459
atp3460
a(L1961289970L
L1443213481L
(lp3461
(lp3462
tp3463
a(L4085121624L
L3785322319L
(lp3464
(lp3465
Vshould_load
p3466
atp3467
a(L3028481L
L0L
(lp3468
(lp3469
tp3470
a(L1038006420L
L3833084538L
(lp3471
(lp3472
Vesp_log_early_timestamp
p3473
atp3474
a(L106L
L0L
(lp3475
(lp3476
tp3477
a(L3815630522L
L0L
(lp3478
(lp3479
tp3480
a(L1646054028L
L3833084538L
(lp3481
(lp3482
Vesp_log_early_timestamp
p3483
atp3484
a(L2629678223L
L0L
(lp3485
(lp3486
tp3487
a(L2684012095L
L0L
(lp3488
(lp3489
tp3490
a(L3357777304L
L3785322319L
(lp3491
(lp3492
Vbootloader_mmap
p3493
atp3494
a(L3911420474L
L3187408090L
(lp3495
(lp3496
Vesp_log_early_timestamp
p3497
atp3498
a(L1698460186L
L0L
(lp3499
(lp3500
tp3501
a(L3264682310L
L1443213481L
(lp3502
(lp3503
tp3504
a(L4016429890L
L242900614L
(lp3505
(lp3506
Vmemcpy
p3507
atp3508
a(L1595421496L
L3785322319L
(lp3509
(lp3510
Vbootloader_munmap
p3511
atp3512
a(L2757579158L
L0L
(lp3513
(lp3514
tp3515
a(L605525844L
L242900614L
(lp3516
(lp3517
Vbootloader_fill_random
p3518
atp3519
a(L3616854679L
L1443213481L
(lp3520
(lp3521
tp3522
a(L3616854679L
L1443213481L
(lp3523
(lp3524
tp3525
a(L3450268858L
L0L
(lp3526
(lp3527
tp3528
a(L3021749L
L0L
(lp3529
(lp3530
tp3531
a(L322434465L
L0L
(lp3532
(lp3533
tp3534
a(L2494883302L
L0L
(lp3535
(lp3536
tp3537
a(L2902417580L
L0L
(lp3538
(lp3539
tp3540
a(L2213415704L
L1443213481L
(lp3541
(lp3542
tp3543
a(L193456747L
L1443213481L
(lp3544
(lp3545
tp3546
a(L1426980959L
L0L
(lp3547
(lp3548
tp3549
a(L1841482652L
L0L
(lp3550
(lp3551
tp3552
a(L653501462L
L0L
(lp3553
(lp3554
tp3555
a(L3310548426L
L3785322319L
(lp3556
(lp3557
Vbootloader_sha256_data
p3558
atp3559
a(L90548756L
L0L
(lp3560
(lp3561
tp3562
a(L1702191967L
L1443213481L
(lp3563
(lp3564
tp3565
a(L2364005371L
L0L
(lp3566
(lp3567
tp3568
atp3569
sI1074238160
(Vbootloader_enable_wp
p3570
(lp3571
(L1117825804L
L3785322319L
(lp3572
(lp3573
Vbootloader_execute_flash_command
p3574
atp3575
atp3576
sI1074269904
(Vrtc_clk_xtal_freq_estimate
p3577
(lp3578
(L1823831978L
L1880226080L
(lp3579
(lp3580
Vrtc_clk_8m_enabled
p3581
aVrtc_clk_8md256_enabled
p3582
atp3583
a(L2449794434L
L3785322319L
(lp3584
(lp3585
Vrtc_clk_8m_enable
p3586
atp3587
a(L3726876033L
L2704288053L
(lp3588
(lp3589
Vrtc_clk_cal_ratio
p3590
aV__udivdi3
p3591
atp3592
a(L3934977694L
L0L
(lp3593
(lp3594
tp3595
a(L3955289886L
L0L
(lp3596
(lp3597
tp3598
a(L2553207239L
L3187408090L
(lp3599
(lp3600
Vesp_log_early_timestamp
p3601
atp3602
a(L2307427870L
L0L
(lp3603
(lp3604
tp3605
a(L1281346514L
L3785322319L
(lp3606
(lp3607
Vrtc_clk_8m_enable
p3608
atp3609
a(L3909119106L
L0L
(lp3610
(lp3611
tp3612
a(L2298857999L
L3187408090L
(lp3613
(lp3614
Vesp_log_early_timestamp
p3615
atp3616
a(L3304487880L
L0L
(lp3617
(lp3618
tp3619
a(L1641150486L
L0L
(lp3620
(lp3621
tp3622
a(L2026357443L
L3187408090L
(lp3623
(lp3624
Vesp_log_early_timestamp
p3625
atp3626
atp3627
sI1074246364
(Vrtc_clk_apb_freq_update
p3628
(lp3629
(L3982322780L
L1443213481L
(lp3630
(lp3631
tp3632
atp3633
sI1074270676
(Vrtc_vddsdio_set_config
p3634
(lp3635
(L3557742407L
L1443213481L
(lp3636
(lp3637
tp3638
atp3639
sI1074236888
(Vesp_dport_access_reg_read
p3640
(lp3641
(L1099794772L
L0L
(lp3642
(lp3643
tp3644
atp3645
sI1074247896
(Vesp_rom_spiflash_read_status
p3646
(lp3647
(L3588638125L
L1443213481L
(lp3648
(lp3649
tp3650
a(L4250092034L
L2534110409L
(lp3651
(lp3652
tp3653
a(L4159619641L
L0L
(lp3654
(lp3655
tp3656
a(L2392720019L
L0L
(lp3657
(lp3658
tp3659
a(L2258688487L
L0L
(lp3660
(lp3661
tp3662
a(L4159619145L
L0L
(lp3663
(lp3664
tp3665
a(L3241763332L
L1443213481L
(lp3666
(lp3667
tp3668
a(L3117156279L
L0L
(lp3669
(lp3670
tp3671
a(L2123059967L
L0L
(lp3672
(lp3673
tp3674
a(L582177370L
L0L
(lp3675
(lp3676
tp3677
atp3678
sI1074236900
(Vis_xmc_chip_strict
p3679
(lp3680
(L1286841609L
L0L
(lp3681
(lp3682
tp3683
a(L2234016759L
L0L
(lp3684
(lp3685
tp3686
a(L1069027148L
L0L
(lp3687
(lp3688
tp3689
a(L3021749L
L0L
(lp3690
(lp3691
tp3692
a(L1900148749L
L0L
(lp3693
(lp3694
tp3695
a(L1936875721L
L0L
(lp3696
(lp3697
tp3698
a(L3356166509L
L0L
(lp3699
(lp3700
tp3701
a(L1937769451L
L0L
(lp3702
(lp3703
tp3704
a(L2137658907L
L0L
(lp3705
(lp3706
tp3707
a(L4265949734L
L0L
(lp3708
(lp3709
tp3710
a(L3360570486L
L0L
(lp3711
(lp3712
tp3713
atp3714
sI1074238180
(Vbootloader_flash_get_spi_mode
p3715
(lp3716
(L1418320346L
L1443213481L
(lp3717
(lp3718
tp3719
a(L2046153171L
L0L
(lp3720
(lp3721
tp3722
a(L893866618L
L0L
(lp3723
(lp3724
tp3725
a(L894790139L
L0L
(lp3726
(lp3727
tp3728
a(L822032846L
L0L
(lp3729
(lp3730
tp3731
a(L3360570486L
L0L
(lp3732
(lp3733
tp3734
atp3735
sI1074245604
(Vrtc_clk_32k_enabled
p3736
(lp3737
(L3257147626L
L1443213481L
(lp3738
(lp3739
tp3740
atp3741
sI1074248676
(Vesp_rom_spiflash_read
p3742
(lp3743
(L1499485309L
L1690040256L
(lp3744
(lp3745
tp3746
a(L3114780042L
L1679261929L
(lp3747
(lp3748
tp3749
a(L2860271684L
L0L
(lp3750
(lp3751
tp3752
a(L1872504408L
L1443213481L
(lp3753
(lp3754
tp3755
a(L106L
L0L
(lp3756
(lp3757
tp3758
a(L633884026L
L0L
(lp3759
(lp3760
tp3761
a(L106L
L0L
(lp3762
(lp3763
tp3764
a(L1100272902L
L1443213481L
(lp3765
(lp3766
tp3767
a(L1372101025L
L1690040256L
(lp3768
(lp3769
tp3770
a(L974197278L
L2195759072L
(lp3771
(lp3772
tp3773
a(L336550648L
L0L
(lp3774
(lp3775
tp3776
a(L3167414617L
L1443213481L
(lp3777
(lp3778
tp3779
a(L106L
L0L
(lp3780
(lp3781
tp3782
a(L3138763340L
L362179215L
(lp3783
(lp3784
Vesp_rom_spiflash_wait_idle
p3785
atp3786
a(L3021737L
L0L
(lp3787
(lp3788
tp3789
a(L106L
L0L
(lp3790
(lp3791
tp3792
a(L1868280504L
L0L
(lp3793
(lp3794
tp3795
a(L106L
L0L
(lp3796
(lp3797
tp3798
a(L750281353L
L0L
(lp3799
(lp3800
tp3801
a(L3897437082L
L0L
(lp3802
(lp3803
tp3804
a(L4122060822L
L0L
(lp3805
(lp3806
tp3807
a(L483218220L
L1443213481L
(lp3808
(lp3809
tp3810
a(L2989032L
L0L
(lp3811
(lp3812
tp3813
a(L3819849625L
L0L
(lp3814
(lp3815
tp3816
a(L1082031446L
L2195759072L
(lp3817
(lp3818
tp3819
a(L1872504408L
L1443213481L
(lp3820
(lp3821
tp3822
a(L147213506L
L1443213481L
(lp3823
(lp3824
tp3825
a(L2062799182L
L2534110409L
(lp3826
(lp3827
tp3828
a(L2921907736L
L0L
(lp3829
(lp3830
tp3831
a(L3677617742L
L1443213481L
(lp3832
(lp3833
tp3834
a(L2483025066L
L1679261929L
(lp3835
(lp3836
tp3837
a(L2136664087L
L1443213481L
(lp3838
(lp3839
tp3840
a(L3000478599L
L2195759072L
(lp3841
(lp3842
tp3843
a(L3333707777L
L0L
(lp3844
(lp3845
tp3846
a(L3251955268L
L0L
(lp3847
(lp3848
tp3849
a(L3418540920L
L0L
(lp3850
(lp3851
tp3852
a(L4183823801L
L1443213481L
(lp3853
(lp3854
tp3855
a(L97689L
L0L
(lp3856
(lp3857
tp3858
a(L2258897019L
L0L
(lp3859
(lp3860
tp3861
a(L4014024819L
L0L
(lp3862
(lp3863
tp3864
a(L3621567083L
L0L
(lp3865
(lp3866
tp3867
atp3868
sI1074238944
(Vload_image
p3869
(lp3870
(L2489779285L
L473788538L
(lp3871
(lp3872
Vesp_log_early_timestamp
p3873
aVbootloader_random_disable
p3874
aVbootloader_ana_clock_glitch_reset_config
p3875
atp3876
a(L2118498116L
L0L
(lp3877
(lp3878
tp3879
a(L106L
L0L
(lp3880
(lp3881
tp3882
a(L3830318930L
L1630967381L
(lp3883
(lp3884
Vmmu_hal_unmap_all
p3885
aVcache_ll_l1_get_bus
p3886
aVcache_ll_l1_enable_bus
p3887
aVcache_ll_l1_get_bus
p3888
aVcache_ll_l1_enable_bus
p3889
aVbootloader_console_deinit
p3890
atp3891
a(L2843581588L
L1443213481L
(lp3892
(lp3893
tp3894
a(L2902417580L
L0L
(lp3895
(lp3896
tp3897
a(L3421811081L
L362179215L
(lp3898
(lp3899
Vesp_log_early_timestamp
p3900
atp3901
a(L2668023328L
L0L
(lp3902
(lp3903
tp3904
a(L670464924L
L2195759072L
(lp3905
(lp3906
tp3907
a(L3020204L
L0L
(lp3908
(lp3909
tp3910
a(L3421811081L
L362179215L
(lp3911
(lp3912
Vesp_log_early_timestamp
p3913
atp3914
a(L263320866L
L0L
(lp3915
(lp3916
tp3917
a(L3049851575L
L0L
(lp3918
(lp3919
tp3920
atp3921
sI1074244832
(Vrtc_clk_cpu_freq_to_pll_mhz
p3922
(lp3923
(L3231135830L
L0L
(lp3924
(lp3925
tp3926
a(L2102627717L
L2195759072L
(lp3927
(lp3928
tp3929
a(L2982280123L
L3380333161L
(lp3930
(lp3931
Vesp_rom_set_cpu_ticks_per_us
p3932
aVrtc_clk_wait_for_slow_cycle
p3933
atp3934
a(L708686908L
L1443213481L
(lp3935
(lp3936
tp3937
a(L3284807114L
L0L
(lp3938
(lp3939
tp3940
a(L94425498L
L3785322319L
(lp3941
(lp3942
Vabort
p3943
atp3944
a(L2258897019L
L0L
(lp3945
(lp3946
tp3947
a(L1113742378L
L0L
(lp3948
(lp3949
tp3950
a(L1306330990L
L0L
(lp3951
(lp3952
tp3953
atp3954
sI1074269156
(Vbootloader_flash_update_id
p3955
(lp3956
(L296988142L
L3833084538L
(lp3957
(lp3958
Vbootloader_read_flash_id
p3959
atp3960
atp3961
sI1074241256
(Vbootloader_util_regions_overlap
p3962
(lp3963
(L2762640130L
L0L
(lp3964
(lp3965
tp3966
a(L1697654632L
L2195759072L
(lp3967
(lp3968
tp3969
a(L2213948952L
L242900614L
(lp3970
(lp3971
V__assert_func
p3972
atp3973
a(L97642L
L0L
(lp3974
(lp3975
tp3976
a(L1087686177L
L2195759072L
(lp3977
(lp3978
tp3979
a(L366123053L
L0L
(lp3980
(lp3981
tp3982
a(L2258867228L
L0L
(lp3983
(lp3984
tp3985
a(L1253626734L
L0L
(lp3986
(lp3987
tp3988
a(L2258897019L
L0L
(lp3989
(lp3990
tp3991
a(L3109269495L
L0L
(lp3992
(lp3993
tp3994
atp3995
sI1074248424
(Vesp_rom_spiflash_write
p3996
(lp3997
(L924384987L
L1679261929L
(lp3998
(lp3999
tp4000
a(L2258688483L
L0L
(lp4001
(lp4002
tp4003
a(L3360570486L
L0L
(lp4004
(lp4005
tp4006
a(L3368132847L
L0L
(lp4007
(lp4008
tp4009
a(L3106685981L
L0L
(lp4010
(lp4011
tp4012
a(L3488660639L
L3785322319L
(lp4013
(lp4014
Vesp_rom_spiflash_program_page_internal
p4015
atp4016
a(L3543402353L
L3785322319L
(lp4017
(lp4018
Vesp_rom_spiflash_program_page_internal
p4019
atp4020
a(L4222526342L
L0L
(lp4021
(lp4022
tp4023
a(L2004208511L
L0L
(lp4024
(lp4025
tp4026
a(L564470656L
L0L
(lp4027
(lp4028
tp4029
a(L441922648L
L3785322319L
(lp4030
(lp4031
Vesp_rom_spiflash_program_page_internal
p4032
atp4033
a(L2302069176L
L0L
(lp4034
(lp4035
tp4036
atp4037
sI1074245620
(Vrtc_clk_8m_enable
p4038
(lp4039
(L2359152383L
L2195759072L
(lp4040
(lp4041
tp4042
a(L2145669267L
L1443213481L
(lp4043
(lp4044
tp4045
a(L2151320156L
L0L
(lp4046
(lp4047
tp4048
a(L1262936142L
L1443213481L
(lp4049
(lp4050
tp4051
a(L3360570486L
L0L
(lp4052
(lp4053
tp4054
a(L1318267208L
L0L
(lp4055
(lp4056
tp4057
a(L1085208965L
L1443213481L
(lp4058
(lp4059
tp4060
atp4061
sI1074236660
(Vesp_rom_uart_set_clock_baudrate
p4062
(lp4063
(L1471953879L
L1443213481L
(lp4064
(lp4065
tp4066
a(L1872515506L
L1443213481L
(lp4067
(lp4068
tp4069
a(L147213506L
L1443213481L
(lp4070
(lp4071
tp4072
a(L3104172142L
L1443213481L
(lp4073
(lp4074
tp4075
atp4076
sI1074235636
(Vbootloader_read_flash_id
p4077
(lp4078
(L549578328L
L3785322319L
(lp4079
(lp4080
Vbootloader_execute_flash_command
p4081
atp4082
atp4083
sI1074268668
(Vbootloader_random_enable
p4084
(lp4085
(L2397175084L
L664430240L
(lp4086
(lp4087
tp4088
atp4089
sI1074237692
(Vbootloader_munmap
p4090
(lp4091
(L4096859803L
L2195759072L
(lp4092
(lp4093
tp4094
a(L4150885370L
L2624587680L
(lp4095
(lp4096
tp4097
a(L3360570486L
L0L
(lp4098
(lp4099
tp4100
atp4101
sI1074268660
(Vbootloader_init_mem
p4102
(lp4103
(L1287383080L
L3785322319L
(lp4104
(lp4105
Vesp_cpu_configure_region_protection
p4106
atp4107
atp4108
sI1074269172
(Vbootloader_init_spi_flash
p4109
(lp4110
(L1876290435L
L1994585993L
(lp4111
(lp4112
Vbootloader_flash_gpio_config
p4113
aVbootloader_flash_dummy_config
p4114
aVbootloader_flash_cs_timing_config
p4115
aVbootloader_flash_unlock
p4116
atp4117
a(L499308289L
L1443213481L
(lp4118
(lp4119
tp4120
a(L1872507246L
L1443213481L
(lp4121
(lp4122
tp4123
a(L147213506L
L1443213481L
(lp4124
(lp4125
tp4126
a(L83726857L
L2426646996L
(lp4127
(lp4128
Vesp_log_early_timestamp
p4129
aVbootloader_flash_get_spi_mode
p4130
atp4131
a(L93674324L
L0L
(lp4132
(lp4133
tp4134
a(L4183135214L
L1443213481L
(lp4135
(lp4136
tp4137
a(L147213506L
L1443213481L
(lp4138
(lp4139
tp4140
a(L3875746660L
L362179215L
(lp4141
(lp4142
Vesp_log_early_timestamp
p4143
atp4144
a(L93674324L
L0L
(lp4145
(lp4146
tp4147
a(L4183135214L
L1443213481L
(lp4148
(lp4149
tp4150
a(L1872507229L
L1443213481L
(lp4151
(lp4152
tp4153
a(L268651496L
L1443213481L
(lp4154
(lp4155
tp4156
a(L1872507229L
L1443213481L
(lp4157
(lp4158
tp4159
a(L1872507229L
L1443213481L
(lp4160
(lp4161
tp4162
a(L268651496L
L1443213481L
(lp4163
(lp4164
tp4165
a(L1872515506L
L1443213481L
(lp4166
(lp4167
tp4168
a(L1005860105L
L3187408090L
(lp4169
(lp4170
Vesp_log_early_timestamp
p4171
atp4172
a(L93674324L
L0L
(lp4173
(lp4174
tp4175
a(L3422553167L
L0L
(lp4176
(lp4177
tp4178
a(L1707909459L
L0L
(lp4179
(lp4180
tp4181
a(L4101522284L
L0L
(lp4182
(lp4183
tp4184
a(L3944678822L
L2082837423L
(lp4185
(lp4186
Vbootloader_enable_wp
p4187
atp4188
a(L3907331784L
L0L
(lp4189
(lp4190
tp4191
atp4192
sI1074241784
(Vprocess_appended_hash_and_sig
p4193
(lp4194
(L1668084157L
L0L
(lp4195
(lp4196
tp4197
a(L2910371777L
L0L
(lp4198
(lp4199
tp4200
a(L4285188111L
L0L
(lp4201
(lp4202
tp4203
a(L1151175705L
L0L
(lp4204
(lp4205
tp4206
a(L97689L
L0L
(lp4207
(lp4208
tp4209
a(L2250231589L
L3187408090L
(lp4210
(lp4211
Vesp_log_early_timestamp
p4212
atp4213
a(L268651496L
L1443213481L
(lp4214
(lp4215
tp4216
a(L1464893571L
L3785322319L
(lp4217
(lp4218
Vbootloader_flash_read
p4219
atp4220
a(L735741265L
L0L
(lp4221
(lp4222
tp4223
atp4224
sI1074245112
(Vrtc_clk_32k_bootstrap
p4225
(lp4226
(L4123346161L
L0L
(lp4227
(lp4228
tp4229
a(L825940178L
L2534110409L
(lp4230
(lp4231
tp4232
a(L1898035327L
L2195759072L
(lp4233
(lp4234
tp4235
a(L3173945957L
L2195759072L
(lp4236
(lp4237
tp4238
a(L3511787439L
L4032149094L
(lp4239
(lp4240
Vrtc_clk_32k_enable_common
p4241
atp4242
atp4243
sI1074246392
(Vrtc_clk_cpu_freq_to_xtal
p4244
(lp4245
(L767415990L
L3785322319L
(lp4246
(lp4247
Vesp_rom_set_cpu_ticks_per_us
p4248
atp4249
a(L94425498L
L3785322319L
(lp4250
(lp4251
Vabort
p4252
atp4253
a(L749912951L
L671729222L
(lp4254
(lp4255
Vrtc_clk_apb_freq_update
p4256
atp4257
a(L2258867230L
L0L
(lp4258
(lp4259
tp4260
a(L1803595874L
L2195759072L
(lp4261
(lp4262
tp4263
atp4264
ssS'functionsdups'
p4265
g11
((lp4266
tp4267
Rp4268
sS'immediatedups'
p4269
g11
((lp4270
tp4271
Rp4272
sS'functiondups'
p4273
g11
((lp4274
tp4275
Rp4276
sS'fuzzy'
p4277
(dp4278
L366261972L
I1074270080
sL2376760616L
I1074243236
sL3223682214L
I1074248588
sL2312909273L
I1074238944
sL4033782891L
I1074244464
sL1651792242L
I1074248040
sL800708016L
I1074239428
sL2092869556L
I1074248288
sL1772626723L
I1074235836
sL2539816556L
I1074236660
sL3032120501L
I1074246180
sL2471313117L
I1074240608
sL2641888616L
I1074247232
sL381028389L
I1074240820
sL3711025829L
I1074240128
sL3500016395L
I1074242000
sL1962232032L
I1074246048
sL797548049L
I1074240440
sL3374853808L
I1074269460
sL2859057779L
I1074269156
sL2835607711L
I1074269820
sL2095240828L
I1074234760
sL1348852091L
I1074248676
sL2182127758L
I1074269904
sL3221945515L
I1074246320
sL1485246373L
I1074240900
sL3525303483L
I1074245912
sL1247030641L
I1074268668
sL1729011238L
I1074241872
sL1959102959L
I1074237484
sL4242478965L
I1074238236
sL2216531249L
I1074245940
sL579471141L
I1074269724
sL1096063205L
I1074236804
sL2906154889L
I1074247992
sL1065525808L
I1074236900
sL1821770661L
I1074237692
sL332090111L
I1074236576
sL282843886L
I1074237744
sL4220069308L
I1074268420
sL3769292310L
I1074238828
sL3703425408L
I1074245620
sL2038713658L
I1074247188
sL2688270468L
I1074269528
sL2708185770L
I1074241256
sL3890904617L
I1074246392
sL3530961461L
I1074270524
sL1605229163L
I1074239796
sL1210592366L
I1074245796
sL1332800441L
I1074237308
sL209111356L
I1074245968
sL3183721996L
I1074235284
sL3558783183L
I1074238020
sL1377360842L
I1074244696
sL2726707668L
I1074268364
sL1161792488L
I1074241068
sL4091350277L
I1074248096
sL2766287930L
I1074267788
sL2871786995L
I1074269596
sL3578810761L
I1074235584
sL2018002450L
I1074235684
sL531949167L
I1074237068
sL1060788199L
I1074246088
sL1444874434L
I1074269752
sL994994961L
I1074238644
sL2663898648L
I1074269484
sL1155028103L
I1074269856
sL627477382L
I1074235948
sL814911857L
I1074240460
sL3280013925L
I1074238316
sL1862804207L
I1074244116
sL1815510750L
I1074244832
sL963803290L
I1074246504
sL3715950101L
I1074244432
sL3420458249L
I1074247896
sL3274368577L
I1074238728
sL3246158480L
I1074239308
sL1872673135L
I1074240104
sL1214705044L
I1074236416
sL4155364446L
I1074237032
sL755401973L
I1074267680
sL230862646L
I1074237452
sL2452281182L
I1074247728
sL1564551092L
I1074241784
sL2367595883L
I1074267672
sL1122585247L
I1074243504
sL3659714901L
I1074241312
sL3428612389L
I1074247696
sL1950296771L
I1074248424
sL1396037064L
I1074245052
sL3736766151L
I1074245112
sL1014311563L
I1074242740
sL1596982735L
I1074269172
ssb.