ccopy_reg
_reconstructor
p0
(crizzo
RizzoSignature
p1
c__builtin__
object
p2
Ntp3
Rp4
(dp5
S'formal'
p6
(dp7
L2399612421L
I1074245480
sL1207862518L
I1074240588
sL250925565L
I1074238604
sL1741170115L
I1074237924
sL247137719L
I1074247508
sL3505757179L
I1074234704
sL2423107704L
I1074239268
sL138009647L
I1074234744
sL1237733855L
I1074238828
sL1348277828L
I1074245628
sL4213015302L
I1074243136
sL2940696155L
I1074245840
sL1696635966L
I1074245256
sL3545118830L
I1074267832
sL3230852531L
I1074238192
sL3098316936L
I1074270052
sL693028457L
I1074240412
sL3232221579L
I1074244640
sL142168405L
I1074245812
sL2702580795L
I1074237288
sL1458472899L
I1074236628
sL3646029665L
I1074244804
sL2896295319L
I1074236828
sL944494460L
I1074245020
sL2285799430L
I1074244600
sL1674148343L
I1074245536
sL2030740789L
I1074246640
sL4171974888L
I1074269892
sL2485902447L
I1074236708
sL2460396001L
I1074248000
sL3333913339L
I1074243440
sL2741930811L
I1074240064
sL3791484843L
I1074267139
sL1585823442L
I1074244452
sL1622896354L
I1074244480
sL3259090715L
I1074247152
sL3213302492L
I1074269628
sL617669774L
I1074247312
sL3392225391L
I1074269920
sL426938157L
I1074235256
sL3705747329L
I1074247400
sL878917889L
I1074238112
sL1016500464L
I1074244960
sL2186980156L
I1074245080
sL2951847322L
I1074244668
sL1568446217L
I1074236532
sL3476917835L
I1074236988
sL2635990884L
I1074241916
sL1259414891L
I1074245208
sL3914567465L
I1074268052
sL1056742531L
I1074236384
sL768348750L
I1074238776
sL426984944L
I1074236900
sL4117027047L
I1074268828
sL676927194L
I1074269116
sL2945163535L
I1074240096
sL2277098556L
I1074236800
sL3307282855L
I1074238084
sL1853923591L
I1074245388
sL1072211552L
I1074270672
sL911764690L
I1074237620
sL1923374634L
I1074245956
sL1043339424L
I1074240336
sL3837755948L
I1074240432
sL60374282L
I1074245232
sL1191319953L
I1074269968
sL692183250L
I1074270236
sL2543988023L
I1074240824
sL2472605942L
I1074245768
sL1109026444L
I1074269764
sL2956233896L
I1074242636
sL798282249L
I1074270004
sL1189478010L
I1074241696
sL1687894276L
I1074244352
sL3514307815L
I1074248088
sL4038945309L
I1074235600
sL696241373L
I1074237672
sL2373957340L
I1074245416
sL518463041L
I1074235804
sL2626436395L
I1074236932
sL3978280629L
I1074241300
sL1275163307L
I1074244552
sL1709641802L
I1074239752
sL17106344L
I1074269696
sL3050555005L
I1074247120
sL2997001746L
I1074237220
sL952722552L
I1074247448
sL2363736404L
I1074243152
sL4079247507L
I1074241052
sL1332374493L
I1074269612
sL2819127986L
I1074236952
sL3980264325L
I1074246684
sL149978958L
I1074236564
sL1877634603L
I1074270904
sL3518743416L
I1074238520
sL3310923163L
I1074238728
sL3379108269L
I1074244036
sL2987381963L
I1074269124
sL3459889393L
I1074244384
sL790507223L
I1074236732
sL1168915326L
I1074235548
sL873382621L
I1074235916
sL404293581L
I1074237364
sL2263182908L
I1074238104
sL3732155567L
I1074247700
sL700866072L
I1074237944
sL3630163135L
I1074236816
sL188664287L
I1074235224
sL782838600L
I1074240784
sL2587289812L
I1074235648
sL4138236490L
I1074240880
sL3075360168L
I1074241244
sL692536993L
I1074237260
sL829503895L
I1074247836
sL2218866089L
I1074238880
sL2114693345L
I1074241788
sL3300000600L
I1074268884
sL144857933L
I1074240800
sL3737191989L
I1074239388
sL1652676726L
I1074270832
sL3018942732L
I1074267724
sL366071084L
I1074269652
sL906556151L
I1074237396
sL2398800133L
I1074245496
ssS'immediates'
p8
(dp9
sS'formaldups'
p10
c__builtin__
set
p11
((lp12
tp13
Rp14
sS'stringdups'
p15
g11
((lp16
tp17
Rp18
sS'fuzzydups'
p19
g11
((lp20
tp21
Rp22
sS'strings'
p23
(dp24
sS'functions'
p25
(dp26
I1074236932
(Vbootloader_common_ota_select_crc
p27
(lp28
(L3214440559L
L0L
(lp29
(lp30
tp31
atp32
sI1074244352
(Vwdt_hal_write_protect_disable
p33
(lp34
(L3345031483L
L0L
(lp35
(lp36
tp37
a(L4195472003L
L0L
(lp38
(lp39
tp40
a(L3360570486L
L0L
(lp41
(lp42
tp43
a(L1210571996L
L0L
(lp44
(lp45
tp46
atp47
sI1074235648
(Vbootloader_flash_xmc_startup
p48
(lp49
(L3680458509L
L3785322319L
(lp50
(lp51
Vis_xmc_chip_strict
p52
atp53
a(L2258688482L
L0L
(lp54
(lp55
tp56
a(L3360570486L
L0L
(lp57
(lp58
tp59
a(L2860324232L
L3785322319L
(lp60
(lp61
Vbootloader_flash_read_sfdp
p62
atp63
a(L2097895665L
L2567856111L
(lp64
(lp65
Vesp_log_early_timestamp
p66
aVbootloader_execute_flash_command
p67
aVbootloader_execute_flash_command
p68
aVbootloader_execute_flash_command
p69
aVbootloader_execute_flash_command
p70
aVbootloader_read_flash_id
p71
aVis_xmc_chip_strict
p72
atp73
a(L4062067944L
L3785322319L
(lp74
(lp75
Vesp_log_early_timestamp
p76
atp77
atp78
sI1074245376
(Vrtc_clk_slow_src_get
p79
(lp80
(L376617603L
L3785322319L
(lp81
(lp82
Vclk_ll_rtc_slow_get_src
p83
atp84
atp85
sI1074267136
(V_init
p86
(lp87
(L3493042598L
L0L
(lp88
(lp89
tp90
atp91
sI1074269696
(Vbootloader_check_bootloader_validity
p92
(lp93
(L3216107859L
L1832448559L
(lp94
(lp95
Vefuse_hal_chip_revision
p96
aVesp_log_early_timestamp
p97
aVbootloader_common_check_chip_validity
p98
atp99
atp100
sI1074235916
(Vbootloader_flash_gpio_config
p101
(lp102
(L3448878117L
L3785322319L
(lp103
(lp104
Vbootloader_common_get_chip_ver_pkg
p105
atp106
a(L106L
L0L
(lp107
(lp108
tp109
a(L1998579353L
L0L
(lp110
(lp111
tp112
a(L106L
L0L
(lp113
(lp114
tp115
a(L1029428446L
L0L
(lp116
(lp117
tp118
a(L4242290324L
L0L
(lp119
(lp120
tp121
a(L106L
L0L
(lp122
(lp123
tp124
a(L4003626558L
L0L
(lp125
(lp126
tp127
a(L1553523094L
L0L
(lp128
(lp129
tp130
a(L3360570486L
L0L
(lp131
(lp132
tp133
atp134
sI1074245388
(Vrtc_clk_slow_freq_get_hz
p135
(lp136
(L1826267122L
L3785322319L
(lp137
(lp138
Vclk_ll_rtc_slow_get_src
p139
atp140
a(L4158856552L
L0L
(lp141
(lp142
tp143
a(L3631005815L
L0L
(lp144
(lp145
tp146
a(L702740041L
L0L
(lp147
(lp148
tp149
a(L3360570486L
L0L
(lp150
(lp151
tp152
atp153
sI1074267139
(V_text_start
p154
(lp155
(L1817914933L
L0L
(lp156
(lp157
tp158
a(L536106224L
L0L
(lp159
(lp160
tp161
atp162
sI1074239752
(Vbootloader_utility_get_selected_boot_partition
p163
(lp164
(L2184143128L
L0L
(lp165
(lp166
tp167
a(L3562950348L
L0L
(lp168
(lp169
tp170
a(L2305665381L
L3785322319L
(lp171
(lp172
Vesp_log_early_timestamp
p173
atp174
a(L194246498L
L0L
(lp175
(lp176
tp177
a(L3360570486L
L0L
(lp178
(lp179
tp180
a(L1375577398L
L3785322319L
(lp181
(lp182
Vbootloader_mmap
p183
atp184
a(L4068127698L
L3785322319L
(lp185
(lp186
Vesp_log_early_timestamp
p187
atp188
a(L2463613311L
L1880226080L
(lp189
(lp190
Vbootloader_munmap
p191
aVbootloader_common_ota_select_invalid
p192
atp193
a(L1103573946L
L0L
(lp194
(lp195
tp196
a(L1876835593L
L3785322319L
(lp197
(lp198
Vbootloader_common_get_active_otadata
p199
atp200
a(L106L
L0L
(lp201
(lp202
tp203
a(L569346373L
L0L
(lp204
(lp205
tp206
a(L788494392L
L3785322319L
(lp207
(lp208
Vbootloader_common_ota_select_invalid
p209
atp210
a(L2801470901L
L0L
(lp211
(lp212
tp213
a(L1838181073L
L3785322319L
(lp214
(lp215
Vesp_log_early_timestamp
p216
atp217
a(L2440848641L
L3785322319L
(lp218
(lp219
Vesp_log_early_timestamp
p220
atp221
a(L505081345L
L0L
(lp222
(lp223
tp224
a(L919052234L
L3785322319L
(lp225
(lp226
Vbootloader_common_ota_select_crc
p227
atp228
a(L2287680455L
L0L
(lp229
(lp230
tp231
a(L3542558037L
L3785322319L
(lp232
(lp233
Vbootloader_common_ota_select_crc
p234
atp235
a(L1299866312L
L0L
(lp236
(lp237
tp238
a(L1279036405L
L0L
(lp239
(lp240
tp241
a(L1406565969L
L3785322319L
(lp242
(lp243
Vesp_log_early_timestamp
p244
atp245
a(L2867263840L
L0L
(lp246
(lp247
tp248
a(L4142614645L
L3785322319L
(lp249
(lp250
Vesp_log_early_timestamp
p251
atp252
atp253
sI1074238728
(Vtry_load_partition
p254
(lp255
(L1263750142L
L0L
(lp256
(lp257
tp258
a(L2258688482L
L0L
(lp259
(lp260
tp261
a(L3360570486L
L0L
(lp262
(lp263
tp264
a(L530241438L
L3785322319L
(lp265
(lp266
Vbootloader_load_image
p267
atp268
a(L3010049260L
L3785322319L
(lp269
(lp270
Vesp_log_early_timestamp
p271
atp272
atp273
sI1074241300
(Vverify_load_addresses
p274
(lp275
(L2764487219L
L0L
(lp276
(lp277
tp278
a(L106L
L0L
(lp279
(lp280
tp281
a(L97642L
L0L
(lp282
(lp283
tp284
a(L532903251L
L3785322319L
(lp285
(lp286
V__assert_func
p287
atp288
a(L170023642L
L0L
(lp289
(lp290
tp291
a(L106L
L0L
(lp292
(lp293
tp294
a(L993824775L
L0L
(lp295
(lp296
tp297
a(L106L
L0L
(lp298
(lp299
tp300
a(L3188534306L
L3785322319L
(lp301
(lp302
Vbootloader_util_regions_overlap
p303
atp304
a(L3284083279L
L3785322319L
(lp305
(lp306
Vbootloader_util_regions_overlap
p307
atp308
a(L3028481L
L0L
(lp309
(lp310
tp311
a(L1178890466L
L3785322319L
(lp312
(lp313
Vbootloader_util_regions_overlap
p314
atp315
a(L2117228786L
L0L
(lp316
(lp317
tp318
a(L273144354L
L0L
(lp319
(lp320
tp321
a(L1016222393L
L0L
(lp322
(lp323
tp324
a(L2661576437L
L0L
(lp325
(lp326
tp327
a(L2503437888L
L0L
(lp328
(lp329
tp330
a(L677569396L
L3785322319L
(lp331
(lp332
Vverify_load_addresses
p333
atp334
a(L1351513776L
L0L
(lp335
(lp336
tp337
a(L3061261803L
L0L
(lp338
(lp339
tp340
a(L2743341656L
L0L
(lp341
(lp342
tp343
a(L791897016L
L0L
(lp344
(lp345
tp346
a(L729859039L
L0L
(lp347
(lp348
tp349
a(L4026856790L
L3785322319L
(lp350
(lp351
Vbootloader_util_regions_overlap
p352
atp353
a(L3028481L
L0L
(lp354
(lp355
tp356
a(L1567678174L
L3785322319L
(lp357
(lp358
Vbootloader_util_regions_overlap
p359
atp360
a(L2782864159L
L0L
(lp361
(lp362
tp363
a(L476078031L
L0L
(lp364
(lp365
tp366
a(L1301487450L
L0L
(lp367
(lp368
tp369
a(L1527375920L
L0L
(lp370
(lp371
tp372
a(L307916850L
L0L
(lp373
(lp374
tp375
a(L697239146L
L0L
(lp376
(lp377
tp378
a(L106L
L0L
(lp379
(lp380
tp381
a(L955505162L
L0L
(lp382
(lp383
tp384
a(L307917400L
L0L
(lp385
(lp386
tp387
a(L490080443L
L0L
(lp388
(lp389
tp390
a(L106L
L0L
(lp391
(lp392
tp393
a(L131589412L
L3785322319L
(lp394
(lp395
Vesp_log_early_timestamp
p396
atp397
a(L955505038L
L0L
(lp398
(lp399
tp400
a(L1303560427L
L0L
(lp401
(lp402
tp403
atp404
sI1074247700
(Vesp_rom_spiflash_erase_sector
p405
(lp406
(L1384786480L
L0L
(lp407
(lp408
tp409
a(L2258688483L
L0L
(lp410
(lp411
tp412
a(L3360570486L
L0L
(lp413
(lp414
tp415
a(L3212356251L
L3785322319L
(lp416
(lp417
Vesp_rom_spiflash_enable_write
p418
atp419
a(L184152988L
L0L
(lp420
(lp421
tp422
a(L991301353L
L3785322319L
(lp423
(lp424
Vesp_rom_spiflash_wait_idle
p425
atp426
a(L3333707777L
L0L
(lp427
(lp428
tp429
a(L3582858798L
L3785322319L
(lp430
(lp431
Vesp_rom_spiflash_wait_idle
p432
atp433
atp434
sI1074270236
(Vrtc_clk_init
p435
(lp436
(L1433536254L
L0L
(lp437
(lp438
tp439
a(L42671777L
L3785322319L
(lp440
(lp441
Vrtc_clk_cpu_freq_to_xtal
p442
atp443
a(L1950731570L
L3785322319L
(lp444
(lp445
Vrtc_clk_xtal_freq_get
p446
atp447
a(L89029051L
L0L
(lp448
(lp449
tp450
a(L4187693717L
L3785322319L
(lp451
(lp452
Vrtc_clk_xtal_freq_estimate
p453
atp454
a(L3965386186L
L3785322319L
(lp455
(lp456
Vesp_log_early_timestamp
p457
atp458
a(L2928127184L
L1157885199L
(lp459
(lp460
Vesp_rom_uart_tx_wait_idle
p461
aVrtc_clk_xtal_freq_update
p462
aVrtc_clk_apb_freq_update
p463
aVrtc_clk_cpu_freq_get_config
p464
aVrtc_clk_cpu_freq_mhz_to_config
p465
atp466
a(L170300763L
L1880226080L
(lp467
(lp468
Vesp_log_early_timestamp
p469
aVabort
p470
atp471
a(L3028481L
L0L
(lp472
(lp473
tp474
a(L4070631611L
L3785322319L
(lp475
(lp476
Vrtc_clk_xtal_freq_estimate
p477
atp478
a(L2871935663L
L3785322319L
(lp479
(lp480
Vesp_log_early_timestamp
p481
atp482
a(L2976141507L
L3785322319L
(lp483
(lp484
Vrtc_clk_cpu_freq_set_config
p485
atp486
a(L912310138L
L3785322319L
(lp487
(lp488
Vrtc_clk_32k_enable
p489
atp490
a(L3191820416L
L1832448559L
(lp491
(lp492
Vrtc_clk_8m_enable
p493
aVrtc_clk_fast_src_set
p494
aVrtc_clk_slow_src_set
p495
atp496
a(L1232958848L
L0L
(lp497
(lp498
tp499
atp500
sI1074240784
(Vbootloader_console_deinit
p501
(lp502
(L4005071210L
L0L
(lp503
(lp504
tp505
atp506
sI1074269968
(Vbootloader_console_init
p507
(lp508
(L2283227580L
L1832448559L
(lp509
(lp510
Vesp_rom_uart_tx_wait_idle
p511
aVrtc_clk_apb_freq_get
p512
aVesp_rom_uart_set_clock_baudrate
p513
atp514
atp515
sI1074241052
(Vprocess_image_header
p516
(lp517
(L4286422149L
L3785322319L
(lp518
(lp519
Vbootloader_flash_read
p520
atp521
a(L3020204L
L0L
(lp522
(lp523
tp524
a(L4130667142L
L0L
(lp525
(lp526
tp527
a(L3131381282L
L0L
(lp528
(lp529
tp530
a(L1161397362L
L3785322319L
(lp531
(lp532
Vbootloader_sha256_start
p533
atp534
a(L1948257695L
L3785322319L
(lp535
(lp536
Vbootloader_sha256_data
p537
atp538
a(L1095449651L
L0L
(lp539
(lp540
tp541
a(L3020204L
L0L
(lp542
(lp543
tp544
a(L702739510L
L0L
(lp545
(lp546
tp547
a(L3360570486L
L0L
(lp548
(lp549
tp550
a(L1435924568L
L3785322319L
(lp551
(lp552
Vesp_log_early_timestamp
p553
atp554
a(L3718883008L
L3785322319L
(lp555
(lp556
Vbootloader_common_check_chip_validity
p557
atp558
a(L3677035427L
L0L
(lp559
(lp560
tp561
a(L3028481L
L0L
(lp562
(lp563
tp564
a(L4249612150L
L3785322319L
(lp565
(lp566
Vesp_log_early_timestamp
p567
atp568
a(L2250109166L
L0L
(lp569
(lp570
tp571
a(L1235012870L
L0L
(lp572
(lp573
tp574
a(L3063569071L
L0L
(lp575
(lp576
tp577
atp578
sI1074246684
(Vrtc_clk_cal_internal
p579
(lp580
(L3168308412L
L0L
(lp581
(lp582
tp583
a(L3863152980L
L3785322319L
(lp584
(lp585
V__assert_func
p586
atp587
a(L4026264710L
L0L
(lp588
(lp589
tp590
a(L54826884L
L0L
(lp591
(lp592
tp593
a(L234746575L
L0L
(lp594
(lp595
tp596
a(L861896856L
L3785322319L
(lp597
(lp598
Vrtc_clk_8m_enable
p599
atp600
a(L2689039534L
L3785322319L
(lp601
(lp602
Vrtc_clk_slow_src_get
p603
atp604
a(L1211065969L
L0L
(lp605
(lp606
tp607
a(L97689L
L0L
(lp608
(lp609
tp610
a(L1703854795L
L0L
(lp611
(lp612
tp613
a(L3028464L
L0L
(lp614
(lp615
tp616
a(L3028481L
L0L
(lp617
(lp618
tp619
a(L3450258732L
L0L
(lp620
(lp621
tp622
a(L944966L
L3785322319L
(lp623
(lp624
Vrtc_clk_xtal_freq_get
p625
atp626
a(L2780079961L
L0L
(lp627
(lp628
tp629
a(L3848725940L
L0L
(lp630
(lp631
tp632
a(L4169951882L
L3785322319L
(lp633
(lp634
Vesp_log_early_timestamp
p635
atp636
a(L3360570486L
L0L
(lp637
(lp638
tp639
a(L794862694L
L0L
(lp640
(lp641
tp642
a(L3245477987L
L0L
(lp643
(lp644
tp645
a(L2910371777L
L0L
(lp646
(lp647
tp648
a(L2902417580L
L0L
(lp649
(lp650
tp651
a(L4153720753L
L0L
(lp652
(lp653
tp654
a(L3631005548L
L0L
(lp655
(lp656
tp657
a(L2144990312L
L0L
(lp658
(lp659
tp660
a(L3352263364L
L0L
(lp661
(lp662
tp663
a(L3028464L
L0L
(lp664
(lp665
tp666
a(L1325746132L
L3785322319L
(lp667
(lp668
Vrtc_clk_8m_enable
p669
atp670
atp671
sI1074236952
(Vbootloader_common_ota_select_valid
p672
(lp673
(L1563399710L
L3785322319L
(lp674
(lp675
Vbootloader_common_ota_select_invalid
p676
atp677
a(L3814720849L
L3785322319L
(lp678
(lp679
Vbootloader_common_ota_select_crc
p680
atp681
a(L3360570486L
L0L
(lp682
(lp683
tp684
atp685
sI1074247448
(Vesp_rom_spiflash_enable_write
p686
(lp687
(L2890359061L
L3785322319L
(lp688
(lp689
Vesp_rom_spiflash_wait_idle
p690
atp691
a(L3137194272L
L0L
(lp692
(lp693
tp694
a(L2258718275L
L0L
(lp695
(lp696
tp697
a(L99543895L
L0L
(lp698
(lp699
tp700
a(L2993202392L
L0L
(lp701
(lp702
tp703
a(L1804543818L
L3785322319L
(lp704
(lp705
Vesp_rom_spiflash_read_status
p706
atp707
atp708
sI1074237220
(Vbootloader_common_get_active_otadata
p709
(lp710
(L3317503532L
L0L
(lp711
(lp712
tp713
a(L2503049265L
L1832448559L
(lp714
(lp715
Vbootloader_common_ota_select_valid
p716
aVbootloader_common_ota_select_valid
p717
aVbootloader_common_select_otadata
p718
atp719
a(L735741265L
L0L
(lp720
(lp721
tp722
atp723
sI1074236708
(Vefuse_hal_chip_revision
p724
(lp725
(L2719302832L
L1880226080L
(lp726
(lp727
Vefuse_hal_get_major_chip_version
p728
aVefuse_hal_get_minor_chip_version
p729
atp730
atp731
sI1074239268
(Vset_actual_ota_seq
p732
(lp733
(L4094723830L
L0L
(lp734
(lp735
tp736
a(L2573507321L
L0L
(lp737
(lp738
tp739
a(L3461827603L
L1832448559L
(lp740
(lp741
Vbootloader_common_ota_select_crc
p742
aVesp_flash_encryption_enabled
p743
aVbootloader_flash_erase_sector
p744
atp745
a(L3292941333L
L3785322319L
(lp746
(lp747
Vbootloader_flash_write
p748
atp749
a(L1764870441L
L3785322319L
(lp750
(lp751
Vesp_log_early_timestamp
p752
atp753
a(L2939835162L
L3785322319L
(lp754
(lp755
Vesp_log_early_timestamp
p756
atp757
a(L3360570486L
L0L
(lp758
(lp759
tp760
atp761
sI1074244640
(Vclk_ll_rtc_slow_get_src
p762
(lp763
(L416280487L
L0L
(lp764
(lp765
tp766
a(L3020187L
L0L
(lp767
(lp768
tp769
a(L2902417580L
L0L
(lp770
(lp771
tp772
a(L2258688485L
L0L
(lp773
(lp774
tp775
a(L3360570486L
L0L
(lp776
(lp777
tp778
atp779
sI1074244384
(Vwdt_hal_set_flashboot_en
p780
(lp781
(L2375320464L
L0L
(lp782
(lp783
tp784
a(L3915867581L
L0L
(lp785
(lp786
tp787
a(L3360570486L
L0L
(lp788
(lp789
tp790
a(L1643092119L
L0L
(lp791
(lp792
tp793
atp794
sI1074240800
(V__assert_func
p795
(lp796
(L1697582622L
L0L
(lp797
(lp798
tp799
a(L106L
L0L
(lp800
(lp801
tp802
atp803
sI1074238508
(Vbootloader_clock_get_rated_freq_mhz
p804
(lp805
(L376617603L
L3785322319L
(lp806
(lp807
Vefuse_hal_get_rated_freq_mhz
p808
atp809
atp810
sI1074245416
(Vrtc_clk_fast_src_set
p811
(lp812
(L1233611555L
L0L
(lp813
(lp814
tp815
a(L3020187L
L0L
(lp816
(lp817
tp818
a(L3827921190L
L3785322319L
(lp819
(lp820
Vabort
p821
atp822
a(L2904656757L
L0L
(lp823
(lp824
tp825
a(L206212292L
L0L
(lp826
(lp827
tp828
a(L300459962L
L0L
(lp829
(lp830
tp831
atp832
sI1074236732
(Vefuse_hal_get_major_chip_version
p833
(lp834
(L1242126302L
L0L
(lp835
(lp836
tp837
a(L894792960L
L0L
(lp838
(lp839
tp840
a(L3783348505L
L0L
(lp841
(lp842
tp843
a(L3360570486L
L0L
(lp844
(lp845
tp846
atp847
sI1074236988
(Vbootloader_common_check_chip_validity
p848
(lp849
(L392423210L
L0L
(lp850
(lp851
tp852
a(L62642320L
L3785322319L
(lp853
(lp854
Vesp_log_early_timestamp
p855
atp856
a(L522103407L
L3785322319L
(lp857
(lp858
Vefuse_hal_chip_revision
p859
atp860
a(L106L
L0L
(lp861
(lp862
tp863
a(L1989150608L
L0L
(lp864
(lp865
tp866
a(L720806035L
L3785322319L
(lp867
(lp868
Vesp_log_early_timestamp
p869
atp870
a(L3028464L
L0L
(lp871
(lp872
tp873
a(L1397322129L
L0L
(lp874
(lp875
tp876
a(L3021749L
L0L
(lp877
(lp878
tp879
a(L3790510041L
L3785322319L
(lp880
(lp881
Vesp_log_early_timestamp
p882
atp883
a(L1299867982L
L0L
(lp884
(lp885
tp886
a(L3360570486L
L0L
(lp887
(lp888
tp889
atp890
sI1074244668
(Vrtc_clk_32k_enable_common
p891
(lp892
(L1442393279L
L0L
(lp893
(lp894
tp895
a(L97689L
L0L
(lp896
(lp897
tp898
a(L2218417250L
L0L
(lp899
(lp900
tp901
a(L533879761L
L0L
(lp902
(lp903
tp904
a(L51458058L
L0L
(lp905
(lp906
tp907
atp908
sI1074270004
(Vesp_cpu_configure_region_protection
p909
(lp910
(L2123781700L
L0L
(lp911
(lp912
tp913
a(L180431425L
L3785322319L
(lp914
(lp915
Vmpu_hal_set_region_access
p916
atp917
a(L2537388152L
L3785322319L
(lp918
(lp919
Vmpu_hal_set_region_access
p920
atp921
atp922
sI1074238520
(Vlog_invalid_app_partition
p923
(lp924
(L3121159614L
L0L
(lp925
(lp926
tp927
a(L3028464L
L0L
(lp928
(lp929
tp930
a(L1381405837L
L3785322319L
(lp931
(lp932
Vesp_log_early_timestamp
p933
atp934
a(L3833270346L
L0L
(lp935
(lp936
tp937
a(L3360570486L
L0L
(lp938
(lp939
tp940
a(L3430459325L
L3785322319L
(lp941
(lp942
Vesp_log_early_timestamp
p943
atp944
a(L3309219235L
L3785322319L
(lp945
(lp946
Vesp_log_early_timestamp
p947
atp948
atp949
sI1074238776
(Vcache_ll_l1_enable_bus
p950
(lp951
(L1908488057L
L0L
(lp952
(lp953
tp954
atp955
sI1074240824
(Vabort
p956
(lp957
(L56968919L
L0L
(lp958
(lp959
tp960
a(L409471316L
L0L
(lp961
(lp962
tp963
a(L106L
L0L
(lp964
(lp965
tp966
atp967
sI1074245956
(Vrtc_clk_cpu_freq_set_config
p968
(lp969
(L97989050L
L3785322319L
(lp970
(lp971
Vrtc_clk_xtal_freq_get
p972
atp973
a(L3020187L
L0L
(lp974
(lp975
tp976
a(L3028464L
L0L
(lp977
(lp978
tp979
a(L264223053L
L1880226080L
(lp980
(lp981
Vrtc_clk_cpu_freq_to_xtal
p982
aVrtc_clk_wait_for_slow_cycle
p983
atp984
a(L94425498L
L3785322319L
(lp985
(lp986
Vrtc_clk_bbpll_disable
p987
atp988
a(L3978916712L
L0L
(lp989
(lp990
tp991
a(L2977209154L
L0L
(lp992
(lp993
tp994
a(L2736411858L
L3785322319L
(lp995
(lp996
Vrtc_clk_cpu_freq_to_xtal
p997
atp998
a(L3360570486L
L0L
(lp999
(lp1000
tp1001
a(L3020187L
L0L
(lp1002
(lp1003
tp1004
a(L106L
L0L
(lp1005
(lp1006
tp1007
a(L4139299579L
L1880226080L
(lp1008
(lp1009
Vrtc_clk_wait_for_slow_cycle
p1010
aVrtc_clk_xtal_freq_get
p1011
atp1012
a(L106L
L0L
(lp1013
(lp1014
tp1015
a(L1388483569L
L0L
(lp1016
(lp1017
tp1018
a(L106L
L0L
(lp1019
(lp1020
tp1021
a(L83268611L
L0L
(lp1022
(lp1023
tp1024
a(L106L
L0L
(lp1025
(lp1026
tp1027
a(L82344823L
L0L
(lp1028
(lp1029
tp1030
a(L106L
L0L
(lp1031
(lp1032
tp1033
a(L1274797871L
L0L
(lp1034
(lp1035
tp1036
a(L2960675980L
L0L
(lp1037
(lp1038
tp1039
a(L2332426982L
L1880226080L
(lp1040
(lp1041
Vclk_ll_rtc_slow_get_src
p1042
aVrtc_clk_cpu_freq_to_pll_mhz
p1043
atp1044
a(L97866512L
L0L
(lp1045
(lp1046
tp1047
a(L83268344L
L0L
(lp1048
(lp1049
tp1050
a(L82345090L
L0L
(lp1051
(lp1052
tp1053
a(L1299628291L
L0L
(lp1054
(lp1055
tp1056
a(L2382164494L
L0L
(lp1057
(lp1058
tp1059
a(L2258807646L
L0L
(lp1060
(lp1061
tp1062
a(L878473564L
L0L
(lp1063
(lp1064
tp1065
a(L2389426015L
L0L
(lp1066
(lp1067
tp1068
a(L1596574736L
L0L
(lp1069
(lp1070
tp1071
a(L2086626670L
L0L
(lp1072
(lp1073
tp1074
a(L1302638456L
L0L
(lp1075
(lp1076
tp1077
a(L810137203L
L0L
(lp1078
(lp1079
tp1080
a(L87353900L
L0L
(lp1081
(lp1082
tp1083
a(L3020187L
L0L
(lp1084
(lp1085
tp1086
a(L106L
L0L
(lp1087
(lp1088
tp1089
a(L1226014053L
L0L
(lp1090
(lp1091
tp1092
atp1093
sI1074267724
(Vcall_start_cpu0
p1094
(lp1095
(L1137852827L
L0L
(lp1096
(lp1097
tp1098
a(L549459388L
L0L
(lp1099
(lp1100
tp1101
a(L3212347974L
L3785322319L
(lp1102
(lp1103
Vbootloader_init
p1104
atp1105
a(L94425498L
L3785322319L
(lp1106
(lp1107
Vbootloader_reset
p1108
atp1109
a(L1122046408L
L0L
(lp1110
(lp1111
tp1112
a(L4099474112L
L0L
(lp1113
(lp1114
tp1115
a(L3015046664L
L3785322319L
(lp1116
(lp1117
Vbootloader_utility_load_partition_table
p1118
atp1119
a(L2761094216L
L3785322319L
(lp1120
(lp1121
Vesp_log_early_timestamp
p1122
atp1123
a(L405422123L
L3785322319L
(lp1124
(lp1125
Vbootloader_utility_get_selected_boot_partition
p1126
atp1127
a(L2055385849L
L3785322319L
(lp1128
(lp1129
Vbootloader_utility_load_boot_image
p1130
atp1131
atp1132
sI1074240064
(Vbootloader_reset
p1133
(lp1134
(L4123387220L
L3785322319L
(lp1135
(lp1136
Vbootloader_console_deinit
p1137
atp1138
a(L106L
L0L
(lp1139
(lp1140
tp1141
atp1142
sI1074243136
(Vbootloader_load_image
p1143
(lp1144
(L1155870502L
L3785322319L
(lp1145
(lp1146
Vimage_load
p1147
atp1148
atp1149
sI1074248000
(Vesp_rom_spiflash_write_encrypted
p1150
(lp1151
(L1944247967L
L0L
(lp1152
(lp1153
tp1154
a(L3637183229L
L0L
(lp1155
(lp1156
tp1157
a(L97689L
L0L
(lp1158
(lp1159
tp1160
a(L3061232074L
L0L
(lp1161
(lp1162
tp1163
a(L1678068038L
L0L
(lp1164
(lp1165
tp1166
a(L1309309703L
L3785322319L
(lp1167
(lp1168
Vesp_rom_spiflash_write
p1169
atp1170
a(L3850908019L
L0L
(lp1171
(lp1172
tp1173
a(L735741265L
L0L
(lp1174
(lp1175
tp1176
atp1177
sI1074237260
(Vbootloader_common_ota_select_invalid
p1178
(lp1179
(L4027567199L
L0L
(lp1180
(lp1181
tp1182
a(L3397985842L
L0L
(lp1183
(lp1184
tp1185
a(L2258867228L
L0L
(lp1186
(lp1187
tp1188
a(L3785235668L
L0L
(lp1189
(lp1190
tp1191
atp1192
sI1074240588
(Vbootloader_sha256_finish
p1193
(lp1194
(L4066096136L
L0L
(lp1195
(lp1196
tp1197
a(L3125987449L
L0L
(lp1198
(lp1199
tp1200
a(L3884092851L
L3785322319L
(lp1201
(lp1202
V__assert_func
p1203
atp1204
a(L3020204L
L0L
(lp1205
(lp1206
tp1207
a(L1816853500L
L0L
(lp1208
(lp1209
tp1210
a(L2534656226L
L0L
(lp1211
(lp1212
tp1213
a(L551614134L
L3785322319L
(lp1214
(lp1215
Vbootloader_sha256_data
p1216
atp1217
a(L3281735505L
L0L
(lp1218
(lp1219
tp1220
a(L841302101L
L3785322319L
(lp1221
(lp1222
Vbootloader_sha256_data
p1223
atp1224
a(L3768329152L
L0L
(lp1225
(lp1226
tp1227
a(L657425439L
L0L
(lp1228
(lp1229
tp1230
a(L3930848034L
L0L
(lp1231
(lp1232
tp1233
a(L657425439L
L0L
(lp1234
(lp1235
tp1236
a(L4116699460L
L0L
(lp1237
(lp1238
tp1239
a(L3511307343L
L0L
(lp1240
(lp1241
tp1242
a(L3347778L
L0L
(lp1243
(lp1244
tp1245
a(L3360570486L
L0L
(lp1246
(lp1247
tp1248
atp1249
sI1074242636
(Vimage_load
p1250
(lp1251
(L3559420668L
L0L
(lp1252
(lp1253
tp1254
a(L1899869541L
L0L
(lp1255
(lp1256
tp1257
a(L979631281L
L0L
(lp1258
(lp1259
tp1260
a(L1525480527L
L0L
(lp1261
(lp1262
tp1263
a(L1043148059L
L0L
(lp1264
(lp1265
tp1266
a(L2796536461L
L0L
(lp1267
(lp1268
tp1269
a(L2974022397L
L3785322319L
(lp1270
(lp1271
Vesp_log_early_timestamp
p1272
atp1273
a(L2068384292L
L0L
(lp1274
(lp1275
tp1276
a(L1968553470L
L3785322319L
(lp1277
(lp1278
Vbootloader_sha256_finish
p1279
atp1280
a(L4209044681L
L0L
(lp1281
(lp1282
tp1283
a(L3225218531L
L0L
(lp1284
(lp1285
tp1286
a(L3802071166L
L0L
(lp1287
(lp1288
tp1289
a(L1301867039L
L3785322319L
(lp1290
(lp1291
Vprocess_image_header
p1292
atp1293
a(L560228796L
L0L
(lp1294
(lp1295
tp1296
a(L4185758499L
L0L
(lp1297
(lp1298
tp1299
a(L1530940255L
L3785322319L
(lp1300
(lp1301
Vprocess_segments
p1302
atp1303
a(L1233227930L
L0L
(lp1304
(lp1305
tp1306
a(L2539156582L
L0L
(lp1307
(lp1308
tp1309
a(L2570888687L
L3785322319L
(lp1310
(lp1311
Vprocess_checksum
p1312
atp1313
a(L425503098L
L3785322319L
(lp1314
(lp1315
Vprocess_appended_hash_and_sig
p1316
atp1317
a(L780930979L
L0L
(lp1318
(lp1319
tp1320
a(L2334355956L
L0L
(lp1321
(lp1322
tp1323
a(L3470740557L
L0L
(lp1324
(lp1325
tp1326
a(L2727908192L
L1880226080L
(lp1327
(lp1328
Vbootloader_sha256_finish
p1329
aVbootloader_debug_buffer
p1330
atp1331
a(L764308364L
L1880226080L
(lp1332
(lp1333
Vesp_log_early_timestamp
p1334
aVbootloader_debug_buffer
p1335
atp1336
a(L1087646176L
L0L
(lp1337
(lp1338
tp1339
a(L2068384292L
L0L
(lp1340
(lp1341
tp1342
a(L3021148818L
L3785322319L
(lp1343
(lp1344
Vbootloader_sha256_finish
p1345
atp1346
a(L3028481L
L0L
(lp1347
(lp1348
tp1349
a(L139701033L
L0L
(lp1350
(lp1351
tp1352
a(L2510919588L
L0L
(lp1353
(lp1354
tp1355
a(L772115669L
L0L
(lp1356
(lp1357
tp1358
a(L2787789065L
L0L
(lp1359
(lp1360
tp1361
a(L85798113L
L0L
(lp1362
(lp1363
tp1364
a(L1351513776L
L0L
(lp1365
(lp1366
tp1367
a(L159346313L
L3785322319L
(lp1368
(lp1369
Vshould_load
p1370
atp1371
a(L4218574503L
L0L
(lp1372
(lp1373
tp1374
a(L3338774213L
L0L
(lp1375
(lp1376
tp1377
a(L3464541874L
L0L
(lp1378
(lp1379
tp1380
a(L3349572949L
L0L
(lp1381
(lp1382
tp1383
a(L2192292519L
L0L
(lp1384
(lp1385
tp1386
a(L106L
L0L
(lp1387
(lp1388
tp1389
a(L26615924L
L0L
(lp1390
(lp1391
tp1392
a(L1299866312L
L0L
(lp1393
(lp1394
tp1395
a(L490060329L
L0L
(lp1396
(lp1397
tp1398
atp1399
sI1074269764
(Vbootloader_config_wdt
p1400
(lp1401
(L197822005L
L505859776L
(lp1402
(lp1403
Vwdt_hal_write_protect_disable
p1404
aVwdt_hal_set_flashboot_en
p1405
aVwdt_hal_write_protect_enable
p1406
aVwdt_hal_init
p1407
aVrtc_clk_slow_freq_get_hz
p1408
aVwdt_hal_write_protect_disable
p1409
aVwdt_hal_config_stage
p1410
aVwdt_hal_enable
p1411
aVwdt_hal_write_protect_enable
p1412
aVwdt_hal_write_protect_disable
p1413
aVwdt_hal_set_flashboot_en
p1414
aVwdt_hal_write_protect_enable
p1415
atp1416
atp1417
sI1074247508
(Vesp_rom_spiflash_program_page_internal
p1418
(lp1419
(L2569069283L
L0L
(lp1420
(lp1421
tp1422
a(L2258688483L
L0L
(lp1423
(lp1424
tp1425
a(L3360570486L
L0L
(lp1426
(lp1427
tp1428
a(L792610006L
L0L
(lp1429
(lp1430
tp1431
a(L4235661475L
L3785322319L
(lp1432
(lp1433
Vesp_rom_spiflash_wait_idle
p1434
atp1435
a(L1299866312L
L0L
(lp1436
(lp1437
tp1438
a(L3212356251L
L3785322319L
(lp1439
(lp1440
Vesp_rom_spiflash_enable_write
p1441
atp1442
a(L3383370082L
L0L
(lp1443
(lp1444
tp1445
a(L2209840608L
L0L
(lp1446
(lp1447
tp1448
a(L2953702749L
L0L
(lp1449
(lp1450
tp1451
a(L2989032L
L0L
(lp1452
(lp1453
tp1454
a(L1965622133L
L0L
(lp1455
(lp1456
tp1457
a(L1351235542L
L0L
(lp1458
(lp1459
tp1460
a(L1958113242L
L0L
(lp1461
(lp1462
tp1463
a(L106L
L0L
(lp1464
(lp1465
tp1466
a(L3112950080L
L0L
(lp1467
(lp1468
tp1469
a(L1868606439L
L0L
(lp1470
(lp1471
tp1472
a(L1008983195L
L0L
(lp1473
(lp1474
tp1475
a(L1933954923L
L0L
(lp1476
(lp1477
tp1478
a(L1147866918L
L0L
(lp1479
(lp1480
tp1481
a(L3871602522L
L0L
(lp1482
(lp1483
tp1484
atp1485
sI1074243152
(Vesp_partition_table_verify
p1486
(lp1487
(L4221019429L
L0L
(lp1488
(lp1489
tp1490
a(L3688263406L
L0L
(lp1491
(lp1492
tp1493
a(L4090921686L
L0L
(lp1494
(lp1495
tp1496
a(L2910371777L
L0L
(lp1497
(lp1498
tp1499
a(L2810785767L
L0L
(lp1500
(lp1501
tp1502
a(L3360570486L
L0L
(lp1503
(lp1504
tp1505
a(L3190337587L
L0L
(lp1506
(lp1507
tp1508
a(L2069928857L
L0L
(lp1509
(lp1510
tp1511
a(L3020204L
L0L
(lp1512
(lp1513
tp1514
a(L4240560509L
L3785322319L
(lp1515
(lp1516
Vesp_log_early_timestamp
p1517
atp1518
a(L2526422477L
L3785322319L
(lp1519
(lp1520
Vesp_log_early_timestamp
p1521
atp1522
a(L510839312L
L0L
(lp1523
(lp1524
tp1525
a(L2902417580L
L0L
(lp1526
(lp1527
tp1528
a(L3020204L
L0L
(lp1529
(lp1530
tp1531
a(L2215002226L
L3785322319L
(lp1532
(lp1533
Vesp_log_early_timestamp
p1534
atp1535
a(L2867263840L
L0L
(lp1536
(lp1537
tp1538
a(L3655331517L
L0L
(lp1539
(lp1540
tp1541
a(L2902417580L
L0L
(lp1542
(lp1543
tp1544
a(L4240559796L
L3785322319L
(lp1545
(lp1546
Vesp_log_early_timestamp
p1547
atp1548
a(L1305407469L
L0L
(lp1549
(lp1550
tp1551
a(L1167861556L
L0L
(lp1552
(lp1553
tp1554
a(L3914073261L
L0L
(lp1555
(lp1556
tp1557
a(L2910371777L
L0L
(lp1558
(lp1559
tp1560
a(L1235012932L
L0L
(lp1561
(lp1562
tp1563
a(L4142303994L
L3785322319L
(lp1564
(lp1565
Vesp_log_early_timestamp
p1566
atp1567
atp1568
sI1074240336
(Vindex_to_partition
p1569
(lp1570
(L4066096119L
L0L
(lp1571
(lp1572
tp1573
a(L1739185955L
L0L
(lp1574
(lp1575
tp1576
a(L2171552758L
L0L
(lp1577
(lp1578
tp1579
a(L2808906342L
L0L
(lp1580
(lp1581
tp1582
a(L2101481936L
L0L
(lp1583
(lp1584
tp1585
a(L3698927993L
L0L
(lp1586
(lp1587
tp1588
a(L2808826781L
L0L
(lp1589
(lp1590
tp1591
a(L3003398163L
L0L
(lp1592
(lp1593
tp1594
a(L2880709161L
L0L
(lp1595
(lp1596
tp1597
a(L1087646172L
L0L
(lp1598
(lp1599
tp1600
atp1601
sI1074234704
(Vesp_flash_encryption_enabled
p1602
(lp1603
(L2932383536L
L0L
(lp1604
(lp1605
tp1606
a(L2910371777L
L0L
(lp1607
(lp1608
tp1609
a(L3360570486L
L0L
(lp1610
(lp1611
tp1612
a(L3016870L
L0L
(lp1613
(lp1614
tp1615
a(L3745038218L
L0L
(lp1616
(lp1617
tp1618
a(L957607403L
L0L
(lp1619
(lp1620
tp1621
atp1622
sI1074235224
(Vbootloader_execute_flash_command
p1623
(lp1624
(L2481595632L
L3785322319L
(lp1625
(lp1626
Vbootloader_flash_execute_command_common
p1627
atp1628
atp1629
sI1074245208
(Vrtc_clk_8m_enabled
p1630
(lp1631
(L2802140000L
L0L
(lp1632
(lp1633
tp1634
atp1635
sI1074244452
(Vwdt_hal_write_protect_enable
p1636
(lp1637
(L387778158L
L0L
(lp1638
(lp1639
tp1640
a(L4195472003L
L0L
(lp1641
(lp1642
tp1643
a(L3360570486L
L0L
(lp1644
(lp1645
tp1646
a(L802523425L
L0L
(lp1647
(lp1648
tp1649
atp1650
sI1074240096
(Vbootloader_utility_load_boot_image
p1651
(lp1652
(L1375294773L
L0L
(lp1653
(lp1654
tp1655
a(L2177418995L
L3785322319L
(lp1656
(lp1657
Vtry_load_partition
p1658
atp1659
a(L1305243774L
L3785322319L
(lp1660
(lp1661
Vload_image
p1662
atp1663
a(L1481893282L
L3785322319L
(lp1664
(lp1665
Vesp_log_early_timestamp
p1666
atp1667
a(L3827921190L
L3785322319L
(lp1668
(lp1669
Vbootloader_reset
p1670
atp1671
a(L1953693036L
L3785322319L
(lp1672
(lp1673
Vindex_to_partition
p1674
atp1675
a(L1204373741L
L3785322319L
(lp1676
(lp1677
Vtry_load_partition
p1678
atp1679
a(L1899865696L
L0L
(lp1680
(lp1681
tp1682
a(L2695355117L
L3785322319L
(lp1683
(lp1684
Vset_actual_ota_seq
p1685
atp1686
a(L1868897605L
L3785322319L
(lp1687
(lp1688
Vlog_invalid_app_partition
p1689
atp1690
a(L831650730L
L0L
(lp1691
(lp1692
tp1693
a(L3021737L
L0L
(lp1694
(lp1695
tp1696
a(L695456438L
L0L
(lp1697
(lp1698
tp1699
a(L1129532116L
L3785322319L
(lp1700
(lp1701
Vtry_load_partition
p1702
atp1703
a(L4022121633L
L3785322319L
(lp1704
(lp1705
Vesp_log_early_timestamp
p1706
atp1707
a(L2347390157L
L3785322319L
(lp1708
(lp1709
Vindex_to_partition
p1710
atp1711
a(L1204373741L
L3785322319L
(lp1712
(lp1713
Vtry_load_partition
p1714
atp1715
a(L3061261803L
L0L
(lp1716
(lp1717
tp1718
a(L3582858798L
L3785322319L
(lp1719
(lp1720
Vlog_invalid_app_partition
p1721
atp1722
a(L1285752117L
L3785322319L
(lp1723
(lp1724
Vesp_log_early_timestamp
p1725
atp1726
atp1727
sI1074244960
(Vrtc_clk_bbpll_disable
p1728
(lp1729
(L2525111280L
L0L
(lp1730
(lp1731
tp1732
a(L2472207241L
L0L
(lp1733
(lp1734
tp1735
a(L3360570486L
L0L
(lp1736
(lp1737
tp1738
atp1739
sI1074238828
(Vcache_ll_l1_enable_bus
p1740
(lp1741
(L1408514293L
L0L
(lp1742
(lp1743
tp1744
atp1745
sI1074270052
(Vrtc_clk_xtal_freq_estimate
p1746
(lp1747
(L3845076426L
L1880226080L
(lp1748
(lp1749
Vrtc_clk_8m_enabled
p1750
aVrtc_clk_8md256_enabled
p1751
atp1752
a(L2449794434L
L3785322319L
(lp1753
(lp1754
Vrtc_clk_8m_enable
p1755
atp1756
a(L2541226969L
L3785322319L
(lp1757
(lp1758
Vrtc_clk_cal_ratio
p1759
atp1760
a(L1894802584L
L0L
(lp1761
(lp1762
tp1763
a(L1915120046L
L0L
(lp1764
(lp1765
tp1766
a(L2740879690L
L0L
(lp1767
(lp1768
tp1769
a(L1059750288L
L3785322319L
(lp1770
(lp1771
Vrtc_clk_8m_enable
p1772
atp1773
a(L636060329L
L3785322319L
(lp1774
(lp1775
Vesp_log_early_timestamp
p1776
atp1777
a(L2894376164L
L0L
(lp1778
(lp1779
tp1780
a(L1641150486L
L0L
(lp1781
(lp1782
tp1783
a(L3097803779L
L3785322319L
(lp1784
(lp1785
Vesp_log_early_timestamp
p1786
atp1787
a(L3100578259L
L3785322319L
(lp1788
(lp1789
Vesp_log_early_timestamp
p1790
atp1791
atp1792
sI1074237288
(Vbootloader_common_select_otadata
p1793
(lp1794
(L4071767857L
L0L
(lp1795
(lp1796
tp1797
a(L1999329187L
L0L
(lp1798
(lp1799
tp1800
a(L3846398843L
L0L
(lp1801
(lp1802
tp1803
a(L2501968171L
L0L
(lp1804
(lp1805
tp1806
a(L3360570486L
L0L
(lp1807
(lp1808
tp1809
a(L2045232488L
L0L
(lp1810
(lp1811
tp1812
a(L1243525916L
L0L
(lp1813
(lp1814
tp1815
a(L3094144427L
L0L
(lp1816
(lp1817
tp1818
a(L2399509845L
L0L
(lp1819
(lp1820
tp1821
a(L1641201884L
L0L
(lp1822
(lp1823
tp1824
atp1825
sI1074240872
(Vbootloader_ana_clock_glitch_reset_config
p1826
(lp1827
(L2100504542L
L0L
(lp1828
(lp1829
tp1830
atp1831
sI1074245480
(Vrtc_clk_fast_src_get
p1832
(lp1833
(L380770082L
L0L
(lp1834
(lp1835
tp1836
atp1837
sI1074236532
(Vbootloader_common_get_chip_ver_pkg
p1838
(lp1839
(L2886103845L
L0L
(lp1840
(lp1841
tp1842
atp1843
sI1074245232
(Vrtc_clk_8md256_enabled
p1844
(lp1845
(L1957668129L
L0L
(lp1846
(lp1847
tp1848
atp1849
sI1074243440
(Vwdt_hal_init
p1850
(lp1851
(L509746487L
L0L
(lp1852
(lp1853
tp1854
a(L745008699L
L0L
(lp1855
(lp1856
tp1857
a(L2805934244L
L0L
(lp1858
(lp1859
tp1860
a(L3115097993L
L0L
(lp1861
(lp1862
tp1863
a(L1129008730L
L0L
(lp1864
(lp1865
tp1866
a(L3360570486L
L0L
(lp1867
(lp1868
tp1869
a(L3022237171L
L0L
(lp1870
(lp1871
tp1872
atp1873
sI1074240880
(Vprocess_checksum
p1874
(lp1875
(L226873693L
L0L
(lp1876
(lp1877
tp1878
a(L2910371777L
L0L
(lp1879
(lp1880
tp1881
a(L186886970L
L0L
(lp1882
(lp1883
tp1884
a(L2910371777L
L0L
(lp1885
(lp1886
tp1887
a(L3020204L
L0L
(lp1888
(lp1889
tp1890
a(L2480703612L
L3785322319L
(lp1891
(lp1892
Vbootloader_sha256_data
p1893
atp1894
a(L4179073442L
L0L
(lp1895
(lp1896
tp1897
a(L1811888222L
L3785322319L
(lp1898
(lp1899
Vbootloader_flash_read
p1900
atp1901
a(L3126521138L
L0L
(lp1902
(lp1903
tp1904
a(L4120157373L
L0L
(lp1905
(lp1906
tp1907
a(L3278991908L
L3785322319L
(lp1908
(lp1909
Vesp_log_early_timestamp
p1910
atp1911
atp1912
sI1074270832
(Vrtc_vddsdio_set_config
p1913
(lp1914
(L924138034L
L0L
(lp1915
(lp1916
tp1917
atp1918
sI1074241916
(Vprocess_segments
p1919
(lp1920
(L1018786970L
L0L
(lp1921
(lp1922
tp1923
a(L3285816417L
L0L
(lp1924
(lp1925
tp1926
a(L3782401745L
L0L
(lp1927
(lp1928
tp1929
a(L106L
L0L
(lp1930
(lp1931
tp1932
a(L2411199274L
L0L
(lp1933
(lp1934
tp1935
a(L669991150L
L3785322319L
(lp1936
(lp1937
Vesp_log_early_timestamp
p1938
atp1939
a(L3085209925L
L3785322319L
(lp1940
(lp1941
Vbootloader_flash_read
p1942
atp1943
a(L125419343L
L3785322319L
(lp1944
(lp1945
Vesp_log_early_timestamp
p1946
atp1947
a(L3871473710L
L0L
(lp1948
(lp1949
tp1950
a(L234193771L
L0L
(lp1951
(lp1952
tp1953
a(L1635713494L
L3785322319L
(lp1954
(lp1955
Vbootloader_sha256_data
p1956
atp1957
a(L165187679L
L0L
(lp1958
(lp1959
tp1960
a(L334484485L
L0L
(lp1961
(lp1962
tp1963
a(L451332327L
L0L
(lp1964
(lp1965
tp1966
a(L3802067325L
L0L
(lp1967
(lp1968
tp1969
a(L3592389343L
L0L
(lp1970
(lp1971
tp1972
a(L2258867228L
L0L
(lp1973
(lp1974
tp1975
a(L1255782415L
L0L
(lp1976
(lp1977
tp1978
a(L1756760227L
L0L
(lp1979
(lp1980
tp1981
a(L1849436849L
L0L
(lp1982
(lp1983
tp1984
a(L1947739089L
L3785322319L
(lp1985
(lp1986
Vesp_log_early_timestamp
p1987
atp1988
a(L3601900694L
L0L
(lp1989
(lp1990
tp1991
a(L568253874L
L0L
(lp1992
(lp1993
tp1994
a(L3182428709L
L3785322319L
(lp1995
(lp1996
Vesp_log_early_timestamp
p1997
atp1998
a(L1973629750L
L3785322319L
(lp1999
(lp2000
Vverify_load_addresses
p2001
atp2002
a(L106L
L0L
(lp2003
(lp2004
tp2005
a(L914132342L
L0L
(lp2006
(lp2007
tp2008
a(L291460350L
L0L
(lp2009
(lp2010
tp2011
a(L4151532718L
L3785322319L
(lp2012
(lp2013
Vbootloader_mmap
p2014
atp2015
a(L3589484614L
L3785322319L
(lp2016
(lp2017
Vesp_log_early_timestamp
p2018
atp2019
a(L2994776696L
L0L
(lp2020
(lp2021
tp2022
a(L2942377727L
L0L
(lp2023
(lp2024
tp2025
a(L1652679798L
L3785322319L
(lp2026
(lp2027
Vbootloader_munmap
p2028
atp2029
a(L2993622008L
L0L
(lp2030
(lp2031
tp2032
a(L1216016797L
L3785322319L
(lp2033
(lp2034
Vbootloader_fill_random
p2035
atp2036
a(L3570641403L
L0L
(lp2037
(lp2038
tp2039
a(L3574335487L
L0L
(lp2040
(lp2041
tp2042
a(L3450268858L
L0L
(lp2043
(lp2044
tp2045
a(L3021749L
L0L
(lp2046
(lp2047
tp2048
a(L1609678444L
L0L
(lp2049
(lp2050
tp2051
a(L1777728568L
L0L
(lp2052
(lp2053
tp2054
a(L3020204L
L0L
(lp2055
(lp2056
tp2057
a(L1312354573L
L0L
(lp2058
(lp2059
tp2060
a(L2076461546L
L0L
(lp2061
(lp2062
tp2063
a(L3844184503L
L0L
(lp2064
(lp2065
tp2066
a(L1749969336L
L0L
(lp2067
(lp2068
tp2069
a(L670934548L
L0L
(lp2070
(lp2071
tp2072
a(L781506066L
L3785322319L
(lp2073
(lp2074
Vbootloader_sha256_data
p2075
atp2076
a(L90548756L
L0L
(lp2077
(lp2078
tp2079
a(L4195963580L
L0L
(lp2080
(lp2081
tp2082
a(L2422333549L
L0L
(lp2083
(lp2084
tp2085
a(L3132743422L
L0L
(lp2086
(lp2087
tp2088
a(L249537906L
L3785322319L
(lp2089
(lp2090
Vshould_load
p2091
atp2092
a(L2378267508L
L0L
(lp2093
(lp2094
tp2095
a(L3098292588L
L3785322319L
(lp2096
(lp2097
Vesp_log_early_timestamp
p2098
atp2099
a(L1263395604L
L0L
(lp2100
(lp2101
tp2102
a(L307916924L
L0L
(lp2103
(lp2104
tp2105
a(L3421814691L
L0L
(lp2106
(lp2107
tp2108
a(L81630008L
L0L
(lp2109
(lp2110
tp2111
a(L2742376716L
L0L
(lp2112
(lp2113
tp2114
a(L3786494677L
L3785322319L
(lp2115
(lp2116
Vbootloader_mmap_get_free_pages
p2117
atp2118
a(L2685118414L
L0L
(lp2119
(lp2120
tp2121
a(L2091285670L
L0L
(lp2122
(lp2123
tp2124
atp2125
sI1074235256
(Vbootloader_flash_unlock
p2126
(lp2127
(L2142380611L
L3785322319L
(lp2128
(lp2129
Vesp_rom_spiflash_wait_idle
p2130
atp2131
a(L4212373562L
L0L
(lp2132
(lp2133
tp2134
a(L4292483033L
L3785322319L
(lp2135
(lp2136
Vbootloader_execute_flash_command
p2137
atp2138
a(L106L
L0L
(lp2139
(lp2140
tp2141
a(L1303560644L
L0L
(lp2142
(lp2143
tp2144
a(L610618440L
L0L
(lp2145
(lp2146
tp2147
a(L106L
L0L
(lp2148
(lp2149
tp2150
a(L345249462L
L0L
(lp2151
(lp2152
tp2153
a(L106L
L0L
(lp2154
(lp2155
tp2156
a(L1024465569L
L0L
(lp2157
(lp2158
tp2159
a(L106L
L0L
(lp2160
(lp2161
tp2162
a(L1481761147L
L1880226080L
(lp2163
(lp2164
Vbootloader_execute_flash_command
p2165
aVbootloader_execute_flash_command
p2166
atp2167
a(L2258807654L
L0L
(lp2168
(lp2169
tp2170
a(L489806350L
L1832448559L
(lp2171
(lp2172
Vesp_rom_spiflash_wait_idle
p2173
aVbootloader_execute_flash_command
p2174
aVbootloader_execute_flash_command
p2175
atp2176
a(L879744646L
L1832448559L
(lp2177
(lp2178
Vesp_rom_spiflash_wait_idle
p2179
aVbootloader_execute_flash_command
p2180
aVbootloader_execute_flash_command
p2181
atp2182
a(L1840772931L
L1880226080L
(lp2183
(lp2184
Vesp_rom_spiflash_wait_idle
p2185
aVbootloader_execute_flash_command
p2186
atp2187
a(L2993202392L
L0L
(lp2188
(lp2189
tp2190
a(L508800419L
L1880226080L
(lp2191
(lp2192
Vbootloader_execute_flash_command
p2193
aVbootloader_execute_flash_command
p2194
atp2195
a(L1303560369L
L0L
(lp2196
(lp2197
tp2198
a(L1596544945L
L0L
(lp2199
(lp2200
tp2201
a(L97689L
L0L
(lp2202
(lp2203
tp2204
a(L106L
L0L
(lp2205
(lp2206
tp2207
atp2208
sI1074234744
(Vbootloader_flash_execute_command_common
p2209
(lp2210
(L3865052895L
L0L
(lp2211
(lp2212
tp2213
a(L3287175998L
L0L
(lp2214
(lp2215
tp2216
a(L4121451103L
L3785322319L
(lp2217
(lp2218
V__assert_func
p2219
atp2220
a(L3021749L
L0L
(lp2221
(lp2222
tp2223
a(L3999871974L
L0L
(lp2224
(lp2225
tp2226
a(L543316797L
L0L
(lp2227
(lp2228
tp2229
a(L2091933878L
L0L
(lp2230
(lp2231
tp2232
a(L1702379862L
L0L
(lp2233
(lp2234
tp2235
a(L3432464320L
L0L
(lp2236
(lp2237
tp2238
a(L3539375712L
L0L
(lp2239
(lp2240
tp2241
a(L3244449450L
L0L
(lp2242
(lp2243
tp2244
a(L4233404408L
L0L
(lp2245
(lp2246
tp2247
a(L2990329343L
L0L
(lp2248
(lp2249
tp2250
a(L2051090536L
L0L
(lp2251
(lp2252
tp2253
a(L3333696662L
L0L
(lp2254
(lp2255
tp2256
a(L963425213L
L0L
(lp2257
(lp2258
tp2259
a(L339491738L
L0L
(lp2260
(lp2261
tp2262
a(L3360570486L
L0L
(lp2263
(lp2264
tp2265
atp2266
sI1074245496
(Vrtc_clk_xtal_freq_get
p2267
(lp2268
(L436198866L
L0L
(lp2269
(lp2270
tp2271
a(L2847936993L
L0L
(lp2272
(lp2273
tp2274
a(L4141094988L
L0L
(lp2275
(lp2276
tp2277
a(L3360570486L
L0L
(lp2278
(lp2279
tp2280
atp2281
sI1074238084
(Vbootloader_enable_wp
p2282
(lp2283
(L1117825804L
L3785322319L
(lp2284
(lp2285
Vbootloader_execute_flash_command
p2286
atp2287
atp2288
sI1074244480
(Vwdt_hal_enable
p2289
(lp2290
(L2299130915L
L0L
(lp2291
(lp2292
tp2293
a(L165794138L
L0L
(lp2294
(lp2295
tp2296
a(L3360570486L
L0L
(lp2297
(lp2298
tp2299
a(L2847657174L
L0L
(lp2300
(lp2301
tp2302
atp2303
sI1074236800
(Vefuse_hal_get_minor_chip_version
p2304
(lp2305
(L1213965243L
L0L
(lp2306
(lp2307
tp2308
atp2309
sI1074238604
(Vcache_ll_l1_get_bus
p2310
(lp2311
(L3820023252L
L0L
(lp2312
(lp2313
tp2314
a(L94425498L
L3785322319L
(lp2315
(lp2316
Vabort
p2317
atp2318
a(L3179088012L
L0L
(lp2319
(lp2320
tp2321
a(L1844424101L
L0L
(lp2322
(lp2323
tp2324
a(L892952750L
L0L
(lp2325
(lp2326
tp2327
a(L1182811810L
L0L
(lp2328
(lp2329
tp2330
a(L1101742417L
L0L
(lp2331
(lp2332
tp2333
a(L1100767927L
L0L
(lp2334
(lp2335
tp2336
a(L3360570486L
L0L
(lp2337
(lp2338
tp2339
a(L2767111967L
L0L
(lp2340
(lp2341
tp2342
a(L892952750L
L0L
(lp2343
(lp2344
tp2345
a(L2258688482L
L0L
(lp2346
(lp2347
tp2348
a(L1353797152L
L0L
(lp2349
(lp2350
tp2351
a(L2258718273L
L0L
(lp2352
(lp2353
tp2354
a(L2938197270L
L0L
(lp2355
(lp2356
tp2357
a(L2748641547L
L0L
(lp2358
(lp2359
tp2360
a(L2752340901L
L0L
(lp2361
(lp2362
tp2363
a(L1641149277L
L0L
(lp2364
(lp2365
tp2366
a(L3211405977L
L0L
(lp2367
(lp2368
tp2369
a(L3027019L
L0L
(lp2370
(lp2371
tp2372
a(L1299866560L
L0L
(lp2373
(lp2374
tp2375
a(L1299866436L
L0L
(lp2376
(lp2377
tp2378
atp2379
sI1074245256
(Vrtc_clk_slow_src_set
p2380
(lp2381
(L1719649901L
L0L
(lp2382
(lp2383
tp2384
a(L3020187L
L0L
(lp2385
(lp2386
tp2387
a(L3028481L
L0L
(lp2388
(lp2389
tp2390
a(L487821223L
L0L
(lp2391
(lp2392
tp2393
a(L185049753L
L0L
(lp2394
(lp2395
tp2396
a(L1851908495L
L0L
(lp2397
(lp2398
tp2399
a(L382170874L
L0L
(lp2400
(lp2401
tp2402
a(L3138544334L
L0L
(lp2403
(lp2404
tp2405
a(L94425498L
L3785322319L
(lp2406
(lp2407
Vabort
p2408
atp2409
atp2410
sI1074245768
(Vrtc_clk_xtal_freq_update
p2411
(lp2412
(L1422638466L
L0L
(lp2413
(lp2414
tp2415
a(L3509357017L
L0L
(lp2416
(lp2417
tp2418
a(L2266180931L
L0L
(lp2419
(lp2420
tp2421
atp2422
sI1074248840
(V_fini
p2423
(lp2424
(L3493042598L
L0L
(lp2425
(lp2426
tp2427
atp2428
sI1074240404
(Vbootloader_debug_buffer
p2429
(lp2430
(L2100504542L
L0L
(lp2431
(lp2432
tp2433
atp2434
sI1074236564
(Vesp_rom_uart_tx_wait_idle
p2435
(lp2436
(L3957152286L
L0L
(lp2437
(lp2438
tp2439
a(L1301079727L
L0L
(lp2440
(lp2441
tp2442
a(L3597746521L
L0L
(lp2443
(lp2444
tp2445
a(L3694491048L
L0L
(lp2446
(lp2447
tp2448
a(L3055926844L
L0L
(lp2449
(lp2450
tp2451
a(L3360570486L
L0L
(lp2452
(lp2453
tp2454
atp2455
sI1074268828
(Vbootloader_common_vddsdio_configure
p2456
(lp2457
(L1829974089L
L3785322319L
(lp2458
(lp2459
Vrtc_vddsdio_get_config
p2460
atp2461
a(L1489249795L
L3785322319L
(lp2462
(lp2463
Vrtc_vddsdio_set_config
p2464
atp2465
a(L3360570486L
L0L
(lp2466
(lp2467
tp2468
atp2469
sI1074236816
(Vesp_dport_access_reg_read
p2470
(lp2471
(L1099794772L
L0L
(lp2472
(lp2473
tp2474
atp2475
sI1074247312
(Vesp_rom_spiflash_read_status
p2476
(lp2477
(L2938520357L
L0L
(lp2478
(lp2479
tp2480
a(L1182811815L
L0L
(lp2481
(lp2482
tp2483
a(L1827921062L
L0L
(lp2484
(lp2485
tp2486
a(L106L
L0L
(lp2487
(lp2488
tp2489
a(L619542702L
L0L
(lp2490
(lp2491
tp2492
a(L3274807848L
L0L
(lp2493
(lp2494
tp2495
a(L2123059967L
L0L
(lp2496
(lp2497
tp2498
a(L3146966332L
L0L
(lp2499
(lp2500
tp2501
a(L2392720019L
L0L
(lp2502
(lp2503
tp2504
atp2505
sI1074245020
(Vrtc_clk_32k_enable
p2506
(lp2507
(L753387299L
L0L
(lp2508
(lp2509
tp2510
a(L3776007933L
L3785322319L
(lp2511
(lp2512
Vrtc_clk_32k_enable_common
p2513
atp2514
a(L3496950L
L0L
(lp2515
(lp2516
tp2517
a(L2501812159L
L0L
(lp2518
(lp2519
tp2520
atp2521
sI1074240412
(Vbootloader_sha256_start
p2522
(lp2523
(L260677377L
L0L
(lp2524
(lp2525
tp2526
atp2527
sI1074239388
(Vbootloader_utility_load_partition_table
p2528
(lp2529
(L4268190983L
L3785322319L
(lp2530
(lp2531
Vbootloader_mmap
p2532
atp2533
a(L1894723508L
L3785322319L
(lp2534
(lp2535
Vesp_log_early_timestamp
p2536
atp2537
a(L2258688482L
L0L
(lp2538
(lp2539
tp2540
a(L3360570486L
L0L
(lp2541
(lp2542
tp2543
a(L3881596654L
L3785322319L
(lp2544
(lp2545
Vesp_partition_table_verify
p2546
atp2547
a(L418712718L
L3785322319L
(lp2548
(lp2549
Vesp_log_early_timestamp
p2550
atp2551
a(L3331315958L
L1880226080L
(lp2552
(lp2553
Vesp_log_early_timestamp
p2554
aVesp_log_early_timestamp
p2555
atp2556
a(L650140130L
L0L
(lp2557
(lp2558
tp2559
a(L3929231144L
L1880226080L
(lp2560
(lp2561
Vbootloader_munmap
p2562
aVesp_log_early_timestamp
p2563
atp2564
a(L521126897L
L0L
(lp2565
(lp2566
tp2567
a(L3028464L
L0L
(lp2568
(lp2569
tp2570
a(L106L
L0L
(lp2571
(lp2572
tp2573
a(L1403802546L
L0L
(lp2574
(lp2575
tp2576
a(L352196314L
L3785322319L
(lp2577
(lp2578
Vesp_log_early_timestamp
p2579
atp2580
a(L3990577774L
L0L
(lp2581
(lp2582
tp2583
a(L3020187L
L0L
(lp2584
(lp2585
tp2586
a(L2318212397L
L0L
(lp2587
(lp2588
tp2589
a(L4208504540L
L0L
(lp2590
(lp2591
tp2592
a(L1859217843L
L0L
(lp2593
(lp2594
tp2595
a(L2546691246L
L0L
(lp2596
(lp2597
tp2598
a(L3797730446L
L0L
(lp2599
(lp2600
tp2601
a(L106L
L0L
(lp2602
(lp2603
tp2604
a(L93674324L
L0L
(lp2605
(lp2606
tp2607
a(L1583301205L
L0L
(lp2608
(lp2609
tp2610
a(L1938133383L
L0L
(lp2611
(lp2612
tp2613
a(L1630400759L
L0L
(lp2614
(lp2615
tp2616
a(L106L
L0L
(lp2617
(lp2618
tp2619
a(L928516522L
L0L
(lp2620
(lp2621
tp2622
a(L106L
L0L
(lp2623
(lp2624
tp2625
a(L568204863L
L0L
(lp2626
(lp2627
tp2628
atp2629
sI1074235548
(Vbootloader_flash_read_sfdp
p2630
(lp2631
(L711701400L
L0L
(lp2632
(lp2633
tp2634
a(L3334003234L
L3785322319L
(lp2635
(lp2636
V__assert_func
p2637
atp2638
a(L3704332455L
L3785322319L
(lp2639
(lp2640
Vbootloader_flash_execute_command_common
p2641
atp2642
atp2643
sI1074235804
(Vbootloader_flash_cs_timing_config
p2644
(lp2645
(L1940014330L
L0L
(lp2646
(lp2647
tp2648
atp2649
sI1074236828
(Vis_xmc_chip_strict
p2650
(lp2651
(L1286841609L
L0L
(lp2652
(lp2653
tp2654
a(L2234016759L
L0L
(lp2655
(lp2656
tp2657
a(L1069027148L
L0L
(lp2658
(lp2659
tp2660
a(L3021749L
L0L
(lp2661
(lp2662
tp2663
a(L1900148749L
L0L
(lp2664
(lp2665
tp2666
a(L1936875721L
L0L
(lp2667
(lp2668
tp2669
a(L3356166509L
L0L
(lp2670
(lp2671
tp2672
a(L1937769451L
L0L
(lp2673
(lp2674
tp2675
a(L2137658907L
L0L
(lp2676
(lp2677
tp2678
a(L4265949734L
L0L
(lp2679
(lp2680
tp2681
a(L3360570486L
L0L
(lp2682
(lp2683
tp2684
atp2685
sI1074247836
(Vesp_rom_spiflash_write
p2686
(lp2687
(L1176662179L
L0L
(lp2688
(lp2689
tp2690
a(L2258688483L
L0L
(lp2691
(lp2692
tp2693
a(L3360570486L
L0L
(lp2694
(lp2695
tp2696
a(L3368132847L
L0L
(lp2697
(lp2698
tp2699
a(L3106685981L
L0L
(lp2700
(lp2701
tp2702
a(L3488660639L
L3785322319L
(lp2703
(lp2704
Vesp_rom_spiflash_program_page_internal
p2705
atp2706
a(L3543402353L
L3785322319L
(lp2707
(lp2708
Vesp_rom_spiflash_program_page_internal
p2709
atp2710
a(L4222526342L
L0L
(lp2711
(lp2712
tp2713
a(L2004208511L
L0L
(lp2714
(lp2715
tp2716
a(L564470656L
L0L
(lp2717
(lp2718
tp2719
a(L2988842384L
L3785322319L
(lp2720
(lp2721
Vesp_rom_spiflash_program_page_internal
p2722
atp2723
a(L2302069176L
L0L
(lp2724
(lp2725
tp2726
atp2727
sI1074268052
(Vbootloader_init
p2728
(lp2729
(L270395025L
L3785322319L
(lp2730
(lp2731
Vbootloader_init_mem
p2732
atp2733
a(L1265242158L
L0L
(lp2734
(lp2735
tp2736
a(L1494621136L
L3785322319L
(lp2737
(lp2738
V__assert_func
p2739
atp2740
a(L4126189388L
L0L
(lp2741
(lp2742
tp2743
a(L4255864574L
L0L
(lp2744
(lp2745
tp2746
a(L3813782018L
L0L
(lp2747
(lp2748
tp2749
a(L1364096344L
L0L
(lp2750
(lp2751
tp2752
a(L3027019L
L0L
(lp2753
(lp2754
tp2755
a(L3563591778L
L0L
(lp2756
(lp2757
tp2758
a(L375612950L
L1832448559L
(lp2759
(lp2760
Vbootloader_clear_bss_section
p2761
aVbootloader_common_vddsdio_configure
p2762
aVbootloader_clock_get_rated_freq_mhz
p2763
atp2764
a(L3987130017L
L1157885199L
(lp2765
(lp2766
Vbootloader_clock_configure
p2767
aVbootloader_console_init
p2768
aVbootloader_print_banner
p2769
aVbootloader_flash_update_id
p2770
aVbootloader_flash_xmc_startup
p2771
atp2772
a(L1920341648L
L3785322319L
(lp2773
(lp2774
Vesp_log_early_timestamp
p2775
atp2776
a(L1926823800L
L3785322319L
(lp2777
(lp2778
Vesp_log_early_timestamp
p2779
atp2780
a(L3360570486L
L0L
(lp2781
(lp2782
tp2783
a(L2444883382L
L3785322319L
(lp2784
(lp2785
Vbootloader_read_bootloader_header
p2786
atp2787
a(L2444883382L
L3785322319L
(lp2788
(lp2789
Vbootloader_check_bootloader_validity
p2790
atp2791
a(L1449254892L
L2485746240L
(lp2792
(lp2793
Vbootloader_flash_gpio_config
p2794
aVbootloader_flash_dummy_config
p2795
aVbootloader_flash_cs_timing_config
p2796
aVbootloader_flash_unlock
p2797
atp2798
a(L51029731L
L0L
(lp2799
(lp2800
tp2801
a(L471947987L
L0L
(lp2802
(lp2803
tp2804
a(L1404489890L
L0L
(lp2805
(lp2806
tp2807
a(L3674001403L
L3785322319L
(lp2808
(lp2809
Vesp_log_early_timestamp
p2810
atp2811
a(L92454083L
L0L
(lp2812
(lp2813
tp2814
a(L96148167L
L0L
(lp2815
(lp2816
tp2817
a(L99842251L
L0L
(lp2818
(lp2819
tp2820
a(L139553654L
L0L
(lp2821
(lp2822
tp2823
a(L1404491141L
L0L
(lp2824
(lp2825
tp2826
a(L1852744844L
L3785322319L
(lp2827
(lp2828
Vesp_log_early_timestamp
p2829
atp2830
a(L93837694L
L0L
(lp2831
(lp2832
tp2833
a(L106L
L0L
(lp2834
(lp2835
tp2836
a(L258083190L
L0L
(lp2837
(lp2838
tp2839
a(L2752571198L
L0L
(lp2840
(lp2841
tp2842
a(L3902507129L
L0L
(lp2843
(lp2844
tp2845
a(L1701707570L
L3785322319L
(lp2846
(lp2847
Vesp_log_early_timestamp
p2848
atp2849
a(L93837694L
L0L
(lp2850
(lp2851
tp2852
a(L106L
L0L
(lp2853
(lp2854
tp2855
a(L3029526157L
L0L
(lp2856
(lp2857
tp2858
a(L2772639124L
L0L
(lp2859
(lp2860
tp2861
a(L2807278488L
L0L
(lp2862
(lp2863
tp2864
a(L3379747486L
L3785322319L
(lp2865
(lp2866
Vbootloader_enable_wp
p2867
atp2868
a(L1266399027L
L0L
(lp2869
(lp2870
tp2871
a(L1895147922L
L0L
(lp2872
(lp2873
tp2874
a(L2166009126L
L3785322319L
(lp2875
(lp2876
Vesp_log_early_timestamp
p2877
atp2878
a(L3639065141L
L0L
(lp2879
(lp2880
tp2881
a(L3616326365L
L0L
(lp2882
(lp2883
tp2884
a(L1129025932L
L0L
(lp2885
(lp2886
tp2887
a(L1569238687L
L3785322319L
(lp2888
(lp2889
Vesp_log_early_timestamp
p2890
atp2891
a(L4263191691L
L1880226080L
(lp2892
(lp2893
Vwdt_reset_info_dump
p2894
aVwdt_reset_info_dump
p2895
atp2896
a(L2752562921L
L0L
(lp2897
(lp2898
tp2899
a(L106L
L0L
(lp2900
(lp2901
tp2902
a(L718636321L
L0L
(lp2903
(lp2904
tp2905
a(L1767021965L
L0L
(lp2906
(lp2907
tp2908
a(L3028481L
L0L
(lp2909
(lp2910
tp2911
a(L3981500492L
L1880226080L
(lp2912
(lp2913
Vbootloader_config_wdt
p2914
aVbootloader_enable_random
p2915
atp2916
atp2917
sI1074238104
(Vbootloader_mmap_get_free_pages
p2918
(lp2919
(L1496516875L
L0L
(lp2920
(lp2921
tp2922
atp2923
sI1074248088
(Vesp_rom_spiflash_read
p2924
(lp2925
(L2864722771L
L0L
(lp2926
(lp2927
tp2928
a(L3013250324L
L0L
(lp2929
(lp2930
tp2931
a(L340311750L
L0L
(lp2932
(lp2933
tp2934
a(L2355528925L
L0L
(lp2935
(lp2936
tp2937
a(L106L
L0L
(lp2938
(lp2939
tp2940
a(L633884026L
L0L
(lp2941
(lp2942
tp2943
a(L106L
L0L
(lp2944
(lp2945
tp2946
a(L12774736L
L0L
(lp2947
(lp2948
tp2949
a(L3571878573L
L0L
(lp2950
(lp2951
tp2952
a(L2884772704L
L0L
(lp2953
(lp2954
tp2955
a(L336550648L
L0L
(lp2956
(lp2957
tp2958
a(L493932352L
L0L
(lp2959
(lp2960
tp2961
a(L106L
L0L
(lp2962
(lp2963
tp2964
a(L2549202597L
L3785322319L
(lp2965
(lp2966
Vesp_rom_spiflash_wait_idle
p2967
atp2968
a(L3021737L
L0L
(lp2969
(lp2970
tp2971
a(L106L
L0L
(lp2972
(lp2973
tp2974
a(L1868280504L
L0L
(lp2975
(lp2976
tp2977
a(L106L
L0L
(lp2978
(lp2979
tp2980
a(L4024100605L
L0L
(lp2981
(lp2982
tp2983
a(L1221163038L
L0L
(lp2984
(lp2985
tp2986
a(L4122060822L
L0L
(lp2987
(lp2988
tp2989
a(L1406217664L
L0L
(lp2990
(lp2991
tp2992
a(L2989032L
L0L
(lp2993
(lp2994
tp2995
a(L3819849625L
L0L
(lp2996
(lp2997
tp2998
a(L726363469L
L0L
(lp2999
(lp3000
tp3001
a(L932902197L
L0L
(lp3002
(lp3003
tp3004
a(L3901821451L
L0L
(lp3005
(lp3006
tp3007
a(L3187605261L
L0L
(lp3008
(lp3009
tp3010
a(L2921907736L
L0L
(lp3011
(lp3012
tp3013
a(L4023125337L
L0L
(lp3014
(lp3015
tp3016
a(L384659096L
L0L
(lp3017
(lp3018
tp3019
a(L708728610L
L0L
(lp3020
(lp3021
tp3022
a(L1400585318L
L0L
(lp3023
(lp3024
tp3025
a(L781550816L
L0L
(lp3026
(lp3027
tp3028
a(L2687789892L
L0L
(lp3029
(lp3030
tp3031
a(L1405253496L
L0L
(lp3032
(lp3033
tp3034
a(L1756022091L
L0L
(lp3035
(lp3036
tp3037
a(L97689L
L0L
(lp3038
(lp3039
tp3040
a(L1183020347L
L0L
(lp3041
(lp3042
tp3043
a(L4014024819L
L0L
(lp3044
(lp3045
tp3046
a(L3621567083L
L0L
(lp3047
(lp3048
tp3049
atp3050
sI1074269612
(Vbootloader_flash_update_id
p3051
(lp3052
(L3149875550L
L3785322319L
(lp3053
(lp3054
Vbootloader_read_flash_id
p3055
atp3056
atp3057
sI1074241696
(Vprocess_appended_hash_and_sig
p3058
(lp3059
(L1668084157L
L0L
(lp3060
(lp3061
tp3062
a(L2910371777L
L0L
(lp3063
(lp3064
tp3065
a(L1591589631L
L0L
(lp3066
(lp3067
tp3068
a(L2551256078L
L0L
(lp3069
(lp3070
tp3071
a(L2688085881L
L0L
(lp3072
(lp3073
tp3074
a(L3399920573L
L3785322319L
(lp3075
(lp3076
Vesp_log_early_timestamp
p3077
atp3078
a(L2268304300L
L3785322319L
(lp3079
(lp3080
Vbootloader_flash_read
p3081
atp3082
a(L3871473710L
L0L
(lp3083
(lp3084
tp3085
atp3086
sI1074238112
(Vbootloader_fill_random
p3087
(lp3088
(L1233865241L
L0L
(lp3089
(lp3090
tp3091
a(L2195342884L
L3785322319L
(lp3092
(lp3093
V__assert_func
p3094
atp3095
a(L1882547218L
L0L
(lp3096
(lp3097
tp3098
a(L2910371777L
L0L
(lp3099
(lp3100
tp3101
a(L95634693L
L0L
(lp3102
(lp3103
tp3104
a(L3630908706L
L0L
(lp3105
(lp3106
tp3107
a(L160162640L
L0L
(lp3108
(lp3109
tp3110
a(L97689L
L0L
(lp3111
(lp3112
tp3113
a(L3360570486L
L0L
(lp3114
(lp3115
tp3116
atp3117
sI1074238880
(Vload_image
p3118
(lp3119
(L162490783L
L1832448559L
(lp3120
(lp3121
Vesp_log_early_timestamp
p3122
aVbootloader_random_disable
p3123
aVbootloader_ana_clock_glitch_reset_config
p3124
atp3125
a(L2118498116L
L0L
(lp3126
(lp3127
tp3128
a(L106L
L0L
(lp3129
(lp3130
tp3131
a(L1789307221L
L3758435744L
(lp3132
(lp3133
Vmmu_hal_init
p3134
aVcache_ll_l1_get_bus
p3135
aVcache_ll_l1_enable_bus
p3136
aVcache_ll_l1_get_bus
p3137
aVcache_ll_l1_enable_bus
p3138
aVcache_ll_l1_get_bus
p3139
aVcache_ll_l1_enable_bus
p3140
aVcache_ll_l1_get_bus
p3141
aVcache_ll_l1_enable_bus
p3142
aVbootloader_console_deinit
p3143
atp3144
a(L746432701L
L0L
(lp3145
(lp3146
tp3147
a(L2902417580L
L0L
(lp3148
(lp3149
tp3150
a(L1366048922L
L3785322319L
(lp3151
(lp3152
Vesp_log_early_timestamp
p3153
atp3154
a(L3064806881L
L0L
(lp3155
(lp3156
tp3157
a(L839502558L
L0L
(lp3158
(lp3159
tp3160
a(L3020204L
L0L
(lp3161
(lp3162
tp3163
a(L3328497686L
L3785322319L
(lp3164
(lp3165
Vesp_log_early_timestamp
p3166
atp3167
a(L3644183142L
L0L
(lp3168
(lp3169
tp3170
a(L356605111L
L0L
(lp3171
(lp3172
tp3173
atp3174
sI1074245536
(Vrtc_clk_cpu_freq_mhz_to_config
p3175
(lp3176
(L908718885L
L3785322319L
(lp3177
(lp3178
Vrtc_clk_xtal_freq_get
p3179
atp3180
a(L60460069L
L0L
(lp3181
(lp3182
tp3183
a(L3802072124L
L0L
(lp3184
(lp3185
tp3186
a(L3159006042L
L0L
(lp3187
(lp3188
tp3189
a(L3360570486L
L0L
(lp3190
(lp3191
tp3192
a(L895147205L
L0L
(lp3193
(lp3194
tp3195
a(L3970036657L
L0L
(lp3196
(lp3197
tp3198
a(L2731353429L
L0L
(lp3199
(lp3200
tp3201
a(L1555485793L
L0L
(lp3202
(lp3203
tp3204
a(L2258897023L
L0L
(lp3205
(lp3206
tp3207
a(L1947499251L
L0L
(lp3208
(lp3209
tp3210
a(L1306331021L
L0L
(lp3211
(lp3212
tp3213
atp3214
sI1074267832
(Vwdt_reset_info_dump
p3215
(lp3216
(L4037466985L
L0L
(lp3217
(lp3218
tp3219
a(L826419141L
L0L
(lp3220
(lp3221
tp3222
a(L527117834L
L0L
(lp3223
(lp3224
tp3225
a(L1103285333L
L0L
(lp3226
(lp3227
tp3228
a(L897464656L
L3785322319L
(lp3229
(lp3230
Vesp_log_early_timestamp
p3231
atp3232
a(L2967992533L
L0L
(lp3233
(lp3234
tp3235
a(L144195250L
L3785322319L
(lp3236
(lp3237
Vesp_log_early_timestamp
p3238
atp3239
a(L2899013701L
L0L
(lp3240
(lp3241
tp3242
atp3243
sI1074270904
(Vmpu_hal_set_region_access
p3244
(lp3245
(L3538356822L
L0L
(lp3246
(lp3247
tp3248
a(L93674324L
L0L
(lp3249
(lp3250
tp3251
a(L2910371777L
L0L
(lp3252
(lp3253
tp3254
a(L3472092938L
L0L
(lp3255
(lp3256
tp3257
a(L3020187L
L0L
(lp3258
(lp3259
tp3260
a(L3360570486L
L0L
(lp3261
(lp3262
tp3263
a(L2258718273L
L0L
(lp3264
(lp3265
tp3266
a(L3446648619L
L0L
(lp3267
(lp3268
tp3269
a(L3739532189L
L0L
(lp3270
(lp3271
tp3272
a(L1300789895L
L0L
(lp3273
(lp3274
tp3275
atp3276
sI1074237364
(Vspi_to_esp_err
p3277
(lp3278
(L3520881295L
L0L
(lp3279
(lp3280
tp3281
a(L2402400019L
L0L
(lp3282
(lp3283
tp3284
a(L3952441574L
L0L
(lp3285
(lp3286
tp3287
a(L3126521138L
L0L
(lp3288
(lp3289
tp3290
atp3291
sI1074237620
(Vbootloader_munmap
p3292
(lp3293
(L1697403118L
L0L
(lp3294
(lp3295
tp3296
a(L3761142808L
L0L
(lp3297
(lp3298
tp3299
a(L3360570486L
L0L
(lp3300
(lp3301
tp3302
atp3303
sI1074245812
(Vrtc_clk_apb_freq_update
p3304
(lp3305
(L723331471L
L0L
(lp3306
(lp3307
tp3308
atp3309
sI1074269116
(Vbootloader_init_mem
p3310
(lp3311
(L1287383080L
L3785322319L
(lp3312
(lp3313
Vesp_cpu_configure_region_protection
p3314
atp3315
atp3316
sI1074269628
(Vbootloader_clear_bss_section
p3317
(lp3318
(L1133714402L
L0L
(lp3319
(lp3320
tp3321
atp3322
sI1074240432
(Vbootloader_sha256_data
p3323
(lp3324
(L4066096136L
L0L
(lp3325
(lp3326
tp3327
a(L110883720L
L0L
(lp3328
(lp3329
tp3330
a(L3884092851L
L3785322319L
(lp3331
(lp3332
V__assert_func
p3333
atp3334
a(L498498478L
L0L
(lp3335
(lp3336
tp3337
a(L1040021824L
L0L
(lp3338
(lp3339
tp3340
a(L2910371777L
L0L
(lp3341
(lp3342
tp3343
a(L3360570486L
L0L
(lp3344
(lp3345
tp3346
a(L1788837773L
L0L
(lp3347
(lp3348
tp3349
a(L541898147L
L0L
(lp3350
(lp3351
tp3352
a(L2604061911L
L0L
(lp3353
(lp3354
tp3355
a(L8683590L
L0L
(lp3356
(lp3357
tp3358
a(L3387118333L
L0L
(lp3359
(lp3360
tp3361
a(L2032890799L
L0L
(lp3362
(lp3363
tp3364
a(L3028464L
L0L
(lp3365
(lp3366
tp3367
a(L707876039L
L0L
(lp3368
(lp3369
tp3370
a(L498156265L
L0L
(lp3371
(lp3372
tp3373
atp3374
sI1074244804
(Vrtc_clk_cpu_freq_to_pll_mhz
p3375
(lp3376
(L1393544349L
L0L
(lp3377
(lp3378
tp3379
a(L405771233L
L0L
(lp3380
(lp3381
tp3382
a(L2930233244L
L0L
(lp3383
(lp3384
tp3385
a(L3298441904L
L0L
(lp3386
(lp3387
tp3388
a(L3680579786L
L0L
(lp3389
(lp3390
tp3391
a(L1298905564L
L0L
(lp3392
(lp3393
tp3394
a(L46269790L
L3785322319L
(lp3395
(lp3396
Vrtc_clk_wait_for_slow_cycle
p3397
atp3398
a(L1611366957L
L0L
(lp3399
(lp3400
tp3401
a(L1611366988L
L0L
(lp3402
(lp3403
tp3404
a(L94425498L
L3785322319L
(lp3405
(lp3406
Vabort
p3407
atp3408
atp3409
sI1074244036
(Vwdt_hal_config_stage
p3410
(lp3411
(L331558507L
L0L
(lp3412
(lp3413
tp3414
a(L4279082939L
L0L
(lp3415
(lp3416
tp3417
a(L93674324L
L0L
(lp3418
(lp3419
tp3420
a(L2902417580L
L0L
(lp3421
(lp3422
tp3423
a(L1485495983L
L0L
(lp3424
(lp3425
tp3426
a(L3020187L
L0L
(lp3427
(lp3428
tp3429
a(L94425498L
L3785322319L
(lp3430
(lp3431
Vabort
p3432
atp3433
a(L2718517169L
L0L
(lp3434
(lp3435
tp3436
a(L3360570486L
L0L
(lp3437
(lp3438
tp3439
a(L1996799187L
L0L
(lp3440
(lp3441
tp3442
a(L2771194801L
L0L
(lp3443
(lp3444
tp3445
a(L4278159418L
L0L
(lp3446
(lp3447
tp3448
a(L93674324L
L0L
(lp3449
(lp3450
tp3451
a(L3020204L
L0L
(lp3452
(lp3453
tp3454
a(L3391750594L
L0L
(lp3455
(lp3456
tp3457
a(L3020187L
L0L
(lp3458
(lp3459
tp3460
a(L106L
L0L
(lp3461
(lp3462
tp3463
a(L239610384L
L0L
(lp3464
(lp3465
tp3466
a(L831450820L
L0L
(lp3467
(lp3468
tp3469
a(L3340783449L
L0L
(lp3470
(lp3471
tp3472
atp3473
sI1074269124
(Vbootloader_random_enable
p3474
(lp3475
(L1578364810L
L0L
(lp3476
(lp3477
tp3478
atp3479
sI1074269892
(Vbootloader_enable_random
p3480
(lp3481
(L1278562623L
L1880226080L
(lp3482
(lp3483
Vesp_log_early_timestamp
p3484
aVbootloader_random_enable
p3485
atp3486
atp3487
sI1074244552
(Vmmu_hal_init
p3488
(lp3489
(L1381828061L
L0L
(lp3490
(lp3491
tp3492
a(L2010554219L
L0L
(lp3493
(lp3494
tp3495
a(L3268103L
L0L
(lp3496
(lp3497
tp3498
a(L3212334523L
L0L
(lp3499
(lp3500
tp3501
a(L2010554219L
L0L
(lp3502
(lp3503
tp3504
a(L3360570486L
L0L
(lp3505
(lp3506
tp3507
atp3508
sI1074236628
(Vesp_rom_uart_set_clock_baudrate
p3509
(lp3510
(L2889646162L
L0L
(lp3511
(lp3512
tp3513
a(L2316512566L
L0L
(lp3514
(lp3515
tp3516
a(L2805931268L
L0L
(lp3517
(lp3518
tp3519
a(L2901979283L
L0L
(lp3520
(lp3521
tp3522
atp3523
sI1074237396
(Vbootloader_mmap
p3524
(lp3525
(L3624397292L
L0L
(lp3526
(lp3527
tp3528
a(L3762918116L
L3785322319L
(lp3529
(lp3530
Vesp_log_early_timestamp
p3531
atp3532
a(L3871473710L
L0L
(lp3533
(lp3534
tp3535
a(L3729184599L
L0L
(lp3536
(lp3537
tp3538
a(L3066168078L
L3785322319L
(lp3539
(lp3540
Vesp_log_early_timestamp
p3541
atp3542
a(L1864365708L
L0L
(lp3543
(lp3544
tp3545
a(L2872111263L
L3785322319L
(lp3546
(lp3547
Vesp_log_early_timestamp
p3548
atp3549
a(L258722864L
L0L
(lp3550
(lp3551
tp3552
a(L3746164654L
L3785322319L
(lp3553
(lp3554
Vesp_log_early_timestamp
p3555
atp3556
a(L2535155408L
L0L
(lp3557
(lp3558
tp3559
atp3560
sI1074235600
(Vbootloader_read_flash_id
p3561
(lp3562
(L549578328L
L3785322319L
(lp3563
(lp3564
Vbootloader_execute_flash_command
p3565
atp3566
atp3567
sI1074245840
(Vrtc_clk_cpu_freq_to_xtal
p3568
(lp3569
(L2382625401L
L0L
(lp3570
(lp3571
tp3572
a(L94425498L
L3785322319L
(lp3573
(lp3574
Vabort
p3575
atp3576
a(L2975556993L
L3785322319L
(lp3577
(lp3578
Vrtc_clk_apb_freq_update
p3579
atp3580
a(L2258867232L
L0L
(lp3581
(lp3582
tp3583
a(L362206021L
L0L
(lp3584
(lp3585
tp3586
atp3587
sI1074247120
(Vrtc_clk_cal_ratio
p3588
(lp3589
(L1201925337L
L3785322319L
(lp3590
(lp3591
Vrtc_clk_cal_internal
p3592
atp3593
atp3594
sI1074270672
(Vrtc_vddsdio_get_config
p3595
(lp3596
(L1424863558L
L0L
(lp3597
(lp3598
tp3599
a(L3421108135L
L0L
(lp3600
(lp3601
tp3602
a(L3002774692L
L0L
(lp3603
(lp3604
tp3605
a(L253680180L
L0L
(lp3606
(lp3607
tp3608
a(L2961852087L
L0L
(lp3609
(lp3610
tp3611
a(L2194851786L
L0L
(lp3612
(lp3613
tp3614
a(L1306330959L
L0L
(lp3615
(lp3616
tp3617
a(L1997193082L
L0L
(lp3618
(lp3619
tp3620
atp3621
sI1074241244
(Vbootloader_util_regions_overlap
p3622
(lp3623
(L2762640130L
L0L
(lp3624
(lp3625
tp3626
a(L2198512677L
L0L
(lp3627
(lp3628
tp3629
a(L2217655633L
L3785322319L
(lp3630
(lp3631
V__assert_func
p3632
atp3633
a(L97642L
L0L
(lp3634
(lp3635
tp3636
a(L996187529L
L0L
(lp3637
(lp3638
tp3639
a(L366123053L
L0L
(lp3640
(lp3641
tp3642
a(L2258867228L
L0L
(lp3643
(lp3644
tp3645
a(L1253626734L
L0L
(lp3646
(lp3647
tp3648
a(L2258897019L
L0L
(lp3649
(lp3650
tp3651
a(L3109269495L
L0L
(lp3652
(lp3653
tp3654
atp3655
sI1074268884
(Vbootloader_clock_configure
p3656
(lp3657
(L2559598596L
L1880226080L
(lp3658
(lp3659
Vesp_rom_uart_tx_wait_idle
p3660
aVefuse_hal_chip_revision
p3661
atp3662
a(L4006799969L
L0L
(lp3663
(lp3664
tp3665
a(L883406775L
L0L
(lp3666
(lp3667
tp3668
a(L106L
L0L
(lp3669
(lp3670
tp3671
a(L4161070602L
L1832448559L
(lp3672
(lp3673
Vrtc_clk_slow_src_get
p3674
aVrtc_clk_fast_src_get
p3675
aVrtc_clk_init
p3676
atp3677
a(L2587354260L
L0L
(lp3678
(lp3679
tp3680
a(L1108834551L
L3785322319L
(lp3681
(lp3682
Vrtc_clk_apb_freq_get
p3683
atp3684
a(L106L
L0L
(lp3685
(lp3686
tp3687
a(L106L
L0L
(lp3688
(lp3689
tp3690
atp3691
sI1074269652
(Vbootloader_read_bootloader_header
p3692
(lp3693
(L1158061215L
L3785322319L
(lp3694
(lp3695
Vbootloader_flash_read
p3696
atp3697
a(L996487665L
L3785322319L
(lp3698
(lp3699
Vesp_log_early_timestamp
p3700
atp3701
a(L735741265L
L0L
(lp3702
(lp3703
tp3704
atp3705
sI1074245080
(Vrtc_clk_8m_enable
p3706
(lp3707
(L1843101924L
L0L
(lp3708
(lp3709
tp3710
a(L3147299128L
L0L
(lp3711
(lp3712
tp3713
a(L2151320156L
L0L
(lp3714
(lp3715
tp3716
a(L711175840L
L0L
(lp3717
(lp3718
tp3719
a(L3360570486L
L0L
(lp3720
(lp3721
tp3722
a(L1318267208L
L0L
(lp3723
(lp3724
tp3725
a(L512411289L
L0L
(lp3726
(lp3727
tp3728
atp3729
sI1074236900
(Vesp_log_early_timestamp
p3730
(lp3731
(L3733265409L
L0L
(lp3732
(lp3733
tp3734
atp3735
sI1074237924
(Vbootloader_flash_erase_sector
p3736
(lp3737
(L4129137686L
L1880226080L
(lp3738
(lp3739
Vesp_rom_spiflash_erase_sector
p3740
aVspi_to_esp_err
p3741
atp3742
atp3743
sI1074236384
(Vbootloader_flash_dummy_config
p3744
(lp3745
(L262000646L
L0L
(lp3746
(lp3747
tp3748
a(L2761717557L
L0L
(lp3749
(lp3750
tp3751
a(L1849044936L
L0L
(lp3752
(lp3753
tp3754
a(L708753936L
L0L
(lp3755
(lp3756
tp3757
a(L1010450057L
L0L
(lp3758
(lp3759
tp3760
a(L3020204L
L0L
(lp3761
(lp3762
tp3763
a(L1610443405L
L0L
(lp3764
(lp3765
tp3766
a(L4032120524L
L0L
(lp3767
(lp3768
tp3769
a(L2336993863L
L0L
(lp3770
(lp3771
tp3772
a(L1298875775L
L0L
(lp3773
(lp3774
tp3775
a(L3880393601L
L0L
(lp3776
(lp3777
tp3778
a(L3328946209L
L0L
(lp3779
(lp3780
tp3781
a(L1610443436L
L0L
(lp3782
(lp3783
tp3784
atp3785
sI1074269920
(Vbootloader_print_banner
p3786
(lp3787
(L137307312L
L1880226080L
(lp3788
(lp3789
Vesp_log_early_timestamp
p3790
aVesp_log_early_timestamp
p3791
atp3792
atp3793
sI1074237672
(Vbootloader_flash_read
p3794
(lp3795
(L728393898L
L0L
(lp3796
(lp3797
tp3798
a(L1489400095L
L3785322319L
(lp3799
(lp3800
Vesp_log_early_timestamp
p3801
atp3802
a(L1941789336L
L0L
(lp3803
(lp3804
tp3805
a(L3360570486L
L0L
(lp3806
(lp3807
tp3808
a(L2660352519L
L0L
(lp3809
(lp3810
tp3811
a(L1179571938L
L3785322319L
(lp3812
(lp3813
Vesp_log_early_timestamp
p3814
atp3815
a(L162336582L
L0L
(lp3816
(lp3817
tp3818
a(L814874711L
L3785322319L
(lp3819
(lp3820
Vesp_log_early_timestamp
p3821
atp3822
a(L3020204L
L0L
(lp3823
(lp3824
tp3825
a(L3893043951L
L0L
(lp3826
(lp3827
tp3828
a(L97422L
L0L
(lp3829
(lp3830
tp3831
a(L1190291857L
L0L
(lp3832
(lp3833
tp3834
a(L2961856275L
L0L
(lp3835
(lp3836
tp3837
a(L2859434406L
L3785322319L
(lp3838
(lp3839
V__assert_func
p3840
atp3841
a(L1539897528L
L0L
(lp3842
(lp3843
tp3844
a(L1915165223L
L0L
(lp3845
(lp3846
tp3847
a(L1336007148L
L1880226080L
(lp3848
(lp3849
Vesp_rom_spiflash_read
p3850
aVspi_to_esp_err
p3851
atp3852
atp3853
sI1074247400
(Vesp_rom_spiflash_wait_idle
p3854
(lp3855
(L3233077286L
L0L
(lp3856
(lp3857
tp3858
a(L2023766174L
L0L
(lp3859
(lp3860
tp3861
a(L2805935267L
L0L
(lp3862
(lp3863
tp3864
a(L3086959262L
L0L
(lp3865
(lp3866
tp3867
a(L4161019926L
L3785322319L
(lp3868
(lp3869
Vesp_rom_spiflash_read_status
p3870
atp3871
atp3872
sI1074238192
(Vbootloader_random_disable
p3873
(lp3874
(L2825582328L
L0L
(lp3875
(lp3876
tp3877
atp3878
sI1074246640
(Vrtc_clk_apb_freq_get
p3879
(lp3880
(L3268507198L
L0L
(lp3881
(lp3882
tp3883
atp3884
sI1074247152
(Vrtc_clk_wait_for_slow_cycle
p3885
(lp3886
(L57851970L
L0L
(lp3887
(lp3888
tp3889
a(L287687718L
L0L
(lp3890
(lp3891
tp3892
a(L3360570486L
L0L
(lp3893
(lp3894
tp3895
a(L2237399032L
L0L
(lp3896
(lp3897
tp3898
a(L2994547433L
L0L
(lp3899
(lp3900
tp3901
a(L2206597745L
L0L
(lp3902
(lp3903
tp3904
a(L788148307L
L3785322319L
(lp3905
(lp3906
Vesp_log_early_timestamp
p3907
atp3908
atp3909
sI1074241788
(Vshould_load
p3910
(lp3911
(L1379502686L
L0L
(lp3912
(lp3913
tp3914
a(L1182990556L
L0L
(lp3915
(lp3916
tp3917
a(L1188500889L
L0L
(lp3918
(lp3919
tp3920
a(L2306467100L
L0L
(lp3921
(lp3922
tp3923
a(L524505062L
L0L
(lp3924
(lp3925
tp3926
a(L2258897019L
L0L
(lp3927
(lp3928
tp3929
a(L3781799363L
L0L
(lp3930
(lp3931
tp3932
a(L3028464L
L0L
(lp3933
(lp3934
tp3935
a(L2219325068L
L0L
(lp3936
(lp3937
tp3938
a(L4277114872L
L0L
(lp3939
(lp3940
tp3941
a(L2824381917L
L0L
(lp3942
(lp3943
tp3944
a(L1243412227L
L0L
(lp3945
(lp3946
tp3947
a(L2011157548L
L0L
(lp3948
(lp3949
tp3950
a(L3126521138L
L0L
(lp3951
(lp3952
tp3953
a(L1305407438L
L0L
(lp3954
(lp3955
tp3956
a(L1305407469L
L0L
(lp3957
(lp3958
tp3959
atp3960
sI1074245628
(Vrtc_clk_cpu_freq_get_config
p3961
(lp3962
(L3852097526L
L0L
(lp3963
(lp3964
tp3965
a(L3020187L
L0L
(lp3966
(lp3967
tp3968
a(L3020187L
L0L
(lp3969
(lp3970
tp3971
a(L1339883774L
L3785322319L
(lp3972
(lp3973
Vrtc_clk_xtal_freq_get
p3974
atp3975
a(L3789795478L
L0L
(lp3976
(lp3977
tp3978
a(L1876772334L
L1880226080L
(lp3979
(lp3980
Vesp_log_early_timestamp
p3981
aVabort
p3982
atp3983
a(L3035450075L
L0L
(lp3984
(lp3985
tp3986
a(L3020187L
L0L
(lp3987
(lp3988
tp3989
a(L3028481L
L0L
(lp3990
(lp3991
tp3992
a(L38508693L
L0L
(lp3993
(lp3994
tp3995
a(L187152368L
L0L
(lp3996
(lp3997
tp3998
a(L1161083655L
L0L
(lp3999
(lp4000
tp4001
a(L1395485899L
L0L
(lp4002
(lp4003
tp4004
a(L2070600034L
L0L
(lp4005
(lp4006
tp4007
atp4008
sI1074244600
(Vefuse_hal_get_rated_freq_mhz
p4009
(lp4010
(L3936657855L
L0L
(lp4011
(lp4012
tp4013
a(L3671388797L
L0L
(lp4014
(lp4015
tp4016
a(L3360570486L
L0L
(lp4017
(lp4018
tp4019
atp4020
sI1074237944
(Vbootloader_flash_write
p4021
(lp4022
(L3770380603L
L0L
(lp4023
(lp4024
tp4025
a(L2615366646L
L3785322319L
(lp4026
(lp4027
Vesp_log_early_timestamp
p4028
atp4029
a(L3833270346L
L0L
(lp4030
(lp4031
tp4032
a(L1610445075L
L0L
(lp4033
(lp4034
tp4035
a(L735741265L
L0L
(lp4036
(lp4037
tp4038
a(L3291333414L
L0L
(lp4039
(lp4040
tp4041
a(L1873007406L
L3785322319L
(lp4042
(lp4043
Vesp_log_early_timestamp
p4044
atp4045
a(L3283691850L
L0L
(lp4046
(lp4047
tp4048
a(L2141475974L
L3785322319L
(lp4049
(lp4050
Vesp_log_early_timestamp
p4051
atp4052
a(L3212356251L
L3785322319L
(lp4053
(lp4054
Vbootloader_flash_unlock
p4055
atp4056
a(L1799218633L
L0L
(lp4057
(lp4058
tp4059
a(L94425498L
L3785322319L
(lp4060
(lp4061
Vesp_rom_spiflash_write_encrypted
p4062
atp4063
a(L2927190544L
L3785322319L
(lp4064
(lp4065
Vspi_to_esp_err
p4066
atp4067
a(L2927190544L
L3785322319L
(lp4068
(lp4069
Vesp_rom_spiflash_write
p4070
atp4071
atp4072
ssS'functionsdups'
p4073
g11
((lp4074
tp4075
Rp4076
sS'immediatedups'
p4077
g11
((lp4078
tp4079
Rp4080
sS'functiondups'
p4081
g11
((lp4082
tp4083
Rp4084
sS'fuzzy'
p4085
(dp4086
L438947497L
I1074245256
sL2170867428L
I1074270236
sL617583950L
I1074236988
sL430153639L
I1074235916
sL3121027072L
I1074270672
sL2082889262L
I1074241696
sL291131346L
I1074244804
sL835568324L
I1074246684
sL2919016435L
I1074235256
sL16208487L
I1074234744
sL2319042089L
I1074245388
sL3881399234L
I1074245840
sL2919036513L
I1074238880
sL151789201L
I1074270052
sL2680783959L
I1074235648
sL3512578114L
I1074238728
sL1419132215L
I1074238112
sL2469233929L
I1074240588
sL701833459L
I1074268884
sL3897252859L
I1074238520
sL1065525808L
I1074236828
sL2327783177L
I1074240880
sL1164839255L
I1074241916
sL2272466760L
I1074245628
sL2117292686L
I1074241300
sL2044047637L
I1074239388
sL1188065553L
I1074237672
sL94556391L
I1074245416
sL3210669721L
I1074245020
sL1332800441L
I1074237220
sL2884218272L
I1074267832
sL1168466927L
I1074268052
sL1345429244L
I1074241052
sL3190020590L
I1074242636
sL2828970830L
I1074239268
sL4160102055L
I1074240064
sL4202185385L
I1074247400
sL1768086576L
I1074236384
sL4171975289L
I1074247700
sL1565254297L
I1074248000
sL1205407754L
I1074240096
sL2191698036L
I1074269764
sL1513350244L
I1074239752
sL1635528231L
I1074244036
sL519424169L
I1074247152
sL1060788199L
I1074245536
sL406720601L
I1074238604
sL737694352L
I1074247508
sL503029138L
I1074247448
sL1616763831L
I1074248088
sL2262558768L
I1074247312
sL424867129L
I1074247836
sL3834155367L
I1074241244
sL2405032630L
I1074267724
sL3338518926L
I1074237396
sL2123938668L
I1074245956
sL3883282432L
I1074241788
sL4173399607L
I1074243152
sL1667054119L
I1074240432
sL206902443L
I1074237944
ssb.