ccopy_reg
_reconstructor
p0
(crizzo
RizzoSignature
p1
c__builtin__
object
p2
Ntp3
Rp4
(dp5
S'formal'
p6
(dp7
L1080505958L
I1074270056
sL2399612421L
I1074245480
sL1207862518L
I1074240588
sL250925565L
I1074238604
sL1741170115L
I1074237924
sL247137719L
I1074247508
sL3505757179L
I1074234704
sL2423107704L
I1074239268
sL138009647L
I1074234744
sL1237733855L
I1074238828
sL1348277828L
I1074245628
sL4213015302L
I1074243136
sL2940696155L
I1074245840
sL1696635966L
I1074245256
sL3230852531L
I1074238192
sL2680057242L
I1074268936
sL693028457L
I1074240412
sL3232221579L
I1074244640
sL142168405L
I1074245812
sL2702580795L
I1074237288
sL1458472899L
I1074236628
sL3646029665L
I1074244804
sL957766179L
I1074269680
sL2896295319L
I1074236828
sL944494460L
I1074245020
sL2285799430L
I1074244600
sL1988665523L
I1074269944
sL1674148343L
I1074245536
sL2030740789L
I1074246640
sL2485902447L
I1074236708
sL2460396001L
I1074248000
sL714831826L
I1074268104
sL2196319906L
I1074267884
sL3135310762L
I1074269972
sL3333913339L
I1074243440
sL2741930811L
I1074240064
sL1585823442L
I1074244452
sL1622896354L
I1074244480
sL3259090715L
I1074247152
sL2860345888L
I1074267836
sL617669774L
I1074247312
sL426938157L
I1074235256
sL2738962974L
I1074267736
sL3705747329L
I1074247400
sL951857372L
I1074270104
sL878917889L
I1074238112
sL1016500464L
I1074244960
sL2186980156L
I1074245080
sL295560948L
I1074269664
sL1079402047L
I1074269748
sL2951847322L
I1074244668
sL1568446217L
I1074236532
sL3476917835L
I1074236988
sL2635990884L
I1074241916
sL1259414891L
I1074245208
sL74014997L
I1074270020
sL1056742531L
I1074236384
sL768348750L
I1074238776
sL426984944L
I1074236900
sL676927194L
I1074269168
sL2945163535L
I1074240096
sL1635707898L
I1074267139
sL2277098556L
I1074236800
sL3307282855L
I1074238084
sL1853923591L
I1074245388
sL911764690L
I1074237620
sL1923374634L
I1074245956
sL1043339424L
I1074240336
sL3837755948L
I1074240432
sL60374282L
I1074245232
sL2543988023L
I1074240824
sL2472605942L
I1074245768
sL2956233896L
I1074242636
sL2437830867L
I1074269176
sL1189478010L
I1074241696
sL1687894276L
I1074244352
sL3514307815L
I1074248088
sL4038945309L
I1074235600
sL696241373L
I1074237672
sL2373957340L
I1074245416
sL518463041L
I1074235804
sL2626436395L
I1074236932
sL3978280629L
I1074241300
sL1275163307L
I1074244552
sL2901532506L
I1074239388
sL1709641802L
I1074239752
sL3050555005L
I1074247120
sL2997001746L
I1074237220
sL952722552L
I1074247448
sL2363736404L
I1074243152
sL4079247507L
I1074241052
sL2819127986L
I1074236952
sL3980264325L
I1074246684
sL149978958L
I1074236564
sL1877634603L
I1074270964
sL3518743416L
I1074238520
sL3310923163L
I1074238728
sL3379108269L
I1074244036
sL2305512365L
I1074267860
sL3459889393L
I1074244384
sL790507223L
I1074236732
sL1847597802L
I1074270884
sL1168915326L
I1074235548
sL873382621L
I1074235916
sL2508160428L
I1074270288
sL404293581L
I1074237364
sL2263182908L
I1074238104
sL3732155567L
I1074247700
sL700866072L
I1074237944
sL3630163135L
I1074236816
sL188664287L
I1074235224
sL782838600L
I1074240784
sL1730900682L
I1074270724
sL2587289812L
I1074235648
sL4138236490L
I1074240880
sL3075360168L
I1074241244
sL692536993L
I1074237260
sL829503895L
I1074247836
sL2218866089L
I1074238880
sL2114693345L
I1074241788
sL144857933L
I1074240800
sL68553959L
I1074269816
sL2370405299L
I1074268880
sL617266487L
I1074269704
sL906556151L
I1074237396
sL2398800133L
I1074245496
ssS'immediates'
p8
(dp9
sS'formaldups'
p10
c__builtin__
set
p11
((lp12
tp13
Rp14
sS'stringdups'
p15
g11
((lp16
tp17
Rp18
sS'fuzzydups'
p19
g11
((lp20
tp21
Rp22
sS'strings'
p23
(dp24
sS'functions'
p25
(dp26
I1074268936
(Vbootloader_clock_configure
p27
(lp28
(L2559598596L
L1880226080L
(lp29
(lp30
Vesp_rom_uart_tx_wait_idle
p31
aVefuse_hal_chip_revision
p32
atp33
a(L570724988L
L0L
(lp34
(lp35
tp36
a(L883406775L
L0L
(lp37
(lp38
tp39
a(L106L
L0L
(lp40
(lp41
tp42
a(L2989782009L
L1832448559L
(lp43
(lp44
Vrtc_clk_slow_src_get
p45
aVrtc_clk_fast_src_get
p46
aVrtc_clk_init
p47
atp48
a(L1533499661L
L0L
(lp49
(lp50
tp51
a(L1155934122L
L3785322319L
(lp52
(lp53
Vrtc_clk_apb_freq_get
p54
atp55
a(L106L
L0L
(lp56
(lp57
tp58
a(L106L
L0L
(lp59
(lp60
tp61
atp62
sI1074269704
(Vbootloader_read_bootloader_header
p63
(lp64
(L319705548L
L3785322319L
(lp65
(lp66
Vbootloader_flash_read
p67
atp68
a(L3309116114L
L3785322319L
(lp69
(lp70
Vesp_log_early_timestamp
p71
atp72
a(L735741265L
L0L
(lp73
(lp74
tp75
atp76
sI1074236932
(Vbootloader_common_ota_select_crc
p77
(lp78
(L3214440559L
L0L
(lp79
(lp80
tp81
atp82
sI1074244352
(Vwdt_hal_write_protect_disable
p83
(lp84
(L3345031483L
L0L
(lp85
(lp86
tp87
a(L4195472003L
L0L
(lp88
(lp89
tp90
a(L3360570486L
L0L
(lp91
(lp92
tp93
a(L1210571996L
L0L
(lp94
(lp95
tp96
atp97
sI1074235648
(Vbootloader_flash_xmc_startup
p98
(lp99
(L3680458509L
L3785322319L
(lp100
(lp101
Vis_xmc_chip_strict
p102
atp103
a(L2258688482L
L0L
(lp104
(lp105
tp106
a(L3360570486L
L0L
(lp107
(lp108
tp109
a(L2860324232L
L3785322319L
(lp110
(lp111
Vbootloader_flash_read_sfdp
p112
atp113
a(L2097895665L
L2567856111L
(lp114
(lp115
Vesp_log_early_timestamp
p116
aVbootloader_execute_flash_command
p117
aVbootloader_execute_flash_command
p118
aVbootloader_execute_flash_command
p119
aVbootloader_execute_flash_command
p120
aVbootloader_read_flash_id
p121
aVis_xmc_chip_strict
p122
atp123
a(L4062067944L
L3785322319L
(lp124
(lp125
Vesp_log_early_timestamp
p126
atp127
atp128
sI1074245376
(Vrtc_clk_slow_src_get
p129
(lp130
(L376617603L
L3785322319L
(lp131
(lp132
Vclk_ll_rtc_slow_get_src
p133
atp134
atp135
sI1074267136
(V_init
p136
(lp137
(L3493042598L
L0L
(lp138
(lp139
tp140
atp141
sI1074235916
(Vbootloader_flash_gpio_config
p142
(lp143
(L3448878117L
L3785322319L
(lp144
(lp145
Vbootloader_common_get_chip_ver_pkg
p146
atp147
a(L106L
L0L
(lp148
(lp149
tp150
a(L1998579353L
L0L
(lp151
(lp152
tp153
a(L106L
L0L
(lp154
(lp155
tp156
a(L1029428446L
L0L
(lp157
(lp158
tp159
a(L4242290324L
L0L
(lp160
(lp161
tp162
a(L106L
L0L
(lp163
(lp164
tp165
a(L4003626558L
L0L
(lp166
(lp167
tp168
a(L1553523094L
L0L
(lp169
(lp170
tp171
a(L3360570486L
L0L
(lp172
(lp173
tp174
atp175
sI1074245388
(Vrtc_clk_slow_freq_get_hz
p176
(lp177
(L1826267122L
L3785322319L
(lp178
(lp179
Vclk_ll_rtc_slow_get_src
p180
atp181
a(L4158856552L
L0L
(lp182
(lp183
tp184
a(L3631005815L
L0L
(lp185
(lp186
tp187
a(L702740041L
L0L
(lp188
(lp189
tp190
a(L3360570486L
L0L
(lp191
(lp192
tp193
atp194
sI1074267139
(V_text_start
p195
(lp196
(L2435913471L
L0L
(lp197
(lp198
tp199
a(L3934532099L
L0L
(lp200
(lp201
tp202
atp203
sI1074270724
(Vrtc_vddsdio_get_config
p204
(lp205
(L3973883211L
L0L
(lp206
(lp207
tp208
a(L3421108135L
L0L
(lp209
(lp210
tp211
a(L3002774692L
L0L
(lp212
(lp213
tp214
a(L2372210472L
L0L
(lp215
(lp216
tp217
a(L2100196452L
L0L
(lp218
(lp219
tp220
a(L2661319589L
L0L
(lp221
(lp222
tp223
a(L1306330959L
L0L
(lp224
(lp225
tp226
a(L976705493L
L0L
(lp227
(lp228
tp229
atp230
sI1074239752
(Vbootloader_utility_get_selected_boot_partition
p231
(lp232
(L2184143128L
L0L
(lp233
(lp234
tp235
a(L3562950348L
L0L
(lp236
(lp237
tp238
a(L2305665381L
L3785322319L
(lp239
(lp240
Vesp_log_early_timestamp
p241
atp242
a(L194246498L
L0L
(lp243
(lp244
tp245
a(L3360570486L
L0L
(lp246
(lp247
tp248
a(L1375577398L
L3785322319L
(lp249
(lp250
Vbootloader_mmap
p251
atp252
a(L4068127698L
L3785322319L
(lp253
(lp254
Vesp_log_early_timestamp
p255
atp256
a(L2463613311L
L1880226080L
(lp257
(lp258
Vbootloader_munmap
p259
aVbootloader_common_ota_select_invalid
p260
atp261
a(L1103573946L
L0L
(lp262
(lp263
tp264
a(L1876835593L
L3785322319L
(lp265
(lp266
Vbootloader_common_get_active_otadata
p267
atp268
a(L106L
L0L
(lp269
(lp270
tp271
a(L569346373L
L0L
(lp272
(lp273
tp274
a(L788494392L
L3785322319L
(lp275
(lp276
Vbootloader_common_ota_select_invalid
p277
atp278
a(L2801470901L
L0L
(lp279
(lp280
tp281
a(L1838181073L
L3785322319L
(lp282
(lp283
Vesp_log_early_timestamp
p284
atp285
a(L2440848641L
L3785322319L
(lp286
(lp287
Vesp_log_early_timestamp
p288
atp289
a(L505081345L
L0L
(lp290
(lp291
tp292
a(L919052234L
L3785322319L
(lp293
(lp294
Vbootloader_common_ota_select_crc
p295
atp296
a(L2287680455L
L0L
(lp297
(lp298
tp299
a(L3542558037L
L3785322319L
(lp300
(lp301
Vbootloader_common_ota_select_crc
p302
atp303
a(L1299866312L
L0L
(lp304
(lp305
tp306
a(L1279036405L
L0L
(lp307
(lp308
tp309
a(L1406565969L
L3785322319L
(lp310
(lp311
Vesp_log_early_timestamp
p312
atp313
a(L2867263840L
L0L
(lp314
(lp315
tp316
a(L4142614645L
L3785322319L
(lp317
(lp318
Vesp_log_early_timestamp
p319
atp320
atp321
sI1074238728
(Vtry_load_partition
p322
(lp323
(L1263750142L
L0L
(lp324
(lp325
tp326
a(L2258688482L
L0L
(lp327
(lp328
tp329
a(L3360570486L
L0L
(lp330
(lp331
tp332
a(L530241438L
L3785322319L
(lp333
(lp334
Vbootloader_load_image
p335
atp336
a(L3010049260L
L3785322319L
(lp337
(lp338
Vesp_log_early_timestamp
p339
atp340
atp341
sI1074241300
(Vverify_load_addresses
p342
(lp343
(L2764487219L
L0L
(lp344
(lp345
tp346
a(L106L
L0L
(lp347
(lp348
tp349
a(L97642L
L0L
(lp350
(lp351
tp352
a(L532903251L
L3785322319L
(lp353
(lp354
V__assert_func
p355
atp356
a(L170023642L
L0L
(lp357
(lp358
tp359
a(L106L
L0L
(lp360
(lp361
tp362
a(L993824775L
L0L
(lp363
(lp364
tp365
a(L106L
L0L
(lp366
(lp367
tp368
a(L3188534306L
L3785322319L
(lp369
(lp370
Vbootloader_util_regions_overlap
p371
atp372
a(L3284083279L
L3785322319L
(lp373
(lp374
Vbootloader_util_regions_overlap
p375
atp376
a(L3028481L
L0L
(lp377
(lp378
tp379
a(L1178890466L
L3785322319L
(lp380
(lp381
Vbootloader_util_regions_overlap
p382
atp383
a(L2117228786L
L0L
(lp384
(lp385
tp386
a(L273144354L
L0L
(lp387
(lp388
tp389
a(L1016222393L
L0L
(lp390
(lp391
tp392
a(L2661576437L
L0L
(lp393
(lp394
tp395
a(L2503437888L
L0L
(lp396
(lp397
tp398
a(L677569396L
L3785322319L
(lp399
(lp400
Vverify_load_addresses
p401
atp402
a(L1351513776L
L0L
(lp403
(lp404
tp405
a(L3061261803L
L0L
(lp406
(lp407
tp408
a(L2743341656L
L0L
(lp409
(lp410
tp411
a(L791897016L
L0L
(lp412
(lp413
tp414
a(L729859039L
L0L
(lp415
(lp416
tp417
a(L4026856790L
L3785322319L
(lp418
(lp419
Vbootloader_util_regions_overlap
p420
atp421
a(L3028481L
L0L
(lp422
(lp423
tp424
a(L1567678174L
L3785322319L
(lp425
(lp426
Vbootloader_util_regions_overlap
p427
atp428
a(L2782864159L
L0L
(lp429
(lp430
tp431
a(L476078031L
L0L
(lp432
(lp433
tp434
a(L1301487450L
L0L
(lp435
(lp436
tp437
a(L1527375920L
L0L
(lp438
(lp439
tp440
a(L307916850L
L0L
(lp441
(lp442
tp443
a(L697239146L
L0L
(lp444
(lp445
tp446
a(L106L
L0L
(lp447
(lp448
tp449
a(L955505162L
L0L
(lp450
(lp451
tp452
a(L307917400L
L0L
(lp453
(lp454
tp455
a(L490080443L
L0L
(lp456
(lp457
tp458
a(L106L
L0L
(lp459
(lp460
tp461
a(L131589412L
L3785322319L
(lp462
(lp463
Vesp_log_early_timestamp
p464
atp465
a(L955505038L
L0L
(lp466
(lp467
tp468
a(L1303560427L
L0L
(lp469
(lp470
tp471
atp472
sI1074247700
(Vesp_rom_spiflash_erase_sector
p473
(lp474
(L1384786480L
L0L
(lp475
(lp476
tp477
a(L2258688483L
L0L
(lp478
(lp479
tp480
a(L3360570486L
L0L
(lp481
(lp482
tp483
a(L3212356251L
L3785322319L
(lp484
(lp485
Vesp_rom_spiflash_enable_write
p486
atp487
a(L184152988L
L0L
(lp488
(lp489
tp490
a(L991301353L
L3785322319L
(lp491
(lp492
Vesp_rom_spiflash_wait_idle
p493
atp494
a(L3333707777L
L0L
(lp495
(lp496
tp497
a(L3582858798L
L3785322319L
(lp498
(lp499
Vesp_rom_spiflash_wait_idle
p500
atp501
atp502
sI1074240784
(Vbootloader_console_deinit
p503
(lp504
(L4005071210L
L0L
(lp505
(lp506
tp507
atp508
sI1074241052
(Vprocess_image_header
p509
(lp510
(L4286422149L
L3785322319L
(lp511
(lp512
Vbootloader_flash_read
p513
atp514
a(L3020204L
L0L
(lp515
(lp516
tp517
a(L4130667142L
L0L
(lp518
(lp519
tp520
a(L3131381282L
L0L
(lp521
(lp522
tp523
a(L1161397362L
L3785322319L
(lp524
(lp525
Vbootloader_sha256_start
p526
atp527
a(L1948257695L
L3785322319L
(lp528
(lp529
Vbootloader_sha256_data
p530
atp531
a(L1095449651L
L0L
(lp532
(lp533
tp534
a(L3020204L
L0L
(lp535
(lp536
tp537
a(L702739510L
L0L
(lp538
(lp539
tp540
a(L3360570486L
L0L
(lp541
(lp542
tp543
a(L1435924568L
L3785322319L
(lp544
(lp545
Vesp_log_early_timestamp
p546
atp547
a(L3718883008L
L3785322319L
(lp548
(lp549
Vbootloader_common_check_chip_validity
p550
atp551
a(L3677035427L
L0L
(lp552
(lp553
tp554
a(L3028481L
L0L
(lp555
(lp556
tp557
a(L4249612150L
L3785322319L
(lp558
(lp559
Vesp_log_early_timestamp
p560
atp561
a(L2250109166L
L0L
(lp562
(lp563
tp564
a(L1235012870L
L0L
(lp565
(lp566
tp567
a(L3063569071L
L0L
(lp568
(lp569
tp570
atp571
sI1074246684
(Vrtc_clk_cal_internal
p572
(lp573
(L3168308412L
L0L
(lp574
(lp575
tp576
a(L3863152980L
L3785322319L
(lp577
(lp578
V__assert_func
p579
atp580
a(L4026264710L
L0L
(lp581
(lp582
tp583
a(L54826884L
L0L
(lp584
(lp585
tp586
a(L234746575L
L0L
(lp587
(lp588
tp589
a(L861896856L
L3785322319L
(lp590
(lp591
Vrtc_clk_8m_enable
p592
atp593
a(L2689039534L
L3785322319L
(lp594
(lp595
Vrtc_clk_slow_src_get
p596
atp597
a(L1211065969L
L0L
(lp598
(lp599
tp600
a(L97689L
L0L
(lp601
(lp602
tp603
a(L1703854795L
L0L
(lp604
(lp605
tp606
a(L3028464L
L0L
(lp607
(lp608
tp609
a(L3028481L
L0L
(lp610
(lp611
tp612
a(L3450258732L
L0L
(lp613
(lp614
tp615
a(L944966L
L3785322319L
(lp616
(lp617
Vrtc_clk_xtal_freq_get
p618
atp619
a(L2780079961L
L0L
(lp620
(lp621
tp622
a(L3848725940L
L0L
(lp623
(lp624
tp625
a(L4169951882L
L3785322319L
(lp626
(lp627
Vesp_log_early_timestamp
p628
atp629
a(L3360570486L
L0L
(lp630
(lp631
tp632
a(L794862694L
L0L
(lp633
(lp634
tp635
a(L3245477987L
L0L
(lp636
(lp637
tp638
a(L2910371777L
L0L
(lp639
(lp640
tp641
a(L2902417580L
L0L
(lp642
(lp643
tp644
a(L4153720753L
L0L
(lp645
(lp646
tp647
a(L3631005548L
L0L
(lp648
(lp649
tp650
a(L2144990312L
L0L
(lp651
(lp652
tp653
a(L3352263364L
L0L
(lp654
(lp655
tp656
a(L3028464L
L0L
(lp657
(lp658
tp659
a(L1325746132L
L3785322319L
(lp660
(lp661
Vrtc_clk_8m_enable
p662
atp663
atp664
sI1074269972
(Vbootloader_print_banner
p665
(lp666
(L2922813728L
L1880226080L
(lp667
(lp668
Vesp_log_early_timestamp
p669
aVesp_log_early_timestamp
p670
atp671
atp672
sI1074236952
(Vbootloader_common_ota_select_valid
p673
(lp674
(L1563399710L
L3785322319L
(lp675
(lp676
Vbootloader_common_ota_select_invalid
p677
atp678
a(L3814720849L
L3785322319L
(lp679
(lp680
Vbootloader_common_ota_select_crc
p681
atp682
a(L3360570486L
L0L
(lp683
(lp684
tp685
atp686
sI1074247448
(Vesp_rom_spiflash_enable_write
p687
(lp688
(L2890359061L
L3785322319L
(lp689
(lp690
Vesp_rom_spiflash_wait_idle
p691
atp692
a(L3137194272L
L0L
(lp693
(lp694
tp695
a(L2258718275L
L0L
(lp696
(lp697
tp698
a(L99543895L
L0L
(lp699
(lp700
tp701
a(L2993202392L
L0L
(lp702
(lp703
tp704
a(L1804543818L
L3785322319L
(lp705
(lp706
Vesp_rom_spiflash_read_status
p707
atp708
atp709
sI1074237220
(Vbootloader_common_get_active_otadata
p710
(lp711
(L3317503532L
L0L
(lp712
(lp713
tp714
a(L2503049265L
L1832448559L
(lp715
(lp716
Vbootloader_common_ota_select_valid
p717
aVbootloader_common_ota_select_valid
p718
aVbootloader_common_select_otadata
p719
atp720
a(L735741265L
L0L
(lp721
(lp722
tp723
atp724
sI1074236708
(Vefuse_hal_chip_revision
p725
(lp726
(L2719302832L
L1880226080L
(lp727
(lp728
Vefuse_hal_get_major_chip_version
p729
aVefuse_hal_get_minor_chip_version
p730
atp731
atp732
sI1074239268
(Vset_actual_ota_seq
p733
(lp734
(L4094723830L
L0L
(lp735
(lp736
tp737
a(L2573507321L
L0L
(lp738
(lp739
tp740
a(L3461827603L
L1832448559L
(lp741
(lp742
Vbootloader_common_ota_select_crc
p743
aVesp_flash_encryption_enabled
p744
aVbootloader_flash_erase_sector
p745
atp746
a(L3292941333L
L3785322319L
(lp747
(lp748
Vbootloader_flash_write
p749
atp750
a(L1764870441L
L3785322319L
(lp751
(lp752
Vesp_log_early_timestamp
p753
atp754
a(L2939835162L
L3785322319L
(lp755
(lp756
Vesp_log_early_timestamp
p757
atp758
a(L3360570486L
L0L
(lp759
(lp760
tp761
atp762
sI1074244640
(Vclk_ll_rtc_slow_get_src
p763
(lp764
(L416280487L
L0L
(lp765
(lp766
tp767
a(L3020187L
L0L
(lp768
(lp769
tp770
a(L2902417580L
L0L
(lp771
(lp772
tp773
a(L2258688485L
L0L
(lp774
(lp775
tp776
a(L3360570486L
L0L
(lp777
(lp778
tp779
atp780
sI1074244384
(Vwdt_hal_set_flashboot_en
p781
(lp782
(L2375320464L
L0L
(lp783
(lp784
tp785
a(L3915867581L
L0L
(lp786
(lp787
tp788
a(L3360570486L
L0L
(lp789
(lp790
tp791
a(L1643092119L
L0L
(lp792
(lp793
tp794
atp795
sI1074240800
(V__assert_func
p796
(lp797
(L1697582622L
L0L
(lp798
(lp799
tp800
a(L106L
L0L
(lp801
(lp802
tp803
atp804
sI1074238508
(Vbootloader_clock_get_rated_freq_mhz
p805
(lp806
(L376617603L
L3785322319L
(lp807
(lp808
Vefuse_hal_get_rated_freq_mhz
p809
atp810
atp811
sI1074245416
(Vrtc_clk_fast_src_set
p812
(lp813
(L1233611555L
L0L
(lp814
(lp815
tp816
a(L3020187L
L0L
(lp817
(lp818
tp819
a(L3827921190L
L3785322319L
(lp820
(lp821
Vabort
p822
atp823
a(L2904656757L
L0L
(lp824
(lp825
tp826
a(L206212292L
L0L
(lp827
(lp828
tp829
a(L300459962L
L0L
(lp830
(lp831
tp832
atp833
sI1074236732
(Vefuse_hal_get_major_chip_version
p834
(lp835
(L1242126302L
L0L
(lp836
(lp837
tp838
a(L894792960L
L0L
(lp839
(lp840
tp841
a(L3783348505L
L0L
(lp842
(lp843
tp844
a(L3360570486L
L0L
(lp845
(lp846
tp847
atp848
sI1074236988
(Vbootloader_common_check_chip_validity
p849
(lp850
(L392423210L
L0L
(lp851
(lp852
tp853
a(L62642320L
L3785322319L
(lp854
(lp855
Vesp_log_early_timestamp
p856
atp857
a(L522103407L
L3785322319L
(lp858
(lp859
Vefuse_hal_chip_revision
p860
atp861
a(L106L
L0L
(lp862
(lp863
tp864
a(L1989150608L
L0L
(lp865
(lp866
tp867
a(L720806035L
L3785322319L
(lp868
(lp869
Vesp_log_early_timestamp
p870
atp871
a(L3028464L
L0L
(lp872
(lp873
tp874
a(L1397322129L
L0L
(lp875
(lp876
tp877
a(L3021749L
L0L
(lp878
(lp879
tp880
a(L3790510041L
L3785322319L
(lp881
(lp882
Vesp_log_early_timestamp
p883
atp884
a(L1299867982L
L0L
(lp885
(lp886
tp887
a(L3360570486L
L0L
(lp888
(lp889
tp890
atp891
sI1074244668
(Vrtc_clk_32k_enable_common
p892
(lp893
(L1442393279L
L0L
(lp894
(lp895
tp896
a(L97689L
L0L
(lp897
(lp898
tp899
a(L2218417250L
L0L
(lp900
(lp901
tp902
a(L533879761L
L0L
(lp903
(lp904
tp905
a(L51458058L
L0L
(lp906
(lp907
tp908
atp909
sI1074269748
(Vbootloader_check_bootloader_validity
p910
(lp911
(L3377513666L
L1832448559L
(lp912
(lp913
Vefuse_hal_chip_revision
p914
aVesp_log_early_timestamp
p915
aVbootloader_common_check_chip_validity
p916
atp917
atp918
sI1074238520
(Vlog_invalid_app_partition
p919
(lp920
(L3121159614L
L0L
(lp921
(lp922
tp923
a(L3028464L
L0L
(lp924
(lp925
tp926
a(L1381405837L
L3785322319L
(lp927
(lp928
Vesp_log_early_timestamp
p929
atp930
a(L3833270346L
L0L
(lp931
(lp932
tp933
a(L3360570486L
L0L
(lp934
(lp935
tp936
a(L3430459325L
L3785322319L
(lp937
(lp938
Vesp_log_early_timestamp
p939
atp940
a(L3309219235L
L3785322319L
(lp941
(lp942
Vesp_log_early_timestamp
p943
atp944
atp945
sI1074238776
(Vcache_ll_l1_enable_bus
p946
(lp947
(L1908488057L
L0L
(lp948
(lp949
tp950
atp951
sI1074240824
(Vabort
p952
(lp953
(L56968919L
L0L
(lp954
(lp955
tp956
a(L409471316L
L0L
(lp957
(lp958
tp959
a(L106L
L0L
(lp960
(lp961
tp962
atp963
sI1074245956
(Vrtc_clk_cpu_freq_set_config
p964
(lp965
(L97989050L
L3785322319L
(lp966
(lp967
Vrtc_clk_xtal_freq_get
p968
atp969
a(L3020187L
L0L
(lp970
(lp971
tp972
a(L3028464L
L0L
(lp973
(lp974
tp975
a(L264223053L
L1880226080L
(lp976
(lp977
Vrtc_clk_cpu_freq_to_xtal
p978
aVrtc_clk_wait_for_slow_cycle
p979
atp980
a(L94425498L
L3785322319L
(lp981
(lp982
Vrtc_clk_bbpll_disable
p983
atp984
a(L3978916712L
L0L
(lp985
(lp986
tp987
a(L2977209154L
L0L
(lp988
(lp989
tp990
a(L2736411858L
L3785322319L
(lp991
(lp992
Vrtc_clk_cpu_freq_to_xtal
p993
atp994
a(L3360570486L
L0L
(lp995
(lp996
tp997
a(L3020187L
L0L
(lp998
(lp999
tp1000
a(L106L
L0L
(lp1001
(lp1002
tp1003
a(L4139299579L
L1880226080L
(lp1004
(lp1005
Vrtc_clk_wait_for_slow_cycle
p1006
aVrtc_clk_xtal_freq_get
p1007
atp1008
a(L106L
L0L
(lp1009
(lp1010
tp1011
a(L1388483569L
L0L
(lp1012
(lp1013
tp1014
a(L106L
L0L
(lp1015
(lp1016
tp1017
a(L83268611L
L0L
(lp1018
(lp1019
tp1020
a(L106L
L0L
(lp1021
(lp1022
tp1023
a(L82344823L
L0L
(lp1024
(lp1025
tp1026
a(L106L
L0L
(lp1027
(lp1028
tp1029
a(L1274797871L
L0L
(lp1030
(lp1031
tp1032
a(L2960675980L
L0L
(lp1033
(lp1034
tp1035
a(L2332426982L
L1880226080L
(lp1036
(lp1037
Vclk_ll_rtc_slow_get_src
p1038
aVrtc_clk_cpu_freq_to_pll_mhz
p1039
atp1040
a(L97866512L
L0L
(lp1041
(lp1042
tp1043
a(L83268344L
L0L
(lp1044
(lp1045
tp1046
a(L82345090L
L0L
(lp1047
(lp1048
tp1049
a(L1299628291L
L0L
(lp1050
(lp1051
tp1052
a(L2382164494L
L0L
(lp1053
(lp1054
tp1055
a(L2258807646L
L0L
(lp1056
(lp1057
tp1058
a(L878473564L
L0L
(lp1059
(lp1060
tp1061
a(L2389426015L
L0L
(lp1062
(lp1063
tp1064
a(L1596574736L
L0L
(lp1065
(lp1066
tp1067
a(L2086626670L
L0L
(lp1068
(lp1069
tp1070
a(L1302638456L
L0L
(lp1071
(lp1072
tp1073
a(L810137203L
L0L
(lp1074
(lp1075
tp1076
a(L87353900L
L0L
(lp1077
(lp1078
tp1079
a(L3020187L
L0L
(lp1080
(lp1081
tp1082
a(L106L
L0L
(lp1083
(lp1084
tp1085
a(L1226014053L
L0L
(lp1086
(lp1087
tp1088
atp1089
sI1074240064
(Vbootloader_reset
p1090
(lp1091
(L4123387220L
L3785322319L
(lp1092
(lp1093
Vbootloader_console_deinit
p1094
atp1095
a(L106L
L0L
(lp1096
(lp1097
tp1098
atp1099
sI1074243136
(Vbootloader_load_image
p1100
(lp1101
(L1155870502L
L3785322319L
(lp1102
(lp1103
Vimage_load
p1104
atp1105
atp1106
sI1074248000
(Vesp_rom_spiflash_write_encrypted
p1107
(lp1108
(L1944247967L
L0L
(lp1109
(lp1110
tp1111
a(L3637183229L
L0L
(lp1112
(lp1113
tp1114
a(L97689L
L0L
(lp1115
(lp1116
tp1117
a(L3061232074L
L0L
(lp1118
(lp1119
tp1120
a(L1678068038L
L0L
(lp1121
(lp1122
tp1123
a(L1309309703L
L3785322319L
(lp1124
(lp1125
Vesp_rom_spiflash_write
p1126
atp1127
a(L3850908019L
L0L
(lp1128
(lp1129
tp1130
a(L735741265L
L0L
(lp1131
(lp1132
tp1133
atp1134
sI1074237260
(Vbootloader_common_ota_select_invalid
p1135
(lp1136
(L4027567199L
L0L
(lp1137
(lp1138
tp1139
a(L3397985842L
L0L
(lp1140
(lp1141
tp1142
a(L2258867228L
L0L
(lp1143
(lp1144
tp1145
a(L3785235668L
L0L
(lp1146
(lp1147
tp1148
atp1149
sI1074240588
(Vbootloader_sha256_finish
p1150
(lp1151
(L4066096136L
L0L
(lp1152
(lp1153
tp1154
a(L3125987449L
L0L
(lp1155
(lp1156
tp1157
a(L3884092851L
L3785322319L
(lp1158
(lp1159
V__assert_func
p1160
atp1161
a(L3020204L
L0L
(lp1162
(lp1163
tp1164
a(L1816853500L
L0L
(lp1165
(lp1166
tp1167
a(L2534656226L
L0L
(lp1168
(lp1169
tp1170
a(L551614134L
L3785322319L
(lp1171
(lp1172
Vbootloader_sha256_data
p1173
atp1174
a(L3281735505L
L0L
(lp1175
(lp1176
tp1177
a(L841302101L
L3785322319L
(lp1178
(lp1179
Vbootloader_sha256_data
p1180
atp1181
a(L3768329152L
L0L
(lp1182
(lp1183
tp1184
a(L657425439L
L0L
(lp1185
(lp1186
tp1187
a(L3930848034L
L0L
(lp1188
(lp1189
tp1190
a(L657425439L
L0L
(lp1191
(lp1192
tp1193
a(L4116699460L
L0L
(lp1194
(lp1195
tp1196
a(L3511307343L
L0L
(lp1197
(lp1198
tp1199
a(L3347778L
L0L
(lp1200
(lp1201
tp1202
a(L3360570486L
L0L
(lp1203
(lp1204
tp1205
atp1206
sI1074242636
(Vimage_load
p1207
(lp1208
(L3559420668L
L0L
(lp1209
(lp1210
tp1211
a(L1899869541L
L0L
(lp1212
(lp1213
tp1214
a(L979631281L
L0L
(lp1215
(lp1216
tp1217
a(L1525480527L
L0L
(lp1218
(lp1219
tp1220
a(L1043148059L
L0L
(lp1221
(lp1222
tp1223
a(L2796536461L
L0L
(lp1224
(lp1225
tp1226
a(L2974022397L
L3785322319L
(lp1227
(lp1228
Vesp_log_early_timestamp
p1229
atp1230
a(L2068384292L
L0L
(lp1231
(lp1232
tp1233
a(L1968553470L
L3785322319L
(lp1234
(lp1235
Vbootloader_sha256_finish
p1236
atp1237
a(L4209044681L
L0L
(lp1238
(lp1239
tp1240
a(L3225218531L
L0L
(lp1241
(lp1242
tp1243
a(L3802071166L
L0L
(lp1244
(lp1245
tp1246
a(L1301867039L
L3785322319L
(lp1247
(lp1248
Vprocess_image_header
p1249
atp1250
a(L560228796L
L0L
(lp1251
(lp1252
tp1253
a(L4185758499L
L0L
(lp1254
(lp1255
tp1256
a(L1530940255L
L3785322319L
(lp1257
(lp1258
Vprocess_segments
p1259
atp1260
a(L1233227930L
L0L
(lp1261
(lp1262
tp1263
a(L2539156582L
L0L
(lp1264
(lp1265
tp1266
a(L2570888687L
L3785322319L
(lp1267
(lp1268
Vprocess_checksum
p1269
atp1270
a(L425503098L
L3785322319L
(lp1271
(lp1272
Vprocess_appended_hash_and_sig
p1273
atp1274
a(L780930979L
L0L
(lp1275
(lp1276
tp1277
a(L2334355956L
L0L
(lp1278
(lp1279
tp1280
a(L3470740557L
L0L
(lp1281
(lp1282
tp1283
a(L2727908192L
L1880226080L
(lp1284
(lp1285
Vbootloader_sha256_finish
p1286
aVbootloader_debug_buffer
p1287
atp1288
a(L764308364L
L1880226080L
(lp1289
(lp1290
Vesp_log_early_timestamp
p1291
aVbootloader_debug_buffer
p1292
atp1293
a(L1087646176L
L0L
(lp1294
(lp1295
tp1296
a(L2068384292L
L0L
(lp1297
(lp1298
tp1299
a(L3021148818L
L3785322319L
(lp1300
(lp1301
Vbootloader_sha256_finish
p1302
atp1303
a(L3028481L
L0L
(lp1304
(lp1305
tp1306
a(L139701033L
L0L
(lp1307
(lp1308
tp1309
a(L2510919588L
L0L
(lp1310
(lp1311
tp1312
a(L772115669L
L0L
(lp1313
(lp1314
tp1315
a(L2787789065L
L0L
(lp1316
(lp1317
tp1318
a(L85798113L
L0L
(lp1319
(lp1320
tp1321
a(L1351513776L
L0L
(lp1322
(lp1323
tp1324
a(L159346313L
L3785322319L
(lp1325
(lp1326
Vshould_load
p1327
atp1328
a(L4218574503L
L0L
(lp1329
(lp1330
tp1331
a(L3338774213L
L0L
(lp1332
(lp1333
tp1334
a(L3464541874L
L0L
(lp1335
(lp1336
tp1337
a(L3349572949L
L0L
(lp1338
(lp1339
tp1340
a(L2192292519L
L0L
(lp1341
(lp1342
tp1343
a(L106L
L0L
(lp1344
(lp1345
tp1346
a(L26615924L
L0L
(lp1347
(lp1348
tp1349
a(L1299866312L
L0L
(lp1350
(lp1351
tp1352
a(L490060329L
L0L
(lp1353
(lp1354
tp1355
atp1356
sI1074270020
(Vbootloader_console_init
p1357
(lp1358
(L841433367L
L1832448559L
(lp1359
(lp1360
Vesp_rom_uart_tx_wait_idle
p1361
aVrtc_clk_apb_freq_get
p1362
aVesp_rom_uart_set_clock_baudrate
p1363
atp1364
atp1365
sI1074267736
(Vcall_start_cpu0
p1366
(lp1367
(L1137852827L
L0L
(lp1368
(lp1369
tp1370
a(L94425498L
L3785322319L
(lp1371
(lp1372
Vbootloader_before_init
p1373
atp1374
a(L3279886022L
L3785322319L
(lp1375
(lp1376
Vbootloader_init
p1377
atp1378
a(L94425498L
L3785322319L
(lp1379
(lp1380
Vbootloader_reset
p1381
atp1382
a(L1122046408L
L0L
(lp1383
(lp1384
tp1385
a(L94425498L
L3785322319L
(lp1386
(lp1387
Vbootloader_after_init
p1388
atp1389
a(L3267676744L
L3785322319L
(lp1390
(lp1391
Vbootloader_utility_load_partition_table
p1392
atp1393
a(L2761094216L
L3785322319L
(lp1394
(lp1395
Vesp_log_early_timestamp
p1396
atp1397
a(L405422123L
L3785322319L
(lp1398
(lp1399
Vbootloader_utility_get_selected_boot_partition
p1400
atp1401
a(L2055385849L
L3785322319L
(lp1402
(lp1403
Vbootloader_utility_load_boot_image
p1404
atp1405
atp1406
sI1074247508
(Vesp_rom_spiflash_program_page_internal
p1407
(lp1408
(L2569069283L
L0L
(lp1409
(lp1410
tp1411
a(L2258688483L
L0L
(lp1412
(lp1413
tp1414
a(L3360570486L
L0L
(lp1415
(lp1416
tp1417
a(L792610006L
L0L
(lp1418
(lp1419
tp1420
a(L4235661475L
L3785322319L
(lp1421
(lp1422
Vesp_rom_spiflash_wait_idle
p1423
atp1424
a(L1299866312L
L0L
(lp1425
(lp1426
tp1427
a(L3212356251L
L3785322319L
(lp1428
(lp1429
Vesp_rom_spiflash_enable_write
p1430
atp1431
a(L3383370082L
L0L
(lp1432
(lp1433
tp1434
a(L2209840608L
L0L
(lp1435
(lp1436
tp1437
a(L2953702749L
L0L
(lp1438
(lp1439
tp1440
a(L2989032L
L0L
(lp1441
(lp1442
tp1443
a(L1965622133L
L0L
(lp1444
(lp1445
tp1446
a(L1351235542L
L0L
(lp1447
(lp1448
tp1449
a(L1958113242L
L0L
(lp1450
(lp1451
tp1452
a(L106L
L0L
(lp1453
(lp1454
tp1455
a(L3112950080L
L0L
(lp1456
(lp1457
tp1458
a(L1868606439L
L0L
(lp1459
(lp1460
tp1461
a(L1008983195L
L0L
(lp1462
(lp1463
tp1464
a(L1933954923L
L0L
(lp1465
(lp1466
tp1467
a(L1147866918L
L0L
(lp1468
(lp1469
tp1470
a(L3871602522L
L0L
(lp1471
(lp1472
tp1473
atp1474
sI1074243152
(Vesp_partition_table_verify
p1475
(lp1476
(L4221019429L
L0L
(lp1477
(lp1478
tp1479
a(L3688263406L
L0L
(lp1480
(lp1481
tp1482
a(L4090921686L
L0L
(lp1483
(lp1484
tp1485
a(L2910371777L
L0L
(lp1486
(lp1487
tp1488
a(L2810785767L
L0L
(lp1489
(lp1490
tp1491
a(L3360570486L
L0L
(lp1492
(lp1493
tp1494
a(L3190337587L
L0L
(lp1495
(lp1496
tp1497
a(L2069928857L
L0L
(lp1498
(lp1499
tp1500
a(L3020204L
L0L
(lp1501
(lp1502
tp1503
a(L4240560509L
L3785322319L
(lp1504
(lp1505
Vesp_log_early_timestamp
p1506
atp1507
a(L2526422477L
L3785322319L
(lp1508
(lp1509
Vesp_log_early_timestamp
p1510
atp1511
a(L510839312L
L0L
(lp1512
(lp1513
tp1514
a(L2902417580L
L0L
(lp1515
(lp1516
tp1517
a(L3020204L
L0L
(lp1518
(lp1519
tp1520
a(L2215002226L
L3785322319L
(lp1521
(lp1522
Vesp_log_early_timestamp
p1523
atp1524
a(L2867263840L
L0L
(lp1525
(lp1526
tp1527
a(L3655331517L
L0L
(lp1528
(lp1529
tp1530
a(L2902417580L
L0L
(lp1531
(lp1532
tp1533
a(L4240559796L
L3785322319L
(lp1534
(lp1535
Vesp_log_early_timestamp
p1536
atp1537
a(L1305407469L
L0L
(lp1538
(lp1539
tp1540
a(L1167861556L
L0L
(lp1541
(lp1542
tp1543
a(L3914073261L
L0L
(lp1544
(lp1545
tp1546
a(L2910371777L
L0L
(lp1547
(lp1548
tp1549
a(L1235012932L
L0L
(lp1550
(lp1551
tp1552
a(L4142303994L
L3785322319L
(lp1553
(lp1554
Vesp_log_early_timestamp
p1555
atp1556
atp1557
sI1074240336
(Vindex_to_partition
p1558
(lp1559
(L4066096119L
L0L
(lp1560
(lp1561
tp1562
a(L1739185955L
L0L
(lp1563
(lp1564
tp1565
a(L2171552758L
L0L
(lp1566
(lp1567
tp1568
a(L2808906342L
L0L
(lp1569
(lp1570
tp1571
a(L2101481936L
L0L
(lp1572
(lp1573
tp1574
a(L3698927993L
L0L
(lp1575
(lp1576
tp1577
a(L2808826781L
L0L
(lp1578
(lp1579
tp1580
a(L3003398163L
L0L
(lp1581
(lp1582
tp1583
a(L2880709161L
L0L
(lp1584
(lp1585
tp1586
a(L1087646172L
L0L
(lp1587
(lp1588
tp1589
atp1590
sI1074234704
(Vesp_flash_encryption_enabled
p1591
(lp1592
(L2932383536L
L0L
(lp1593
(lp1594
tp1595
a(L2910371777L
L0L
(lp1596
(lp1597
tp1598
a(L3360570486L
L0L
(lp1599
(lp1600
tp1601
a(L3016870L
L0L
(lp1602
(lp1603
tp1604
a(L3745038218L
L0L
(lp1605
(lp1606
tp1607
a(L957607403L
L0L
(lp1608
(lp1609
tp1610
atp1611
sI1074270288
(Vrtc_clk_init
p1612
(lp1613
(L3239316338L
L0L
(lp1614
(lp1615
tp1616
a(L42671777L
L3785322319L
(lp1617
(lp1618
Vrtc_clk_cpu_freq_to_xtal
p1619
atp1620
a(L861828708L
L3785322319L
(lp1621
(lp1622
Vrtc_clk_xtal_freq_get
p1623
atp1624
a(L89029051L
L0L
(lp1625
(lp1626
tp1627
a(L4187693717L
L3785322319L
(lp1628
(lp1629
Vrtc_clk_xtal_freq_estimate
p1630
atp1631
a(L4094346314L
L3785322319L
(lp1632
(lp1633
Vesp_log_early_timestamp
p1634
atp1635
a(L1876396459L
L1157885199L
(lp1636
(lp1637
Vesp_rom_uart_tx_wait_idle
p1638
aVrtc_clk_xtal_freq_update
p1639
aVrtc_clk_apb_freq_update
p1640
aVrtc_clk_cpu_freq_get_config
p1641
aVrtc_clk_cpu_freq_mhz_to_config
p1642
atp1643
a(L816397908L
L1880226080L
(lp1644
(lp1645
Vesp_log_early_timestamp
p1646
aVabort
p1647
atp1648
a(L3028481L
L0L
(lp1649
(lp1650
tp1651
a(L4070631611L
L3785322319L
(lp1652
(lp1653
Vrtc_clk_xtal_freq_estimate
p1654
atp1655
a(L1127535376L
L3785322319L
(lp1656
(lp1657
Vesp_log_early_timestamp
p1658
atp1659
a(L74282458L
L3785322319L
(lp1660
(lp1661
Vrtc_clk_cpu_freq_set_config
p1662
atp1663
a(L912310138L
L3785322319L
(lp1664
(lp1665
Vrtc_clk_32k_enable
p1666
atp1667
a(L3191820416L
L1832448559L
(lp1668
(lp1669
Vrtc_clk_8m_enable
p1670
aVrtc_clk_fast_src_set
p1671
aVrtc_clk_slow_src_set
p1672
atp1673
a(L1232958848L
L0L
(lp1674
(lp1675
tp1676
atp1677
sI1074235224
(Vbootloader_execute_flash_command
p1678
(lp1679
(L2481595632L
L3785322319L
(lp1680
(lp1681
Vbootloader_flash_execute_command_common
p1682
atp1683
atp1684
sI1074245208
(Vrtc_clk_8m_enabled
p1685
(lp1686
(L2802140000L
L0L
(lp1687
(lp1688
tp1689
atp1690
sI1074270056
(Vesp_cpu_configure_region_protection
p1691
(lp1692
(L1745595499L
L0L
(lp1693
(lp1694
tp1695
a(L180431425L
L3785322319L
(lp1696
(lp1697
Vmpu_hal_set_region_access
p1698
atp1699
a(L2537388152L
L3785322319L
(lp1700
(lp1701
Vmpu_hal_set_region_access
p1702
atp1703
atp1704
sI1074244452
(Vwdt_hal_write_protect_enable
p1705
(lp1706
(L387778158L
L0L
(lp1707
(lp1708
tp1709
a(L4195472003L
L0L
(lp1710
(lp1711
tp1712
a(L3360570486L
L0L
(lp1713
(lp1714
tp1715
a(L802523425L
L0L
(lp1716
(lp1717
tp1718
atp1719
sI1074240096
(Vbootloader_utility_load_boot_image
p1720
(lp1721
(L1375294773L
L0L
(lp1722
(lp1723
tp1724
a(L2177418995L
L3785322319L
(lp1725
(lp1726
Vtry_load_partition
p1727
atp1728
a(L1305243774L
L3785322319L
(lp1729
(lp1730
Vload_image
p1731
atp1732
a(L1481893282L
L3785322319L
(lp1733
(lp1734
Vesp_log_early_timestamp
p1735
atp1736
a(L3827921190L
L3785322319L
(lp1737
(lp1738
Vbootloader_reset
p1739
atp1740
a(L1953693036L
L3785322319L
(lp1741
(lp1742
Vindex_to_partition
p1743
atp1744
a(L1204373741L
L3785322319L
(lp1745
(lp1746
Vtry_load_partition
p1747
atp1748
a(L1899865696L
L0L
(lp1749
(lp1750
tp1751
a(L2695355117L
L3785322319L
(lp1752
(lp1753
Vset_actual_ota_seq
p1754
atp1755
a(L1868897605L
L3785322319L
(lp1756
(lp1757
Vlog_invalid_app_partition
p1758
atp1759
a(L831650730L
L0L
(lp1760
(lp1761
tp1762
a(L3021737L
L0L
(lp1763
(lp1764
tp1765
a(L695456438L
L0L
(lp1766
(lp1767
tp1768
a(L1129532116L
L3785322319L
(lp1769
(lp1770
Vtry_load_partition
p1771
atp1772
a(L4022121633L
L3785322319L
(lp1773
(lp1774
Vesp_log_early_timestamp
p1775
atp1776
a(L2347390157L
L3785322319L
(lp1777
(lp1778
Vindex_to_partition
p1779
atp1780
a(L1204373741L
L3785322319L
(lp1781
(lp1782
Vtry_load_partition
p1783
atp1784
a(L3061261803L
L0L
(lp1785
(lp1786
tp1787
a(L3582858798L
L3785322319L
(lp1788
(lp1789
Vlog_invalid_app_partition
p1790
atp1791
a(L1285752117L
L3785322319L
(lp1792
(lp1793
Vesp_log_early_timestamp
p1794
atp1795
atp1796
sI1074244960
(Vrtc_clk_bbpll_disable
p1797
(lp1798
(L2525111280L
L0L
(lp1799
(lp1800
tp1801
a(L2472207241L
L0L
(lp1802
(lp1803
tp1804
a(L3360570486L
L0L
(lp1805
(lp1806
tp1807
atp1808
sI1074238828
(Vcache_ll_l1_enable_bus
p1809
(lp1810
(L1408514293L
L0L
(lp1811
(lp1812
tp1813
atp1814
sI1074237288
(Vbootloader_common_select_otadata
p1815
(lp1816
(L4071767857L
L0L
(lp1817
(lp1818
tp1819
a(L1999329187L
L0L
(lp1820
(lp1821
tp1822
a(L3846398843L
L0L
(lp1823
(lp1824
tp1825
a(L2501968171L
L0L
(lp1826
(lp1827
tp1828
a(L3360570486L
L0L
(lp1829
(lp1830
tp1831
a(L2045232488L
L0L
(lp1832
(lp1833
tp1834
a(L1243525916L
L0L
(lp1835
(lp1836
tp1837
a(L3094144427L
L0L
(lp1838
(lp1839
tp1840
a(L2399509845L
L0L
(lp1841
(lp1842
tp1843
a(L1641201884L
L0L
(lp1844
(lp1845
tp1846
atp1847
sI1074240872
(Vbootloader_ana_clock_glitch_reset_config
p1848
(lp1849
(L2100504542L
L0L
(lp1850
(lp1851
tp1852
atp1853
sI1074245480
(Vrtc_clk_fast_src_get
p1854
(lp1855
(L380770082L
L0L
(lp1856
(lp1857
tp1858
atp1859
sI1074269816
(Vbootloader_config_wdt
p1860
(lp1861
(L2664630811L
L505859776L
(lp1862
(lp1863
Vwdt_hal_write_protect_disable
p1864
aVwdt_hal_set_flashboot_en
p1865
aVwdt_hal_write_protect_enable
p1866
aVwdt_hal_init
p1867
aVrtc_clk_slow_freq_get_hz
p1868
aVwdt_hal_write_protect_disable
p1869
aVwdt_hal_config_stage
p1870
aVwdt_hal_enable
p1871
aVwdt_hal_write_protect_enable
p1872
aVwdt_hal_write_protect_disable
p1873
aVwdt_hal_set_flashboot_en
p1874
aVwdt_hal_write_protect_enable
p1875
atp1876
atp1877
sI1074236532
(Vbootloader_common_get_chip_ver_pkg
p1878
(lp1879
(L2886103845L
L0L
(lp1880
(lp1881
tp1882
atp1883
sI1074245232
(Vrtc_clk_8md256_enabled
p1884
(lp1885
(L1957668129L
L0L
(lp1886
(lp1887
tp1888
atp1889
sI1074243440
(Vwdt_hal_init
p1890
(lp1891
(L509746487L
L0L
(lp1892
(lp1893
tp1894
a(L745008699L
L0L
(lp1895
(lp1896
tp1897
a(L2805934244L
L0L
(lp1898
(lp1899
tp1900
a(L3115097993L
L0L
(lp1901
(lp1902
tp1903
a(L1129008730L
L0L
(lp1904
(lp1905
tp1906
a(L3360570486L
L0L
(lp1907
(lp1908
tp1909
a(L3022237171L
L0L
(lp1910
(lp1911
tp1912
atp1913
sI1074240880
(Vprocess_checksum
p1914
(lp1915
(L226873693L
L0L
(lp1916
(lp1917
tp1918
a(L2910371777L
L0L
(lp1919
(lp1920
tp1921
a(L186886970L
L0L
(lp1922
(lp1923
tp1924
a(L2910371777L
L0L
(lp1925
(lp1926
tp1927
a(L3020204L
L0L
(lp1928
(lp1929
tp1930
a(L2480703612L
L3785322319L
(lp1931
(lp1932
Vbootloader_sha256_data
p1933
atp1934
a(L4179073442L
L0L
(lp1935
(lp1936
tp1937
a(L1811888222L
L3785322319L
(lp1938
(lp1939
Vbootloader_flash_read
p1940
atp1941
a(L3126521138L
L0L
(lp1942
(lp1943
tp1944
a(L4120157373L
L0L
(lp1945
(lp1946
tp1947
a(L3278991908L
L3785322319L
(lp1948
(lp1949
Vesp_log_early_timestamp
p1950
atp1951
atp1952
sI1074241916
(Vprocess_segments
p1953
(lp1954
(L1018786970L
L0L
(lp1955
(lp1956
tp1957
a(L3285816417L
L0L
(lp1958
(lp1959
tp1960
a(L3782401745L
L0L
(lp1961
(lp1962
tp1963
a(L106L
L0L
(lp1964
(lp1965
tp1966
a(L2411199274L
L0L
(lp1967
(lp1968
tp1969
a(L669991150L
L3785322319L
(lp1970
(lp1971
Vesp_log_early_timestamp
p1972
atp1973
a(L3085209925L
L3785322319L
(lp1974
(lp1975
Vbootloader_flash_read
p1976
atp1977
a(L125419343L
L3785322319L
(lp1978
(lp1979
Vesp_log_early_timestamp
p1980
atp1981
a(L3871473710L
L0L
(lp1982
(lp1983
tp1984
a(L234193771L
L0L
(lp1985
(lp1986
tp1987
a(L1635713494L
L3785322319L
(lp1988
(lp1989
Vbootloader_sha256_data
p1990
atp1991
a(L165187679L
L0L
(lp1992
(lp1993
tp1994
a(L334484485L
L0L
(lp1995
(lp1996
tp1997
a(L451332327L
L0L
(lp1998
(lp1999
tp2000
a(L3802067325L
L0L
(lp2001
(lp2002
tp2003
a(L3592389343L
L0L
(lp2004
(lp2005
tp2006
a(L2258867228L
L0L
(lp2007
(lp2008
tp2009
a(L1255782415L
L0L
(lp2010
(lp2011
tp2012
a(L1756760227L
L0L
(lp2013
(lp2014
tp2015
a(L1849436849L
L0L
(lp2016
(lp2017
tp2018
a(L1947739089L
L3785322319L
(lp2019
(lp2020
Vesp_log_early_timestamp
p2021
atp2022
a(L3601900694L
L0L
(lp2023
(lp2024
tp2025
a(L568253874L
L0L
(lp2026
(lp2027
tp2028
a(L3182428709L
L3785322319L
(lp2029
(lp2030
Vesp_log_early_timestamp
p2031
atp2032
a(L1973629750L
L3785322319L
(lp2033
(lp2034
Vverify_load_addresses
p2035
atp2036
a(L106L
L0L
(lp2037
(lp2038
tp2039
a(L914132342L
L0L
(lp2040
(lp2041
tp2042
a(L291460350L
L0L
(lp2043
(lp2044
tp2045
a(L4151532718L
L3785322319L
(lp2046
(lp2047
Vbootloader_mmap
p2048
atp2049
a(L3589484614L
L3785322319L
(lp2050
(lp2051
Vesp_log_early_timestamp
p2052
atp2053
a(L2994776696L
L0L
(lp2054
(lp2055
tp2056
a(L2942377727L
L0L
(lp2057
(lp2058
tp2059
a(L1652679798L
L3785322319L
(lp2060
(lp2061
Vbootloader_munmap
p2062
atp2063
a(L2993622008L
L0L
(lp2064
(lp2065
tp2066
a(L1216016797L
L3785322319L
(lp2067
(lp2068
Vbootloader_fill_random
p2069
atp2070
a(L3570641403L
L0L
(lp2071
(lp2072
tp2073
a(L3574335487L
L0L
(lp2074
(lp2075
tp2076
a(L3450268858L
L0L
(lp2077
(lp2078
tp2079
a(L3021749L
L0L
(lp2080
(lp2081
tp2082
a(L1609678444L
L0L
(lp2083
(lp2084
tp2085
a(L1777728568L
L0L
(lp2086
(lp2087
tp2088
a(L3020204L
L0L
(lp2089
(lp2090
tp2091
a(L1312354573L
L0L
(lp2092
(lp2093
tp2094
a(L2076461546L
L0L
(lp2095
(lp2096
tp2097
a(L3844184503L
L0L
(lp2098
(lp2099
tp2100
a(L1749969336L
L0L
(lp2101
(lp2102
tp2103
a(L670934548L
L0L
(lp2104
(lp2105
tp2106
a(L781506066L
L3785322319L
(lp2107
(lp2108
Vbootloader_sha256_data
p2109
atp2110
a(L90548756L
L0L
(lp2111
(lp2112
tp2113
a(L4195963580L
L0L
(lp2114
(lp2115
tp2116
a(L2422333549L
L0L
(lp2117
(lp2118
tp2119
a(L3132743422L
L0L
(lp2120
(lp2121
tp2122
a(L249537906L
L3785322319L
(lp2123
(lp2124
Vshould_load
p2125
atp2126
a(L2378267508L
L0L
(lp2127
(lp2128
tp2129
a(L3098292588L
L3785322319L
(lp2130
(lp2131
Vesp_log_early_timestamp
p2132
atp2133
a(L1263395604L
L0L
(lp2134
(lp2135
tp2136
a(L307916924L
L0L
(lp2137
(lp2138
tp2139
a(L3421814691L
L0L
(lp2140
(lp2141
tp2142
a(L81630008L
L0L
(lp2143
(lp2144
tp2145
a(L2742376716L
L0L
(lp2146
(lp2147
tp2148
a(L3786494677L
L3785322319L
(lp2149
(lp2150
Vbootloader_mmap_get_free_pages
p2151
atp2152
a(L2685118414L
L0L
(lp2153
(lp2154
tp2155
a(L2091285670L
L0L
(lp2156
(lp2157
tp2158
atp2159
sI1074235256
(Vbootloader_flash_unlock
p2160
(lp2161
(L2142380611L
L3785322319L
(lp2162
(lp2163
Vesp_rom_spiflash_wait_idle
p2164
atp2165
a(L4212373562L
L0L
(lp2166
(lp2167
tp2168
a(L4292483033L
L3785322319L
(lp2169
(lp2170
Vbootloader_execute_flash_command
p2171
atp2172
a(L106L
L0L
(lp2173
(lp2174
tp2175
a(L1303560644L
L0L
(lp2176
(lp2177
tp2178
a(L610618440L
L0L
(lp2179
(lp2180
tp2181
a(L106L
L0L
(lp2182
(lp2183
tp2184
a(L345249462L
L0L
(lp2185
(lp2186
tp2187
a(L106L
L0L
(lp2188
(lp2189
tp2190
a(L1024465569L
L0L
(lp2191
(lp2192
tp2193
a(L106L
L0L
(lp2194
(lp2195
tp2196
a(L1481761147L
L1880226080L
(lp2197
(lp2198
Vbootloader_execute_flash_command
p2199
aVbootloader_execute_flash_command
p2200
atp2201
a(L2258807654L
L0L
(lp2202
(lp2203
tp2204
a(L489806350L
L1832448559L
(lp2205
(lp2206
Vesp_rom_spiflash_wait_idle
p2207
aVbootloader_execute_flash_command
p2208
aVbootloader_execute_flash_command
p2209
atp2210
a(L879744646L
L1832448559L
(lp2211
(lp2212
Vesp_rom_spiflash_wait_idle
p2213
aVbootloader_execute_flash_command
p2214
aVbootloader_execute_flash_command
p2215
atp2216
a(L1840772931L
L1880226080L
(lp2217
(lp2218
Vesp_rom_spiflash_wait_idle
p2219
aVbootloader_execute_flash_command
p2220
atp2221
a(L2993202392L
L0L
(lp2222
(lp2223
tp2224
a(L508800419L
L1880226080L
(lp2225
(lp2226
Vbootloader_execute_flash_command
p2227
aVbootloader_execute_flash_command
p2228
atp2229
a(L1303560369L
L0L
(lp2230
(lp2231
tp2232
a(L1596544945L
L0L
(lp2233
(lp2234
tp2235
a(L97689L
L0L
(lp2236
(lp2237
tp2238
a(L106L
L0L
(lp2239
(lp2240
tp2241
atp2242
sI1074234744
(Vbootloader_flash_execute_command_common
p2243
(lp2244
(L3865052895L
L0L
(lp2245
(lp2246
tp2247
a(L3287175998L
L0L
(lp2248
(lp2249
tp2250
a(L4121451103L
L3785322319L
(lp2251
(lp2252
V__assert_func
p2253
atp2254
a(L3021749L
L0L
(lp2255
(lp2256
tp2257
a(L3999871974L
L0L
(lp2258
(lp2259
tp2260
a(L543316797L
L0L
(lp2261
(lp2262
tp2263
a(L2091933878L
L0L
(lp2264
(lp2265
tp2266
a(L1702379862L
L0L
(lp2267
(lp2268
tp2269
a(L3432464320L
L0L
(lp2270
(lp2271
tp2272
a(L3539375712L
L0L
(lp2273
(lp2274
tp2275
a(L3244449450L
L0L
(lp2276
(lp2277
tp2278
a(L4233404408L
L0L
(lp2279
(lp2280
tp2281
a(L2990329343L
L0L
(lp2282
(lp2283
tp2284
a(L2051090536L
L0L
(lp2285
(lp2286
tp2287
a(L3333696662L
L0L
(lp2288
(lp2289
tp2290
a(L963425213L
L0L
(lp2291
(lp2292
tp2293
a(L339491738L
L0L
(lp2294
(lp2295
tp2296
a(L3360570486L
L0L
(lp2297
(lp2298
tp2299
atp2300
sI1074245496
(Vrtc_clk_xtal_freq_get
p2301
(lp2302
(L436198866L
L0L
(lp2303
(lp2304
tp2305
a(L2847936993L
L0L
(lp2306
(lp2307
tp2308
a(L4141094988L
L0L
(lp2309
(lp2310
tp2311
a(L3360570486L
L0L
(lp2312
(lp2313
tp2314
atp2315
sI1074238084
(Vbootloader_enable_wp
p2316
(lp2317
(L1117825804L
L3785322319L
(lp2318
(lp2319
Vbootloader_execute_flash_command
p2320
atp2321
atp2322
sI1074244480
(Vwdt_hal_enable
p2323
(lp2324
(L2299130915L
L0L
(lp2325
(lp2326
tp2327
a(L165794138L
L0L
(lp2328
(lp2329
tp2330
a(L3360570486L
L0L
(lp2331
(lp2332
tp2333
a(L2847657174L
L0L
(lp2334
(lp2335
tp2336
atp2337
sI1074236800
(Vefuse_hal_get_minor_chip_version
p2338
(lp2339
(L1213965243L
L0L
(lp2340
(lp2341
tp2342
atp2343
sI1074238604
(Vcache_ll_l1_get_bus
p2344
(lp2345
(L3820023252L
L0L
(lp2346
(lp2347
tp2348
a(L94425498L
L3785322319L
(lp2349
(lp2350
Vabort
p2351
atp2352
a(L3179088012L
L0L
(lp2353
(lp2354
tp2355
a(L1844424101L
L0L
(lp2356
(lp2357
tp2358
a(L892952750L
L0L
(lp2359
(lp2360
tp2361
a(L1182811810L
L0L
(lp2362
(lp2363
tp2364
a(L1101742417L
L0L
(lp2365
(lp2366
tp2367
a(L1100767927L
L0L
(lp2368
(lp2369
tp2370
a(L3360570486L
L0L
(lp2371
(lp2372
tp2373
a(L2767111967L
L0L
(lp2374
(lp2375
tp2376
a(L892952750L
L0L
(lp2377
(lp2378
tp2379
a(L2258688482L
L0L
(lp2380
(lp2381
tp2382
a(L1353797152L
L0L
(lp2383
(lp2384
tp2385
a(L2258718273L
L0L
(lp2386
(lp2387
tp2388
a(L2938197270L
L0L
(lp2389
(lp2390
tp2391
a(L2748641547L
L0L
(lp2392
(lp2393
tp2394
a(L2752340901L
L0L
(lp2395
(lp2396
tp2397
a(L1641149277L
L0L
(lp2398
(lp2399
tp2400
a(L3211405977L
L0L
(lp2401
(lp2402
tp2403
a(L3027019L
L0L
(lp2404
(lp2405
tp2406
a(L1299866560L
L0L
(lp2407
(lp2408
tp2409
a(L1299866436L
L0L
(lp2410
(lp2411
tp2412
atp2413
sI1074245256
(Vrtc_clk_slow_src_set
p2414
(lp2415
(L1719649901L
L0L
(lp2416
(lp2417
tp2418
a(L3020187L
L0L
(lp2419
(lp2420
tp2421
a(L3028481L
L0L
(lp2422
(lp2423
tp2424
a(L487821223L
L0L
(lp2425
(lp2426
tp2427
a(L185049753L
L0L
(lp2428
(lp2429
tp2430
a(L1851908495L
L0L
(lp2431
(lp2432
tp2433
a(L382170874L
L0L
(lp2434
(lp2435
tp2436
a(L3138544334L
L0L
(lp2437
(lp2438
tp2439
a(L94425498L
L3785322319L
(lp2440
(lp2441
Vabort
p2442
atp2443
atp2444
sI1074245768
(Vrtc_clk_xtal_freq_update
p2445
(lp2446
(L1422638466L
L0L
(lp2447
(lp2448
tp2449
a(L3509357017L
L0L
(lp2450
(lp2451
tp2452
a(L2266180931L
L0L
(lp2453
(lp2454
tp2455
atp2456
sI1074248840
(V_fini
p2457
(lp2458
(L3493042598L
L0L
(lp2459
(lp2460
tp2461
atp2462
sI1074270104
(Vrtc_clk_xtal_freq_estimate
p2463
(lp2464
(L3845076426L
L1880226080L
(lp2465
(lp2466
Vrtc_clk_8m_enabled
p2467
aVrtc_clk_8md256_enabled
p2468
atp2469
a(L2449794434L
L3785322319L
(lp2470
(lp2471
Vrtc_clk_8m_enable
p2472
atp2473
a(L2996343550L
L3785322319L
(lp2474
(lp2475
Vrtc_clk_cal_ratio
p2476
atp2477
a(L1894802584L
L0L
(lp2478
(lp2479
tp2480
a(L1915120046L
L0L
(lp2481
(lp2482
tp2483
a(L2740879690L
L0L
(lp2484
(lp2485
tp2486
a(L1059750288L
L3785322319L
(lp2487
(lp2488
Vrtc_clk_8m_enable
p2489
atp2490
a(L3599597258L
L3785322319L
(lp2491
(lp2492
Vesp_log_early_timestamp
p2493
atp2494
a(L2894376164L
L0L
(lp2495
(lp2496
tp2497
a(L1641150486L
L0L
(lp2498
(lp2499
tp2500
a(L1546062884L
L3785322319L
(lp2501
(lp2502
Vesp_log_early_timestamp
p2503
atp2504
a(L1092192914L
L3785322319L
(lp2505
(lp2506
Vesp_log_early_timestamp
p2507
atp2508
atp2509
sI1074240404
(Vbootloader_debug_buffer
p2510
(lp2511
(L2100504542L
L0L
(lp2512
(lp2513
tp2514
atp2515
sI1074236564
(Vesp_rom_uart_tx_wait_idle
p2516
(lp2517
(L3957152286L
L0L
(lp2518
(lp2519
tp2520
a(L1301079727L
L0L
(lp2521
(lp2522
tp2523
a(L3597746521L
L0L
(lp2524
(lp2525
tp2526
a(L3694491048L
L0L
(lp2527
(lp2528
tp2529
a(L3055926844L
L0L
(lp2530
(lp2531
tp2532
a(L3360570486L
L0L
(lp2533
(lp2534
tp2535
atp2536
sI1074236816
(Vesp_dport_access_reg_read
p2537
(lp2538
(L1099794772L
L0L
(lp2539
(lp2540
tp2541
atp2542
sI1074247312
(Vesp_rom_spiflash_read_status
p2543
(lp2544
(L2938520357L
L0L
(lp2545
(lp2546
tp2547
a(L1182811815L
L0L
(lp2548
(lp2549
tp2550
a(L1827921062L
L0L
(lp2551
(lp2552
tp2553
a(L106L
L0L
(lp2554
(lp2555
tp2556
a(L619542702L
L0L
(lp2557
(lp2558
tp2559
a(L3274807848L
L0L
(lp2560
(lp2561
tp2562
a(L2123059967L
L0L
(lp2563
(lp2564
tp2565
a(L3146966332L
L0L
(lp2566
(lp2567
tp2568
a(L2392720019L
L0L
(lp2569
(lp2570
tp2571
atp2572
sI1074245020
(Vrtc_clk_32k_enable
p2573
(lp2574
(L753387299L
L0L
(lp2575
(lp2576
tp2577
a(L3776007933L
L3785322319L
(lp2578
(lp2579
Vrtc_clk_32k_enable_common
p2580
atp2581
a(L3496950L
L0L
(lp2582
(lp2583
tp2584
a(L2501812159L
L0L
(lp2585
(lp2586
tp2587
atp2588
sI1074240412
(Vbootloader_sha256_start
p2589
(lp2590
(L260677377L
L0L
(lp2591
(lp2592
tp2593
atp2594
sI1074239388
(Vbootloader_utility_load_partition_table
p2595
(lp2596
(L973068460L
L3785322319L
(lp2597
(lp2598
Vbootloader_mmap
p2599
atp2600
a(L1894723508L
L3785322319L
(lp2601
(lp2602
Vesp_log_early_timestamp
p2603
atp2604
a(L2258688482L
L0L
(lp2605
(lp2606
tp2607
a(L3360570486L
L0L
(lp2608
(lp2609
tp2610
a(L3881596654L
L3785322319L
(lp2611
(lp2612
Vesp_partition_table_verify
p2613
atp2614
a(L418712718L
L3785322319L
(lp2615
(lp2616
Vesp_log_early_timestamp
p2617
atp2618
a(L3331315958L
L1880226080L
(lp2619
(lp2620
Vesp_log_early_timestamp
p2621
aVesp_log_early_timestamp
p2622
atp2623
a(L650140130L
L0L
(lp2624
(lp2625
tp2626
a(L3929231144L
L1880226080L
(lp2627
(lp2628
Vbootloader_munmap
p2629
aVesp_log_early_timestamp
p2630
atp2631
a(L521126897L
L0L
(lp2632
(lp2633
tp2634
a(L3028464L
L0L
(lp2635
(lp2636
tp2637
a(L106L
L0L
(lp2638
(lp2639
tp2640
a(L1403802546L
L0L
(lp2641
(lp2642
tp2643
a(L352196314L
L3785322319L
(lp2644
(lp2645
Vesp_log_early_timestamp
p2646
atp2647
a(L3990577774L
L0L
(lp2648
(lp2649
tp2650
a(L3020187L
L0L
(lp2651
(lp2652
tp2653
a(L2318212397L
L0L
(lp2654
(lp2655
tp2656
a(L4208504540L
L0L
(lp2657
(lp2658
tp2659
a(L1859217843L
L0L
(lp2660
(lp2661
tp2662
a(L2546691246L
L0L
(lp2663
(lp2664
tp2665
a(L3797730446L
L0L
(lp2666
(lp2667
tp2668
a(L106L
L0L
(lp2669
(lp2670
tp2671
a(L93674324L
L0L
(lp2672
(lp2673
tp2674
a(L1583301205L
L0L
(lp2675
(lp2676
tp2677
a(L1938133383L
L0L
(lp2678
(lp2679
tp2680
a(L1630400759L
L0L
(lp2681
(lp2682
tp2683
a(L106L
L0L
(lp2684
(lp2685
tp2686
a(L928516522L
L0L
(lp2687
(lp2688
tp2689
a(L106L
L0L
(lp2690
(lp2691
tp2692
a(L568204863L
L0L
(lp2693
(lp2694
tp2695
atp2696
sI1074235548
(Vbootloader_flash_read_sfdp
p2697
(lp2698
(L711701400L
L0L
(lp2699
(lp2700
tp2701
a(L3334003234L
L3785322319L
(lp2702
(lp2703
V__assert_func
p2704
atp2705
a(L3704332455L
L3785322319L
(lp2706
(lp2707
Vbootloader_flash_execute_command_common
p2708
atp2709
atp2710
sI1074235804
(Vbootloader_flash_cs_timing_config
p2711
(lp2712
(L1940014330L
L0L
(lp2713
(lp2714
tp2715
atp2716
sI1074236828
(Vis_xmc_chip_strict
p2717
(lp2718
(L1286841609L
L0L
(lp2719
(lp2720
tp2721
a(L2234016759L
L0L
(lp2722
(lp2723
tp2724
a(L1069027148L
L0L
(lp2725
(lp2726
tp2727
a(L3021749L
L0L
(lp2728
(lp2729
tp2730
a(L1900148749L
L0L
(lp2731
(lp2732
tp2733
a(L1936875721L
L0L
(lp2734
(lp2735
tp2736
a(L3356166509L
L0L
(lp2737
(lp2738
tp2739
a(L1937769451L
L0L
(lp2740
(lp2741
tp2742
a(L2137658907L
L0L
(lp2743
(lp2744
tp2745
a(L4265949734L
L0L
(lp2746
(lp2747
tp2748
a(L3360570486L
L0L
(lp2749
(lp2750
tp2751
atp2752
sI1074247836
(Vesp_rom_spiflash_write
p2753
(lp2754
(L1176662179L
L0L
(lp2755
(lp2756
tp2757
a(L2258688483L
L0L
(lp2758
(lp2759
tp2760
a(L3360570486L
L0L
(lp2761
(lp2762
tp2763
a(L3368132847L
L0L
(lp2764
(lp2765
tp2766
a(L3106685981L
L0L
(lp2767
(lp2768
tp2769
a(L3488660639L
L3785322319L
(lp2770
(lp2771
Vesp_rom_spiflash_program_page_internal
p2772
atp2773
a(L3543402353L
L3785322319L
(lp2774
(lp2775
Vesp_rom_spiflash_program_page_internal
p2776
atp2777
a(L4222526342L
L0L
(lp2778
(lp2779
tp2780
a(L2004208511L
L0L
(lp2781
(lp2782
tp2783
a(L564470656L
L0L
(lp2784
(lp2785
tp2786
a(L2988842384L
L3785322319L
(lp2787
(lp2788
Vesp_rom_spiflash_program_page_internal
p2789
atp2790
a(L2302069176L
L0L
(lp2791
(lp2792
tp2793
atp2794
sI1074238104
(Vbootloader_mmap_get_free_pages
p2795
(lp2796
(L1496516875L
L0L
(lp2797
(lp2798
tp2799
atp2800
sI1074248088
(Vesp_rom_spiflash_read
p2801
(lp2802
(L2864722771L
L0L
(lp2803
(lp2804
tp2805
a(L3013250324L
L0L
(lp2806
(lp2807
tp2808
a(L340311750L
L0L
(lp2809
(lp2810
tp2811
a(L2355528925L
L0L
(lp2812
(lp2813
tp2814
a(L106L
L0L
(lp2815
(lp2816
tp2817
a(L633884026L
L0L
(lp2818
(lp2819
tp2820
a(L106L
L0L
(lp2821
(lp2822
tp2823
a(L12774736L
L0L
(lp2824
(lp2825
tp2826
a(L3571878573L
L0L
(lp2827
(lp2828
tp2829
a(L2884772704L
L0L
(lp2830
(lp2831
tp2832
a(L336550648L
L0L
(lp2833
(lp2834
tp2835
a(L493932352L
L0L
(lp2836
(lp2837
tp2838
a(L106L
L0L
(lp2839
(lp2840
tp2841
a(L2549202597L
L3785322319L
(lp2842
(lp2843
Vesp_rom_spiflash_wait_idle
p2844
atp2845
a(L3021737L
L0L
(lp2846
(lp2847
tp2848
a(L106L
L0L
(lp2849
(lp2850
tp2851
a(L1868280504L
L0L
(lp2852
(lp2853
tp2854
a(L106L
L0L
(lp2855
(lp2856
tp2857
a(L4024100605L
L0L
(lp2858
(lp2859
tp2860
a(L1221163038L
L0L
(lp2861
(lp2862
tp2863
a(L4122060822L
L0L
(lp2864
(lp2865
tp2866
a(L1406217664L
L0L
(lp2867
(lp2868
tp2869
a(L2989032L
L0L
(lp2870
(lp2871
tp2872
a(L3819849625L
L0L
(lp2873
(lp2874
tp2875
a(L726363469L
L0L
(lp2876
(lp2877
tp2878
a(L932902197L
L0L
(lp2879
(lp2880
tp2881
a(L3901821451L
L0L
(lp2882
(lp2883
tp2884
a(L3187605261L
L0L
(lp2885
(lp2886
tp2887
a(L2921907736L
L0L
(lp2888
(lp2889
tp2890
a(L4023125337L
L0L
(lp2891
(lp2892
tp2893
a(L384659096L
L0L
(lp2894
(lp2895
tp2896
a(L708728610L
L0L
(lp2897
(lp2898
tp2899
a(L1400585318L
L0L
(lp2900
(lp2901
tp2902
a(L781550816L
L0L
(lp2903
(lp2904
tp2905
a(L2687789892L
L0L
(lp2906
(lp2907
tp2908
a(L1405253496L
L0L
(lp2909
(lp2910
tp2911
a(L1756022091L
L0L
(lp2912
(lp2913
tp2914
a(L97689L
L0L
(lp2915
(lp2916
tp2917
a(L1183020347L
L0L
(lp2918
(lp2919
tp2920
a(L4014024819L
L0L
(lp2921
(lp2922
tp2923
a(L3621567083L
L0L
(lp2924
(lp2925
tp2926
atp2927
sI1074241696
(Vprocess_appended_hash_and_sig
p2928
(lp2929
(L1668084157L
L0L
(lp2930
(lp2931
tp2932
a(L2910371777L
L0L
(lp2933
(lp2934
tp2935
a(L1591589631L
L0L
(lp2936
(lp2937
tp2938
a(L2551256078L
L0L
(lp2939
(lp2940
tp2941
a(L2688085881L
L0L
(lp2942
(lp2943
tp2944
a(L3399920573L
L3785322319L
(lp2945
(lp2946
Vesp_log_early_timestamp
p2947
atp2948
a(L2268304300L
L3785322319L
(lp2949
(lp2950
Vbootloader_flash_read
p2951
atp2952
a(L3871473710L
L0L
(lp2953
(lp2954
tp2955
atp2956
sI1074238112
(Vbootloader_fill_random
p2957
(lp2958
(L1233865241L
L0L
(lp2959
(lp2960
tp2961
a(L2195342884L
L3785322319L
(lp2962
(lp2963
V__assert_func
p2964
atp2965
a(L1882547218L
L0L
(lp2966
(lp2967
tp2968
a(L2910371777L
L0L
(lp2969
(lp2970
tp2971
a(L95634693L
L0L
(lp2972
(lp2973
tp2974
a(L3630908706L
L0L
(lp2975
(lp2976
tp2977
a(L160162640L
L0L
(lp2978
(lp2979
tp2980
a(L97689L
L0L
(lp2981
(lp2982
tp2983
a(L3360570486L
L0L
(lp2984
(lp2985
tp2986
atp2987
sI1074238880
(Vload_image
p2988
(lp2989
(L162490783L
L1832448559L
(lp2990
(lp2991
Vesp_log_early_timestamp
p2992
aVbootloader_random_disable
p2993
aVbootloader_ana_clock_glitch_reset_config
p2994
atp2995
a(L2118498116L
L0L
(lp2996
(lp2997
tp2998
a(L106L
L0L
(lp2999
(lp3000
tp3001
a(L1789307221L
L3758435744L
(lp3002
(lp3003
Vmmu_hal_init
p3004
aVcache_ll_l1_get_bus
p3005
aVcache_ll_l1_enable_bus
p3006
aVcache_ll_l1_get_bus
p3007
aVcache_ll_l1_enable_bus
p3008
aVcache_ll_l1_get_bus
p3009
aVcache_ll_l1_enable_bus
p3010
aVcache_ll_l1_get_bus
p3011
aVcache_ll_l1_enable_bus
p3012
aVbootloader_console_deinit
p3013
atp3014
a(L746432701L
L0L
(lp3015
(lp3016
tp3017
a(L2902417580L
L0L
(lp3018
(lp3019
tp3020
a(L1366048922L
L3785322319L
(lp3021
(lp3022
Vesp_log_early_timestamp
p3023
atp3024
a(L3064806881L
L0L
(lp3025
(lp3026
tp3027
a(L839502558L
L0L
(lp3028
(lp3029
tp3030
a(L3020204L
L0L
(lp3031
(lp3032
tp3033
a(L3328497686L
L3785322319L
(lp3034
(lp3035
Vesp_log_early_timestamp
p3036
atp3037
a(L3644183142L
L0L
(lp3038
(lp3039
tp3040
a(L356605111L
L0L
(lp3041
(lp3042
tp3043
atp3044
sI1074245536
(Vrtc_clk_cpu_freq_mhz_to_config
p3045
(lp3046
(L908718885L
L3785322319L
(lp3047
(lp3048
Vrtc_clk_xtal_freq_get
p3049
atp3050
a(L60460069L
L0L
(lp3051
(lp3052
tp3053
a(L3802072124L
L0L
(lp3054
(lp3055
tp3056
a(L3159006042L
L0L
(lp3057
(lp3058
tp3059
a(L3360570486L
L0L
(lp3060
(lp3061
tp3062
a(L895147205L
L0L
(lp3063
(lp3064
tp3065
a(L3970036657L
L0L
(lp3066
(lp3067
tp3068
a(L2731353429L
L0L
(lp3069
(lp3070
tp3071
a(L1555485793L
L0L
(lp3072
(lp3073
tp3074
a(L2258897023L
L0L
(lp3075
(lp3076
tp3077
a(L1947499251L
L0L
(lp3078
(lp3079
tp3080
a(L1306331021L
L0L
(lp3081
(lp3082
tp3083
atp3084
sI1074270884
(Vrtc_vddsdio_set_config
p3085
(lp3086
(L3409922999L
L0L
(lp3087
(lp3088
tp3089
atp3090
sI1074237364
(Vspi_to_esp_err
p3091
(lp3092
(L3520881295L
L0L
(lp3093
(lp3094
tp3095
a(L2402400019L
L0L
(lp3096
(lp3097
tp3098
a(L3952441574L
L0L
(lp3099
(lp3100
tp3101
a(L3126521138L
L0L
(lp3102
(lp3103
tp3104
atp3105
sI1074237620
(Vbootloader_munmap
p3106
(lp3107
(L1697403118L
L0L
(lp3108
(lp3109
tp3110
a(L3761142808L
L0L
(lp3111
(lp3112
tp3113
a(L3360570486L
L0L
(lp3114
(lp3115
tp3116
atp3117
sI1074245812
(Vrtc_clk_apb_freq_update
p3118
(lp3119
(L723331471L
L0L
(lp3120
(lp3121
tp3122
atp3123
sI1074267836
(Vbootloader_before_init
p3124
(lp3125
(L742791736L
L3785322319L
(lp3126
(lp3127
Vesp_log_early_timestamp
p3128
atp3129
atp3130
sI1074240432
(Vbootloader_sha256_data
p3131
(lp3132
(L4066096136L
L0L
(lp3133
(lp3134
tp3135
a(L110883720L
L0L
(lp3136
(lp3137
tp3138
a(L3884092851L
L3785322319L
(lp3139
(lp3140
V__assert_func
p3141
atp3142
a(L498498478L
L0L
(lp3143
(lp3144
tp3145
a(L1040021824L
L0L
(lp3146
(lp3147
tp3148
a(L2910371777L
L0L
(lp3149
(lp3150
tp3151
a(L3360570486L
L0L
(lp3152
(lp3153
tp3154
a(L1788837773L
L0L
(lp3155
(lp3156
tp3157
a(L541898147L
L0L
(lp3158
(lp3159
tp3160
a(L2604061911L
L0L
(lp3161
(lp3162
tp3163
a(L8683590L
L0L
(lp3164
(lp3165
tp3166
a(L3387118333L
L0L
(lp3167
(lp3168
tp3169
a(L2032890799L
L0L
(lp3170
(lp3171
tp3172
a(L3028464L
L0L
(lp3173
(lp3174
tp3175
a(L707876039L
L0L
(lp3176
(lp3177
tp3178
a(L498156265L
L0L
(lp3179
(lp3180
tp3181
atp3182
sI1074268104
(Vbootloader_init
p3183
(lp3184
(L1670820128L
L3785322319L
(lp3185
(lp3186
Vbootloader_init_mem
p3187
atp3188
a(L2510418038L
L0L
(lp3189
(lp3190
tp3191
a(L2162674539L
L3785322319L
(lp3192
(lp3193
V__assert_func
p3194
atp3195
a(L1637078003L
L0L
(lp3196
(lp3197
tp3198
a(L77379998L
L0L
(lp3199
(lp3200
tp3201
a(L3813782018L
L0L
(lp3202
(lp3203
tp3204
a(L1480579064L
L0L
(lp3205
(lp3206
tp3207
a(L3027019L
L0L
(lp3208
(lp3209
tp3210
a(L2883778843L
L0L
(lp3211
(lp3212
tp3213
a(L2959511285L
L1832448559L
(lp3214
(lp3215
Vbootloader_clear_bss_section
p3216
aVbootloader_common_vddsdio_configure
p3217
aVbootloader_clock_get_rated_freq_mhz
p3218
atp3219
a(L3987130017L
L1157885199L
(lp3220
(lp3221
Vbootloader_clock_configure
p3222
aVbootloader_console_init
p3223
aVbootloader_print_banner
p3224
aVbootloader_flash_update_id
p3225
aVbootloader_flash_xmc_startup
p3226
atp3227
a(L2074744344L
L3785322319L
(lp3228
(lp3229
Vesp_log_early_timestamp
p3230
atp3231
a(L3226199455L
L3785322319L
(lp3232
(lp3233
Vesp_log_early_timestamp
p3234
atp3235
a(L3360570486L
L0L
(lp3236
(lp3237
tp3238
a(L2444883382L
L3785322319L
(lp3239
(lp3240
Vbootloader_read_bootloader_header
p3241
atp3242
a(L2444883382L
L3785322319L
(lp3243
(lp3244
Vbootloader_check_bootloader_validity
p3245
atp3246
a(L3948167628L
L2485746240L
(lp3247
(lp3248
Vbootloader_flash_gpio_config
p3249
aVbootloader_flash_dummy_config
p3250
aVbootloader_flash_cs_timing_config
p3251
aVbootloader_flash_unlock
p3252
atp3253
a(L51834088L
L0L
(lp3254
(lp3255
tp3256
a(L2959710894L
L0L
(lp3257
(lp3258
tp3259
a(L1404489878L
L0L
(lp3260
(lp3261
tp3262
a(L2699833301L
L3785322319L
(lp3263
(lp3264
Vesp_log_early_timestamp
p3265
atp3266
a(L139553654L
L0L
(lp3267
(lp3268
tp3269
a(L1237620123L
L0L
(lp3270
(lp3271
tp3272
a(L1241314207L
L0L
(lp3273
(lp3274
tp3275
a(L1245008291L
L0L
(lp3276
(lp3277
tp3278
a(L1404491192L
L0L
(lp3279
(lp3280
tp3281
a(L2559887724L
L3785322319L
(lp3282
(lp3283
Vesp_log_early_timestamp
p3284
atp3285
a(L93837694L
L0L
(lp3286
(lp3287
tp3288
a(L106L
L0L
(lp3289
(lp3290
tp3291
a(L2745846097L
L0L
(lp3292
(lp3293
tp3294
a(L2777506265L
L0L
(lp3295
(lp3296
tp3297
a(L3902507117L
L0L
(lp3298
(lp3299
tp3300
a(L4250727223L
L3785322319L
(lp3301
(lp3302
Vesp_log_early_timestamp
p3303
atp3304
a(L93837694L
L0L
(lp3305
(lp3306
tp3307
a(L106L
L0L
(lp3308
(lp3309
tp3310
a(L3029526157L
L0L
(lp3311
(lp3312
tp3313
a(L2772639124L
L0L
(lp3314
(lp3315
tp3316
a(L2807278488L
L0L
(lp3317
(lp3318
tp3319
a(L440114021L
L3785322319L
(lp3320
(lp3321
Vbootloader_enable_wp
p3322
atp3323
a(L1266399027L
L0L
(lp3324
(lp3325
tp3326
a(L1895147922L
L0L
(lp3327
(lp3328
tp3329
a(L4198777427L
L3785322319L
(lp3330
(lp3331
Vesp_log_early_timestamp
p3332
atp3333
a(L3639065141L
L0L
(lp3334
(lp3335
tp3336
a(L3616326365L
L0L
(lp3337
(lp3338
tp3339
a(L1129025932L
L0L
(lp3340
(lp3341
tp3342
a(L2739503802L
L3785322319L
(lp3343
(lp3344
Vesp_log_early_timestamp
p3345
atp3346
a(L4263191691L
L1880226080L
(lp3347
(lp3348
Vwdt_reset_info_dump
p3349
aVwdt_reset_info_dump
p3350
atp3351
a(L2777497988L
L0L
(lp3352
(lp3353
tp3354
a(L106L
L0L
(lp3355
(lp3356
tp3357
a(L718637158L
L0L
(lp3358
(lp3359
tp3360
a(L1767021965L
L0L
(lp3361
(lp3362
tp3363
a(L3028481L
L0L
(lp3364
(lp3365
tp3366
a(L1638301777L
L1880226080L
(lp3367
(lp3368
Vbootloader_config_wdt
p3369
aVbootloader_enable_random
p3370
atp3371
atp3372
sI1074244804
(Vrtc_clk_cpu_freq_to_pll_mhz
p3373
(lp3374
(L1393544349L
L0L
(lp3375
(lp3376
tp3377
a(L405771233L
L0L
(lp3378
(lp3379
tp3380
a(L2930233244L
L0L
(lp3381
(lp3382
tp3383
a(L3298441904L
L0L
(lp3384
(lp3385
tp3386
a(L3680579786L
L0L
(lp3387
(lp3388
tp3389
a(L1298905564L
L0L
(lp3390
(lp3391
tp3392
a(L46269790L
L3785322319L
(lp3393
(lp3394
Vrtc_clk_wait_for_slow_cycle
p3395
atp3396
a(L1611366957L
L0L
(lp3397
(lp3398
tp3399
a(L1611366988L
L0L
(lp3400
(lp3401
tp3402
a(L94425498L
L3785322319L
(lp3403
(lp3404
Vabort
p3405
atp3406
atp3407
sI1074244036
(Vwdt_hal_config_stage
p3408
(lp3409
(L331558507L
L0L
(lp3410
(lp3411
tp3412
a(L4279082939L
L0L
(lp3413
(lp3414
tp3415
a(L93674324L
L0L
(lp3416
(lp3417
tp3418
a(L2902417580L
L0L
(lp3419
(lp3420
tp3421
a(L1485495983L
L0L
(lp3422
(lp3423
tp3424
a(L3020187L
L0L
(lp3425
(lp3426
tp3427
a(L94425498L
L3785322319L
(lp3428
(lp3429
Vabort
p3430
atp3431
a(L2718517169L
L0L
(lp3432
(lp3433
tp3434
a(L3360570486L
L0L
(lp3435
(lp3436
tp3437
a(L1996799187L
L0L
(lp3438
(lp3439
tp3440
a(L2771194801L
L0L
(lp3441
(lp3442
tp3443
a(L4278159418L
L0L
(lp3444
(lp3445
tp3446
a(L93674324L
L0L
(lp3447
(lp3448
tp3449
a(L3020204L
L0L
(lp3450
(lp3451
tp3452
a(L3391750594L
L0L
(lp3453
(lp3454
tp3455
a(L3020187L
L0L
(lp3456
(lp3457
tp3458
a(L106L
L0L
(lp3459
(lp3460
tp3461
a(L239610384L
L0L
(lp3462
(lp3463
tp3464
a(L831450820L
L0L
(lp3465
(lp3466
tp3467
a(L3340783449L
L0L
(lp3468
(lp3469
tp3470
atp3471
sI1074244552
(Vmmu_hal_init
p3472
(lp3473
(L1381828061L
L0L
(lp3474
(lp3475
tp3476
a(L2010554219L
L0L
(lp3477
(lp3478
tp3479
a(L3268103L
L0L
(lp3480
(lp3481
tp3482
a(L3212334523L
L0L
(lp3483
(lp3484
tp3485
a(L2010554219L
L0L
(lp3486
(lp3487
tp3488
a(L3360570486L
L0L
(lp3489
(lp3490
tp3491
atp3492
sI1074236628
(Vesp_rom_uart_set_clock_baudrate
p3493
(lp3494
(L2889646162L
L0L
(lp3495
(lp3496
tp3497
a(L2316512566L
L0L
(lp3498
(lp3499
tp3500
a(L2805931268L
L0L
(lp3501
(lp3502
tp3503
a(L2901979283L
L0L
(lp3504
(lp3505
tp3506
atp3507
sI1074237396
(Vbootloader_mmap
p3508
(lp3509
(L3624397292L
L0L
(lp3510
(lp3511
tp3512
a(L3762918116L
L3785322319L
(lp3513
(lp3514
Vesp_log_early_timestamp
p3515
atp3516
a(L3871473710L
L0L
(lp3517
(lp3518
tp3519
a(L3729184599L
L0L
(lp3520
(lp3521
tp3522
a(L3066168078L
L3785322319L
(lp3523
(lp3524
Vesp_log_early_timestamp
p3525
atp3526
a(L1864365708L
L0L
(lp3527
(lp3528
tp3529
a(L2872111263L
L3785322319L
(lp3530
(lp3531
Vesp_log_early_timestamp
p3532
atp3533
a(L258722864L
L0L
(lp3534
(lp3535
tp3536
a(L3746164654L
L3785322319L
(lp3537
(lp3538
Vesp_log_early_timestamp
p3539
atp3540
a(L2535155408L
L0L
(lp3541
(lp3542
tp3543
atp3544
sI1074235600
(Vbootloader_read_flash_id
p3545
(lp3546
(L549578328L
L3785322319L
(lp3547
(lp3548
Vbootloader_execute_flash_command
p3549
atp3550
atp3551
sI1074245840
(Vrtc_clk_cpu_freq_to_xtal
p3552
(lp3553
(L2382625401L
L0L
(lp3554
(lp3555
tp3556
a(L94425498L
L3785322319L
(lp3557
(lp3558
Vabort
p3559
atp3560
a(L2975556993L
L3785322319L
(lp3561
(lp3562
Vrtc_clk_apb_freq_update
p3563
atp3564
a(L2258867232L
L0L
(lp3565
(lp3566
tp3567
a(L362206021L
L0L
(lp3568
(lp3569
tp3570
atp3571
sI1074247120
(Vrtc_clk_cal_ratio
p3572
(lp3573
(L1201925337L
L3785322319L
(lp3574
(lp3575
Vrtc_clk_cal_internal
p3576
atp3577
atp3578
sI1074268880
(Vbootloader_common_vddsdio_configure
p3579
(lp3580
(L1829974089L
L3785322319L
(lp3581
(lp3582
Vrtc_vddsdio_get_config
p3583
atp3584
a(L3802264566L
L3785322319L
(lp3585
(lp3586
Vrtc_vddsdio_set_config
p3587
atp3588
a(L3360570486L
L0L
(lp3589
(lp3590
tp3591
atp3592
sI1074241244
(Vbootloader_util_regions_overlap
p3593
(lp3594
(L2762640130L
L0L
(lp3595
(lp3596
tp3597
a(L2198512677L
L0L
(lp3598
(lp3599
tp3600
a(L2217655633L
L3785322319L
(lp3601
(lp3602
V__assert_func
p3603
atp3604
a(L97642L
L0L
(lp3605
(lp3606
tp3607
a(L996187529L
L0L
(lp3608
(lp3609
tp3610
a(L366123053L
L0L
(lp3611
(lp3612
tp3613
a(L2258867228L
L0L
(lp3614
(lp3615
tp3616
a(L1253626734L
L0L
(lp3617
(lp3618
tp3619
a(L2258897019L
L0L
(lp3620
(lp3621
tp3622
a(L3109269495L
L0L
(lp3623
(lp3624
tp3625
atp3626
sI1074267860
(Vbootloader_after_init
p3627
(lp3628
(L3515198524L
L3785322319L
(lp3629
(lp3630
Vesp_log_early_timestamp
p3631
atp3632
atp3633
sI1074245080
(Vrtc_clk_8m_enable
p3634
(lp3635
(L1843101924L
L0L
(lp3636
(lp3637
tp3638
a(L3147299128L
L0L
(lp3639
(lp3640
tp3641
a(L2151320156L
L0L
(lp3642
(lp3643
tp3644
a(L711175840L
L0L
(lp3645
(lp3646
tp3647
a(L3360570486L
L0L
(lp3648
(lp3649
tp3650
a(L1318267208L
L0L
(lp3651
(lp3652
tp3653
a(L512411289L
L0L
(lp3654
(lp3655
tp3656
atp3657
sI1074236900
(Vesp_log_early_timestamp
p3658
(lp3659
(L3733265409L
L0L
(lp3660
(lp3661
tp3662
atp3663
sI1074237924
(Vbootloader_flash_erase_sector
p3664
(lp3665
(L4129137686L
L1880226080L
(lp3666
(lp3667
Vesp_rom_spiflash_erase_sector
p3668
aVspi_to_esp_err
p3669
atp3670
atp3671
sI1074267884
(Vwdt_reset_info_dump
p3672
(lp3673
(L4037466985L
L0L
(lp3674
(lp3675
tp3676
a(L1166533755L
L0L
(lp3677
(lp3678
tp3679
a(L3014880741L
L0L
(lp3680
(lp3681
tp3682
a(L1103285333L
L0L
(lp3683
(lp3684
tp3685
a(L982832708L
L3785322319L
(lp3686
(lp3687
Vesp_log_early_timestamp
p3688
atp3689
a(L2967992533L
L0L
(lp3690
(lp3691
tp3692
a(L768996255L
L3785322319L
(lp3693
(lp3694
Vesp_log_early_timestamp
p3695
atp3696
a(L3735117731L
L0L
(lp3697
(lp3698
tp3699
atp3700
sI1074270956
(Vbootloader_hooks_include
p3701
(lp3702
(L2100504542L
L0L
(lp3703
(lp3704
tp3705
atp3706
sI1074236384
(Vbootloader_flash_dummy_config
p3707
(lp3708
(L262000646L
L0L
(lp3709
(lp3710
tp3711
a(L2761717557L
L0L
(lp3712
(lp3713
tp3714
a(L1849044936L
L0L
(lp3715
(lp3716
tp3717
a(L708753936L
L0L
(lp3718
(lp3719
tp3720
a(L1010450057L
L0L
(lp3721
(lp3722
tp3723
a(L3020204L
L0L
(lp3724
(lp3725
tp3726
a(L1610443405L
L0L
(lp3727
(lp3728
tp3729
a(L4032120524L
L0L
(lp3730
(lp3731
tp3732
a(L2336993863L
L0L
(lp3733
(lp3734
tp3735
a(L1298875775L
L0L
(lp3736
(lp3737
tp3738
a(L3880393601L
L0L
(lp3739
(lp3740
tp3741
a(L3328946209L
L0L
(lp3742
(lp3743
tp3744
a(L1610443436L
L0L
(lp3745
(lp3746
tp3747
atp3748
sI1074269664
(Vbootloader_flash_update_id
p3749
(lp3750
(L613664594L
L3785322319L
(lp3751
(lp3752
Vbootloader_read_flash_id
p3753
atp3754
atp3755
sI1074237672
(Vbootloader_flash_read
p3756
(lp3757
(L728393898L
L0L
(lp3758
(lp3759
tp3760
a(L1489400095L
L3785322319L
(lp3761
(lp3762
Vesp_log_early_timestamp
p3763
atp3764
a(L1941789336L
L0L
(lp3765
(lp3766
tp3767
a(L3360570486L
L0L
(lp3768
(lp3769
tp3770
a(L2660352519L
L0L
(lp3771
(lp3772
tp3773
a(L1179571938L
L3785322319L
(lp3774
(lp3775
Vesp_log_early_timestamp
p3776
atp3777
a(L162336582L
L0L
(lp3778
(lp3779
tp3780
a(L814874711L
L3785322319L
(lp3781
(lp3782
Vesp_log_early_timestamp
p3783
atp3784
a(L3020204L
L0L
(lp3785
(lp3786
tp3787
a(L3893043951L
L0L
(lp3788
(lp3789
tp3790
a(L97422L
L0L
(lp3791
(lp3792
tp3793
a(L1190291857L
L0L
(lp3794
(lp3795
tp3796
a(L2961856275L
L0L
(lp3797
(lp3798
tp3799
a(L2859434406L
L3785322319L
(lp3800
(lp3801
V__assert_func
p3802
atp3803
a(L1539897528L
L0L
(lp3804
(lp3805
tp3806
a(L1915165223L
L0L
(lp3807
(lp3808
tp3809
a(L1336007148L
L1880226080L
(lp3810
(lp3811
Vesp_rom_spiflash_read
p3812
aVspi_to_esp_err
p3813
atp3814
atp3815
sI1074247400
(Vesp_rom_spiflash_wait_idle
p3816
(lp3817
(L3233077286L
L0L
(lp3818
(lp3819
tp3820
a(L2023766174L
L0L
(lp3821
(lp3822
tp3823
a(L2805935267L
L0L
(lp3824
(lp3825
tp3826
a(L3086959262L
L0L
(lp3827
(lp3828
tp3829
a(L4161019926L
L3785322319L
(lp3830
(lp3831
Vesp_rom_spiflash_read_status
p3832
atp3833
atp3834
sI1074269176
(Vbootloader_random_enable
p3835
(lp3836
(L267065582L
L0L
(lp3837
(lp3838
tp3839
atp3840
sI1074269944
(Vbootloader_enable_random
p3841
(lp3842
(L2483657592L
L1880226080L
(lp3843
(lp3844
Vesp_log_early_timestamp
p3845
aVbootloader_random_enable
p3846
atp3847
atp3848
sI1074238192
(Vbootloader_random_disable
p3849
(lp3850
(L2825582328L
L0L
(lp3851
(lp3852
tp3853
atp3854
sI1074246640
(Vrtc_clk_apb_freq_get
p3855
(lp3856
(L3268507198L
L0L
(lp3857
(lp3858
tp3859
atp3860
sI1074247152
(Vrtc_clk_wait_for_slow_cycle
p3861
(lp3862
(L57851970L
L0L
(lp3863
(lp3864
tp3865
a(L287687718L
L0L
(lp3866
(lp3867
tp3868
a(L3360570486L
L0L
(lp3869
(lp3870
tp3871
a(L2237399032L
L0L
(lp3872
(lp3873
tp3874
a(L2994547433L
L0L
(lp3875
(lp3876
tp3877
a(L2206597745L
L0L
(lp3878
(lp3879
tp3880
a(L788148307L
L3785322319L
(lp3881
(lp3882
Vesp_log_early_timestamp
p3883
atp3884
atp3885
sI1074269168
(Vbootloader_init_mem
p3886
(lp3887
(L1287383080L
L3785322319L
(lp3888
(lp3889
Vesp_cpu_configure_region_protection
p3890
atp3891
atp3892
sI1074269680
(Vbootloader_clear_bss_section
p3893
(lp3894
(L2759654043L
L0L
(lp3895
(lp3896
tp3897
atp3898
sI1074241788
(Vshould_load
p3899
(lp3900
(L1379502686L
L0L
(lp3901
(lp3902
tp3903
a(L1182990556L
L0L
(lp3904
(lp3905
tp3906
a(L1188500889L
L0L
(lp3907
(lp3908
tp3909
a(L2306467100L
L0L
(lp3910
(lp3911
tp3912
a(L524505062L
L0L
(lp3913
(lp3914
tp3915
a(L2258897019L
L0L
(lp3916
(lp3917
tp3918
a(L3781799363L
L0L
(lp3919
(lp3920
tp3921
a(L3028464L
L0L
(lp3922
(lp3923
tp3924
a(L2219325068L
L0L
(lp3925
(lp3926
tp3927
a(L4277114872L
L0L
(lp3928
(lp3929
tp3930
a(L2824381917L
L0L
(lp3931
(lp3932
tp3933
a(L1243412227L
L0L
(lp3934
(lp3935
tp3936
a(L2011157548L
L0L
(lp3937
(lp3938
tp3939
a(L3126521138L
L0L
(lp3940
(lp3941
tp3942
a(L1305407438L
L0L
(lp3943
(lp3944
tp3945
a(L1305407469L
L0L
(lp3946
(lp3947
tp3948
atp3949
sI1074245628
(Vrtc_clk_cpu_freq_get_config
p3950
(lp3951
(L3852097526L
L0L
(lp3952
(lp3953
tp3954
a(L3020187L
L0L
(lp3955
(lp3956
tp3957
a(L3020187L
L0L
(lp3958
(lp3959
tp3960
a(L1339883774L
L3785322319L
(lp3961
(lp3962
Vrtc_clk_xtal_freq_get
p3963
atp3964
a(L3789795478L
L0L
(lp3965
(lp3966
tp3967
a(L1876772334L
L1880226080L
(lp3968
(lp3969
Vesp_log_early_timestamp
p3970
aVabort
p3971
atp3972
a(L3035450075L
L0L
(lp3973
(lp3974
tp3975
a(L3020187L
L0L
(lp3976
(lp3977
tp3978
a(L3028481L
L0L
(lp3979
(lp3980
tp3981
a(L38508693L
L0L
(lp3982
(lp3983
tp3984
a(L187152368L
L0L
(lp3985
(lp3986
tp3987
a(L1161083655L
L0L
(lp3988
(lp3989
tp3990
a(L1395485899L
L0L
(lp3991
(lp3992
tp3993
a(L2070600034L
L0L
(lp3994
(lp3995
tp3996
atp3997
sI1074270964
(Vmpu_hal_set_region_access
p3998
(lp3999
(L3538356822L
L0L
(lp4000
(lp4001
tp4002
a(L93674324L
L0L
(lp4003
(lp4004
tp4005
a(L2910371777L
L0L
(lp4006
(lp4007
tp4008
a(L3472092938L
L0L
(lp4009
(lp4010
tp4011
a(L3020187L
L0L
(lp4012
(lp4013
tp4014
a(L3360570486L
L0L
(lp4015
(lp4016
tp4017
a(L2258718273L
L0L
(lp4018
(lp4019
tp4020
a(L3446648619L
L0L
(lp4021
(lp4022
tp4023
a(L3739532189L
L0L
(lp4024
(lp4025
tp4026
a(L1300789895L
L0L
(lp4027
(lp4028
tp4029
atp4030
sI1074244600
(Vefuse_hal_get_rated_freq_mhz
p4031
(lp4032
(L3936657855L
L0L
(lp4033
(lp4034
tp4035
a(L3671388797L
L0L
(lp4036
(lp4037
tp4038
a(L3360570486L
L0L
(lp4039
(lp4040
tp4041
atp4042
sI1074237944
(Vbootloader_flash_write
p4043
(lp4044
(L3770380603L
L0L
(lp4045
(lp4046
tp4047
a(L2615366646L
L3785322319L
(lp4048
(lp4049
Vesp_log_early_timestamp
p4050
atp4051
a(L3833270346L
L0L
(lp4052
(lp4053
tp4054
a(L1610445075L
L0L
(lp4055
(lp4056
tp4057
a(L735741265L
L0L
(lp4058
(lp4059
tp4060
a(L3291333414L
L0L
(lp4061
(lp4062
tp4063
a(L1873007406L
L3785322319L
(lp4064
(lp4065
Vesp_log_early_timestamp
p4066
atp4067
a(L3283691850L
L0L
(lp4068
(lp4069
tp4070
a(L2141475974L
L3785322319L
(lp4071
(lp4072
Vesp_log_early_timestamp
p4073
atp4074
a(L3212356251L
L3785322319L
(lp4075
(lp4076
Vbootloader_flash_unlock
p4077
atp4078
a(L1799218633L
L0L
(lp4079
(lp4080
tp4081
a(L94425498L
L3785322319L
(lp4082
(lp4083
Vesp_rom_spiflash_write_encrypted
p4084
atp4085
a(L2927190544L
L3785322319L
(lp4086
(lp4087
Vspi_to_esp_err
p4088
atp4089
a(L2927190544L
L3785322319L
(lp4090
(lp4091
Vesp_rom_spiflash_write
p4092
atp4093
atp4094
ssS'functionsdups'
p4095
g11
((lp4096
tp4097
Rp4098
sS'immediatedups'
p4099
g11
((lp4100
tp4101
Rp4102
sS'functiondups'
p4103
g11
((lp4104
tp4105
Rp4106
sS'fuzzy'
p4107
(dp4108
L438947497L
I1074245256
sL2170867428L
I1074270288
sL617583950L
I1074236988
sL430153639L
I1074235916
sL3121027072L
I1074270724
sL2082889262L
I1074241696
sL291131346L
I1074244804
sL835568324L
I1074246684
sL3820933298L
I1074267736
sL2919016435L
I1074235256
sL16208487L
I1074234744
sL2319042089L
I1074245388
sL3881399234L
I1074245840
sL2919036513L
I1074238880
sL151789201L
I1074270104
sL2680783959L
I1074235648
sL3512578114L
I1074238728
sL1419132215L
I1074238112
sL2469233929L
I1074240588
sL701833459L
I1074268936
sL3897252859L
I1074238520
sL1065525808L
I1074236828
sL2327783177L
I1074240880
sL1164839255L
I1074241916
sL2272466760L
I1074245628
sL2117292686L
I1074241300
sL2044047637L
I1074239388
sL1188065553L
I1074237672
sL94556391L
I1074245416
sL3210669721L
I1074245020
sL1332800441L
I1074237220
sL2884218272L
I1074267884
sL1168466927L
I1074268104
sL1345429244L
I1074241052
sL3190020590L
I1074242636
sL2828970830L
I1074239268
sL4160102055L
I1074240064
sL4202185385L
I1074247400
sL1768086576L
I1074236384
sL4171975289L
I1074247700
sL1565254297L
I1074248000
sL1205407754L
I1074240096
sL2191698036L
I1074269816
sL1513350244L
I1074239752
sL1635528231L
I1074244036
sL519424169L
I1074247152
sL1060788199L
I1074245536
sL406720601L
I1074238604
sL737694352L
I1074247508
sL503029138L
I1074247448
sL1616763831L
I1074248088
sL2262558768L
I1074247312
sL424867129L
I1074247836
sL3834155367L
I1074241244
sL3338518926L
I1074237396
sL2123938668L
I1074245956
sL3883282432L
I1074241788
sL4173399607L
I1074243152
sL1667054119L
I1074240432
sL206902443L
I1074237944
ssb.