ccopy_reg
_reconstructor
p0
(crizzo
RizzoSignature
p1
c__builtin__
object
p2
Ntp3
Rp4
(dp5
S'formal'
p6
(dp7
L2005196428L
I1074245044
sL1741170115L
I1074237884
sL2087186284L
I1074236296
sL3129017229L
I1074269452
sL3984280162L
I1074244024
sL2628804010L
I1074270472
sL4213015302L
I1074242812
sL461860251L
I1074246832
sL286550283L
I1074269616
sL3976424482L
I1074234612
sL552298442L
I1074235180
sL2767810776L
I1074237904
sL2771134728L
I1074239836
sL2702580795L
I1074237260
sL2610420647L
I1074269480
sL2896295319L
I1074236784
sL25479346L
I1074240316
sL3442495501L
I1074239340
sL1331791455L
I1074245136
sL1674148343L
I1074245192
sL1786019146L
I1074247200
sL4023292303L
I1074237336
sL3256726111L
I1074247528
sL2485902447L
I1074236624
sL723138898L
I1074238064
sL424336643L
I1074269384
sL366218909L
I1074269652
sL368505532L
I1074245468
sL848906711L
I1074247692
sL353716291L
I1074244224
sL1585823442L
I1074244124
sL1622896354L
I1074244152
sL2803618626L
I1074239552
sL3384899485L
I1074241708
sL2521269785L
I1074236864
sL2189223198L
I1074240076
sL3580313603L
I1074241580
sL2493713350L
I1074244900
sL2930276314L
I1074235716
sL3007247178L
I1074238612
sL4161584248L
I1074268460
sL4175577751L
I1074244272
sL2723725103L
I1074240512
sL1633709340L
I1074244876
sL2813809866L
I1074236648
sL2366387314L
I1074270320
sL1330922710L
I1074246336
sL1731035566L
I1074236460
sL244922653L
I1074242328
sL2691843063L
I1074245496
sL3307282855L
I1074238044
sL127813144L
I1074243096
sL2834351222L
I1074244444
sL3065846068L
I1074235480
sL3553146178L
I1074267616
sL2195669076L
I1074244852
sL357647324L
I1074268756
sL3361686224L
I1074268516
sL3721992006L
I1074240528
sL1662035087L
I1074267724
sL4038945309L
I1074235532
sL3041505513L
I1074237368
sL1435968304L
I1074244308
sL4178015136L
I1074247000
sL1992104215L
I1074236756
sL1112935418L
I1074234656
sL4020657674L
I1074245608
sL2931540503L
I1074247144
sL1382567621L
I1074238120
sL105563623L
I1074240148
sL2997001746L
I1074237192
sL59949349L
I1074240776
sL76756778L
I1074240608
sL2819127986L
I1074236916
sL3195929028L
I1074239812
sL3024810484L
I1074269876
sL1481764497L
I1074236896
sL1877634603L
I1074270552
sL2687718384L
I1074242828
sL2789355142L
I1074243708
sL1098683832L
I1074244664
sL3015462521L
I1074238528
sL3066643969L
I1074246800
sL935372552L
I1074267948
sL886840080L
I1074236952
sL2062758462L
I1074236688
sL1347401601L
I1074240168
sL2248158928L
I1074238200
sL660825523L
I1074244724
sL3362774716L
I1074236544
sL3338519854L
I1074245424
sL2195659785L
I1074245072
sL540472814L
I1074247392
sL2263182908L
I1074238112
sL965583188L
I1074245284
sL114336524L
I1074269408
sL282668036L
I1074244056
sL963291061L
I1074247780
sL3630163135L
I1074236772
sL188664287L
I1074235148
sL2743385701L
I1074269244
sL2404540336L
I1074245016
sL2485146564L
I1074240552
sL692536993L
I1074237232
sL169616374L
I1074239244
sL822000404L
I1074245152
sL921639684L
I1074235828
sL235684320L
I1074237628
sL3364903294L
I1074247096
sL675504051L
I1074236444
sL1817360290L
I1074241020
sL917018201L
I1074236856
sL237904351L
I1074240964
sL3759578855L
I1074269260
sL2805511626L
I1074238864
sL2758712477L
I1074241492
sL309068699L
I1074244604
sL1140246287L
I1074246292
sL3137236L
I1074235580
sL2570362575L
I1074238644
sL3958998789L
I1074237576
sL4029637072L
I1074269700
ssS'immediates'
p8
(dp9
sS'formaldups'
p10
c__builtin__
set
p11
((lp12
tp13
Rp14
sS'stringdups'
p15
g11
((lp16
tp17
Rp18
sS'fuzzydups'
p19
g11
((lp20
tp21
Rp22
sS'strings'
p23
(dp24
sS'functions'
p25
(dp26
I1074270472
(Vrtc_vddsdio_set_config
p27
(lp28
(L3557742407L
L1443213481L
(lp29
(lp30
tp31
atp32
sI1074269452
(Vbootloader_check_bootloader_validity
p33
(lp34
(L1235570239L
L195123093L
(lp35
(lp36
Vefuse_hal_chip_revision
p37
aVbootloader_common_check_chip_validity
p38
atp39
atp40
sI1074240512
(Vbootloader_console_deinit
p41
(lp42
(L1858531217L
L1443213481L
(lp43
(lp44
tp45
atp46
sI1074267136
(V_init
p47
(lp48
(L3493042598L
L0L
(lp49
(lp50
tp51
atp52
sI1074239244
(Vset_actual_ota_seq
p53
(lp54
(L4094723830L
L0L
(lp55
(lp56
tp57
a(L3504298995L
L2195759072L
(lp58
(lp59
tp60
a(L3797934020L
L2474967913L
(lp61
(lp62
Vmemset
p63
aVbootloader_common_ota_select_crc
p64
aVesp_flash_encryption_enabled
p65
aVbootloader_flash_erase_sector
p66
atp67
a(L3383023989L
L3785322319L
(lp68
(lp69
Vbootloader_flash_write
p70
atp71
a(L2553207239L
L3187408090L
(lp72
(lp73
Vesp_log_early_timestamp
p74
atp75
a(L3360570486L
L0L
(lp76
(lp77
tp78
atp79
sI1074235148
(Vbootloader_execute_flash_command
p80
(lp81
(L2481595632L
L3785322319L
(lp82
(lp83
Vbootloader_flash_execute_command_common
p84
atp85
atp86
sI1074242828
(Vesp_partition_table_verify
p87
(lp88
(L44179228L
L1443213481L
(lp89
(lp90
tp91
a(L3031150553L
L1443213481L
(lp92
(lp93
tp94
a(L1184829782L
L0L
(lp95
(lp96
tp97
a(L3020204L
L0L
(lp98
(lp99
tp100
a(L26389654L
L3187408090L
(lp101
(lp102
Vesp_log_early_timestamp
p103
atp104
a(L1235012963L
L0L
(lp105
(lp106
tp107
a(L3190337587L
L0L
(lp108
(lp109
tp110
a(L2069928857L
L0L
(lp111
(lp112
tp113
a(L2902417580L
L0L
(lp114
(lp115
tp116
a(L2543114737L
L2147981551L
(lp117
(lp118
Vesp_log_early_timestamp
p119
atp120
a(L1715222413L
L1443213481L
(lp121
(lp122
tp123
a(L3020204L
L0L
(lp124
(lp125
tp126
a(L3020204L
L0L
(lp127
(lp128
tp129
a(L1328961945L
L2147981551L
(lp130
(lp131
Vesp_log_early_timestamp
p132
atp133
a(L4207910112L
L1443213481L
(lp134
(lp135
tp136
a(L1235012932L
L0L
(lp137
(lp138
tp139
a(L458256366L
L4021370767L
(lp140
(lp141
Vmemcmp
p142
atp143
a(L3020204L
L0L
(lp144
(lp145
tp146
a(L2543114737L
L2147981551L
(lp147
(lp148
Vesp_log_early_timestamp
p149
atp150
a(L1305407469L
L0L
(lp151
(lp152
tp153
a(L1167861556L
L0L
(lp154
(lp155
tp156
a(L818997085L
L0L
(lp157
(lp158
tp159
a(L3360570486L
L0L
(lp160
(lp161
tp162
a(L3020204L
L0L
(lp163
(lp164
tp165
a(L3999534504L
L3187408090L
(lp166
(lp167
Vesp_log_early_timestamp
p168
atp169
atp170
sI1074244876
(Vrtc_clk_8md256_enabled
p171
(lp172
(L4014027530L
L1443213481L
(lp173
(lp174
tp175
atp176
sI1074247692
(Vesp_rom_spiflash_write_encrypted
p177
(lp178
(L1944247967L
L0L
(lp179
(lp180
tp181
a(L3825342292L
L1443213481L
(lp182
(lp183
tp184
a(L97689L
L0L
(lp185
(lp186
tp187
a(L3061232074L
L0L
(lp188
(lp189
tp190
a(L1562911102L
L1443213481L
(lp191
(lp192
tp193
a(L1309309703L
L3785322319L
(lp194
(lp195
Vesp_rom_spiflash_write
p196
atp197
a(L2269233063L
L1443213481L
(lp198
(lp199
tp200
a(L735741265L
L0L
(lp201
(lp202
tp203
atp204
sI1074269700
(Vrtc_clk_xtal_freq_estimate
p205
(lp206
(L1823831978L
L1880226080L
(lp207
(lp208
Vrtc_clk_8m_enabled
p209
aVrtc_clk_8md256_enabled
p210
atp211
a(L2449794434L
L3785322319L
(lp212
(lp213
Vrtc_clk_8m_enable
p214
atp215
a(L3726876033L
L2704288053L
(lp216
(lp217
Vrtc_clk_cal_ratio
p218
aV__udivdi3
p219
atp220
a(L3934977694L
L0L
(lp221
(lp222
tp223
a(L3955289886L
L0L
(lp224
(lp225
tp226
a(L2553207239L
L3187408090L
(lp227
(lp228
Vesp_log_early_timestamp
p229
atp230
a(L2307427870L
L0L
(lp231
(lp232
tp233
a(L1281346514L
L3785322319L
(lp234
(lp235
Vrtc_clk_8m_enable
p236
atp237
a(L3909119106L
L0L
(lp238
(lp239
tp240
a(L2298857999L
L3187408090L
(lp241
(lp242
Vesp_log_early_timestamp
p243
atp244
a(L3304487880L
L0L
(lp245
(lp246
tp247
a(L1641150486L
L0L
(lp248
(lp249
tp250
a(L2026357443L
L3187408090L
(lp251
(lp252
Vesp_log_early_timestamp
p253
atp254
atp255
sI1074237192
(Vbootloader_common_get_active_otadata
p256
(lp257
(L3317503532L
L0L
(lp258
(lp259
tp260
a(L2503049265L
L1832448559L
(lp261
(lp262
Vbootloader_common_ota_select_valid
p263
aVbootloader_common_ota_select_valid
p264
aVbootloader_common_select_otadata
p265
atp266
a(L735741265L
L0L
(lp267
(lp268
tp269
atp270
sI1074240776
(Vprocess_image_header
p271
(lp272
(L3301900732L
L2218577417L
(lp273
(lp274
Vmemset
p275
aVbootloader_flash_read
p276
atp277
a(L3020204L
L0L
(lp278
(lp279
tp280
a(L4205021202L
L0L
(lp281
(lp282
tp283
a(L321261932L
L0L
(lp284
(lp285
tp286
a(L1161397362L
L3785322319L
(lp287
(lp288
Vbootloader_sha256_start
p289
atp290
a(L2062774299L
L3785322319L
(lp291
(lp292
Vbootloader_sha256_data
p293
atp294
a(L1291118193L
L0L
(lp295
(lp296
tp297
a(L3028481L
L0L
(lp298
(lp299
tp300
a(L559062533L
L3187408090L
(lp301
(lp302
Vesp_log_early_timestamp
p303
atp304
a(L147213506L
L1443213481L
(lp305
(lp306
tp307
a(L2983970029L
L0L
(lp308
(lp309
tp310
a(L4235213884L
L3785322319L
(lp311
(lp312
Vbootloader_common_check_chip_validity
p313
atp314
a(L4144303915L
L0L
(lp315
(lp316
tp317
a(L3028481L
L0L
(lp318
(lp319
tp320
a(L3714328738L
L3187408090L
(lp321
(lp322
Vesp_log_early_timestamp
p323
atp324
a(L2852701393L
L0L
(lp325
(lp326
tp327
a(L2122516551L
L0L
(lp328
(lp329
tp330
a(L3064492592L
L0L
(lp331
(lp332
tp333
atp334
sI1074234644
(Vesp_flash_encryption_enabled
p335
(lp336
(L376617603L
L3785322319L
(lp337
(lp338
Vefuse_hal_flash_encryption_enabled
p339
atp340
atp341
sI1074236688
(Vefuse_hal_get_major_chip_version
p342
(lp343
(L1572156932L
L2195759072L
(lp344
(lp345
tp346
a(L894792960L
L0L
(lp347
(lp348
tp349
a(L724635033L
L0L
(lp350
(lp351
tp352
a(L3360570486L
L0L
(lp353
(lp354
tp355
atp356
sI1074240528
(V__assert_func
p357
(lp358
(L3115292802L
L2195759072L
(lp359
(lp360
tp361
a(L106L
L0L
(lp362
(lp363
tp364
atp365
sI1074245136
(Vrtc_clk_fast_src_get
p366
(lp367
(L2217920473L
L1443213481L
(lp368
(lp369
tp370
atp371
sI1074236444
(Vesp_rom_set_cpu_ticks_per_us
p372
(lp373
(L396058732L
L2195759072L
(lp374
(lp375
tp376
atp377
sI1074244124
(Vwdt_hal_write_protect_enable
p378
(lp379
(L387778158L
L0L
(lp380
(lp381
tp382
a(L4195472003L
L0L
(lp383
(lp384
tp385
a(L3360570486L
L0L
(lp386
(lp387
tp388
a(L802523425L
L0L
(lp389
(lp390
tp391
atp392
sI1074243096
(Vwdt_hal_init
p393
(lp394
(L1845705415L
L242900614L
(lp395
(lp396
Vmemset
p397
atp398
a(L106L
L0L
(lp399
(lp400
tp401
a(L147213506L
L1443213481L
(lp402
(lp403
tp404
a(L3076988543L
L0L
(lp405
(lp406
tp407
a(L746843176L
L3294285696L
(lp408
(lp409
tp410
a(L3028464L
L0L
(lp411
(lp412
tp413
a(L268651496L
L1443213481L
(lp414
(lp415
tp416
a(L213928354L
L1443213481L
(lp417
(lp418
tp419
a(L1646580088L
L3294285696L
(lp420
(lp421
tp422
a(L3360570486L
L0L
(lp423
(lp424
tp425
atp426
sI1074242328
(Vimage_load
p427
(lp428
(L3048705773L
L0L
(lp429
(lp430
tp431
a(L3463713141L
L0L
(lp432
(lp433
tp434
a(L3309803581L
L0L
(lp435
(lp436
tp437
a(L256049682L
L0L
(lp438
(lp439
tp440
a(L1935188817L
L0L
(lp441
(lp442
tp443
a(L3028481L
L0L
(lp444
(lp445
tp446
a(L3021749L
L0L
(lp447
(lp448
tp449
a(L106L
L0L
(lp450
(lp451
tp452
a(L585264737L
L0L
(lp453
(lp454
tp455
a(L1145291904L
L3785322319L
(lp456
(lp457
Vprocess_image_header
p458
atp459
a(L823859500L
L0L
(lp460
(lp461
tp462
a(L3061291474L
L0L
(lp463
(lp464
tp465
a(L4106474008L
L3785322319L
(lp466
(lp467
Vprocess_segments
p468
atp469
a(L3868840998L
L0L
(lp470
(lp471
tp472
a(L2962085561L
L1443213481L
(lp473
(lp474
tp475
a(L1827898452L
L3785322319L
(lp476
(lp477
Vprocess_checksum
p478
atp479
a(L2214715179L
L3785322319L
(lp480
(lp481
Vprocess_appended_hash_and_sig
p482
atp483
a(L3028481L
L0L
(lp484
(lp485
tp486
a(L2902417580L
L0L
(lp487
(lp488
tp489
a(L3285560995L
L3785322319L
(lp490
(lp491
Vbootloader_sha256_finish
p492
atp493
a(L3946560000L
L0L
(lp494
(lp495
tp496
a(L93674324L
L0L
(lp497
(lp498
tp499
a(L2674734805L
L2195759072L
(lp500
(lp501
tp502
a(L1168805591L
L1443213481L
(lp503
(lp504
tp505
a(L1179424413L
L0L
(lp506
(lp507
tp508
a(L3928150917L
L0L
(lp509
(lp510
tp511
a(L106L
L0L
(lp512
(lp513
tp514
a(L3871473710L
L0L
(lp515
(lp516
tp517
a(L3884726427L
L0L
(lp518
(lp519
tp520
a(L106L
L0L
(lp521
(lp522
tp523
a(L3020187L
L0L
(lp524
(lp525
tp526
a(L1337906930L
L3187408090L
(lp527
(lp528
Vesp_log_early_timestamp
p529
atp530
a(L2868044067L
L0L
(lp531
(lp532
tp533
a(L1179764900L
L0L
(lp534
(lp535
tp536
a(L2332746046L
L3785322319L
(lp537
(lp538
Vbootloader_sha256_finish
p539
atp540
a(L3721568057L
L242900614L
(lp541
(lp542
Vmemset
p543
atp544
a(L3020204L
L0L
(lp545
(lp546
tp547
a(L3039742375L
L1443213481L
(lp548
(lp549
tp550
a(L106L
L0L
(lp551
(lp552
tp553
a(L3307179591L
L2839326997L
(lp554
(lp555
Vmemset
p556
aVbootloader_sha256_finish
p557
aVbootloader_debug_buffer
p558
aVmemcmp
p559
atp560
a(L3433271982L
L2266857161L
(lp561
(lp562
Vesp_log_early_timestamp
p563
aVbootloader_debug_buffer
p564
atp565
a(L3741653406L
L3785322319L
(lp566
(lp567
Vshould_load
p568
atp569
a(L2764257181L
L0L
(lp570
(lp571
tp572
a(L3338774213L
L0L
(lp573
(lp574
tp575
a(L193456747L
L1443213481L
(lp576
(lp577
tp578
a(L3349572949L
L0L
(lp579
(lp580
tp581
a(L2192292519L
L0L
(lp582
(lp583
tp584
a(L106L
L0L
(lp585
(lp586
tp587
a(L1702191967L
L1443213481L
(lp588
(lp589
tp590
a(L1299866312L
L0L
(lp591
(lp592
tp593
a(L3010020263L
L0L
(lp594
(lp595
tp596
atp597
sI1074236952
(Vbootloader_common_check_chip_validity
p598
(lp599
(L2080115690L
L0L
(lp600
(lp601
tp602
a(L3255759481L
L3187408090L
(lp603
(lp604
Vesp_log_early_timestamp
p605
atp606
a(L1299867982L
L0L
(lp607
(lp608
tp609
a(L3360570486L
L0L
(lp610
(lp611
tp612
a(L521940037L
L3785322319L
(lp613
(lp614
Vefuse_hal_chip_revision
p615
atp616
a(L332291457L
L1443213481L
(lp617
(lp618
tp619
a(L780168284L
L362179215L
(lp620
(lp621
Vesp_log_early_timestamp
p622
atp623
a(L3028464L
L0L
(lp624
(lp625
tp626
a(L573448730L
L0L
(lp627
(lp628
tp629
a(L106L
L0L
(lp630
(lp631
tp632
a(L3027019L
L0L
(lp633
(lp634
tp635
a(L106L
L0L
(lp636
(lp637
tp638
a(L3212356251L
L3785322319L
(lp639
(lp640
Vefuse_hal_get_disable_wafer_version_major
p641
atp642
a(L2465410698L
L362179215L
(lp643
(lp644
Vesp_log_early_timestamp
p645
atp646
atp647
sI1074269480
(Vbootloader_config_wdt
p648
(lp649
(L3447475412L
L603716358L
(lp650
(lp651
Vwdt_hal_write_protect_disable
p652
aVwdt_hal_set_flashboot_en
p653
aVwdt_hal_write_protect_enable
p654
aVwdt_hal_init
p655
aVrtc_clk_slow_freq_get_hz
p656
aVwdt_hal_write_protect_disable
p657
aV__udivdi3
p658
aVwdt_hal_config_stage
p659
aVwdt_hal_enable
p660
aVwdt_hal_write_protect_enable
p661
aVwdt_hal_write_protect_disable
p662
aVwdt_hal_set_flashboot_en
p663
aVwdt_hal_write_protect_enable
p664
atp665
atp666
sI1074244900
(Vrtc_clk_slow_src_set
p667
(lp668
(L585347011L
L2195759072L
(lp669
(lp670
tp671
a(L3020187L
L0L
(lp672
(lp673
tp674
a(L3028481L
L0L
(lp675
(lp676
tp677
a(L487821223L
L0L
(lp678
(lp679
tp680
a(L4271877108L
L1443213481L
(lp681
(lp682
tp683
a(L1851908495L
L0L
(lp684
(lp685
tp686
a(L1099319264L
L1443213481L
(lp687
(lp688
tp689
a(L3138544334L
L0L
(lp690
(lp691
tp692
a(L94425498L
L3785322319L
(lp693
(lp694
Vabort
p695
atp696
atp697
sI1074267948
(Vbootloader_init
p698
(lp699
(L2778985116L
L362179215L
(lp700
(lp701
Vbootloader_init_mem
p702
atp703
a(L2588916198L
L2195759072L
(lp704
(lp705
tp706
a(L2569579240L
L242900614L
(lp707
(lp708
V__assert_func
p709
atp710
a(L2041988382L
L2534110409L
(lp711
(lp712
tp713
a(L2946990947L
L2195759072L
(lp714
(lp715
tp716
a(L3813782018L
L0L
(lp717
(lp718
tp719
a(L2946991009L
L2195759072L
(lp720
(lp721
tp722
a(L3027019L
L0L
(lp723
(lp724
tp725
a(L2946991040L
L2195759072L
(lp726
(lp727
tp728
a(L4055793689L
L1832448559L
(lp729
(lp730
Vbootloader_clear_bss_section
p731
aVbootloader_common_vddsdio_configure
p732
aVbootloader_clock_get_rated_freq_mhz
p733
atp734
a(L106L
L0L
(lp735
(lp736
tp737
a(L1943573098L
L2769615034L
(lp738
(lp739
Vbootloader_clock_configure
p740
aVbootloader_console_init
p741
aVbootloader_print_banner
p742
aVbootloader_flash_update_id
p743
aVbootloader_flash_xmc_startup
p744
atp745
a(L3014296803L
L3187408090L
(lp746
(lp747
Vesp_log_early_timestamp
p748
atp749
a(L4245842452L
L3187408090L
(lp750
(lp751
Vesp_log_early_timestamp
p752
atp753
a(L3360570486L
L0L
(lp754
(lp755
tp756
a(L2444883382L
L3785322319L
(lp757
(lp758
Vbootloader_read_bootloader_header
p759
atp760
a(L2444883382L
L3785322319L
(lp761
(lp762
Vbootloader_check_bootloader_validity
p763
atp764
a(L2444883382L
L3785322319L
(lp765
(lp766
Vbootloader_init_spi_flash
p767
atp768
a(L1947007263L
L2195759072L
(lp769
(lp770
tp771
a(L254817508L
L0L
(lp772
(lp773
tp774
a(L93892250L
L0L
(lp775
(lp776
tp777
a(L2915015718L
L0L
(lp778
(lp779
tp780
a(L1460895057L
L2218577417L
(lp781
(lp782
Vbootloader_config_wdt
p783
aVbootloader_enable_random
p784
atp785
a(L1895147938L
L0L
(lp786
(lp787
tp788
a(L2680457259L
L0L
(lp789
(lp790
tp791
a(L3027019L
L0L
(lp792
(lp793
tp794
a(L97315L
L0L
(lp795
(lp796
tp797
a(L3014296803L
L3187408090L
(lp798
(lp799
Vesp_log_early_timestamp
p800
atp801
a(L1766563386L
L3187408090L
(lp802
(lp803
Vesp_log_early_timestamp
p804
atp805
a(L3164960223L
L0L
(lp806
(lp807
tp808
a(L1895147938L
L0L
(lp809
(lp810
tp811
a(L156585483L
L1880226080L
(lp812
(lp813
Vwdt_reset_info_dump
p814
aVwdt_reset_info_dump
p815
atp816
atp817
sI1074268460
(Vbootloader_common_vddsdio_configure
p818
(lp819
(L1829974089L
L3785322319L
(lp820
(lp821
Vrtc_vddsdio_get_config
p822
atp823
a(L351649043L
L3833084538L
(lp824
(lp825
Vrtc_vddsdio_set_config
p826
atp827
a(L3360570486L
L0L
(lp828
(lp829
tp830
atp831
sI1074234656
(Vbootloader_flash_execute_command_common
p832
(lp833
(L1988465817L
L0L
(lp834
(lp835
tp836
a(L2946944720L
L2195759072L
(lp837
(lp838
tp839
a(L2213948952L
L242900614L
(lp840
(lp841
V__assert_func
p842
atp843
a(L3021749L
L0L
(lp844
(lp845
tp846
a(L1160973241L
L2195759072L
(lp847
(lp848
tp849
a(L2792673601L
L1679261929L
(lp850
(lp851
tp852
a(L3792188146L
L0L
(lp853
(lp854
tp855
a(L4024113366L
L0L
(lp856
(lp857
tp858
a(L3275299125L
L1443213481L
(lp859
(lp860
tp861
a(L2232084959L
L2534110409L
(lp862
(lp863
tp864
a(L1099389923L
L0L
(lp865
(lp866
tp867
a(L857553440L
L2195759072L
(lp868
(lp869
tp870
a(L3877681344L
L0L
(lp871
(lp872
tp873
a(L73134175L
L1443213481L
(lp874
(lp875
tp876
a(L1270255739L
L0L
(lp877
(lp878
tp879
a(L3691039583L
L0L
(lp880
(lp881
tp882
a(L3411317116L
L0L
(lp883
(lp884
tp885
a(L3360570486L
L0L
(lp886
(lp887
tp888
atp889
sI1074245152
(Vrtc_clk_xtal_freq_get
p890
(lp891
(L3313072792L
L1443213481L
(lp892
(lp893
tp894
a(L2847936993L
L0L
(lp895
(lp896
tp897
a(L2252934062L
L1443213481L
(lp898
(lp899
tp900
a(L3360570486L
L0L
(lp901
(lp902
tp903
atp904
sI1074247200
(Vesp_rom_spiflash_program_page_internal
p905
(lp906
(L2569069283L
L0L
(lp907
(lp908
tp909
a(L2258688483L
L0L
(lp910
(lp911
tp912
a(L3360570486L
L0L
(lp913
(lp914
tp915
a(L2295540031L
L1443213481L
(lp916
(lp917
tp918
a(L4235661475L
L3785322319L
(lp919
(lp920
Vesp_rom_spiflash_wait_idle
p921
atp922
a(L1299866312L
L0L
(lp923
(lp924
tp925
a(L3212356251L
L3785322319L
(lp926
(lp927
Vesp_rom_spiflash_enable_write
p928
atp929
a(L1834262847L
L2195759072L
(lp930
(lp931
tp932
a(L633937013L
L1443213481L
(lp933
(lp934
tp935
a(L2953702749L
L0L
(lp936
(lp937
tp938
a(L2989032L
L0L
(lp939
(lp940
tp941
a(L1965622133L
L0L
(lp942
(lp943
tp944
a(L809386272L
L2195759072L
(lp945
(lp946
tp947
a(L1958113242L
L0L
(lp948
(lp949
tp950
a(L106L
L0L
(lp951
(lp952
tp953
a(L3112950080L
L0L
(lp954
(lp955
tp956
a(L1868606439L
L0L
(lp957
(lp958
tp959
a(L147213506L
L1443213481L
(lp960
(lp961
tp962
a(L1933954923L
L0L
(lp963
(lp964
tp965
a(L1147866918L
L0L
(lp966
(lp967
tp968
a(L3871602522L
L0L
(lp969
(lp970
tp971
atp972
sI1074241580
(Vshould_load
p973
(lp974
(L4190720747L
L2534110409L
(lp975
(lp976
tp977
a(L1182990556L
L0L
(lp978
(lp979
tp980
a(L1744532171L
L1443213481L
(lp981
(lp982
tp983
a(L2306467100L
L0L
(lp984
(lp985
tp986
a(L4034276159L
L1443213481L
(lp987
(lp988
tp989
a(L2258897019L
L0L
(lp990
(lp991
tp992
a(L3781799363L
L0L
(lp993
(lp994
tp995
a(L3028464L
L0L
(lp996
(lp997
tp998
a(L166133047L
L2195759072L
(lp999
(lp1000
tp1001
a(L4277114872L
L0L
(lp1002
(lp1003
tp1004
a(L2824381917L
L0L
(lp1005
(lp1006
tp1007
a(L1243412227L
L0L
(lp1008
(lp1009
tp1010
a(L2011157548L
L0L
(lp1011
(lp1012
tp1013
a(L3126521138L
L0L
(lp1014
(lp1015
tp1016
a(L1305407438L
L0L
(lp1017
(lp1018
tp1019
a(L1305407469L
L0L
(lp1020
(lp1021
tp1022
atp1023
sI1074235180
(Vbootloader_flash_unlock
p1024
(lp1025
(L1368360454L
L242900614L
(lp1026
(lp1027
Vesp_rom_spiflash_wait_idle
p1028
atp1029
a(L1574074940L
L0L
(lp1030
(lp1031
tp1032
a(L1667462067L
L3785322319L
(lp1033
(lp1034
Vbootloader_execute_flash_command
p1035
atp1036
a(L106L
L0L
(lp1037
(lp1038
tp1039
a(L1013678540L
L0L
(lp1040
(lp1041
tp1042
a(L2529045083L
L0L
(lp1043
(lp1044
tp1045
a(L990750093L
L1832448559L
(lp1046
(lp1047
Vesp_rom_spiflash_wait_idle
p1048
aVbootloader_execute_flash_command
p1049
aVbootloader_execute_flash_command
p1050
atp1051
a(L993671302L
L1832448559L
(lp1052
(lp1053
Vesp_rom_spiflash_wait_idle
p1054
aVbootloader_execute_flash_command
p1055
aVbootloader_execute_flash_command
p1056
atp1057
a(L1209048744L
L1880226080L
(lp1058
(lp1059
Vesp_rom_spiflash_wait_idle
p1060
aVbootloader_execute_flash_command
p1061
atp1062
a(L3162775668L
L0L
(lp1063
(lp1064
tp1065
a(L2435612105L
L0L
(lp1066
(lp1067
tp1068
a(L3664359624L
L0L
(lp1069
(lp1070
tp1071
a(L2074930120L
L1880226080L
(lp1072
(lp1073
Vbootloader_execute_flash_command
p1074
aVbootloader_execute_flash_command
p1075
atp1076
a(L2125014318L
L0L
(lp1077
(lp1078
tp1079
a(L568821667L
L0L
(lp1080
(lp1081
tp1082
a(L1711531685L
L1880226080L
(lp1083
(lp1084
Vbootloader_execute_flash_command
p1085
aVbootloader_execute_flash_command
p1086
atp1087
a(L3658700047L
L0L
(lp1088
(lp1089
tp1090
a(L3269997774L
L0L
(lp1091
(lp1092
tp1093
a(L106L
L0L
(lp1094
(lp1095
tp1096
a(L2993202392L
L0L
(lp1097
(lp1098
tp1099
atp1100
sI1074236460
(Vesp_rom_uart_tx_wait_idle
p1101
(lp1102
(L3110839460L
L2534110409L
(lp1103
(lp1104
tp1105
a(L1301079727L
L0L
(lp1106
(lp1107
tp1108
a(L597952197L
L0L
(lp1109
(lp1110
tp1111
a(L1971823332L
L0L
(lp1112
(lp1113
tp1114
a(L3055926844L
L0L
(lp1115
(lp1116
tp1117
a(L3360570486L
L0L
(lp1118
(lp1119
tp1120
a(L3694491048L
L0L
(lp1121
(lp1122
tp1123
a(L106L
L0L
(lp1124
(lp1125
tp1126
atp1127
sI1074238760
(Vcache_ll_l1_enable_bus
p1128
(lp1129
(L318252209L
L1443213481L
(lp1130
(lp1131
tp1132
atp1133
sI1074240552
(Vabort
p1134
(lp1135
(L2564459292L
L1690040256L
(lp1136
(lp1137
tp1138
a(L409471316L
L0L
(lp1139
(lp1140
tp1141
a(L106L
L0L
(lp1142
(lp1143
tp1144
atp1145
sI1074238516
(Vbootloader_clock_get_rated_freq_mhz
p1146
(lp1147
(L376617603L
L3785322319L
(lp1148
(lp1149
Vefuse_hal_get_rated_freq_mhz
p1150
atp1151
atp1152
sI1074269244
(Vbootloader_flash_update_id
p1153
(lp1154
(L296988142L
L3833084538L
(lp1155
(lp1156
Vbootloader_read_flash_id
p1157
atp1158
atp1159
sI1074237232
(Vbootloader_common_ota_select_invalid
p1160
(lp1161
(L4027567199L
L0L
(lp1162
(lp1163
tp1164
a(L3397985842L
L0L
(lp1165
(lp1166
tp1167
a(L2258867228L
L0L
(lp1168
(lp1169
tp1170
a(L3785235668L
L0L
(lp1171
(lp1172
tp1173
atp1174
sI1074245424
(Vrtc_clk_xtal_freq_update
p1175
(lp1176
(L3023525581L
L2195759072L
(lp1177
(lp1178
tp1179
a(L3509357017L
L0L
(lp1180
(lp1181
tp1182
a(L2266180931L
L0L
(lp1183
(lp1184
tp1185
atp1186
sI1074240316
(Vbootloader_sha256_finish
p1187
(lp1188
(L4066096136L
L0L
(lp1189
(lp1190
tp1191
a(L1697654722L
L2195759072L
(lp1192
(lp1193
tp1194
a(L2213948952L
L242900614L
(lp1195
(lp1196
V__assert_func
p1197
atp1198
a(L3020204L
L0L
(lp1199
(lp1200
tp1201
a(L2888288470L
L2534110409L
(lp1202
(lp1203
tp1204
a(L2534656226L
L0L
(lp1205
(lp1206
tp1207
a(L2740629735L
L4171435875L
(lp1208
(lp1209
Vbootloader_sha256_data
p1210
atp1211
a(L2946948570L
L2195759072L
(lp1212
(lp1213
tp1214
a(L354914383L
L2790500905L
(lp1215
(lp1216
V__bswapsi2
p1217
aVbootloader_sha256_data
p1218
atp1219
a(L2946948756L
L2195759072L
(lp1220
(lp1221
tp1222
a(L657425439L
L0L
(lp1223
(lp1224
tp1225
a(L4173600236L
L1443213481L
(lp1226
(lp1227
tp1228
a(L657425439L
L0L
(lp1229
(lp1230
tp1231
a(L2046284480L
L2195759072L
(lp1232
(lp1233
tp1234
a(L3616504601L
L4171435875L
(lp1235
(lp1236
V__bswapsi2
p1237
atp1238
a(L3347778L
L0L
(lp1239
(lp1240
tp1241
a(L3360570486L
L0L
(lp1242
(lp1243
tp1244
atp1245
sI1074244152
(Vwdt_hal_enable
p1246
(lp1247
(L2299130915L
L0L
(lp1248
(lp1249
tp1250
a(L165794138L
L0L
(lp1251
(lp1252
tp1253
a(L3360570486L
L0L
(lp1254
(lp1255
tp1256
a(L2847657174L
L0L
(lp1257
(lp1258
tp1259
atp1260
sI1074244664
(Vrtc_clk_32k_enable
p1261
(lp1262
(L753387299L
L0L
(lp1263
(lp1264
tp1265
a(L3776007933L
L3785322319L
(lp1266
(lp1267
Vrtc_clk_32k_enable_common
p1268
atp1269
a(L3496950L
L0L
(lp1270
(lp1271
tp1272
a(L707626330L
L2534110409L
(lp1273
(lp1274
tp1275
atp1276
sI1074239812
(Vbootloader_reset
p1277
(lp1278
(L479276581L
L2147981551L
(lp1279
(lp1280
Vbootloader_console_deinit
p1281
atp1282
a(L106L
L0L
(lp1283
(lp1284
tp1285
atp1286
sI1074235716
(Vbootloader_flash_cs_timing_config
p1287
(lp1288
(L1222249594L
L1690040256L
(lp1289
(lp1290
tp1291
atp1292
sI1074267724
(Vwdt_reset_info_dump
p1293
(lp1294
(L4037458708L
L0L
(lp1295
(lp1296
tp1297
a(L2865144428L
L4200222560L
(lp1298
(lp1299
tp1300
a(L217258670L
L0L
(lp1301
(lp1302
tp1303
a(L1103285333L
L0L
(lp1304
(lp1305
tp1306
a(L3750088731L
L2147981551L
(lp1307
(lp1308
Vesp_log_early_timestamp
p1309
atp1310
a(L3245125974L
L1443213481L
(lp1311
(lp1312
tp1313
a(L2920131454L
L4200222560L
(lp1314
(lp1315
tp1316
a(L3355528239L
L2147981551L
(lp1317
(lp1318
Vesp_log_early_timestamp
p1319
atp1320
atp1321
sI1074268748
(Vbootloader_init_mem
p1322
(lp1323
(L1287383080L
L3785322319L
(lp1324
(lp1325
Vesp_cpu_configure_region_protection
p1326
atp1327
atp1328
sI1074269260
(Vbootloader_init_spi_flash
p1329
(lp1330
(L3803003058L
L2890501274L
(lp1331
(lp1332
Vbootloader_flash_gpio_config
p1333
aVbootloader_flash_dummy_config
p1334
aVbootloader_flash_cs_timing_config
p1335
aVbootloader_flash_unlock
p1336
aVbootloader_flash_get_spi_mode
p1337
atp1338
a(L93674324L
L0L
(lp1339
(lp1340
tp1341
a(L3422553167L
L0L
(lp1342
(lp1343
tp1344
a(L1707909459L
L0L
(lp1345
(lp1346
tp1347
a(L1038322988L
L0L
(lp1348
(lp1349
tp1350
a(L3944678822L
L2082837423L
(lp1351
(lp1352
Vbootloader_enable_wp
p1353
atp1354
a(L3907331784L
L0L
(lp1355
(lp1356
tp1357
atp1358
sI1074238528
(Vlog_invalid_app_partition
p1359
(lp1360
(L2157385331L
L2195759072L
(lp1361
(lp1362
tp1363
a(L3028464L
L0L
(lp1364
(lp1365
tp1366
a(L1760520779L
L3833084538L
(lp1367
(lp1368
Vesp_log_early_timestamp
p1369
atp1370
a(L4207910112L
L1443213481L
(lp1371
(lp1372
tp1373
a(L3360570486L
L0L
(lp1374
(lp1375
tp1376
a(L3212513603L
L3833084538L
(lp1377
(lp1378
Vesp_log_early_timestamp
p1379
atp1380
a(L431938678L
L2147981551L
(lp1381
(lp1382
Vesp_log_early_timestamp
p1383
atp1384
atp1385
sI1074239552
(Vbootloader_utility_get_selected_boot_partition
p1386
(lp1387
(L2938832293L
L0L
(lp1388
(lp1389
tp1390
a(L2250662613L
L1443213481L
(lp1391
(lp1392
tp1393
a(L3987062097L
L2147981551L
(lp1394
(lp1395
Vesp_log_early_timestamp
p1396
atp1397
a(L558289164L
L1443213481L
(lp1398
(lp1399
tp1400
a(L3360570486L
L0L
(lp1401
(lp1402
tp1403
a(L3118387733L
L3785322319L
(lp1404
(lp1405
Vbootloader_mmap
p1406
atp1407
a(L3080008394L
L2147981551L
(lp1408
(lp1409
Vesp_log_early_timestamp
p1410
atp1411
a(L937961821L
L2410515468L
(lp1412
(lp1413
Vmemcpy
p1414
aVmemcpy
p1415
aVbootloader_munmap
p1416
aVbootloader_common_ota_select_invalid
p1417
atp1418
a(L2911028409L
L0L
(lp1419
(lp1420
tp1421
a(L726746649L
L3785322319L
(lp1422
(lp1423
Vbootloader_common_get_active_otadata
p1424
atp1425
a(L4179097382L
L0L
(lp1426
(lp1427
tp1428
a(L3111084448L
L3785322319L
(lp1429
(lp1430
Vbootloader_common_ota_select_invalid
p1431
atp1432
a(L2793942993L
L0L
(lp1433
(lp1434
tp1435
a(L1043744473L
L0L
(lp1436
(lp1437
tp1438
a(L2302032704L
L0L
(lp1439
(lp1440
tp1441
a(L1173788779L
L3785322319L
(lp1442
(lp1443
Vbootloader_common_ota_select_crc
p1444
atp1445
a(L178397698L
L1443213481L
(lp1446
(lp1447
tp1448
a(L1324800084L
L3785322319L
(lp1449
(lp1450
Vbootloader_common_ota_select_crc
p1451
atp1452
a(L1299866312L
L0L
(lp1453
(lp1454
tp1455
a(L3005064543L
L1443213481L
(lp1456
(lp1457
tp1458
a(L1522345576L
L3833084538L
(lp1459
(lp1460
Vesp_log_early_timestamp
p1461
atp1462
a(L4207910112L
L1443213481L
(lp1463
(lp1464
tp1465
a(L1641201884L
L0L
(lp1466
(lp1467
tp1468
a(L1194215008L
L3833084538L
(lp1469
(lp1470
Vesp_log_early_timestamp
p1471
atp1472
atp1473
sI1074237260
(Vbootloader_common_select_otadata
p1474
(lp1475
(L4071767857L
L0L
(lp1476
(lp1477
tp1478
a(L1999329187L
L0L
(lp1479
(lp1480
tp1481
a(L3846398843L
L0L
(lp1482
(lp1483
tp1484
a(L2501968171L
L0L
(lp1485
(lp1486
tp1487
a(L3360570486L
L0L
(lp1488
(lp1489
tp1490
a(L2045232488L
L0L
(lp1491
(lp1492
tp1493
a(L1243525916L
L0L
(lp1494
(lp1495
tp1496
a(L3094144427L
L0L
(lp1497
(lp1498
tp1499
a(L2399509845L
L0L
(lp1500
(lp1501
tp1502
a(L1641201884L
L0L
(lp1503
(lp1504
tp1505
atp1506
sI1074240076
(Vindex_to_partition
p1507
(lp1508
(L4066096119L
L0L
(lp1509
(lp1510
tp1511
a(L1101255660L
L0L
(lp1512
(lp1513
tp1514
a(L1955702725L
L0L
(lp1515
(lp1516
tp1517
a(L3698927993L
L0L
(lp1518
(lp1519
tp1520
a(L2808906342L
L0L
(lp1521
(lp1522
tp1523
a(L4211744375L
L0L
(lp1524
(lp1525
tp1526
a(L3097778015L
L0L
(lp1527
(lp1528
tp1529
a(L1816235430L
L0L
(lp1530
(lp1531
tp1532
a(L2179185678L
L0L
(lp1533
(lp1534
tp1535
a(L3369319173L
L0L
(lp1536
(lp1537
tp1538
atp1539
sI1074245192
(Vrtc_clk_cpu_freq_mhz_to_config
p1540
(lp1541
(L908718885L
L3785322319L
(lp1542
(lp1543
Vrtc_clk_xtal_freq_get
p1544
atp1545
a(L60460069L
L0L
(lp1546
(lp1547
tp1548
a(L3802072124L
L0L
(lp1549
(lp1550
tp1551
a(L3159006042L
L0L
(lp1552
(lp1553
tp1554
a(L3360570486L
L0L
(lp1555
(lp1556
tp1557
a(L895147205L
L0L
(lp1558
(lp1559
tp1560
a(L3970036657L
L0L
(lp1561
(lp1562
tp1563
a(L2731353429L
L0L
(lp1564
(lp1565
tp1566
a(L1555485793L
L0L
(lp1567
(lp1568
tp1569
a(L2258897023L
L0L
(lp1570
(lp1571
tp1572
a(L1947499251L
L0L
(lp1573
(lp1574
tp1575
a(L1306331021L
L0L
(lp1576
(lp1577
tp1578
atp1579
sI1074270552
(Vmpu_hal_set_region_access
p1580
(lp1581
(L3538356822L
L0L
(lp1582
(lp1583
tp1584
a(L93674324L
L0L
(lp1585
(lp1586
tp1587
a(L2910371777L
L0L
(lp1588
(lp1589
tp1590
a(L3472092938L
L0L
(lp1591
(lp1592
tp1593
a(L3020187L
L0L
(lp1594
(lp1595
tp1596
a(L3360570486L
L0L
(lp1597
(lp1598
tp1599
a(L2258718273L
L0L
(lp1600
(lp1601
tp1602
a(L3446648619L
L0L
(lp1603
(lp1604
tp1605
a(L3739532189L
L0L
(lp1606
(lp1607
tp1608
a(L1300789895L
L0L
(lp1609
(lp1610
tp1611
atp1612
sI1074236756
(Vefuse_hal_get_minor_chip_version
p1613
(lp1614
(L2292056065L
L1443213481L
(lp1615
(lp1616
tp1617
atp1618
sI1074248532
(V_fini
p1619
(lp1620
(L3493042598L
L0L
(lp1621
(lp1622
tp1623
atp1624
sI1074270544
(Vbootloader_print_banner
p1625
(lp1626
(L2100504542L
L0L
(lp1627
(lp1628
tp1629
atp1630
sI1074238044
(Vbootloader_enable_wp
p1631
(lp1632
(L1117825804L
L3785322319L
(lp1633
(lp1634
Vbootloader_execute_flash_command
p1635
atp1636
atp1637
sI1074238812
(Vcache_ll_l1_enable_bus
p1638
(lp1639
(L318252209L
L1443213481L
(lp1640
(lp1641
tp1642
atp1643
sI1074239836
(Vbootloader_utility_load_boot_image
p1644
(lp1645
(L421993435L
L242900614L
(lp1646
(lp1647
Vmemset
p1648
atp1649
a(L2177418995L
L3785322319L
(lp1650
(lp1651
Vtry_load_partition
p1652
atp1653
a(L1305243774L
L3785322319L
(lp1654
(lp1655
Vload_image
p1656
atp1657
a(L4114459891L
L3187408090L
(lp1658
(lp1659
Vesp_log_early_timestamp
p1660
atp1661
a(L3827921190L
L3785322319L
(lp1662
(lp1663
Vbootloader_reset
p1664
atp1665
a(L1953693036L
L3785322319L
(lp1666
(lp1667
Vindex_to_partition
p1668
atp1669
a(L1204373741L
L3785322319L
(lp1670
(lp1671
Vtry_load_partition
p1672
atp1673
a(L1899865696L
L0L
(lp1674
(lp1675
tp1676
a(L2695355117L
L3785322319L
(lp1677
(lp1678
Vset_actual_ota_seq
p1679
atp1680
a(L1868897605L
L3785322319L
(lp1681
(lp1682
Vlog_invalid_app_partition
p1683
atp1684
a(L831650730L
L0L
(lp1685
(lp1686
tp1687
a(L3021737L
L0L
(lp1688
(lp1689
tp1690
a(L695456438L
L0L
(lp1691
(lp1692
tp1693
a(L315114854L
L3833084538L
(lp1694
(lp1695
Vtry_load_partition
p1696
atp1697
a(L89447667L
L2147981551L
(lp1698
(lp1699
Vesp_log_early_timestamp
p1700
atp1701
a(L2347390157L
L3785322319L
(lp1702
(lp1703
Vindex_to_partition
p1704
atp1705
a(L1204373741L
L3785322319L
(lp1706
(lp1707
Vtry_load_partition
p1708
atp1709
a(L3061261803L
L0L
(lp1710
(lp1711
tp1712
a(L3582858798L
L3785322319L
(lp1713
(lp1714
Vlog_invalid_app_partition
p1715
atp1716
a(L3581752791L
L2704288053L
(lp1717
(lp1718
Vesp_log_early_timestamp
p1719
aVmemset
p1720
atp1721
atp1722
sI1074244444
(Vrtc_clk_cpu_freq_to_pll_mhz
p1723
(lp1724
(L3231135830L
L0L
(lp1725
(lp1726
tp1727
a(L2102627717L
L2195759072L
(lp1728
(lp1729
tp1730
a(L2982280123L
L3380333161L
(lp1731
(lp1732
Vesp_rom_set_cpu_ticks_per_us
p1733
aVrtc_clk_wait_for_slow_cycle
p1734
atp1735
a(L708686908L
L1443213481L
(lp1736
(lp1737
tp1738
a(L3284807114L
L0L
(lp1739
(lp1740
tp1741
a(L94425498L
L3785322319L
(lp1742
(lp1743
Vabort
p1744
atp1745
a(L2258897019L
L0L
(lp1746
(lp1747
tp1748
a(L1113742378L
L0L
(lp1749
(lp1750
tp1751
a(L1306330990L
L0L
(lp1752
(lp1753
tp1754
atp1755
sI1074245468
(Vrtc_clk_apb_freq_update
p1756
(lp1757
(L3982322780L
L1443213481L
(lp1758
(lp1759
tp1760
atp1761
sI1074268756
(Vbootloader_random_enable
p1762
(lp1763
(L2397175084L
L664430240L
(lp1764
(lp1765
tp1766
atp1767
sI1074240600
(Vbootloader_ana_clock_glitch_reset_config
p1768
(lp1769
(L2100504542L
L0L
(lp1770
(lp1771
tp1772
atp1773
sI1074235480
(Vbootloader_flash_read_sfdp
p1774
(lp1775
(L711701400L
L0L
(lp1776
(lp1777
tp1778
a(L17919673L
L4032149094L
(lp1779
(lp1780
V__assert_func
p1781
atp1782
a(L3704332455L
L3785322319L
(lp1783
(lp1784
Vbootloader_flash_execute_command_common
p1785
atp1786
atp1787
sI1074247000
(Vesp_rom_spiflash_read_status
p1788
(lp1789
(L3588638125L
L1443213481L
(lp1790
(lp1791
tp1792
a(L4250092034L
L2534110409L
(lp1793
(lp1794
tp1795
a(L4159619641L
L0L
(lp1796
(lp1797
tp1798
a(L2392720019L
L0L
(lp1799
(lp1800
tp1801
a(L2258688487L
L0L
(lp1802
(lp1803
tp1804
a(L4159619145L
L0L
(lp1805
(lp1806
tp1807
a(L3241763332L
L1443213481L
(lp1808
(lp1809
tp1810
a(L3117156279L
L0L
(lp1811
(lp1812
tp1813
a(L2123059967L
L0L
(lp1814
(lp1815
tp1816
a(L582177370L
L0L
(lp1817
(lp1818
tp1819
atp1820
sI1074236772
(Vesp_dport_access_reg_read
p1821
(lp1822
(L1099794772L
L0L
(lp1823
(lp1824
tp1825
atp1826
sI1074247780
(Vesp_rom_spiflash_read
p1827
(lp1828
(L1499485309L
L1690040256L
(lp1829
(lp1830
tp1831
a(L3114780042L
L1679261929L
(lp1832
(lp1833
tp1834
a(L2860271684L
L0L
(lp1835
(lp1836
tp1837
a(L1872504408L
L1443213481L
(lp1838
(lp1839
tp1840
a(L106L
L0L
(lp1841
(lp1842
tp1843
a(L633884026L
L0L
(lp1844
(lp1845
tp1846
a(L106L
L0L
(lp1847
(lp1848
tp1849
a(L1100272902L
L1443213481L
(lp1850
(lp1851
tp1852
a(L1372101025L
L1690040256L
(lp1853
(lp1854
tp1855
a(L974197278L
L2195759072L
(lp1856
(lp1857
tp1858
a(L336550648L
L0L
(lp1859
(lp1860
tp1861
a(L3167414617L
L1443213481L
(lp1862
(lp1863
tp1864
a(L106L
L0L
(lp1865
(lp1866
tp1867
a(L3138763340L
L362179215L
(lp1868
(lp1869
Vesp_rom_spiflash_wait_idle
p1870
atp1871
a(L3021737L
L0L
(lp1872
(lp1873
tp1874
a(L106L
L0L
(lp1875
(lp1876
tp1877
a(L1868280504L
L0L
(lp1878
(lp1879
tp1880
a(L106L
L0L
(lp1881
(lp1882
tp1883
a(L750281353L
L0L
(lp1884
(lp1885
tp1886
a(L3897437082L
L0L
(lp1887
(lp1888
tp1889
a(L4122060822L
L0L
(lp1890
(lp1891
tp1892
a(L483218220L
L1443213481L
(lp1893
(lp1894
tp1895
a(L2989032L
L0L
(lp1896
(lp1897
tp1898
a(L3819849625L
L0L
(lp1899
(lp1900
tp1901
a(L1082031446L
L2195759072L
(lp1902
(lp1903
tp1904
a(L1872504408L
L1443213481L
(lp1905
(lp1906
tp1907
a(L147213506L
L1443213481L
(lp1908
(lp1909
tp1910
a(L2062799182L
L2534110409L
(lp1911
(lp1912
tp1913
a(L2921907736L
L0L
(lp1914
(lp1915
tp1916
a(L3677617742L
L1443213481L
(lp1917
(lp1918
tp1919
a(L2483025066L
L1679261929L
(lp1920
(lp1921
tp1922
a(L2136664087L
L1443213481L
(lp1923
(lp1924
tp1925
a(L3000478599L
L2195759072L
(lp1926
(lp1927
tp1928
a(L3333707777L
L0L
(lp1929
(lp1930
tp1931
a(L3251955268L
L0L
(lp1932
(lp1933
tp1934
a(L3418540920L
L0L
(lp1935
(lp1936
tp1937
a(L4183823801L
L1443213481L
(lp1938
(lp1939
tp1940
a(L97689L
L0L
(lp1941
(lp1942
tp1943
a(L2258897019L
L0L
(lp1944
(lp1945
tp1946
a(L4014024819L
L0L
(lp1947
(lp1948
tp1949
a(L3621567083L
L0L
(lp1950
(lp1951
tp1952
atp1953
sI1074240608
(Vprocess_checksum
p1954
(lp1955
(L166193219L
L242900614L
(lp1956
(lp1957
Vmemset
p1958
atp1959
a(L3028481L
L0L
(lp1960
(lp1961
tp1962
a(L186886970L
L0L
(lp1963
(lp1964
tp1965
a(L2902417580L
L0L
(lp1966
(lp1967
tp1968
a(L3028481L
L0L
(lp1969
(lp1970
tp1971
a(L169792351L
L3187408090L
(lp1972
(lp1973
Vesp_log_early_timestamp
p1974
atp1975
a(L268651496L
L1443213481L
(lp1976
(lp1977
tp1978
a(L3236648107L
L3785322319L
(lp1979
(lp1980
Vbootloader_flash_read
p1981
atp1982
a(L735741265L
L0L
(lp1983
(lp1984
tp1985
a(L3020204L
L0L
(lp1986
(lp1987
tp1988
a(L2480703612L
L3785322319L
(lp1989
(lp1990
Vbootloader_sha256_data
p1991
atp1992
a(L3436105237L
L0L
(lp1993
(lp1994
tp1995
a(L106L
L0L
(lp1996
(lp1997
tp1998
atp1999
sI1074239340
(Vbootloader_utility_load_partition_table
p2000
(lp2001
(L3128219304L
L3785322319L
(lp2002
(lp2003
Vbootloader_mmap
p2004
atp2005
a(L600602913L
L3187408090L
(lp2006
(lp2007
Vesp_log_early_timestamp
p2008
atp2009
a(L2258688482L
L0L
(lp2010
(lp2011
tp2012
a(L3360570486L
L0L
(lp2013
(lp2014
tp2015
a(L255479872L
L3785322319L
(lp2016
(lp2017
Vesp_partition_table_verify
p2018
atp2019
a(L3613202002L
L0L
(lp2020
(lp2021
tp2022
a(L97642L
L0L
(lp2023
(lp2024
tp2025
a(L4248828323L
L3785322319L
(lp2026
(lp2027
Vbootloader_munmap
p2028
atp2029
a(L3014296803L
L3187408090L
(lp2030
(lp2031
Vesp_log_early_timestamp
p2032
atp2033
a(L3927622121L
L0L
(lp2034
(lp2035
tp2036
a(L3020187L
L0L
(lp2037
(lp2038
tp2039
a(L1532853611L
L0L
(lp2040
(lp2041
tp2042
a(L1036489382L
L0L
(lp2043
(lp2044
tp2045
a(L3020187L
L0L
(lp2046
(lp2047
tp2048
a(L2997988170L
L0L
(lp2049
(lp2050
tp2051
a(L529263765L
L0L
(lp2052
(lp2053
tp2054
a(L775434204L
L0L
(lp2055
(lp2056
tp2057
a(L3579705151L
L0L
(lp2058
(lp2059
tp2060
a(L2387139071L
L0L
(lp2061
(lp2062
tp2063
a(L1599920163L
L0L
(lp2064
(lp2065
tp2066
atp2067
sI1074268516
(Vbootloader_clock_configure
p2068
(lp2069
(L2559598596L
L1880226080L
(lp2070
(lp2071
Vesp_rom_uart_tx_wait_idle
p2072
aVefuse_hal_chip_revision
p2073
atp2074
a(L1757625900L
L1443213481L
(lp2075
(lp2076
tp2077
a(L741498227L
L1443213481L
(lp2078
(lp2079
tp2080
a(L106L
L0L
(lp2081
(lp2082
tp2083
a(L4228321918L
L1405109379L
(lp2084
(lp2085
Vrtc_clk_slow_src_get
p2086
aVrtc_clk_fast_src_get
p2087
aVrtc_clk_init
p2088
atp2089
a(L2538867838L
L2195759072L
(lp2090
(lp2091
tp2092
a(L1038013235L
L3833084538L
(lp2093
(lp2094
Vrtc_clk_apb_freq_get
p2095
atp2096
a(L106L
L0L
(lp2097
(lp2098
tp2099
a(L106L
L0L
(lp2100
(lp2101
tp2102
atp2103
sI1074247528
(Vesp_rom_spiflash_write
p2104
(lp2105
(L924384987L
L1679261929L
(lp2106
(lp2107
tp2108
a(L2258688483L
L0L
(lp2109
(lp2110
tp2111
a(L3360570486L
L0L
(lp2112
(lp2113
tp2114
a(L3368132847L
L0L
(lp2115
(lp2116
tp2117
a(L3106685981L
L0L
(lp2118
(lp2119
tp2120
a(L3488660639L
L3785322319L
(lp2121
(lp2122
Vesp_rom_spiflash_program_page_internal
p2123
atp2124
a(L3543402353L
L3785322319L
(lp2125
(lp2126
Vesp_rom_spiflash_program_page_internal
p2127
atp2128
a(L4222526342L
L0L
(lp2129
(lp2130
tp2131
a(L2004208511L
L0L
(lp2132
(lp2133
tp2134
a(L564470656L
L0L
(lp2135
(lp2136
tp2137
a(L441922648L
L3785322319L
(lp2138
(lp2139
Vesp_rom_spiflash_program_page_internal
p2140
atp2141
a(L2302069176L
L0L
(lp2142
(lp2143
tp2144
atp2145
sI1074244724
(Vrtc_clk_8m_enable
p2146
(lp2147
(L2359152383L
L2195759072L
(lp2148
(lp2149
tp2150
a(L2145669267L
L1443213481L
(lp2151
(lp2152
tp2153
a(L2151320156L
L0L
(lp2154
(lp2155
tp2156
a(L1262936142L
L1443213481L
(lp2157
(lp2158
tp2159
a(L3360570486L
L0L
(lp2160
(lp2161
tp2162
a(L1318267208L
L0L
(lp2163
(lp2164
tp2165
a(L1085208965L
L1443213481L
(lp2166
(lp2167
tp2168
atp2169
sI1074236784
(Vis_xmc_chip_strict
p2170
(lp2171
(L1286841609L
L0L
(lp2172
(lp2173
tp2174
a(L2234016759L
L0L
(lp2175
(lp2176
tp2177
a(L1069027148L
L0L
(lp2178
(lp2179
tp2180
a(L3021749L
L0L
(lp2181
(lp2182
tp2183
a(L1900148749L
L0L
(lp2184
(lp2185
tp2186
a(L1936875721L
L0L
(lp2187
(lp2188
tp2189
a(L3356166509L
L0L
(lp2190
(lp2191
tp2192
a(L1937769451L
L0L
(lp2193
(lp2194
tp2195
a(L2137658907L
L0L
(lp2196
(lp2197
tp2198
a(L4265949734L
L0L
(lp2199
(lp2200
tp2201
a(L3360570486L
L0L
(lp2202
(lp2203
tp2204
atp2205
sI1074238064
(Vbootloader_flash_get_spi_mode
p2206
(lp2207
(L1418320346L
L1443213481L
(lp2208
(lp2209
tp2210
a(L2046153171L
L0L
(lp2211
(lp2212
tp2213
a(L893866618L
L0L
(lp2214
(lp2215
tp2216
a(L894790139L
L0L
(lp2217
(lp2218
tp2219
a(L822032846L
L0L
(lp2220
(lp2221
tp2222
a(L3360570486L
L0L
(lp2223
(lp2224
tp2225
atp2226
sI1074270320
(Vrtc_vddsdio_get_config
p2227
(lp2228
(L3097658956L
L1443213481L
(lp2229
(lp2230
tp2231
a(L1750635626L
L0L
(lp2232
(lp2233
tp2234
a(L3193418487L
L0L
(lp2235
(lp2236
tp2237
a(L3511111289L
L1443213481L
(lp2238
(lp2239
tp2240
a(L115635292L
L0L
(lp2241
(lp2242
tp2243
a(L896053863L
L0L
(lp2244
(lp2245
tp2246
a(L1306330959L
L0L
(lp2247
(lp2248
tp2249
a(L1783408782L
L1443213481L
(lp2250
(lp2251
tp2252
atp2253
sI1074243708
(Vwdt_hal_config_stage
p2254
(lp2255
(L331558507L
L0L
(lp2256
(lp2257
tp2258
a(L4279082939L
L0L
(lp2259
(lp2260
tp2261
a(L93674324L
L0L
(lp2262
(lp2263
tp2264
a(L2902417580L
L0L
(lp2265
(lp2266
tp2267
a(L1506709436L
L1443213481L
(lp2268
(lp2269
tp2270
a(L3020187L
L0L
(lp2271
(lp2272
tp2273
a(L94425498L
L3785322319L
(lp2274
(lp2275
Vabort
p2276
atp2277
a(L1999536000L
L1443213481L
(lp2278
(lp2279
tp2280
a(L3360570486L
L0L
(lp2281
(lp2282
tp2283
a(L2402105077L
L1443213481L
(lp2284
(lp2285
tp2286
a(L3297501927L
L1443213481L
(lp2287
(lp2288
tp2289
a(L4278159418L
L0L
(lp2290
(lp2291
tp2292
a(L93674324L
L0L
(lp2293
(lp2294
tp2295
a(L3020204L
L0L
(lp2296
(lp2297
tp2298
a(L2956541743L
L1443213481L
(lp2299
(lp2300
tp2301
a(L3020187L
L0L
(lp2302
(lp2303
tp2304
a(L106L
L0L
(lp2305
(lp2306
tp2307
a(L1473987957L
L1443213481L
(lp2308
(lp2309
tp2310
a(L927955509L
L1443213481L
(lp2311
(lp2312
tp2313
a(L3740367810L
L1443213481L
(lp2314
(lp2315
tp2316
atp2317
sI1074245496
(Vrtc_clk_cpu_freq_to_xtal
p2318
(lp2319
(L767415990L
L3785322319L
(lp2320
(lp2321
Vesp_rom_set_cpu_ticks_per_us
p2322
atp2323
a(L94425498L
L3785322319L
(lp2324
(lp2325
Vabort
p2326
atp2327
a(L749912951L
L671729222L
(lp2328
(lp2329
Vrtc_clk_apb_freq_update
p2330
atp2331
a(L2258867230L
L0L
(lp2332
(lp2333
tp2334
a(L1803595874L
L2195759072L
(lp2335
(lp2336
tp2337
atp2338
sI1074236544
(Vesp_rom_uart_set_clock_baudrate
p2339
(lp2340
(L1471953879L
L1443213481L
(lp2341
(lp2342
tp2343
a(L1872515506L
L1443213481L
(lp2344
(lp2345
tp2346
a(L147213506L
L1443213481L
(lp2347
(lp2348
tp2349
a(L3104172142L
L1443213481L
(lp2350
(lp2351
tp2352
atp2353
sI1074244224
(Vmmu_hal_unmap_all
p2354
(lp2355
(L3970138582L
L1443213481L
(lp2356
(lp2357
tp2358
a(L2010554219L
L0L
(lp2359
(lp2360
tp2361
a(L147213506L
L1443213481L
(lp2362
(lp2363
tp2364
a(L3212334523L
L0L
(lp2365
(lp2366
tp2367
a(L2010554219L
L0L
(lp2368
(lp2369
tp2370
a(L3360570486L
L0L
(lp2371
(lp2372
tp2373
atp2374
sI1074240140
(Vbootloader_debug_buffer
p2375
(lp2376
(L2100504542L
L0L
(lp2377
(lp2378
tp2379
atp2380
sI1074235532
(Vbootloader_read_flash_id
p2381
(lp2382
(L549578328L
L3785322319L
(lp2383
(lp2384
Vbootloader_execute_flash_command
p2385
atp2386
atp2387
sI1074237576
(Vbootloader_munmap
p2388
(lp2389
(L4096859803L
L2195759072L
(lp2390
(lp2391
tp2392
a(L4150885370L
L2624587680L
(lp2393
(lp2394
tp2395
a(L3360570486L
L0L
(lp2396
(lp2397
tp2398
atp2399
sI1074236296
(Vbootloader_flash_dummy_config
p2400
(lp2401
(L2633298977L
L1443213481L
(lp2402
(lp2403
tp2404
a(L2761717557L
L0L
(lp2405
(lp2406
tp2407
a(L1849044936L
L0L
(lp2408
(lp2409
tp2410
a(L2198646520L
L2195759072L
(lp2411
(lp2412
tp2413
a(L1857500547L
L1443213481L
(lp2414
(lp2415
tp2416
a(L3020204L
L0L
(lp2417
(lp2418
tp2419
a(L1610443405L
L0L
(lp2420
(lp2421
tp2422
a(L4032120524L
L0L
(lp2423
(lp2424
tp2425
a(L2336993863L
L0L
(lp2426
(lp2427
tp2428
a(L1298875775L
L0L
(lp2429
(lp2430
tp2431
a(L3880393601L
L0L
(lp2432
(lp2433
tp2434
a(L2272848587L
L1443213481L
(lp2435
(lp2436
tp2437
a(L1610443436L
L0L
(lp2438
(lp2439
tp2440
atp2441
sI1074238612
(Vtry_load_partition
p2442
(lp2443
(L1898493800L
L0L
(lp2444
(lp2445
tp2446
a(L2454209732L
L3785322319L
(lp2447
(lp2448
Vbootloader_load_image
p2449
atp2450
a(L3360570486L
L0L
(lp2451
(lp2452
tp2453
atp2454
sI1074240148
(Vbootloader_sha256_start
p2455
(lp2456
(L1737386262L
L2534110409L
(lp2457
(lp2458
tp2459
atp2460
sI1074246292
(Vrtc_clk_apb_freq_get
p2461
(lp2462
(L189810653L
L1679261929L
(lp2463
(lp2464
tp2465
atp2466
sI1074238864
(Vload_image
p2467
(lp2468
(L276015809L
L1880226080L
(lp2469
(lp2470
Vbootloader_random_disable
p2471
aVbootloader_ana_clock_glitch_reset_config
p2472
atp2473
a(L1373545544L
L0L
(lp2474
(lp2475
tp2476
a(L106L
L0L
(lp2477
(lp2478
tp2479
a(L1208231435L
L1624138773L
(lp2480
(lp2481
Vmmu_hal_unmap_all
p2482
aVcache_ll_l1_get_bus
p2483
aVcache_ll_l1_enable_bus
p2484
aVcache_ll_l1_get_bus
p2485
aVcache_ll_l1_enable_bus
p2486
aVcache_ll_l1_get_bus
p2487
aVcache_ll_l1_enable_bus
p2488
aVcache_ll_l1_get_bus
p2489
aVcache_ll_l1_enable_bus
p2490
aVbootloader_console_deinit
p2491
atp2492
a(L552377565L
L1443213481L
(lp2493
(lp2494
tp2495
a(L2902417580L
L0L
(lp2496
(lp2497
tp2498
a(L2350501541L
L362179215L
(lp2499
(lp2500
Vesp_log_early_timestamp
p2501
atp2502
a(L3455620645L
L0L
(lp2503
(lp2504
tp2505
a(L1295608873L
L2195759072L
(lp2506
(lp2507
tp2508
a(L3020204L
L0L
(lp2509
(lp2510
tp2511
a(L2350501541L
L362179215L
(lp2512
(lp2513
Vesp_log_early_timestamp
p2514
atp2515
a(L17153577L
L0L
(lp2516
(lp2517
tp2518
a(L2014464593L
L0L
(lp2519
(lp2520
tp2521
atp2522
sI1074246800
(Vrtc_clk_cal_ratio
p2523
(lp2524
(L3870710856L
L195123093L
(lp2525
(lp2526
Vrtc_clk_cal_internal
p2527
aV__udivdi3
p2528
atp2529
atp2530
sI1074237336
(Vspi_to_esp_err
p2531
(lp2532
(L2749733621L
L1443213481L
(lp2533
(lp2534
tp2535
a(L1872507229L
L1443213481L
(lp2536
(lp2537
tp2538
a(L3952441574L
L0L
(lp2539
(lp2540
tp2541
a(L3126521138L
L0L
(lp2542
(lp2543
tp2544
atp2545
sI1074245016
(Vrtc_clk_slow_src_get
p2546
(lp2547
(L1566794270L
L1443213481L
(lp2548
(lp2549
tp2550
a(L3020187L
L0L
(lp2551
(lp2552
tp2553
a(L2902417580L
L0L
(lp2554
(lp2555
tp2556
a(L2258688485L
L0L
(lp2557
(lp2558
tp2559
a(L3360570486L
L0L
(lp2560
(lp2561
tp2562
atp2563
sI1074269608
(Vbootloader_enable_random
p2564
(lp2565
(L1287383080L
L3785322319L
(lp2566
(lp2567
Vbootloader_random_enable
p2568
atp2569
atp2570
sI1074245284
(Vrtc_clk_cpu_freq_get_config
p2571
(lp2572
(L4245581454L
L1443213481L
(lp2573
(lp2574
tp2575
a(L3020187L
L0L
(lp2576
(lp2577
tp2578
a(L3020187L
L0L
(lp2579
(lp2580
tp2581
a(L2734221335L
L242900614L
(lp2582
(lp2583
Vrtc_clk_xtal_freq_get
p2584
atp2585
a(L3789795478L
L0L
(lp2586
(lp2587
tp2588
a(L672805395L
L2704288053L
(lp2589
(lp2590
Vesp_log_early_timestamp
p2591
aVabort
p2592
atp2593
a(L3849169076L
L1443213481L
(lp2594
(lp2595
tp2596
a(L3020187L
L0L
(lp2597
(lp2598
tp2599
a(L3028481L
L0L
(lp2600
(lp2601
tp2602
a(L38508693L
L0L
(lp2603
(lp2604
tp2605
a(L187152368L
L0L
(lp2606
(lp2607
tp2608
a(L1161083655L
L0L
(lp2609
(lp2610
tp2611
a(L1395485899L
L0L
(lp2612
(lp2613
tp2614
a(L2070600034L
L0L
(lp2615
(lp2616
tp2617
atp2618
sI1074238112
(Vbootloader_mmap_get_free_pages
p2619
(lp2620
(L1496516875L
L0L
(lp2621
(lp2622
tp2623
atp2624
sI1074241708
(Vprocess_segments
p2625
(lp2626
(L670742546L
L0L
(lp2627
(lp2628
tp2629
a(L1478361954L
L0L
(lp2630
(lp2631
tp2632
a(L3782401745L
L0L
(lp2633
(lp2634
tp2635
a(L106L
L0L
(lp2636
(lp2637
tp2638
a(L234202048L
L0L
(lp2639
(lp2640
tp2641
a(L3014296803L
L3187408090L
(lp2642
(lp2643
Vesp_log_early_timestamp
p2644
atp2645
a(L418370317L
L3785322319L
(lp2646
(lp2647
Vbootloader_flash_read
p2648
atp2649
a(L1556134886L
L3187408090L
(lp2650
(lp2651
Vesp_log_early_timestamp
p2652
atp2653
a(L464010095L
L0L
(lp2654
(lp2655
tp2656
a(L1890170661L
L0L
(lp2657
(lp2658
tp2659
a(L4138551778L
L3785322319L
(lp2660
(lp2661
Vbootloader_sha256_data
p2662
atp2663
a(L1382414308L
L1443213481L
(lp2664
(lp2665
tp2666
a(L2258867228L
L0L
(lp2667
(lp2668
tp2669
a(L1653981967L
L0L
(lp2670
(lp2671
tp2672
a(L523560059L
L0L
(lp2673
(lp2674
tp2675
a(L684380407L
L3187408090L
(lp2676
(lp2677
Vesp_log_early_timestamp
p2678
atp2679
a(L268651496L
L1443213481L
(lp2680
(lp2681
tp2682
a(L2585693023L
L2195759072L
(lp2683
(lp2684
tp2685
a(L4022143605L
L1443213481L
(lp2686
(lp2687
tp2688
a(L606368755L
L0L
(lp2689
(lp2690
tp2691
a(L2626753793L
L0L
(lp2692
(lp2693
tp2694
a(L2505340542L
L3187408090L
(lp2695
(lp2696
Vesp_log_early_timestamp
p2697
atp2698
a(L2864902319L
L0L
(lp2699
(lp2700
tp2701
a(L2314103720L
L0L
(lp2702
(lp2703
tp2704
a(L2136754140L
L3785322319L
(lp2705
(lp2706
Vbootloader_mmap_get_free_pages
p2707
atp2708
a(L3028481L
L0L
(lp2709
(lp2710
tp2711
a(L3306817873L
L0L
(lp2712
(lp2713
tp2714
a(L2642187286L
L3785322319L
(lp2715
(lp2716
Vshould_load
p2717
atp2718
a(L3020204L
L0L
(lp2719
(lp2720
tp2721
a(L1879695069L
L3785322319L
(lp2722
(lp2723
Vverify_load_addresses
p2724
atp2725
a(L106L
L0L
(lp2726
(lp2727
tp2728
a(L113955750L
L0L
(lp2729
(lp2730
tp2731
a(L262831199L
L0L
(lp2732
(lp2733
tp2734
a(L4128104404L
L3785322319L
(lp2735
(lp2736
Vbootloader_mmap
p2737
atp2738
a(L1180618826L
L3187408090L
(lp2739
(lp2740
Vesp_log_early_timestamp
p2741
atp2742
a(L1727089337L
L0L
(lp2743
(lp2744
tp2745
a(L1191704088L
L1443213481L
(lp2746
(lp2747
tp2748
a(L2599431133L
L242900614L
(lp2749
(lp2750
Vmemcpy
p2751
atp2752
a(L1595421496L
L3785322319L
(lp2753
(lp2754
Vbootloader_munmap
p2755
atp2756
a(L1820299912L
L0L
(lp2757
(lp2758
tp2759
a(L2364697717L
L242900614L
(lp2760
(lp2761
Vbootloader_fill_random
p2762
atp2763
a(L3616854679L
L1443213481L
(lp2764
(lp2765
tp2766
a(L3616854679L
L1443213481L
(lp2767
(lp2768
tp2769
a(L3450268858L
L0L
(lp2770
(lp2771
tp2772
a(L3021749L
L0L
(lp2773
(lp2774
tp2775
a(L3821106106L
L0L
(lp2776
(lp2777
tp2778
a(L2494883302L
L0L
(lp2779
(lp2780
tp2781
a(L2043449225L
L0L
(lp2782
(lp2783
tp2784
a(L2213415704L
L1443213481L
(lp2785
(lp2786
tp2787
a(L1641789675L
L1443213481L
(lp2788
(lp2789
tp2790
a(L3018893270L
L0L
(lp2791
(lp2792
tp2793
a(L1224748769L
L0L
(lp2794
(lp2795
tp2796
a(L653501462L
L0L
(lp2797
(lp2798
tp2799
a(L3499111993L
L3785322319L
(lp2800
(lp2801
Vbootloader_sha256_data
p2802
atp2803
a(L90548756L
L0L
(lp2804
(lp2805
tp2806
a(L1702191967L
L1443213481L
(lp2807
(lp2808
tp2809
a(L2883900389L
L0L
(lp2810
(lp2811
tp2812
atp2813
sI1074240168
(Vbootloader_sha256_data
p2814
(lp2815
(L4066096136L
L0L
(lp2816
(lp2817
tp2818
a(L1697654611L
L2195759072L
(lp2819
(lp2820
tp2821
a(L2213948952L
L242900614L
(lp2822
(lp2823
V__assert_func
p2824
atp2825
a(L498498478L
L0L
(lp2826
(lp2827
tp2828
a(L3590389832L
L1443213481L
(lp2829
(lp2830
tp2831
a(L2910371777L
L0L
(lp2832
(lp2833
tp2834
a(L3360570486L
L0L
(lp2835
(lp2836
tp2837
a(L1087685526L
L2195759072L
(lp2838
(lp2839
tp2840
a(L426633611L
L1443213481L
(lp2841
(lp2842
tp2843
a(L2584057186L
L1443213481L
(lp2844
(lp2845
tp2846
a(L3342433287L
L1443213481L
(lp2847
(lp2848
tp2849
a(L2526675390L
L242900614L
(lp2850
(lp2851
V__bswapsi2
p2852
atp2853
a(L942815853L
L2195759072L
(lp2854
(lp2855
tp2856
a(L1872507229L
L1443213481L
(lp2857
(lp2858
tp2859
a(L147213506L
L1443213481L
(lp2860
(lp2861
tp2862
a(L3745004802L
L0L
(lp2863
(lp2864
tp2865
atp2866
sI1074238120
(Vbootloader_fill_random
p2867
(lp2868
(L3377511333L
L2195759072L
(lp2869
(lp2870
tp2871
a(L4033043682L
L4032149094L
(lp2872
(lp2873
V__assert_func
p2874
atp2875
a(L1882547218L
L0L
(lp2876
(lp2877
tp2878
a(L2910371777L
L0L
(lp2879
(lp2880
tp2881
a(L95634693L
L0L
(lp2882
(lp2883
tp2884
a(L3630908706L
L0L
(lp2885
(lp2886
tp2887
a(L160162640L
L0L
(lp2888
(lp2889
tp2890
a(L97689L
L0L
(lp2891
(lp2892
tp2893
a(L3360570486L
L0L
(lp2894
(lp2895
tp2896
atp2897
sI1074235828
(Vbootloader_flash_gpio_config
p2898
(lp2899
(L3362256192L
L3785322319L
(lp2900
(lp2901
Vbootloader_common_get_chip_ver_pkg
p2902
atp2903
a(L106L
L0L
(lp2904
(lp2905
tp2906
a(L1998579353L
L0L
(lp2907
(lp2908
tp2909
a(L106L
L0L
(lp2910
(lp2911
tp2912
a(L1839763068L
L1443213481L
(lp2913
(lp2914
tp2915
a(L2440320488L
L1396946377L
(lp2916
(lp2917
tp2918
a(L106L
L0L
(lp2919
(lp2920
tp2921
a(L4003626558L
L0L
(lp2922
(lp2923
tp2924
a(L2164907201L
L2534110409L
(lp2925
(lp2926
tp2927
a(L3360570486L
L0L
(lp2928
(lp2929
tp2930
atp2931
sI1074238644
(Vcache_ll_l1_get_bus
p2932
(lp2933
(L2749735183L
L1443213481L
(lp2934
(lp2935
tp2936
a(L94425498L
L3785322319L
(lp2937
(lp2938
Vabort
p2939
atp2940
a(L1872514061L
L1443213481L
(lp2941
(lp2942
tp2943
a(L3824526338L
L1443213481L
(lp2944
(lp2945
tp2946
a(L892952750L
L0L
(lp2947
(lp2948
tp2949
a(L1182811810L
L0L
(lp2950
(lp2951
tp2952
a(L1101742417L
L0L
(lp2953
(lp2954
tp2955
a(L1100767927L
L0L
(lp2956
(lp2957
tp2958
a(L3360570486L
L0L
(lp2959
(lp2960
tp2961
a(L1872508791L
L1443213481L
(lp2962
(lp2963
tp2964
a(L2882938163L
L0L
(lp2965
(lp2966
tp2967
a(L2927201858L
L0L
(lp2968
(lp2969
tp2970
a(L2258718273L
L0L
(lp2971
(lp2972
tp2973
a(L2580713941L
L0L
(lp2974
(lp2975
tp2976
a(L1872508791L
L1443213481L
(lp2977
(lp2978
tp2979
a(L1872514061L
L1443213481L
(lp2980
(lp2981
tp2982
a(L1641149277L
L0L
(lp2983
(lp2984
tp2985
a(L1872508791L
L1443213481L
(lp2986
(lp2987
tp2988
a(L3027019L
L0L
(lp2989
(lp2990
tp2991
a(L1299866560L
L0L
(lp2992
(lp2993
tp2994
a(L1299866436L
L0L
(lp2995
(lp2996
tp2997
atp2998
sI1074245044
(Vrtc_clk_slow_freq_get_hz
p2999
(lp3000
(L1826267122L
L3785322319L
(lp3001
(lp3002
Vrtc_clk_slow_src_get
p3003
atp3004
a(L1872507229L
L1443213481L
(lp3005
(lp3006
tp3007
a(L2221201615L
L1443213481L
(lp3008
(lp3009
tp3010
a(L3360570486L
L0L
(lp3011
(lp3012
tp3013
atp3014
sI1074244272
(Vefuse_hal_get_rated_freq_mhz
p3015
(lp3016
(L1158870592L
L1443213481L
(lp3017
(lp3018
tp3019
a(L338960367L
L0L
(lp3020
(lp3021
tp3022
a(L3360570486L
L0L
(lp3023
(lp3024
tp3025
atp3026
sI1074246832
(Vrtc_clk_wait_for_slow_cycle
p3027
(lp3028
(L2844697221L
L2624587680L
(lp3029
(lp3030
tp3031
a(L287687718L
L0L
(lp3032
(lp3033
tp3034
a(L3360570486L
L0L
(lp3035
(lp3036
tp3037
a(L3843203427L
L1443213481L
(lp3038
(lp3039
tp3040
a(L1300789833L
L0L
(lp3041
(lp3042
tp3043
a(L1259765481L
L0L
(lp3044
(lp3045
tp3046
a(L17340776L
L1443213481L
(lp3047
(lp3048
tp3049
a(L329680227L
L3187408090L
(lp3050
(lp3051
Vesp_log_early_timestamp
p3052
atp3053
atp3054
sI1074269616
(Vbootloader_console_init
p3055
(lp3056
(L3806010175L
L988378406L
(lp3057
(lp3058
Vesp_rom_uart_tx_wait_idle
p3059
aVrtc_clk_apb_freq_get
p3060
aVesp_rom_uart_set_clock_baudrate
p3061
atp3062
atp3063
sI1074237884
(Vbootloader_flash_erase_sector
p3064
(lp3065
(L4129137686L
L1880226080L
(lp3066
(lp3067
Vesp_rom_spiflash_erase_sector
p3068
aVspi_to_esp_err
p3069
atp3070
atp3071
sI1074237628
(Vbootloader_flash_read
p3072
(lp3073
(L3022618172L
L0L
(lp3074
(lp3075
tp3076
a(L2493247481L
L2147981551L
(lp3077
(lp3078
Vesp_log_early_timestamp
p3079
atp3080
a(L852987398L
L1443213481L
(lp3081
(lp3082
tp3083
a(L1351513776L
L0L
(lp3084
(lp3085
tp3086
a(L1486740491L
L0L
(lp3087
(lp3088
tp3089
a(L4276228047L
L2147981551L
(lp3090
(lp3091
Vesp_log_early_timestamp
p3092
atp3093
a(L3283691850L
L0L
(lp3094
(lp3095
tp3096
a(L4276228016L
L2147981551L
(lp3097
(lp3098
Vesp_log_early_timestamp
p3099
atp3100
a(L3020204L
L0L
(lp3101
(lp3102
tp3103
a(L384130671L
L0L
(lp3104
(lp3105
tp3106
a(L97422L
L0L
(lp3107
(lp3108
tp3109
a(L515889772L
L2195759072L
(lp3110
(lp3111
tp3112
a(L3321969934L
L1690040256L
(lp3113
(lp3114
tp3115
a(L279744554L
L4032149094L
(lp3116
(lp3117
V__assert_func
p3118
atp3119
a(L4071371888L
L2534110409L
(lp3120
(lp3121
tp3122
a(L2438181396L
L1443213481L
(lp3123
(lp3124
tp3125
a(L1976506429L
L3635241909L
(lp3126
(lp3127
Vesp_rom_spiflash_read
p3128
aVspi_to_esp_err
p3129
atp3130
atp3131
sI1074235580
(Vbootloader_flash_xmc_startup
p3132
(lp3133
(L3433652179L
L242900614L
(lp3134
(lp3135
Vis_xmc_chip_strict
p3136
atp3137
a(L2258688482L
L0L
(lp3138
(lp3139
tp3140
a(L3360570486L
L0L
(lp3141
(lp3142
tp3143
a(L251913992L
L3785322319L
(lp3144
(lp3145
Vbootloader_flash_read_sfdp
p3146
atp3147
a(L645871038L
L2369128116L
(lp3148
(lp3149
Vbootloader_execute_flash_command
p3150
aVbootloader_execute_flash_command
p3151
aVbootloader_execute_flash_command
p3152
aVbootloader_execute_flash_command
p3153
aVbootloader_read_flash_id
p3154
aVis_xmc_chip_strict
p3155
atp3156
a(L1000132677L
L3187408090L
(lp3157
(lp3158
Vesp_log_early_timestamp
p3159
atp3160
atp3161
sI1074269876
(Vrtc_clk_init
p3162
(lp3163
(L1100006719L
L1443213481L
(lp3164
(lp3165
tp3166
a(L42671777L
L3785322319L
(lp3167
(lp3168
Vrtc_clk_cpu_freq_to_xtal
p3169
atp3170
a(L739905763L
L1743007695L
(lp3171
(lp3172
Vrtc_clk_xtal_freq_get
p3173
atp3174
a(L3028481L
L0L
(lp3175
(lp3176
tp3177
a(L4284274517L
L3785322319L
(lp3178
(lp3179
Vrtc_clk_xtal_freq_estimate
p3180
atp3181
a(L2576622952L
L3187408090L
(lp3182
(lp3183
Vesp_log_early_timestamp
p3184
atp3185
a(L1822030105L
L3065544262L
(lp3186
(lp3187
Vesp_rom_uart_tx_wait_idle
p3188
aVrtc_clk_xtal_freq_update
p3189
aVrtc_clk_apb_freq_update
p3190
aVrtc_clk_cpu_freq_get_config
p3191
aVrtc_clk_cpu_freq_mhz_to_config
p3192
atp3193
a(L521302419L
L2704288053L
(lp3194
(lp3195
Vesp_log_early_timestamp
p3196
aVabort
p3197
atp3198
a(L2902417580L
L0L
(lp3199
(lp3200
tp3201
a(L1899970065L
L0L
(lp3202
(lp3203
tp3204
a(L377687546L
L3785322319L
(lp3205
(lp3206
Vrtc_clk_xtal_freq_estimate
p3207
atp3208
a(L2163742247L
L3187408090L
(lp3209
(lp3210
Vesp_log_early_timestamp
p3211
atp3212
a(L299116989L
L2426646996L
(lp3213
(lp3214
Vrtc_clk_cpu_freq_set_config
p3215
aV__udivdi3
p3216
atp3217
a(L912310138L
L3785322319L
(lp3218
(lp3219
Vrtc_clk_32k_enable
p3220
atp3221
a(L3191820416L
L1832448559L
(lp3222
(lp3223
Vrtc_clk_8m_enable
p3224
aVrtc_clk_fast_src_set
p3225
aVrtc_clk_slow_src_set
p3226
atp3227
a(L1232958848L
L0L
(lp3228
(lp3229
tp3230
atp3231
sI1074244024
(Vwdt_hal_write_protect_disable
p3232
(lp3233
(L3085072089L
L1443213481L
(lp3234
(lp3235
tp3236
a(L4195472003L
L0L
(lp3237
(lp3238
tp3239
a(L3360570486L
L0L
(lp3240
(lp3241
tp3242
a(L1210571996L
L0L
(lp3243
(lp3244
tp3245
atp3246
sI1074236856
(Vefuse_hal_get_disable_wafer_version_major
p3247
(lp3248
(L4194175088L
L0L
(lp3249
(lp3250
tp3251
atp3252
sI1074237368
(Vbootloader_mmap
p3253
(lp3254
(L3007611739L
L2195759072L
(lp3255
(lp3256
tp3257
a(L1328961945L
L2147981551L
(lp3258
(lp3259
Vesp_log_early_timestamp
p3260
atp3261
a(L1596194698L
L1443213481L
(lp3262
(lp3263
tp3264
a(L3729184599L
L0L
(lp3265
(lp3266
tp3267
a(L4163264550L
L3187408090L
(lp3268
(lp3269
Vesp_log_early_timestamp
p3270
atp3271
a(L2258688482L
L0L
(lp3272
(lp3273
tp3274
a(L3360570486L
L0L
(lp3275
(lp3276
tp3277
a(L3419814624L
L1443213481L
(lp3278
(lp3279
tp3280
a(L1441818867L
L1690040256L
(lp3281
(lp3282
tp3283
a(L3433564204L
L362179215L
(lp3284
(lp3285
Vesp_log_early_timestamp
p3286
atp3287
a(L2543114737L
L2147981551L
(lp3288
(lp3289
Vesp_log_early_timestamp
p3290
atp3291
a(L1137490703L
L2195759072L
(lp3292
(lp3293
tp3294
atp3295
sI1074247096
(Vesp_rom_spiflash_wait_idle
p3296
(lp3297
(L1698121947L
L1443213481L
(lp3298
(lp3299
tp3300
a(L2023766174L
L0L
(lp3301
(lp3302
tp3303
a(L147213506L
L1443213481L
(lp3304
(lp3305
tp3306
a(L3086959262L
L0L
(lp3307
(lp3308
tp3309
a(L4161019926L
L3785322319L
(lp3310
(lp3311
Vesp_rom_spiflash_read_status
p3312
atp3313
atp3314
sI1074269384
(Vbootloader_clear_bss_section
p3315
(lp3316
(L2193193874L
L4032149094L
(lp3317
(lp3318
Vmemset
p3319
atp3320
atp3321
sI1074240964
(Vbootloader_util_regions_overlap
p3322
(lp3323
(L2762640130L
L0L
(lp3324
(lp3325
tp3326
a(L1697654632L
L2195759072L
(lp3327
(lp3328
tp3329
a(L2213948952L
L242900614L
(lp3330
(lp3331
V__assert_func
p3332
atp3333
a(L97642L
L0L
(lp3334
(lp3335
tp3336
a(L1087686177L
L2195759072L
(lp3337
(lp3338
tp3339
a(L366123053L
L0L
(lp3340
(lp3341
tp3342
a(L2258867228L
L0L
(lp3343
(lp3344
tp3345
a(L1253626734L
L0L
(lp3346
(lp3347
tp3348
a(L2258897019L
L0L
(lp3349
(lp3350
tp3351
a(L3109269495L
L0L
(lp3352
(lp3353
tp3354
atp3355
sI1074236864
(Vesp_log_early_timestamp
p3356
(lp3357
(L4015029253L
L1443213481L
(lp3358
(lp3359
tp3360
atp3361
sI1074246336
(Vrtc_clk_cal_internal
p3362
(lp3363
(L4103044880L
L1443213481L
(lp3364
(lp3365
tp3366
a(L3906046821L
L4032149094L
(lp3367
(lp3368
V__assert_func
p3369
atp3370
a(L3821006588L
L1443213481L
(lp3371
(lp3372
tp3373
a(L1673513644L
L0L
(lp3374
(lp3375
tp3376
a(L2719210992L
L4021370767L
(lp3377
(lp3378
Vrtc_clk_slow_src_get
p3379
atp3380
a(L3008910671L
L0L
(lp3381
(lp3382
tp3383
a(L97689L
L0L
(lp3384
(lp3385
tp3386
a(L1872507229L
L1443213481L
(lp3387
(lp3388
tp3389
a(L3028464L
L0L
(lp3390
(lp3391
tp3392
a(L3028481L
L0L
(lp3393
(lp3394
tp3395
a(L147213506L
L1443213481L
(lp3396
(lp3397
tp3398
a(L3455571058L
L1374507264L
(lp3399
(lp3400
V__udivdi3
p3401
aVrtc_clk_xtal_freq_get
p3402
atp3403
a(L2780079961L
L0L
(lp3404
(lp3405
tp3406
a(L4208562267L
L1443213481L
(lp3407
(lp3408
tp3409
a(L4114459891L
L3187408090L
(lp3410
(lp3411
Vesp_log_early_timestamp
p3412
atp3413
a(L2258688482L
L0L
(lp3414
(lp3415
tp3416
a(L3360570486L
L0L
(lp3417
(lp3418
tp3419
a(L3553505594L
L0L
(lp3420
(lp3421
tp3422
a(L403361192L
L0L
(lp3423
(lp3424
tp3425
a(L3243404432L
L3785322319L
(lp3426
(lp3427
Vrtc_clk_8m_enable
p3428
atp3429
a(L390546255L
L2195759072L
(lp3430
(lp3431
tp3432
a(L3586367509L
L1443213481L
(lp3433
(lp3434
tp3435
a(L2910371777L
L0L
(lp3436
(lp3437
tp3438
a(L2902417580L
L0L
(lp3439
(lp3440
tp3441
a(L3082259486L
L1443213481L
(lp3442
(lp3443
tp3444
a(L3020204L
L0L
(lp3445
(lp3446
tp3447
a(L603598685L
L1443213481L
(lp3448
(lp3449
tp3450
a(L3429540926L
L0L
(lp3451
(lp3452
tp3453
a(L3028464L
L0L
(lp3454
(lp3455
tp3456
a(L615477255L
L242900614L
(lp3457
(lp3458
Vrtc_clk_8m_enable
p3459
atp3460
atp3461
sI1074241492
(Vprocess_appended_hash_and_sig
p3462
(lp3463
(L1668084157L
L0L
(lp3464
(lp3465
tp3466
a(L2910371777L
L0L
(lp3467
(lp3468
tp3469
a(L4285188111L
L0L
(lp3470
(lp3471
tp3472
a(L1151175705L
L0L
(lp3473
(lp3474
tp3475
a(L97689L
L0L
(lp3476
(lp3477
tp3478
a(L2250231589L
L3187408090L
(lp3479
(lp3480
Vesp_log_early_timestamp
p3481
atp3482
a(L268651496L
L1443213481L
(lp3483
(lp3484
tp3485
a(L1464893571L
L3785322319L
(lp3486
(lp3487
Vbootloader_flash_read
p3488
atp3489
a(L735741265L
L0L
(lp3490
(lp3491
tp3492
atp3493
sI1074244308
(Vrtc_clk_32k_enable_common
p3494
(lp3495
(L2821256590L
L2195759072L
(lp3496
(lp3497
tp3498
a(L97422L
L0L
(lp3499
(lp3500
tp3501
a(L2218417248L
L0L
(lp3502
(lp3503
tp3504
a(L339634797L
L1443213481L
(lp3505
(lp3506
tp3507
a(L51458120L
L0L
(lp3508
(lp3509
tp3510
atp3511
sI1074237904
(Vbootloader_flash_write
p3512
(lp3513
(L3770380603L
L0L
(lp3514
(lp3515
tp3516
a(L2654201950L
L2147981551L
(lp3517
(lp3518
Vesp_log_early_timestamp
p3519
atp3520
a(L4207910112L
L1443213481L
(lp3521
(lp3522
tp3523
a(L1610445075L
L0L
(lp3524
(lp3525
tp3526
a(L735741265L
L0L
(lp3527
(lp3528
tp3529
a(L3291333414L
L0L
(lp3530
(lp3531
tp3532
a(L416217162L
L2147981551L
(lp3533
(lp3534
Vesp_log_early_timestamp
p3535
atp3536
a(L3283691850L
L0L
(lp3537
(lp3538
tp3539
a(L212182276L
L3187408090L
(lp3540
(lp3541
Vesp_log_early_timestamp
p3542
atp3543
a(L3212356251L
L3785322319L
(lp3544
(lp3545
Vbootloader_flash_unlock
p3546
atp3547
a(L1799218633L
L0L
(lp3548
(lp3549
tp3550
a(L94425498L
L3785322319L
(lp3551
(lp3552
Vesp_rom_spiflash_write_encrypted
p3553
atp3554
a(L2927190544L
L3785322319L
(lp3555
(lp3556
Vspi_to_esp_err
p3557
atp3558
a(L2927190544L
L3785322319L
(lp3559
(lp3560
Vesp_rom_spiflash_write
p3561
atp3562
atp3563
sI1074236624
(Vefuse_hal_chip_revision
p3564
(lp3565
(L2719302832L
L1880226080L
(lp3566
(lp3567
Vefuse_hal_get_major_chip_version
p3568
aVefuse_hal_get_minor_chip_version
p3569
atp3570
atp3571
sI1074245072
(Vrtc_clk_fast_src_set
p3572
(lp3573
(L1089140614L
L1443213481L
(lp3574
(lp3575
tp3576
a(L3020187L
L0L
(lp3577
(lp3578
tp3579
a(L3827921190L
L3785322319L
(lp3580
(lp3581
Vabort
p3582
atp3583
a(L2578095160L
L1443213481L
(lp3584
(lp3585
tp3586
a(L4159388630L
L1443213481L
(lp3587
(lp3588
tp3589
a(L300459962L
L0L
(lp3590
(lp3591
tp3592
atp3593
sI1074269652
(Vesp_cpu_configure_region_protection
p3594
(lp3595
(L3233924472L
L581251951L
(lp3596
(lp3597
Vmemcpy
p3598
atp3599
a(L180431425L
L3785322319L
(lp3600
(lp3601
Vmpu_hal_set_region_access
p3602
atp3603
a(L2537388152L
L3785322319L
(lp3604
(lp3605
Vmpu_hal_set_region_access
p3606
atp3607
atp3608
sI1074244056
(Vwdt_hal_set_flashboot_en
p3609
(lp3610
(L2375320464L
L0L
(lp3611
(lp3612
tp3613
a(L3915867581L
L0L
(lp3614
(lp3615
tp3616
a(L3360570486L
L0L
(lp3617
(lp3618
tp3619
a(L3823116953L
L1443213481L
(lp3620
(lp3621
tp3622
atp3623
sI1074236896
(Vbootloader_common_ota_select_crc
p3624
(lp3625
(L2925798959L
L1443213481L
(lp3626
(lp3627
tp3628
atp3629
sI1074247392
(Vesp_rom_spiflash_erase_sector
p3630
(lp3631
(L3892694408L
L1679261929L
(lp3632
(lp3633
tp3634
a(L2258688483L
L0L
(lp3635
(lp3636
tp3637
a(L3360570486L
L0L
(lp3638
(lp3639
tp3640
a(L3212356251L
L3785322319L
(lp3641
(lp3642
Vesp_rom_spiflash_enable_write
p3643
atp3644
a(L184152988L
L0L
(lp3645
(lp3646
tp3647
a(L1036552696L
L362179215L
(lp3648
(lp3649
Vesp_rom_spiflash_wait_idle
p3650
atp3651
a(L3333707777L
L0L
(lp3652
(lp3653
tp3654
a(L3582858798L
L3785322319L
(lp3655
(lp3656
Vesp_rom_spiflash_wait_idle
p3657
atp3658
atp3659
sI1074267616
(Vcall_start_cpu0
p3660
(lp3661
(L342432055L
L1443213481L
(lp3662
(lp3663
tp3664
a(L4207910112L
L1443213481L
(lp3665
(lp3666
tp3667
a(L3212347974L
L3785322319L
(lp3668
(lp3669
Vbootloader_init
p3670
atp3671
a(L94425498L
L3785322319L
(lp3672
(lp3673
Vbootloader_reset
p3674
atp3675
a(L1872507246L
L1443213481L
(lp3676
(lp3677
tp3678
a(L4207910112L
L1443213481L
(lp3679
(lp3680
tp3681
a(L356913563L
L2218577417L
(lp3682
(lp3683
Vmemset
p3684
aVbootloader_utility_load_partition_table
p3685
atp3686
a(L3014296803L
L3187408090L
(lp3687
(lp3688
Vesp_log_early_timestamp
p3689
atp3690
a(L405422123L
L3785322319L
(lp3691
(lp3692
Vbootloader_utility_get_selected_boot_partition
p3693
atp3694
a(L2025208509L
L242900614L
(lp3695
(lp3696
Vbootloader_utility_load_boot_image
p3697
atp3698
atp3699
sI1074269408
(Vbootloader_read_bootloader_header
p3700
(lp3701
(L2948018849L
L242900614L
(lp3702
(lp3703
Vbootloader_flash_read
p3704
atp3705
a(L804259852L
L3187408090L
(lp3706
(lp3707
Vesp_log_early_timestamp
p3708
atp3709
a(L735741265L
L0L
(lp3710
(lp3711
tp3712
atp3713
sI1074236648
(Vefuse_hal_flash_encryption_enabled
p3714
(lp3715
(L221474917L
L1443213481L
(lp3716
(lp3717
tp3718
a(L2910371777L
L0L
(lp3719
(lp3720
tp3721
a(L3360570486L
L0L
(lp3722
(lp3723
tp3724
a(L3016870L
L0L
(lp3725
(lp3726
tp3727
a(L3745038218L
L0L
(lp3728
(lp3729
tp3730
a(L957607403L
L0L
(lp3731
(lp3732
tp3733
atp3734
sI1074245608
(Vrtc_clk_cpu_freq_set_config
p3735
(lp3736
(L1040494747L
L3833084538L
(lp3737
(lp3738
Vrtc_clk_xtal_freq_get
p3739
atp3740
a(L2308773007L
L0L
(lp3741
(lp3742
tp3743
a(L3253451229L
L1880226080L
(lp3744
(lp3745
Vrtc_clk_cpu_freq_to_xtal
p3746
aVrtc_clk_wait_for_slow_cycle
p3747
atp3748
a(L2243645672L
L0L
(lp3749
(lp3750
tp3751
a(L4002786498L
L0L
(lp3752
(lp3753
tp3754
a(L2736411858L
L3785322319L
(lp3755
(lp3756
Vrtc_clk_cpu_freq_to_xtal
p3757
atp3758
a(L3360570486L
L0L
(lp3759
(lp3760
tp3761
a(L2755207760L
L1832448559L
(lp3762
(lp3763
Vrtc_clk_cpu_freq_to_xtal
p3764
aVrtc_clk_wait_for_slow_cycle
p3765
aVrtc_clk_bbpll_disable
p3766
atp3767
a(L3020187L
L0L
(lp3768
(lp3769
tp3770
a(L106L
L0L
(lp3771
(lp3772
tp3773
a(L2730236852L
L1156451872L
(lp3774
(lp3775
Vrtc_clk_wait_for_slow_cycle
p3776
aVrtc_clk_xtal_freq_get
p3777
atp3778
a(L106L
L0L
(lp3779
(lp3780
tp3781
a(L3776069396L
L1443213481L
(lp3782
(lp3783
tp3784
a(L83268611L
L0L
(lp3785
(lp3786
tp3787
a(L106L
L0L
(lp3788
(lp3789
tp3790
a(L82345090L
L0L
(lp3791
(lp3792
tp3793
a(L106L
L0L
(lp3794
(lp3795
tp3796
a(L2258718273L
L0L
(lp3797
(lp3798
tp3799
a(L3298883534L
L0L
(lp3800
(lp3801
tp3802
a(L3519990574L
L1443213481L
(lp3803
(lp3804
tp3805
a(L2508198718L
L1743007695L
(lp3806
(lp3807
Vrtc_clk_cpu_freq_to_pll_mhz
p3808
atp3809
a(L935233121L
L2534110409L
(lp3810
(lp3811
tp3812
a(L83268344L
L0L
(lp3813
(lp3814
tp3815
a(L82344823L
L0L
(lp3816
(lp3817
tp3818
a(L1569180676L
L0L
(lp3819
(lp3820
tp3821
a(L2258837488L
L0L
(lp3822
(lp3823
tp3824
a(L4233337962L
L1443213481L
(lp3825
(lp3826
tp3827
a(L1482311963L
L0L
(lp3828
(lp3829
tp3830
a(L133411965L
L0L
(lp3831
(lp3832
tp3833
a(L3673491036L
L0L
(lp3834
(lp3835
tp3836
a(L4197990447L
L0L
(lp3837
(lp3838
tp3839
a(L903154985L
L0L
(lp3840
(lp3841
tp3842
a(L3020187L
L0L
(lp3843
(lp3844
tp3845
a(L106L
L0L
(lp3846
(lp3847
tp3848
a(L1317698645L
L93324751L
(lp3849
(lp3850
Vesp_rom_set_cpu_ticks_per_us
p3851
atp3852
atp3853
sI1074247144
(Vesp_rom_spiflash_enable_write
p3854
(lp3855
(L2885777558L
L1303911398L
(lp3856
(lp3857
Vesp_rom_spiflash_wait_idle
p3858
atp3859
a(L3333707777L
L0L
(lp3860
(lp3861
tp3862
a(L2258688484L
L0L
(lp3863
(lp3864
tp3865
a(L99543895L
L0L
(lp3866
(lp3867
tp3868
a(L2993202392L
L0L
(lp3869
(lp3870
tp3871
a(L1265538927L
L242900614L
(lp3872
(lp3873
Vesp_rom_spiflash_read_status
p3874
atp3875
atp3876
sI1074234612
(Vbootloader_common_get_chip_ver_pkg
p3877
(lp3878
(L3197874814L
L1443213481L
(lp3879
(lp3880
tp3881
atp3882
sI1074236916
(Vbootloader_common_ota_select_valid
p3883
(lp3884
(L1563399710L
L3785322319L
(lp3885
(lp3886
Vbootloader_common_ota_select_invalid
p3887
atp3888
a(L3814720849L
L3785322319L
(lp3889
(lp3890
Vbootloader_common_ota_select_crc
p3891
atp3892
a(L3360570486L
L0L
(lp3893
(lp3894
tp3895
atp3896
sI1074244852
(Vrtc_clk_8m_enabled
p3897
(lp3898
(L563532105L
L1443213481L
(lp3899
(lp3900
tp3901
atp3902
sI1074242812
(Vbootloader_load_image
p3903
(lp3904
(L1155870502L
L3785322319L
(lp3905
(lp3906
Vimage_load
p3907
atp3908
atp3909
sI1074241020
(Vverify_load_addresses
p3910
(lp3911
(L2764487219L
L0L
(lp3912
(lp3913
tp3914
a(L106L
L0L
(lp3915
(lp3916
tp3917
a(L97642L
L0L
(lp3918
(lp3919
tp3920
a(L1682572953L
L4032149094L
(lp3921
(lp3922
V__assert_func
p3923
atp3924
a(L371731316L
L2195759072L
(lp3925
(lp3926
tp3927
a(L106L
L0L
(lp3928
(lp3929
tp3930
a(L3747671351L
L2195759072L
(lp3931
(lp3932
tp3933
a(L106L
L0L
(lp3934
(lp3935
tp3936
a(L159211233L
L4171435875L
(lp3937
(lp3938
Vbootloader_util_regions_overlap
p3939
atp3940
a(L3369736729L
L581251951L
(lp3941
(lp3942
Vbootloader_util_regions_overlap
p3943
atp3944
a(L3028481L
L0L
(lp3945
(lp3946
tp3947
a(L129067213L
L242900614L
(lp3948
(lp3949
Vbootloader_util_regions_overlap
p3950
atp3951
a(L51970127L
L2534110409L
(lp3952
(lp3953
tp3954
a(L3212477138L
L1443213481L
(lp3955
(lp3956
tp3957
a(L1032381749L
L0L
(lp3958
(lp3959
tp3960
a(L2837304413L
L0L
(lp3961
(lp3962
tp3963
a(L677569396L
L3785322319L
(lp3964
(lp3965
Vverify_load_addresses
p3966
atp3967
a(L1351513776L
L0L
(lp3968
(lp3969
tp3970
a(L956755582L
L0L
(lp3971
(lp3972
tp3973
a(L1550159667L
L1443213481L
(lp3974
(lp3975
tp3976
a(L2297907636L
L2195759072L
(lp3977
(lp3978
tp3979
a(L106L
L0L
(lp3980
(lp3981
tp3982
a(L1378880375L
L2195759072L
(lp3983
(lp3984
tp3985
a(L106L
L0L
(lp3986
(lp3987
tp3988
a(L1933245593L
L581251951L
(lp3989
(lp3990
Vbootloader_util_regions_overlap
p3991
atp3992
a(L3028481L
L0L
(lp3993
(lp3994
tp3995
a(L2219806806L
L581251951L
(lp3996
(lp3997
Vbootloader_util_regions_overlap
p3998
atp3999
a(L3186102034L
L1690040256L
(lp4000
(lp4001
tp4002
a(L1284972329L
L1443213481L
(lp4003
(lp4004
tp4005
a(L3236457224L
L1443213481L
(lp4006
(lp4007
tp4008
a(L2743341656L
L0L
(lp4009
(lp4010
tp4011
a(L182882711L
L0L
(lp4012
(lp4013
tp4014
a(L2268367078L
L2195759072L
(lp4015
(lp4016
tp4017
a(L297163306L
L0L
(lp4018
(lp4019
tp4020
a(L1900059593L
L0L
(lp4021
(lp4022
tp4023
a(L376010266L
L2534110409L
(lp4024
(lp4025
tp4026
a(L1319531632L
L1443213481L
(lp4027
(lp4028
tp4029
a(L3929371936L
L0L
(lp4030
(lp4031
tp4032
a(L147213506L
L1443213481L
(lp4033
(lp4034
tp4035
a(L4072848040L
L0L
(lp4036
(lp4037
tp4038
a(L106L
L0L
(lp4039
(lp4040
tp4041
a(L268651496L
L1443213481L
(lp4042
(lp4043
tp4044
a(L147213506L
L1443213481L
(lp4045
(lp4046
tp4047
a(L3020204L
L0L
(lp4048
(lp4049
tp4050
a(L885671544L
L2275292552L
(lp4051
(lp4052
Vesp_log_early_timestamp
p4053
atp4054
a(L1303560396L
L0L
(lp4055
(lp4056
tp4057
a(L268651496L
L1443213481L
(lp4058
(lp4059
tp4060
a(L1303560427L
L0L
(lp4061
(lp4062
tp4063
atp4064
sI1074244604
(Vrtc_clk_bbpll_disable
p4065
(lp4066
(L3512291683L
L1690040256L
(lp4067
(lp4068
tp4069
a(L2472207241L
L0L
(lp4070
(lp4071
tp4072
a(L3360570486L
L0L
(lp4073
(lp4074
tp4075
atp4076
sI1074238200
(Vbootloader_random_disable
p4077
(lp4078
(L482324986L
L2935979744L
(lp4079
(lp4080
tp4081
atp4082
ssS'functionsdups'
p4083
g11
((lp4084
tp4085
Rp4086
sS'immediatedups'
p4087
g11
((lp4088
tp4089
Rp4090
sS'functiondups'
p4091
g11
((lp4092
tp4093
Rp4094
sS'fuzzy'
p4095
(dp4096
L366261972L
I1074269876
sL2376760616L
I1074242828
sL1898962604L
I1074238644
sL3223682214L
I1074247692
sL4033782891L
I1074244056
sL1651792242L
I1074247144
sL1500945776L
I1074267948
sL2092869556L
I1074247392
sL1772626723L
I1074235716
sL2539816556L
I1074236544
sL3032120501L
I1074245284
sL2471313117L
I1074240316
sL2641888616L
I1074246336
sL381028389L
I1074240528
sL3711025829L
I1074239836
sL1962232032L
I1074245152
sL797548049L
I1074240148
sL3374853808L
I1074269384
sL2859057779L
I1074269244
sL2835607711L
I1074269616
sL2095240828L
I1074234656
sL1348852091L
I1074247780
sL2182127758L
I1074269700
sL3221945515L
I1074245424
sL1485246373L
I1074240608
sL3525303483L
I1074245016
sL1247030641L
I1074268756
sL2749526724L
I1074239244
sL214341344L
I1074244224
sL1729011238L
I1074241580
sL1959102959L
I1074237368
sL4242478965L
I1074238120
sL2258813065L
I1074269260
sL2216531249L
I1074245044
sL317294020L
I1074235580
sL3281732395L
I1074238864
sL1096063205L
I1074236688
sL2906154889L
I1074247096
sL1065525808L
I1074236784
sL1766137975L
I1074238612
sL1821770661L
I1074237576
sL332090111L
I1074236460
sL282843886L
I1074237628
sL3905831542L
I1074239552
sL3703425408L
I1074244724
sL2038713658L
I1074246292
sL2708185770L
I1074240964
sL3890904617L
I1074245496
sL3530961461L
I1074270320
sL1210592366L
I1074244900
sL1332800441L
I1074237192
sL209111356L
I1074245072
sL3183721996L
I1074235180
sL3558783183L
I1074237904
sL1377360842L
I1074244308
sL2726707668L
I1074268460
sL3300368739L
I1074267724
sL1161792488L
I1074240776
sL4091350277L
I1074247200
sL2871786995L
I1074269480
sL3578810761L
I1074235480
sL531949167L
I1074236952
sL1060788199L
I1074245192
sL994994961L
I1074238528
sL2663898648L
I1074269408
sL1155028103L
I1074269652
sL627477382L
I1074235828
sL814911857L
I1074240168
sL3280013925L
I1074238200
sL1862804207L
I1074243708
sL2806886186L
I1074268516
sL1815510750L
I1074244444
sL963803290L
I1074245608
sL3715950101L
I1074244024
sL3420458249L
I1074247000
sL812561285L
I1074239340
sL1872673135L
I1074239812
sL1214705044L
I1074236296
sL4155364446L
I1074236916
sL755401973L
I1074267616
sL230862646L
I1074237336
sL2452281182L
I1074246832
sL2367595883L
I1074236444
sL1564551092L
I1074241492
sL1122585247L
I1074243096
sL3659714901L
I1074241020
sL2752268667L
I1074244272
sL160672234L
I1074241708
sL1950296771L
I1074247528
sL1396037064L
I1074244664
sL1014311563L
I1074242328
ssb.