ccopy_reg
_reconstructor
p0
(crizzo
RizzoSignature
p1
c__builtin__
object
p2
Ntp3
Rp4
(dp5
S'formal'
p6
(dp7
L2399612421L
I1074245480
sL1207862518L
I1074240588
sL250925565L
I1074238604
sL1741170115L
I1074237924
sL247137719L
I1074247508
sL3505757179L
I1074234704
sL3976689673L
I1074269616
sL2423107704L
I1074239268
sL138009647L
I1074234744
sL4280873022L
I1074269600
sL1237733855L
I1074238828
sL1348277828L
I1074245628
sL4213015302L
I1074243136
sL2940696155L
I1074245840
sL1696635966L
I1074245256
sL3230852531L
I1074238192
sL3098316936L
I1074270040
sL693028457L
I1074240412
sL2129286594L
I1074268872
sL3232221579L
I1074244640
sL142168405L
I1074245812
sL2702580795L
I1074237288
sL1458472899L
I1074236628
sL3646029665L
I1074244804
sL2896295319L
I1074236828
sL944494460L
I1074245020
sL2285799430L
I1074244600
sL1674148343L
I1074245536
sL2030740789L
I1074246640
sL4171974888L
I1074269880
sL2485902447L
I1074236708
sL2460396001L
I1074248000
sL3333913339L
I1074243440
sL2741930811L
I1074240064
sL1585823442L
I1074244452
sL1622896354L
I1074244480
sL3259090715L
I1074247152
sL617669774L
I1074247312
sL3392225391L
I1074269908
sL426938157L
I1074235256
sL3705747329L
I1074247400
sL878917889L
I1074238112
sL1016500464L
I1074244960
sL2186980156L
I1074245080
sL2951847322L
I1074244668
sL2341912058L
I1074269684
sL1568446217L
I1074236532
sL3476917835L
I1074236988
sL2635990884L
I1074241916
sL1259414891L
I1074245208
sL1056742531L
I1074236384
sL768348750L
I1074238776
sL426984944L
I1074236900
sL4117027047L
I1074268816
sL676927194L
I1074269104
sL2945163535L
I1074240096
sL2277098556L
I1074236800
sL3307282855L
I1074238084
sL1853923591L
I1074245388
sL1072211552L
I1074270660
sL911764690L
I1074237620
sL1923374634L
I1074245956
sL1043339424L
I1074240336
sL3837755948L
I1074240432
sL60374282L
I1074245232
sL1191319953L
I1074269956
sL692183250L
I1074270224
sL2543988023L
I1074240824
sL2472605942L
I1074245768
sL1688477234L
I1074267820
sL1109026444L
I1074269752
sL2956233896L
I1074242636
sL798282249L
I1074269992
sL1189478010L
I1074241696
sL1687894276L
I1074244352
sL3514307815L
I1074248088
sL4038945309L
I1074235600
sL696241373L
I1074237672
sL2373957340L
I1074245416
sL609711859L
I1074267724
sL518463041L
I1074235804
sL2626436395L
I1074236932
sL3978280629L
I1074241300
sL1275163307L
I1074244552
sL2901532506L
I1074239388
sL1709641802L
I1074239752
sL3050555005L
I1074247120
sL2997001746L
I1074237220
sL952722552L
I1074247448
sL2363736404L
I1074243152
sL4079247507L
I1074241052
sL2819127986L
I1074236952
sL3980264325L
I1074246684
sL149978958L
I1074236564
sL1877634603L
I1074270892
sL635716390L
I1074268040
sL3518743416L
I1074238520
sL3310923163L
I1074238728
sL3379108269L
I1074244036
sL2987381963L
I1074269112
sL4075620904L
I1074267139
sL3459889393L
I1074244384
sL790507223L
I1074236732
sL1168915326L
I1074235548
sL873382621L
I1074235916
sL404293581L
I1074237364
sL2263182908L
I1074238104
sL3732155567L
I1074247700
sL700866072L
I1074237944
sL3630163135L
I1074236816
sL188664287L
I1074235224
sL782838600L
I1074240784
sL2587289812L
I1074235648
sL4138236490L
I1074240880
sL3075360168L
I1074241244
sL692536993L
I1074237260
sL829503895L
I1074247836
sL2218866089L
I1074238880
sL2114693345L
I1074241788
sL2322004363L
I1074269640
sL144857933L
I1074240800
sL1652676726L
I1074270820
sL906556151L
I1074237396
sL2398800133L
I1074245496
ssS'immediates'
p8
(dp9
sS'formaldups'
p10
c__builtin__
set
p11
((lp12
tp13
Rp14
sS'stringdups'
p15
g11
((lp16
tp17
Rp18
sS'fuzzydups'
p19
g11
((lp20
tp21
Rp22
sS'strings'
p23
(dp24
sS'functions'
p25
(dp26
I1074236932
(Vbootloader_common_ota_select_crc
p27
(lp28
(L3214440559L
L0L
(lp29
(lp30
tp31
atp32
sI1074244352
(Vwdt_hal_write_protect_disable
p33
(lp34
(L3345031483L
L0L
(lp35
(lp36
tp37
a(L4195472003L
L0L
(lp38
(lp39
tp40
a(L3360570486L
L0L
(lp41
(lp42
tp43
a(L1210571996L
L0L
(lp44
(lp45
tp46
atp47
sI1074235648
(Vbootloader_flash_xmc_startup
p48
(lp49
(L3680458509L
L3785322319L
(lp50
(lp51
Vis_xmc_chip_strict
p52
atp53
a(L2258688482L
L0L
(lp54
(lp55
tp56
a(L3360570486L
L0L
(lp57
(lp58
tp59
a(L2860324232L
L3785322319L
(lp60
(lp61
Vbootloader_flash_read_sfdp
p62
atp63
a(L2097895665L
L2567856111L
(lp64
(lp65
Vesp_log_early_timestamp
p66
aVbootloader_execute_flash_command
p67
aVbootloader_execute_flash_command
p68
aVbootloader_execute_flash_command
p69
aVbootloader_execute_flash_command
p70
aVbootloader_read_flash_id
p71
aVis_xmc_chip_strict
p72
atp73
a(L4062067944L
L3785322319L
(lp74
(lp75
Vesp_log_early_timestamp
p76
atp77
atp78
sI1074245376
(Vrtc_clk_slow_src_get
p79
(lp80
(L376617603L
L3785322319L
(lp81
(lp82
Vclk_ll_rtc_slow_get_src
p83
atp84
atp85
sI1074267136
(V_init
p86
(lp87
(L3493042598L
L0L
(lp88
(lp89
tp90
atp91
sI1074235916
(Vbootloader_flash_gpio_config
p92
(lp93
(L3448878117L
L3785322319L
(lp94
(lp95
Vbootloader_common_get_chip_ver_pkg
p96
atp97
a(L106L
L0L
(lp98
(lp99
tp100
a(L1998579353L
L0L
(lp101
(lp102
tp103
a(L106L
L0L
(lp104
(lp105
tp106
a(L1029428446L
L0L
(lp107
(lp108
tp109
a(L4242290324L
L0L
(lp110
(lp111
tp112
a(L106L
L0L
(lp113
(lp114
tp115
a(L4003626558L
L0L
(lp116
(lp117
tp118
a(L1553523094L
L0L
(lp119
(lp120
tp121
a(L3360570486L
L0L
(lp122
(lp123
tp124
atp125
sI1074245388
(Vrtc_clk_slow_freq_get_hz
p126
(lp127
(L1826267122L
L3785322319L
(lp128
(lp129
Vclk_ll_rtc_slow_get_src
p130
atp131
a(L4158856552L
L0L
(lp132
(lp133
tp134
a(L3631005815L
L0L
(lp135
(lp136
tp137
a(L702740041L
L0L
(lp138
(lp139
tp140
a(L3360570486L
L0L
(lp141
(lp142
tp143
atp144
sI1074267139
(V_text_start
p145
(lp146
(L2957395042L
L0L
(lp147
(lp148
tp149
atp150
sI1074269956
(Vbootloader_console_init
p151
(lp152
(L2283227580L
L1832448559L
(lp153
(lp154
Vesp_rom_uart_tx_wait_idle
p155
aVrtc_clk_apb_freq_get
p156
aVesp_rom_uart_set_clock_baudrate
p157
atp158
atp159
sI1074239752
(Vbootloader_utility_get_selected_boot_partition
p160
(lp161
(L2184143128L
L0L
(lp162
(lp163
tp164
a(L3562950348L
L0L
(lp165
(lp166
tp167
a(L2305665381L
L3785322319L
(lp168
(lp169
Vesp_log_early_timestamp
p170
atp171
a(L194246498L
L0L
(lp172
(lp173
tp174
a(L3360570486L
L0L
(lp175
(lp176
tp177
a(L1375577398L
L3785322319L
(lp178
(lp179
Vbootloader_mmap
p180
atp181
a(L4068127698L
L3785322319L
(lp182
(lp183
Vesp_log_early_timestamp
p184
atp185
a(L2463613311L
L1880226080L
(lp186
(lp187
Vbootloader_munmap
p188
aVbootloader_common_ota_select_invalid
p189
atp190
a(L1103573946L
L0L
(lp191
(lp192
tp193
a(L1876835593L
L3785322319L
(lp194
(lp195
Vbootloader_common_get_active_otadata
p196
atp197
a(L106L
L0L
(lp198
(lp199
tp200
a(L569346373L
L0L
(lp201
(lp202
tp203
a(L788494392L
L3785322319L
(lp204
(lp205
Vbootloader_common_ota_select_invalid
p206
atp207
a(L2801470901L
L0L
(lp208
(lp209
tp210
a(L1838181073L
L3785322319L
(lp211
(lp212
Vesp_log_early_timestamp
p213
atp214
a(L2440848641L
L3785322319L
(lp215
(lp216
Vesp_log_early_timestamp
p217
atp218
a(L505081345L
L0L
(lp219
(lp220
tp221
a(L919052234L
L3785322319L
(lp222
(lp223
Vbootloader_common_ota_select_crc
p224
atp225
a(L2287680455L
L0L
(lp226
(lp227
tp228
a(L3542558037L
L3785322319L
(lp229
(lp230
Vbootloader_common_ota_select_crc
p231
atp232
a(L1299866312L
L0L
(lp233
(lp234
tp235
a(L1279036405L
L0L
(lp236
(lp237
tp238
a(L1406565969L
L3785322319L
(lp239
(lp240
Vesp_log_early_timestamp
p241
atp242
a(L2867263840L
L0L
(lp243
(lp244
tp245
a(L4142614645L
L3785322319L
(lp246
(lp247
Vesp_log_early_timestamp
p248
atp249
atp250
sI1074238728
(Vtry_load_partition
p251
(lp252
(L1263750142L
L0L
(lp253
(lp254
tp255
a(L2258688482L
L0L
(lp256
(lp257
tp258
a(L3360570486L
L0L
(lp259
(lp260
tp261
a(L530241438L
L3785322319L
(lp262
(lp263
Vbootloader_load_image
p264
atp265
a(L3010049260L
L3785322319L
(lp266
(lp267
Vesp_log_early_timestamp
p268
atp269
atp270
sI1074241300
(Vverify_load_addresses
p271
(lp272
(L2764487219L
L0L
(lp273
(lp274
tp275
a(L106L
L0L
(lp276
(lp277
tp278
a(L97642L
L0L
(lp279
(lp280
tp281
a(L532903251L
L3785322319L
(lp282
(lp283
V__assert_func
p284
atp285
a(L170023642L
L0L
(lp286
(lp287
tp288
a(L106L
L0L
(lp289
(lp290
tp291
a(L993824775L
L0L
(lp292
(lp293
tp294
a(L106L
L0L
(lp295
(lp296
tp297
a(L3188534306L
L3785322319L
(lp298
(lp299
Vbootloader_util_regions_overlap
p300
atp301
a(L3284083279L
L3785322319L
(lp302
(lp303
Vbootloader_util_regions_overlap
p304
atp305
a(L3028481L
L0L
(lp306
(lp307
tp308
a(L1178890466L
L3785322319L
(lp309
(lp310
Vbootloader_util_regions_overlap
p311
atp312
a(L2117228786L
L0L
(lp313
(lp314
tp315
a(L273144354L
L0L
(lp316
(lp317
tp318
a(L1016222393L
L0L
(lp319
(lp320
tp321
a(L2661576437L
L0L
(lp322
(lp323
tp324
a(L2503437888L
L0L
(lp325
(lp326
tp327
a(L677569396L
L3785322319L
(lp328
(lp329
Vverify_load_addresses
p330
atp331
a(L1351513776L
L0L
(lp332
(lp333
tp334
a(L3061261803L
L0L
(lp335
(lp336
tp337
a(L2743341656L
L0L
(lp338
(lp339
tp340
a(L791897016L
L0L
(lp341
(lp342
tp343
a(L729859039L
L0L
(lp344
(lp345
tp346
a(L4026856790L
L3785322319L
(lp347
(lp348
Vbootloader_util_regions_overlap
p349
atp350
a(L3028481L
L0L
(lp351
(lp352
tp353
a(L1567678174L
L3785322319L
(lp354
(lp355
Vbootloader_util_regions_overlap
p356
atp357
a(L2782864159L
L0L
(lp358
(lp359
tp360
a(L476078031L
L0L
(lp361
(lp362
tp363
a(L1301487450L
L0L
(lp364
(lp365
tp366
a(L1527375920L
L0L
(lp367
(lp368
tp369
a(L307916850L
L0L
(lp370
(lp371
tp372
a(L697239146L
L0L
(lp373
(lp374
tp375
a(L106L
L0L
(lp376
(lp377
tp378
a(L955505162L
L0L
(lp379
(lp380
tp381
a(L307917400L
L0L
(lp382
(lp383
tp384
a(L490080443L
L0L
(lp385
(lp386
tp387
a(L106L
L0L
(lp388
(lp389
tp390
a(L131589412L
L3785322319L
(lp391
(lp392
Vesp_log_early_timestamp
p393
atp394
a(L955505038L
L0L
(lp395
(lp396
tp397
a(L1303560427L
L0L
(lp398
(lp399
tp400
atp401
sI1074247700
(Vesp_rom_spiflash_erase_sector
p402
(lp403
(L1384786480L
L0L
(lp404
(lp405
tp406
a(L2258688483L
L0L
(lp407
(lp408
tp409
a(L3360570486L
L0L
(lp410
(lp411
tp412
a(L3212356251L
L3785322319L
(lp413
(lp414
Vesp_rom_spiflash_enable_write
p415
atp416
a(L184152988L
L0L
(lp417
(lp418
tp419
a(L991301353L
L3785322319L
(lp420
(lp421
Vesp_rom_spiflash_wait_idle
p422
atp423
a(L3333707777L
L0L
(lp424
(lp425
tp426
a(L3582858798L
L3785322319L
(lp427
(lp428
Vesp_rom_spiflash_wait_idle
p429
atp430
atp431
sI1074240784
(Vbootloader_console_deinit
p432
(lp433
(L4005071210L
L0L
(lp434
(lp435
tp436
atp437
sI1074270224
(Vrtc_clk_init
p438
(lp439
(L1433536254L
L0L
(lp440
(lp441
tp442
a(L42671777L
L3785322319L
(lp443
(lp444
Vrtc_clk_cpu_freq_to_xtal
p445
atp446
a(L1950731570L
L3785322319L
(lp447
(lp448
Vrtc_clk_xtal_freq_get
p449
atp450
a(L89029051L
L0L
(lp451
(lp452
tp453
a(L4187693717L
L3785322319L
(lp454
(lp455
Vrtc_clk_xtal_freq_estimate
p456
atp457
a(L3965386186L
L3785322319L
(lp458
(lp459
Vesp_log_early_timestamp
p460
atp461
a(L2928127184L
L1157885199L
(lp462
(lp463
Vesp_rom_uart_tx_wait_idle
p464
aVrtc_clk_xtal_freq_update
p465
aVrtc_clk_apb_freq_update
p466
aVrtc_clk_cpu_freq_get_config
p467
aVrtc_clk_cpu_freq_mhz_to_config
p468
atp469
a(L170300763L
L1880226080L
(lp470
(lp471
Vesp_log_early_timestamp
p472
aVabort
p473
atp474
a(L3028481L
L0L
(lp475
(lp476
tp477
a(L4070631611L
L3785322319L
(lp478
(lp479
Vrtc_clk_xtal_freq_estimate
p480
atp481
a(L2871935663L
L3785322319L
(lp482
(lp483
Vesp_log_early_timestamp
p484
atp485
a(L2976141507L
L3785322319L
(lp486
(lp487
Vrtc_clk_cpu_freq_set_config
p488
atp489
a(L912310138L
L3785322319L
(lp490
(lp491
Vrtc_clk_32k_enable
p492
atp493
a(L3191820416L
L1832448559L
(lp494
(lp495
Vrtc_clk_8m_enable
p496
aVrtc_clk_fast_src_set
p497
aVrtc_clk_slow_src_set
p498
atp499
a(L1232958848L
L0L
(lp500
(lp501
tp502
atp503
sI1074241052
(Vprocess_image_header
p504
(lp505
(L4286422149L
L3785322319L
(lp506
(lp507
Vbootloader_flash_read
p508
atp509
a(L3020204L
L0L
(lp510
(lp511
tp512
a(L4130667142L
L0L
(lp513
(lp514
tp515
a(L3131381282L
L0L
(lp516
(lp517
tp518
a(L1161397362L
L3785322319L
(lp519
(lp520
Vbootloader_sha256_start
p521
atp522
a(L1948257695L
L3785322319L
(lp523
(lp524
Vbootloader_sha256_data
p525
atp526
a(L1095449651L
L0L
(lp527
(lp528
tp529
a(L3020204L
L0L
(lp530
(lp531
tp532
a(L702739510L
L0L
(lp533
(lp534
tp535
a(L3360570486L
L0L
(lp536
(lp537
tp538
a(L1435924568L
L3785322319L
(lp539
(lp540
Vesp_log_early_timestamp
p541
atp542
a(L3718883008L
L3785322319L
(lp543
(lp544
Vbootloader_common_check_chip_validity
p545
atp546
a(L3677035427L
L0L
(lp547
(lp548
tp549
a(L3028481L
L0L
(lp550
(lp551
tp552
a(L4249612150L
L3785322319L
(lp553
(lp554
Vesp_log_early_timestamp
p555
atp556
a(L2250109166L
L0L
(lp557
(lp558
tp559
a(L1235012870L
L0L
(lp560
(lp561
tp562
a(L3063569071L
L0L
(lp563
(lp564
tp565
atp566
sI1074246684
(Vrtc_clk_cal_internal
p567
(lp568
(L3168308412L
L0L
(lp569
(lp570
tp571
a(L3863152980L
L3785322319L
(lp572
(lp573
V__assert_func
p574
atp575
a(L4026264710L
L0L
(lp576
(lp577
tp578
a(L54826884L
L0L
(lp579
(lp580
tp581
a(L234746575L
L0L
(lp582
(lp583
tp584
a(L861896856L
L3785322319L
(lp585
(lp586
Vrtc_clk_8m_enable
p587
atp588
a(L2689039534L
L3785322319L
(lp589
(lp590
Vrtc_clk_slow_src_get
p591
atp592
a(L1211065969L
L0L
(lp593
(lp594
tp595
a(L97689L
L0L
(lp596
(lp597
tp598
a(L1703854795L
L0L
(lp599
(lp600
tp601
a(L3028464L
L0L
(lp602
(lp603
tp604
a(L3028481L
L0L
(lp605
(lp606
tp607
a(L3450258732L
L0L
(lp608
(lp609
tp610
a(L944966L
L3785322319L
(lp611
(lp612
Vrtc_clk_xtal_freq_get
p613
atp614
a(L2780079961L
L0L
(lp615
(lp616
tp617
a(L3848725940L
L0L
(lp618
(lp619
tp620
a(L4169951882L
L3785322319L
(lp621
(lp622
Vesp_log_early_timestamp
p623
atp624
a(L3360570486L
L0L
(lp625
(lp626
tp627
a(L794862694L
L0L
(lp628
(lp629
tp630
a(L3245477987L
L0L
(lp631
(lp632
tp633
a(L2910371777L
L0L
(lp634
(lp635
tp636
a(L2902417580L
L0L
(lp637
(lp638
tp639
a(L4153720753L
L0L
(lp640
(lp641
tp642
a(L3631005548L
L0L
(lp643
(lp644
tp645
a(L2144990312L
L0L
(lp646
(lp647
tp648
a(L3352263364L
L0L
(lp649
(lp650
tp651
a(L3028464L
L0L
(lp652
(lp653
tp654
a(L1325746132L
L3785322319L
(lp655
(lp656
Vrtc_clk_8m_enable
p657
atp658
atp659
sI1074236952
(Vbootloader_common_ota_select_valid
p660
(lp661
(L1563399710L
L3785322319L
(lp662
(lp663
Vbootloader_common_ota_select_invalid
p664
atp665
a(L3814720849L
L3785322319L
(lp666
(lp667
Vbootloader_common_ota_select_crc
p668
atp669
a(L3360570486L
L0L
(lp670
(lp671
tp672
atp673
sI1074247448
(Vesp_rom_spiflash_enable_write
p674
(lp675
(L2890359061L
L3785322319L
(lp676
(lp677
Vesp_rom_spiflash_wait_idle
p678
atp679
a(L3137194272L
L0L
(lp680
(lp681
tp682
a(L2258718275L
L0L
(lp683
(lp684
tp685
a(L99543895L
L0L
(lp686
(lp687
tp688
a(L2993202392L
L0L
(lp689
(lp690
tp691
a(L1804543818L
L3785322319L
(lp692
(lp693
Vesp_rom_spiflash_read_status
p694
atp695
atp696
sI1074269992
(Vesp_cpu_configure_region_protection
p697
(lp698
(L2123781700L
L0L
(lp699
(lp700
tp701
a(L180431425L
L3785322319L
(lp702
(lp703
Vmpu_hal_set_region_access
p704
atp705
a(L2537388152L
L3785322319L
(lp706
(lp707
Vmpu_hal_set_region_access
p708
atp709
atp710
sI1074237220
(Vbootloader_common_get_active_otadata
p711
(lp712
(L3317503532L
L0L
(lp713
(lp714
tp715
a(L2503049265L
L1832448559L
(lp716
(lp717
Vbootloader_common_ota_select_valid
p718
aVbootloader_common_ota_select_valid
p719
aVbootloader_common_select_otadata
p720
atp721
a(L735741265L
L0L
(lp722
(lp723
tp724
atp725
sI1074236708
(Vefuse_hal_chip_revision
p726
(lp727
(L2719302832L
L1880226080L
(lp728
(lp729
Vefuse_hal_get_major_chip_version
p730
aVefuse_hal_get_minor_chip_version
p731
atp732
atp733
sI1074239268
(Vset_actual_ota_seq
p734
(lp735
(L4094723830L
L0L
(lp736
(lp737
tp738
a(L2573507321L
L0L
(lp739
(lp740
tp741
a(L3461827603L
L1832448559L
(lp742
(lp743
Vbootloader_common_ota_select_crc
p744
aVesp_flash_encryption_enabled
p745
aVbootloader_flash_erase_sector
p746
atp747
a(L3292941333L
L3785322319L
(lp748
(lp749
Vbootloader_flash_write
p750
atp751
a(L1764870441L
L3785322319L
(lp752
(lp753
Vesp_log_early_timestamp
p754
atp755
a(L2939835162L
L3785322319L
(lp756
(lp757
Vesp_log_early_timestamp
p758
atp759
a(L3360570486L
L0L
(lp760
(lp761
tp762
atp763
sI1074244640
(Vclk_ll_rtc_slow_get_src
p764
(lp765
(L416280487L
L0L
(lp766
(lp767
tp768
a(L3020187L
L0L
(lp769
(lp770
tp771
a(L2902417580L
L0L
(lp772
(lp773
tp774
a(L2258688485L
L0L
(lp775
(lp776
tp777
a(L3360570486L
L0L
(lp778
(lp779
tp780
atp781
sI1074244384
(Vwdt_hal_set_flashboot_en
p782
(lp783
(L2375320464L
L0L
(lp784
(lp785
tp786
a(L3915867581L
L0L
(lp787
(lp788
tp789
a(L3360570486L
L0L
(lp790
(lp791
tp792
a(L1643092119L
L0L
(lp793
(lp794
tp795
atp796
sI1074240800
(V__assert_func
p797
(lp798
(L1697582622L
L0L
(lp799
(lp800
tp801
a(L106L
L0L
(lp802
(lp803
tp804
atp805
sI1074238508
(Vbootloader_clock_get_rated_freq_mhz
p806
(lp807
(L376617603L
L3785322319L
(lp808
(lp809
Vefuse_hal_get_rated_freq_mhz
p810
atp811
atp812
sI1074245416
(Vrtc_clk_fast_src_set
p813
(lp814
(L1233611555L
L0L
(lp815
(lp816
tp817
a(L3020187L
L0L
(lp818
(lp819
tp820
a(L3827921190L
L3785322319L
(lp821
(lp822
Vabort
p823
atp824
a(L2904656757L
L0L
(lp825
(lp826
tp827
a(L206212292L
L0L
(lp828
(lp829
tp830
a(L300459962L
L0L
(lp831
(lp832
tp833
atp834
sI1074269752
(Vbootloader_config_wdt
p835
(lp836
(L197822005L
L505859776L
(lp837
(lp838
Vwdt_hal_write_protect_disable
p839
aVwdt_hal_set_flashboot_en
p840
aVwdt_hal_write_protect_enable
p841
aVwdt_hal_init
p842
aVrtc_clk_slow_freq_get_hz
p843
aVwdt_hal_write_protect_disable
p844
aVwdt_hal_config_stage
p845
aVwdt_hal_enable
p846
aVwdt_hal_write_protect_enable
p847
aVwdt_hal_write_protect_disable
p848
aVwdt_hal_set_flashboot_en
p849
aVwdt_hal_write_protect_enable
p850
atp851
atp852
sI1074236732
(Vefuse_hal_get_major_chip_version
p853
(lp854
(L1242126302L
L0L
(lp855
(lp856
tp857
a(L894792960L
L0L
(lp858
(lp859
tp860
a(L3783348505L
L0L
(lp861
(lp862
tp863
a(L3360570486L
L0L
(lp864
(lp865
tp866
atp867
sI1074236988
(Vbootloader_common_check_chip_validity
p868
(lp869
(L392423210L
L0L
(lp870
(lp871
tp872
a(L62642320L
L3785322319L
(lp873
(lp874
Vesp_log_early_timestamp
p875
atp876
a(L522103407L
L3785322319L
(lp877
(lp878
Vefuse_hal_chip_revision
p879
atp880
a(L106L
L0L
(lp881
(lp882
tp883
a(L1989150608L
L0L
(lp884
(lp885
tp886
a(L720806035L
L3785322319L
(lp887
(lp888
Vesp_log_early_timestamp
p889
atp890
a(L3028464L
L0L
(lp891
(lp892
tp893
a(L1397322129L
L0L
(lp894
(lp895
tp896
a(L3021749L
L0L
(lp897
(lp898
tp899
a(L3790510041L
L3785322319L
(lp900
(lp901
Vesp_log_early_timestamp
p902
atp903
a(L1299867982L
L0L
(lp904
(lp905
tp906
a(L3360570486L
L0L
(lp907
(lp908
tp909
atp910
sI1074244668
(Vrtc_clk_32k_enable_common
p911
(lp912
(L1442393279L
L0L
(lp913
(lp914
tp915
a(L97689L
L0L
(lp916
(lp917
tp918
a(L2218417250L
L0L
(lp919
(lp920
tp921
a(L533879761L
L0L
(lp922
(lp923
tp924
a(L51458058L
L0L
(lp925
(lp926
tp927
atp928
sI1074238520
(Vlog_invalid_app_partition
p929
(lp930
(L3121159614L
L0L
(lp931
(lp932
tp933
a(L3028464L
L0L
(lp934
(lp935
tp936
a(L1381405837L
L3785322319L
(lp937
(lp938
Vesp_log_early_timestamp
p939
atp940
a(L3833270346L
L0L
(lp941
(lp942
tp943
a(L3360570486L
L0L
(lp944
(lp945
tp946
a(L3430459325L
L3785322319L
(lp947
(lp948
Vesp_log_early_timestamp
p949
atp950
a(L3309219235L
L3785322319L
(lp951
(lp952
Vesp_log_early_timestamp
p953
atp954
atp955
sI1074238776
(Vcache_ll_l1_enable_bus
p956
(lp957
(L1908488057L
L0L
(lp958
(lp959
tp960
atp961
sI1074240824
(Vabort
p962
(lp963
(L56968919L
L0L
(lp964
(lp965
tp966
a(L409471316L
L0L
(lp967
(lp968
tp969
a(L106L
L0L
(lp970
(lp971
tp972
atp973
sI1074245956
(Vrtc_clk_cpu_freq_set_config
p974
(lp975
(L97989050L
L3785322319L
(lp976
(lp977
Vrtc_clk_xtal_freq_get
p978
atp979
a(L3020187L
L0L
(lp980
(lp981
tp982
a(L3028464L
L0L
(lp983
(lp984
tp985
a(L264223053L
L1880226080L
(lp986
(lp987
Vrtc_clk_cpu_freq_to_xtal
p988
aVrtc_clk_wait_for_slow_cycle
p989
atp990
a(L94425498L
L3785322319L
(lp991
(lp992
Vrtc_clk_bbpll_disable
p993
atp994
a(L3978916712L
L0L
(lp995
(lp996
tp997
a(L2977209154L
L0L
(lp998
(lp999
tp1000
a(L2736411858L
L3785322319L
(lp1001
(lp1002
Vrtc_clk_cpu_freq_to_xtal
p1003
atp1004
a(L3360570486L
L0L
(lp1005
(lp1006
tp1007
a(L3020187L
L0L
(lp1008
(lp1009
tp1010
a(L106L
L0L
(lp1011
(lp1012
tp1013
a(L4139299579L
L1880226080L
(lp1014
(lp1015
Vrtc_clk_wait_for_slow_cycle
p1016
aVrtc_clk_xtal_freq_get
p1017
atp1018
a(L106L
L0L
(lp1019
(lp1020
tp1021
a(L1388483569L
L0L
(lp1022
(lp1023
tp1024
a(L106L
L0L
(lp1025
(lp1026
tp1027
a(L83268611L
L0L
(lp1028
(lp1029
tp1030
a(L106L
L0L
(lp1031
(lp1032
tp1033
a(L82344823L
L0L
(lp1034
(lp1035
tp1036
a(L106L
L0L
(lp1037
(lp1038
tp1039
a(L1274797871L
L0L
(lp1040
(lp1041
tp1042
a(L2960675980L
L0L
(lp1043
(lp1044
tp1045
a(L2332426982L
L1880226080L
(lp1046
(lp1047
Vclk_ll_rtc_slow_get_src
p1048
aVrtc_clk_cpu_freq_to_pll_mhz
p1049
atp1050
a(L97866512L
L0L
(lp1051
(lp1052
tp1053
a(L83268344L
L0L
(lp1054
(lp1055
tp1056
a(L82345090L
L0L
(lp1057
(lp1058
tp1059
a(L1299628291L
L0L
(lp1060
(lp1061
tp1062
a(L2382164494L
L0L
(lp1063
(lp1064
tp1065
a(L2258807646L
L0L
(lp1066
(lp1067
tp1068
a(L878473564L
L0L
(lp1069
(lp1070
tp1071
a(L2389426015L
L0L
(lp1072
(lp1073
tp1074
a(L1596574736L
L0L
(lp1075
(lp1076
tp1077
a(L2086626670L
L0L
(lp1078
(lp1079
tp1080
a(L1302638456L
L0L
(lp1081
(lp1082
tp1083
a(L810137203L
L0L
(lp1084
(lp1085
tp1086
a(L87353900L
L0L
(lp1087
(lp1088
tp1089
a(L3020187L
L0L
(lp1090
(lp1091
tp1092
a(L106L
L0L
(lp1093
(lp1094
tp1095
a(L1226014053L
L0L
(lp1096
(lp1097
tp1098
atp1099
sI1074267724
(Vcall_start_cpu0
p1100
(lp1101
(L3609105705L
L3785322319L
(lp1102
(lp1103
Vbootloader_init
p1104
atp1105
a(L3827921190L
L3785322319L
(lp1106
(lp1107
Vbootloader_reset
p1108
atp1109
a(L3671769072L
L3785322319L
(lp1110
(lp1111
Vbootloader_utility_load_partition_table
p1112
atp1113
a(L1827945991L
L3785322319L
(lp1114
(lp1115
Vesp_log_early_timestamp
p1116
atp1117
a(L736289835L
L3785322319L
(lp1118
(lp1119
Vbootloader_utility_get_selected_boot_partition
p1120
atp1121
a(L3180226296L
L3785322319L
(lp1122
(lp1123
Vbootloader_utility_load_boot_image
p1124
atp1125
atp1126
sI1074240064
(Vbootloader_reset
p1127
(lp1128
(L4123387220L
L3785322319L
(lp1129
(lp1130
Vbootloader_console_deinit
p1131
atp1132
a(L106L
L0L
(lp1133
(lp1134
tp1135
atp1136
sI1074243136
(Vbootloader_load_image
p1137
(lp1138
(L1155870502L
L3785322319L
(lp1139
(lp1140
Vimage_load
p1141
atp1142
atp1143
sI1074248000
(Vesp_rom_spiflash_write_encrypted
p1144
(lp1145
(L1944247967L
L0L
(lp1146
(lp1147
tp1148
a(L3637183229L
L0L
(lp1149
(lp1150
tp1151
a(L97689L
L0L
(lp1152
(lp1153
tp1154
a(L3061232074L
L0L
(lp1155
(lp1156
tp1157
a(L1678068038L
L0L
(lp1158
(lp1159
tp1160
a(L1309309703L
L3785322319L
(lp1161
(lp1162
Vesp_rom_spiflash_write
p1163
atp1164
a(L3850908019L
L0L
(lp1165
(lp1166
tp1167
a(L735741265L
L0L
(lp1168
(lp1169
tp1170
atp1171
sI1074237260
(Vbootloader_common_ota_select_invalid
p1172
(lp1173
(L4027567199L
L0L
(lp1174
(lp1175
tp1176
a(L3397985842L
L0L
(lp1177
(lp1178
tp1179
a(L2258867228L
L0L
(lp1180
(lp1181
tp1182
a(L3785235668L
L0L
(lp1183
(lp1184
tp1185
atp1186
sI1074240588
(Vbootloader_sha256_finish
p1187
(lp1188
(L4066096136L
L0L
(lp1189
(lp1190
tp1191
a(L3125987449L
L0L
(lp1192
(lp1193
tp1194
a(L3884092851L
L3785322319L
(lp1195
(lp1196
V__assert_func
p1197
atp1198
a(L3020204L
L0L
(lp1199
(lp1200
tp1201
a(L1816853500L
L0L
(lp1202
(lp1203
tp1204
a(L2534656226L
L0L
(lp1205
(lp1206
tp1207
a(L551614134L
L3785322319L
(lp1208
(lp1209
Vbootloader_sha256_data
p1210
atp1211
a(L3281735505L
L0L
(lp1212
(lp1213
tp1214
a(L841302101L
L3785322319L
(lp1215
(lp1216
Vbootloader_sha256_data
p1217
atp1218
a(L3768329152L
L0L
(lp1219
(lp1220
tp1221
a(L657425439L
L0L
(lp1222
(lp1223
tp1224
a(L3930848034L
L0L
(lp1225
(lp1226
tp1227
a(L657425439L
L0L
(lp1228
(lp1229
tp1230
a(L4116699460L
L0L
(lp1231
(lp1232
tp1233
a(L3511307343L
L0L
(lp1234
(lp1235
tp1236
a(L3347778L
L0L
(lp1237
(lp1238
tp1239
a(L3360570486L
L0L
(lp1240
(lp1241
tp1242
atp1243
sI1074242636
(Vimage_load
p1244
(lp1245
(L3559420668L
L0L
(lp1246
(lp1247
tp1248
a(L1899869541L
L0L
(lp1249
(lp1250
tp1251
a(L979631281L
L0L
(lp1252
(lp1253
tp1254
a(L1525480527L
L0L
(lp1255
(lp1256
tp1257
a(L1043148059L
L0L
(lp1258
(lp1259
tp1260
a(L2796536461L
L0L
(lp1261
(lp1262
tp1263
a(L2974022397L
L3785322319L
(lp1264
(lp1265
Vesp_log_early_timestamp
p1266
atp1267
a(L2068384292L
L0L
(lp1268
(lp1269
tp1270
a(L1968553470L
L3785322319L
(lp1271
(lp1272
Vbootloader_sha256_finish
p1273
atp1274
a(L4209044681L
L0L
(lp1275
(lp1276
tp1277
a(L3225218531L
L0L
(lp1278
(lp1279
tp1280
a(L3802071166L
L0L
(lp1281
(lp1282
tp1283
a(L1301867039L
L3785322319L
(lp1284
(lp1285
Vprocess_image_header
p1286
atp1287
a(L560228796L
L0L
(lp1288
(lp1289
tp1290
a(L4185758499L
L0L
(lp1291
(lp1292
tp1293
a(L1530940255L
L3785322319L
(lp1294
(lp1295
Vprocess_segments
p1296
atp1297
a(L1233227930L
L0L
(lp1298
(lp1299
tp1300
a(L2539156582L
L0L
(lp1301
(lp1302
tp1303
a(L2570888687L
L3785322319L
(lp1304
(lp1305
Vprocess_checksum
p1306
atp1307
a(L425503098L
L3785322319L
(lp1308
(lp1309
Vprocess_appended_hash_and_sig
p1310
atp1311
a(L780930979L
L0L
(lp1312
(lp1313
tp1314
a(L2334355956L
L0L
(lp1315
(lp1316
tp1317
a(L3470740557L
L0L
(lp1318
(lp1319
tp1320
a(L2727908192L
L1880226080L
(lp1321
(lp1322
Vbootloader_sha256_finish
p1323
aVbootloader_debug_buffer
p1324
atp1325
a(L764308364L
L1880226080L
(lp1326
(lp1327
Vesp_log_early_timestamp
p1328
aVbootloader_debug_buffer
p1329
atp1330
a(L1087646176L
L0L
(lp1331
(lp1332
tp1333
a(L2068384292L
L0L
(lp1334
(lp1335
tp1336
a(L3021148818L
L3785322319L
(lp1337
(lp1338
Vbootloader_sha256_finish
p1339
atp1340
a(L3028481L
L0L
(lp1341
(lp1342
tp1343
a(L139701033L
L0L
(lp1344
(lp1345
tp1346
a(L2510919588L
L0L
(lp1347
(lp1348
tp1349
a(L772115669L
L0L
(lp1350
(lp1351
tp1352
a(L2787789065L
L0L
(lp1353
(lp1354
tp1355
a(L85798113L
L0L
(lp1356
(lp1357
tp1358
a(L1351513776L
L0L
(lp1359
(lp1360
tp1361
a(L159346313L
L3785322319L
(lp1362
(lp1363
Vshould_load
p1364
atp1365
a(L4218574503L
L0L
(lp1366
(lp1367
tp1368
a(L3338774213L
L0L
(lp1369
(lp1370
tp1371
a(L3464541874L
L0L
(lp1372
(lp1373
tp1374
a(L3349572949L
L0L
(lp1375
(lp1376
tp1377
a(L2192292519L
L0L
(lp1378
(lp1379
tp1380
a(L106L
L0L
(lp1381
(lp1382
tp1383
a(L26615924L
L0L
(lp1384
(lp1385
tp1386
a(L1299866312L
L0L
(lp1387
(lp1388
tp1389
a(L490060329L
L0L
(lp1390
(lp1391
tp1392
atp1393
sI1074270040
(Vrtc_clk_xtal_freq_estimate
p1394
(lp1395
(L3845076426L
L1880226080L
(lp1396
(lp1397
Vrtc_clk_8m_enabled
p1398
aVrtc_clk_8md256_enabled
p1399
atp1400
a(L2449794434L
L3785322319L
(lp1401
(lp1402
Vrtc_clk_8m_enable
p1403
atp1404
a(L2541226969L
L3785322319L
(lp1405
(lp1406
Vrtc_clk_cal_ratio
p1407
atp1408
a(L1894802584L
L0L
(lp1409
(lp1410
tp1411
a(L1915120046L
L0L
(lp1412
(lp1413
tp1414
a(L2740879690L
L0L
(lp1415
(lp1416
tp1417
a(L1059750288L
L3785322319L
(lp1418
(lp1419
Vrtc_clk_8m_enable
p1420
atp1421
a(L636060329L
L3785322319L
(lp1422
(lp1423
Vesp_log_early_timestamp
p1424
atp1425
a(L2894376164L
L0L
(lp1426
(lp1427
tp1428
a(L1641150486L
L0L
(lp1429
(lp1430
tp1431
a(L3097803779L
L3785322319L
(lp1432
(lp1433
Vesp_log_early_timestamp
p1434
atp1435
a(L3100578259L
L3785322319L
(lp1436
(lp1437
Vesp_log_early_timestamp
p1438
atp1439
atp1440
sI1074247508
(Vesp_rom_spiflash_program_page_internal
p1441
(lp1442
(L2569069283L
L0L
(lp1443
(lp1444
tp1445
a(L2258688483L
L0L
(lp1446
(lp1447
tp1448
a(L3360570486L
L0L
(lp1449
(lp1450
tp1451
a(L792610006L
L0L
(lp1452
(lp1453
tp1454
a(L4235661475L
L3785322319L
(lp1455
(lp1456
Vesp_rom_spiflash_wait_idle
p1457
atp1458
a(L1299866312L
L0L
(lp1459
(lp1460
tp1461
a(L3212356251L
L3785322319L
(lp1462
(lp1463
Vesp_rom_spiflash_enable_write
p1464
atp1465
a(L3383370082L
L0L
(lp1466
(lp1467
tp1468
a(L2209840608L
L0L
(lp1469
(lp1470
tp1471
a(L2953702749L
L0L
(lp1472
(lp1473
tp1474
a(L2989032L
L0L
(lp1475
(lp1476
tp1477
a(L1965622133L
L0L
(lp1478
(lp1479
tp1480
a(L1351235542L
L0L
(lp1481
(lp1482
tp1483
a(L1958113242L
L0L
(lp1484
(lp1485
tp1486
a(L106L
L0L
(lp1487
(lp1488
tp1489
a(L3112950080L
L0L
(lp1490
(lp1491
tp1492
a(L1868606439L
L0L
(lp1493
(lp1494
tp1495
a(L1008983195L
L0L
(lp1496
(lp1497
tp1498
a(L1933954923L
L0L
(lp1499
(lp1500
tp1501
a(L1147866918L
L0L
(lp1502
(lp1503
tp1504
a(L3871602522L
L0L
(lp1505
(lp1506
tp1507
atp1508
sI1074243152
(Vesp_partition_table_verify
p1509
(lp1510
(L4221019429L
L0L
(lp1511
(lp1512
tp1513
a(L3688263406L
L0L
(lp1514
(lp1515
tp1516
a(L4090921686L
L0L
(lp1517
(lp1518
tp1519
a(L2910371777L
L0L
(lp1520
(lp1521
tp1522
a(L2810785767L
L0L
(lp1523
(lp1524
tp1525
a(L3360570486L
L0L
(lp1526
(lp1527
tp1528
a(L3190337587L
L0L
(lp1529
(lp1530
tp1531
a(L2069928857L
L0L
(lp1532
(lp1533
tp1534
a(L3020204L
L0L
(lp1535
(lp1536
tp1537
a(L4240560509L
L3785322319L
(lp1538
(lp1539
Vesp_log_early_timestamp
p1540
atp1541
a(L2526422477L
L3785322319L
(lp1542
(lp1543
Vesp_log_early_timestamp
p1544
atp1545
a(L510839312L
L0L
(lp1546
(lp1547
tp1548
a(L2902417580L
L0L
(lp1549
(lp1550
tp1551
a(L3020204L
L0L
(lp1552
(lp1553
tp1554
a(L2215002226L
L3785322319L
(lp1555
(lp1556
Vesp_log_early_timestamp
p1557
atp1558
a(L2867263840L
L0L
(lp1559
(lp1560
tp1561
a(L3655331517L
L0L
(lp1562
(lp1563
tp1564
a(L2902417580L
L0L
(lp1565
(lp1566
tp1567
a(L4240559796L
L3785322319L
(lp1568
(lp1569
Vesp_log_early_timestamp
p1570
atp1571
a(L1305407469L
L0L
(lp1572
(lp1573
tp1574
a(L1167861556L
L0L
(lp1575
(lp1576
tp1577
a(L3914073261L
L0L
(lp1578
(lp1579
tp1580
a(L2910371777L
L0L
(lp1581
(lp1582
tp1583
a(L1235012932L
L0L
(lp1584
(lp1585
tp1586
a(L4142303994L
L3785322319L
(lp1587
(lp1588
Vesp_log_early_timestamp
p1589
atp1590
atp1591
sI1074240336
(Vindex_to_partition
p1592
(lp1593
(L4066096119L
L0L
(lp1594
(lp1595
tp1596
a(L1739185955L
L0L
(lp1597
(lp1598
tp1599
a(L2171552758L
L0L
(lp1600
(lp1601
tp1602
a(L2808906342L
L0L
(lp1603
(lp1604
tp1605
a(L2101481936L
L0L
(lp1606
(lp1607
tp1608
a(L3698927993L
L0L
(lp1609
(lp1610
tp1611
a(L2808826781L
L0L
(lp1612
(lp1613
tp1614
a(L3003398163L
L0L
(lp1615
(lp1616
tp1617
a(L2880709161L
L0L
(lp1618
(lp1619
tp1620
a(L1087646172L
L0L
(lp1621
(lp1622
tp1623
atp1624
sI1074234704
(Vesp_flash_encryption_enabled
p1625
(lp1626
(L2932383536L
L0L
(lp1627
(lp1628
tp1629
a(L2910371777L
L0L
(lp1630
(lp1631
tp1632
a(L3360570486L
L0L
(lp1633
(lp1634
tp1635
a(L3016870L
L0L
(lp1636
(lp1637
tp1638
a(L3745038218L
L0L
(lp1639
(lp1640
tp1641
a(L957607403L
L0L
(lp1642
(lp1643
tp1644
atp1645
sI1074235224
(Vbootloader_execute_flash_command
p1646
(lp1647
(L2481595632L
L3785322319L
(lp1648
(lp1649
Vbootloader_flash_execute_command_common
p1650
atp1651
atp1652
sI1074245208
(Vrtc_clk_8m_enabled
p1653
(lp1654
(L2802140000L
L0L
(lp1655
(lp1656
tp1657
atp1658
sI1074244452
(Vwdt_hal_write_protect_enable
p1659
(lp1660
(L387778158L
L0L
(lp1661
(lp1662
tp1663
a(L4195472003L
L0L
(lp1664
(lp1665
tp1666
a(L3360570486L
L0L
(lp1667
(lp1668
tp1669
a(L802523425L
L0L
(lp1670
(lp1671
tp1672
atp1673
sI1074240096
(Vbootloader_utility_load_boot_image
p1674
(lp1675
(L1375294773L
L0L
(lp1676
(lp1677
tp1678
a(L2177418995L
L3785322319L
(lp1679
(lp1680
Vtry_load_partition
p1681
atp1682
a(L1305243774L
L3785322319L
(lp1683
(lp1684
Vload_image
p1685
atp1686
a(L1481893282L
L3785322319L
(lp1687
(lp1688
Vesp_log_early_timestamp
p1689
atp1690
a(L3827921190L
L3785322319L
(lp1691
(lp1692
Vbootloader_reset
p1693
atp1694
a(L1953693036L
L3785322319L
(lp1695
(lp1696
Vindex_to_partition
p1697
atp1698
a(L1204373741L
L3785322319L
(lp1699
(lp1700
Vtry_load_partition
p1701
atp1702
a(L1899865696L
L0L
(lp1703
(lp1704
tp1705
a(L2695355117L
L3785322319L
(lp1706
(lp1707
Vset_actual_ota_seq
p1708
atp1709
a(L1868897605L
L3785322319L
(lp1710
(lp1711
Vlog_invalid_app_partition
p1712
atp1713
a(L831650730L
L0L
(lp1714
(lp1715
tp1716
a(L3021737L
L0L
(lp1717
(lp1718
tp1719
a(L695456438L
L0L
(lp1720
(lp1721
tp1722
a(L1129532116L
L3785322319L
(lp1723
(lp1724
Vtry_load_partition
p1725
atp1726
a(L4022121633L
L3785322319L
(lp1727
(lp1728
Vesp_log_early_timestamp
p1729
atp1730
a(L2347390157L
L3785322319L
(lp1731
(lp1732
Vindex_to_partition
p1733
atp1734
a(L1204373741L
L3785322319L
(lp1735
(lp1736
Vtry_load_partition
p1737
atp1738
a(L3061261803L
L0L
(lp1739
(lp1740
tp1741
a(L3582858798L
L3785322319L
(lp1742
(lp1743
Vlog_invalid_app_partition
p1744
atp1745
a(L1285752117L
L3785322319L
(lp1746
(lp1747
Vesp_log_early_timestamp
p1748
atp1749
atp1750
sI1074244960
(Vrtc_clk_bbpll_disable
p1751
(lp1752
(L2525111280L
L0L
(lp1753
(lp1754
tp1755
a(L2472207241L
L0L
(lp1756
(lp1757
tp1758
a(L3360570486L
L0L
(lp1759
(lp1760
tp1761
atp1762
sI1074238828
(Vcache_ll_l1_enable_bus
p1763
(lp1764
(L1408514293L
L0L
(lp1765
(lp1766
tp1767
atp1768
sI1074270820
(Vrtc_vddsdio_set_config
p1769
(lp1770
(L924138034L
L0L
(lp1771
(lp1772
tp1773
atp1774
sI1074237288
(Vbootloader_common_select_otadata
p1775
(lp1776
(L4071767857L
L0L
(lp1777
(lp1778
tp1779
a(L1999329187L
L0L
(lp1780
(lp1781
tp1782
a(L3846398843L
L0L
(lp1783
(lp1784
tp1785
a(L2501968171L
L0L
(lp1786
(lp1787
tp1788
a(L3360570486L
L0L
(lp1789
(lp1790
tp1791
a(L2045232488L
L0L
(lp1792
(lp1793
tp1794
a(L1243525916L
L0L
(lp1795
(lp1796
tp1797
a(L3094144427L
L0L
(lp1798
(lp1799
tp1800
a(L2399509845L
L0L
(lp1801
(lp1802
tp1803
a(L1641201884L
L0L
(lp1804
(lp1805
tp1806
atp1807
sI1074240872
(Vbootloader_ana_clock_glitch_reset_config
p1808
(lp1809
(L2100504542L
L0L
(lp1810
(lp1811
tp1812
atp1813
sI1074245480
(Vrtc_clk_fast_src_get
p1814
(lp1815
(L380770082L
L0L
(lp1816
(lp1817
tp1818
atp1819
sI1074236532
(Vbootloader_common_get_chip_ver_pkg
p1820
(lp1821
(L2886103845L
L0L
(lp1822
(lp1823
tp1824
atp1825
sI1074245232
(Vrtc_clk_8md256_enabled
p1826
(lp1827
(L1957668129L
L0L
(lp1828
(lp1829
tp1830
atp1831
sI1074243440
(Vwdt_hal_init
p1832
(lp1833
(L509746487L
L0L
(lp1834
(lp1835
tp1836
a(L745008699L
L0L
(lp1837
(lp1838
tp1839
a(L2805934244L
L0L
(lp1840
(lp1841
tp1842
a(L3115097993L
L0L
(lp1843
(lp1844
tp1845
a(L1129008730L
L0L
(lp1846
(lp1847
tp1848
a(L3360570486L
L0L
(lp1849
(lp1850
tp1851
a(L3022237171L
L0L
(lp1852
(lp1853
tp1854
atp1855
sI1074240880
(Vprocess_checksum
p1856
(lp1857
(L226873693L
L0L
(lp1858
(lp1859
tp1860
a(L2910371777L
L0L
(lp1861
(lp1862
tp1863
a(L186886970L
L0L
(lp1864
(lp1865
tp1866
a(L2910371777L
L0L
(lp1867
(lp1868
tp1869
a(L3020204L
L0L
(lp1870
(lp1871
tp1872
a(L2480703612L
L3785322319L
(lp1873
(lp1874
Vbootloader_sha256_data
p1875
atp1876
a(L4179073442L
L0L
(lp1877
(lp1878
tp1879
a(L1811888222L
L3785322319L
(lp1880
(lp1881
Vbootloader_flash_read
p1882
atp1883
a(L3126521138L
L0L
(lp1884
(lp1885
tp1886
a(L4120157373L
L0L
(lp1887
(lp1888
tp1889
a(L3278991908L
L3785322319L
(lp1890
(lp1891
Vesp_log_early_timestamp
p1892
atp1893
atp1894
sI1074241916
(Vprocess_segments
p1895
(lp1896
(L1018786970L
L0L
(lp1897
(lp1898
tp1899
a(L3285816417L
L0L
(lp1900
(lp1901
tp1902
a(L3782401745L
L0L
(lp1903
(lp1904
tp1905
a(L106L
L0L
(lp1906
(lp1907
tp1908
a(L2411199274L
L0L
(lp1909
(lp1910
tp1911
a(L669991150L
L3785322319L
(lp1912
(lp1913
Vesp_log_early_timestamp
p1914
atp1915
a(L3085209925L
L3785322319L
(lp1916
(lp1917
Vbootloader_flash_read
p1918
atp1919
a(L125419343L
L3785322319L
(lp1920
(lp1921
Vesp_log_early_timestamp
p1922
atp1923
a(L3871473710L
L0L
(lp1924
(lp1925
tp1926
a(L234193771L
L0L
(lp1927
(lp1928
tp1929
a(L1635713494L
L3785322319L
(lp1930
(lp1931
Vbootloader_sha256_data
p1932
atp1933
a(L165187679L
L0L
(lp1934
(lp1935
tp1936
a(L334484485L
L0L
(lp1937
(lp1938
tp1939
a(L451332327L
L0L
(lp1940
(lp1941
tp1942
a(L3802067325L
L0L
(lp1943
(lp1944
tp1945
a(L3592389343L
L0L
(lp1946
(lp1947
tp1948
a(L2258867228L
L0L
(lp1949
(lp1950
tp1951
a(L1255782415L
L0L
(lp1952
(lp1953
tp1954
a(L1756760227L
L0L
(lp1955
(lp1956
tp1957
a(L1849436849L
L0L
(lp1958
(lp1959
tp1960
a(L1947739089L
L3785322319L
(lp1961
(lp1962
Vesp_log_early_timestamp
p1963
atp1964
a(L3601900694L
L0L
(lp1965
(lp1966
tp1967
a(L568253874L
L0L
(lp1968
(lp1969
tp1970
a(L3182428709L
L3785322319L
(lp1971
(lp1972
Vesp_log_early_timestamp
p1973
atp1974
a(L1973629750L
L3785322319L
(lp1975
(lp1976
Vverify_load_addresses
p1977
atp1978
a(L106L
L0L
(lp1979
(lp1980
tp1981
a(L914132342L
L0L
(lp1982
(lp1983
tp1984
a(L291460350L
L0L
(lp1985
(lp1986
tp1987
a(L4151532718L
L3785322319L
(lp1988
(lp1989
Vbootloader_mmap
p1990
atp1991
a(L3589484614L
L3785322319L
(lp1992
(lp1993
Vesp_log_early_timestamp
p1994
atp1995
a(L2994776696L
L0L
(lp1996
(lp1997
tp1998
a(L2942377727L
L0L
(lp1999
(lp2000
tp2001
a(L1652679798L
L3785322319L
(lp2002
(lp2003
Vbootloader_munmap
p2004
atp2005
a(L2993622008L
L0L
(lp2006
(lp2007
tp2008
a(L1216016797L
L3785322319L
(lp2009
(lp2010
Vbootloader_fill_random
p2011
atp2012
a(L3570641403L
L0L
(lp2013
(lp2014
tp2015
a(L3574335487L
L0L
(lp2016
(lp2017
tp2018
a(L3450268858L
L0L
(lp2019
(lp2020
tp2021
a(L3021749L
L0L
(lp2022
(lp2023
tp2024
a(L1609678444L
L0L
(lp2025
(lp2026
tp2027
a(L1777728568L
L0L
(lp2028
(lp2029
tp2030
a(L3020204L
L0L
(lp2031
(lp2032
tp2033
a(L1312354573L
L0L
(lp2034
(lp2035
tp2036
a(L2076461546L
L0L
(lp2037
(lp2038
tp2039
a(L3844184503L
L0L
(lp2040
(lp2041
tp2042
a(L1749969336L
L0L
(lp2043
(lp2044
tp2045
a(L670934548L
L0L
(lp2046
(lp2047
tp2048
a(L781506066L
L3785322319L
(lp2049
(lp2050
Vbootloader_sha256_data
p2051
atp2052
a(L90548756L
L0L
(lp2053
(lp2054
tp2055
a(L4195963580L
L0L
(lp2056
(lp2057
tp2058
a(L2422333549L
L0L
(lp2059
(lp2060
tp2061
a(L3132743422L
L0L
(lp2062
(lp2063
tp2064
a(L249537906L
L3785322319L
(lp2065
(lp2066
Vshould_load
p2067
atp2068
a(L2378267508L
L0L
(lp2069
(lp2070
tp2071
a(L3098292588L
L3785322319L
(lp2072
(lp2073
Vesp_log_early_timestamp
p2074
atp2075
a(L1263395604L
L0L
(lp2076
(lp2077
tp2078
a(L307916924L
L0L
(lp2079
(lp2080
tp2081
a(L3421814691L
L0L
(lp2082
(lp2083
tp2084
a(L81630008L
L0L
(lp2085
(lp2086
tp2087
a(L2742376716L
L0L
(lp2088
(lp2089
tp2090
a(L3786494677L
L3785322319L
(lp2091
(lp2092
Vbootloader_mmap_get_free_pages
p2093
atp2094
a(L2685118414L
L0L
(lp2095
(lp2096
tp2097
a(L2091285670L
L0L
(lp2098
(lp2099
tp2100
atp2101
sI1074235256
(Vbootloader_flash_unlock
p2102
(lp2103
(L2142380611L
L3785322319L
(lp2104
(lp2105
Vesp_rom_spiflash_wait_idle
p2106
atp2107
a(L4212373562L
L0L
(lp2108
(lp2109
tp2110
a(L4292483033L
L3785322319L
(lp2111
(lp2112
Vbootloader_execute_flash_command
p2113
atp2114
a(L106L
L0L
(lp2115
(lp2116
tp2117
a(L1303560644L
L0L
(lp2118
(lp2119
tp2120
a(L610618440L
L0L
(lp2121
(lp2122
tp2123
a(L106L
L0L
(lp2124
(lp2125
tp2126
a(L345249462L
L0L
(lp2127
(lp2128
tp2129
a(L106L
L0L
(lp2130
(lp2131
tp2132
a(L1024465569L
L0L
(lp2133
(lp2134
tp2135
a(L106L
L0L
(lp2136
(lp2137
tp2138
a(L1481761147L
L1880226080L
(lp2139
(lp2140
Vbootloader_execute_flash_command
p2141
aVbootloader_execute_flash_command
p2142
atp2143
a(L2258807654L
L0L
(lp2144
(lp2145
tp2146
a(L489806350L
L1832448559L
(lp2147
(lp2148
Vesp_rom_spiflash_wait_idle
p2149
aVbootloader_execute_flash_command
p2150
aVbootloader_execute_flash_command
p2151
atp2152
a(L879744646L
L1832448559L
(lp2153
(lp2154
Vesp_rom_spiflash_wait_idle
p2155
aVbootloader_execute_flash_command
p2156
aVbootloader_execute_flash_command
p2157
atp2158
a(L1840772931L
L1880226080L
(lp2159
(lp2160
Vesp_rom_spiflash_wait_idle
p2161
aVbootloader_execute_flash_command
p2162
atp2163
a(L2993202392L
L0L
(lp2164
(lp2165
tp2166
a(L508800419L
L1880226080L
(lp2167
(lp2168
Vbootloader_execute_flash_command
p2169
aVbootloader_execute_flash_command
p2170
atp2171
a(L1303560369L
L0L
(lp2172
(lp2173
tp2174
a(L1596544945L
L0L
(lp2175
(lp2176
tp2177
a(L97689L
L0L
(lp2178
(lp2179
tp2180
a(L106L
L0L
(lp2181
(lp2182
tp2183
atp2184
sI1074234744
(Vbootloader_flash_execute_command_common
p2185
(lp2186
(L3865052895L
L0L
(lp2187
(lp2188
tp2189
a(L3287175998L
L0L
(lp2190
(lp2191
tp2192
a(L4121451103L
L3785322319L
(lp2193
(lp2194
V__assert_func
p2195
atp2196
a(L3021749L
L0L
(lp2197
(lp2198
tp2199
a(L3999871974L
L0L
(lp2200
(lp2201
tp2202
a(L543316797L
L0L
(lp2203
(lp2204
tp2205
a(L2091933878L
L0L
(lp2206
(lp2207
tp2208
a(L1702379862L
L0L
(lp2209
(lp2210
tp2211
a(L3432464320L
L0L
(lp2212
(lp2213
tp2214
a(L3539375712L
L0L
(lp2215
(lp2216
tp2217
a(L3244449450L
L0L
(lp2218
(lp2219
tp2220
a(L4233404408L
L0L
(lp2221
(lp2222
tp2223
a(L2990329343L
L0L
(lp2224
(lp2225
tp2226
a(L2051090536L
L0L
(lp2227
(lp2228
tp2229
a(L3333696662L
L0L
(lp2230
(lp2231
tp2232
a(L963425213L
L0L
(lp2233
(lp2234
tp2235
a(L339491738L
L0L
(lp2236
(lp2237
tp2238
a(L3360570486L
L0L
(lp2239
(lp2240
tp2241
atp2242
sI1074245496
(Vrtc_clk_xtal_freq_get
p2243
(lp2244
(L436198866L
L0L
(lp2245
(lp2246
tp2247
a(L2847936993L
L0L
(lp2248
(lp2249
tp2250
a(L4141094988L
L0L
(lp2251
(lp2252
tp2253
a(L3360570486L
L0L
(lp2254
(lp2255
tp2256
atp2257
sI1074268040
(Vbootloader_init
p2258
(lp2259
(L3680247266L
L3785322319L
(lp2260
(lp2261
Vbootloader_init_mem
p2262
atp2263
a(L2665176726L
L0L
(lp2264
(lp2265
tp2266
a(L2668233164L
L3785322319L
(lp2267
(lp2268
V__assert_func
p2269
atp2270
a(L3646505141L
L0L
(lp2271
(lp2272
tp2273
a(L579932030L
L0L
(lp2274
(lp2275
tp2276
a(L3813782018L
L0L
(lp2277
(lp2278
tp2279
a(L1983131096L
L0L
(lp2280
(lp2281
tp2282
a(L3027019L
L0L
(lp2283
(lp2284
tp2285
a(L3386330875L
L0L
(lp2286
(lp2287
tp2288
a(L72523568L
L1832448559L
(lp2289
(lp2290
Vbootloader_clear_bss_section
p2291
aVbootloader_common_vddsdio_configure
p2292
aVbootloader_clock_get_rated_freq_mhz
p2293
atp2294
a(L3987130017L
L1157885199L
(lp2295
(lp2296
Vbootloader_clock_configure
p2297
aVbootloader_console_init
p2298
aVbootloader_print_banner
p2299
aVbootloader_flash_update_id
p2300
aVbootloader_flash_xmc_startup
p2301
atp2302
a(L4027880440L
L3785322319L
(lp2303
(lp2304
Vesp_log_early_timestamp
p2305
atp2306
a(L4197503871L
L3785322319L
(lp2307
(lp2308
Vesp_log_early_timestamp
p2309
atp2310
a(L3360570486L
L0L
(lp2311
(lp2312
tp2313
a(L2444883382L
L3785322319L
(lp2314
(lp2315
Vbootloader_read_bootloader_header
p2316
atp2317
a(L2444883382L
L3785322319L
(lp2318
(lp2319
Vbootloader_check_bootloader_validity
p2320
atp2321
a(L3035257428L
L2485746240L
(lp2322
(lp2323
Vbootloader_flash_gpio_config
p2324
aVbootloader_flash_dummy_config
p2325
aVbootloader_flash_cs_timing_config
p2326
aVbootloader_flash_unlock
p2327
atp2328
a(L50910567L
L0L
(lp2329
(lp2330
tp2331
a(L1216900559L
L0L
(lp2332
(lp2333
tp2334
a(L1404489847L
L0L
(lp2335
(lp2336
tp2337
a(L2362581411L
L3785322319L
(lp2338
(lp2339
Vesp_log_early_timestamp
p2340
atp2341
a(L110924503L
L0L
(lp2342
(lp2343
tp2344
a(L92454083L
L0L
(lp2345
(lp2346
tp2347
a(L96148167L
L0L
(lp2348
(lp2349
tp2350
a(L99842251L
L0L
(lp2351
(lp2352
tp2353
a(L1404489952L
L0L
(lp2354
(lp2355
tp2356
a(L1646977524L
L3785322319L
(lp2357
(lp2358
Vesp_log_early_timestamp
p2359
atp2360
a(L93837694L
L0L
(lp2361
(lp2362
tp2363
a(L106L
L0L
(lp2364
(lp2365
tp2366
a(L1003035762L
L0L
(lp2367
(lp2368
tp2369
a(L2748877114L
L0L
(lp2370
(lp2371
tp2372
a(L3902507086L
L0L
(lp2373
(lp2374
tp2375
a(L1165002166L
L3785322319L
(lp2376
(lp2377
Vesp_log_early_timestamp
p2378
atp2379
a(L93837694L
L0L
(lp2380
(lp2381
tp2382
a(L106L
L0L
(lp2383
(lp2384
tp2385
a(L3029526157L
L0L
(lp2386
(lp2387
tp2388
a(L2772639124L
L0L
(lp2389
(lp2390
tp2391
a(L2807278488L
L0L
(lp2392
(lp2393
tp2394
a(L806774567L
L3785322319L
(lp2395
(lp2396
Vbootloader_enable_wp
p2397
atp2398
a(L1266399027L
L0L
(lp2399
(lp2400
tp2401
a(L1895147922L
L0L
(lp2402
(lp2403
tp2404
a(L352506770L
L3785322319L
(lp2405
(lp2406
Vesp_log_early_timestamp
p2407
atp2408
a(L3639065141L
L0L
(lp2409
(lp2410
tp2411
a(L3616326365L
L0L
(lp2412
(lp2413
tp2414
a(L1129025932L
L0L
(lp2415
(lp2416
tp2417
a(L1714011803L
L3785322319L
(lp2418
(lp2419
Vesp_log_early_timestamp
p2420
atp2421
a(L4263191691L
L1880226080L
(lp2422
(lp2423
Vwdt_reset_info_dump
p2424
aVwdt_reset_info_dump
p2425
atp2426
a(L2748868837L
L0L
(lp2427
(lp2428
tp2429
a(L106L
L0L
(lp2430
(lp2431
tp2432
a(L718636197L
L0L
(lp2433
(lp2434
tp2435
a(L1767021965L
L0L
(lp2436
(lp2437
tp2438
a(L3028481L
L0L
(lp2439
(lp2440
tp2441
a(L351819472L
L1880226080L
(lp2442
(lp2443
Vbootloader_config_wdt
p2444
aVbootloader_enable_random
p2445
atp2446
atp2447
sI1074238084
(Vbootloader_enable_wp
p2448
(lp2449
(L1117825804L
L3785322319L
(lp2450
(lp2451
Vbootloader_execute_flash_command
p2452
atp2453
atp2454
sI1074244480
(Vwdt_hal_enable
p2455
(lp2456
(L2299130915L
L0L
(lp2457
(lp2458
tp2459
a(L165794138L
L0L
(lp2460
(lp2461
tp2462
a(L3360570486L
L0L
(lp2463
(lp2464
tp2465
a(L2847657174L
L0L
(lp2466
(lp2467
tp2468
atp2469
sI1074236800
(Vefuse_hal_get_minor_chip_version
p2470
(lp2471
(L1213965243L
L0L
(lp2472
(lp2473
tp2474
atp2475
sI1074238604
(Vcache_ll_l1_get_bus
p2476
(lp2477
(L3820023252L
L0L
(lp2478
(lp2479
tp2480
a(L94425498L
L3785322319L
(lp2481
(lp2482
Vabort
p2483
atp2484
a(L3179088012L
L0L
(lp2485
(lp2486
tp2487
a(L1844424101L
L0L
(lp2488
(lp2489
tp2490
a(L892952750L
L0L
(lp2491
(lp2492
tp2493
a(L1182811810L
L0L
(lp2494
(lp2495
tp2496
a(L1101742417L
L0L
(lp2497
(lp2498
tp2499
a(L1100767927L
L0L
(lp2500
(lp2501
tp2502
a(L3360570486L
L0L
(lp2503
(lp2504
tp2505
a(L2767111967L
L0L
(lp2506
(lp2507
tp2508
a(L892952750L
L0L
(lp2509
(lp2510
tp2511
a(L2258688482L
L0L
(lp2512
(lp2513
tp2514
a(L1353797152L
L0L
(lp2515
(lp2516
tp2517
a(L2258718273L
L0L
(lp2518
(lp2519
tp2520
a(L2938197270L
L0L
(lp2521
(lp2522
tp2523
a(L2748641547L
L0L
(lp2524
(lp2525
tp2526
a(L2752340901L
L0L
(lp2527
(lp2528
tp2529
a(L1641149277L
L0L
(lp2530
(lp2531
tp2532
a(L3211405977L
L0L
(lp2533
(lp2534
tp2535
a(L3027019L
L0L
(lp2536
(lp2537
tp2538
a(L1299866560L
L0L
(lp2539
(lp2540
tp2541
a(L1299866436L
L0L
(lp2542
(lp2543
tp2544
atp2545
sI1074245256
(Vrtc_clk_slow_src_set
p2546
(lp2547
(L1719649901L
L0L
(lp2548
(lp2549
tp2550
a(L3020187L
L0L
(lp2551
(lp2552
tp2553
a(L3028481L
L0L
(lp2554
(lp2555
tp2556
a(L487821223L
L0L
(lp2557
(lp2558
tp2559
a(L185049753L
L0L
(lp2560
(lp2561
tp2562
a(L1851908495L
L0L
(lp2563
(lp2564
tp2565
a(L382170874L
L0L
(lp2566
(lp2567
tp2568
a(L3138544334L
L0L
(lp2569
(lp2570
tp2571
a(L94425498L
L3785322319L
(lp2572
(lp2573
Vabort
p2574
atp2575
atp2576
sI1074245768
(Vrtc_clk_xtal_freq_update
p2577
(lp2578
(L1422638466L
L0L
(lp2579
(lp2580
tp2581
a(L3509357017L
L0L
(lp2582
(lp2583
tp2584
a(L2266180931L
L0L
(lp2585
(lp2586
tp2587
atp2588
sI1074248840
(V_fini
p2589
(lp2590
(L3493042598L
L0L
(lp2591
(lp2592
tp2593
atp2594
sI1074240404
(Vbootloader_debug_buffer
p2595
(lp2596
(L2100504542L
L0L
(lp2597
(lp2598
tp2599
atp2600
sI1074236564
(Vesp_rom_uart_tx_wait_idle
p2601
(lp2602
(L3957152286L
L0L
(lp2603
(lp2604
tp2605
a(L1301079727L
L0L
(lp2606
(lp2607
tp2608
a(L3597746521L
L0L
(lp2609
(lp2610
tp2611
a(L3694491048L
L0L
(lp2612
(lp2613
tp2614
a(L3055926844L
L0L
(lp2615
(lp2616
tp2617
a(L3360570486L
L0L
(lp2618
(lp2619
tp2620
atp2621
sI1074236816
(Vesp_dport_access_reg_read
p2622
(lp2623
(L1099794772L
L0L
(lp2624
(lp2625
tp2626
atp2627
sI1074247312
(Vesp_rom_spiflash_read_status
p2628
(lp2629
(L2938520357L
L0L
(lp2630
(lp2631
tp2632
a(L1182811815L
L0L
(lp2633
(lp2634
tp2635
a(L1827921062L
L0L
(lp2636
(lp2637
tp2638
a(L106L
L0L
(lp2639
(lp2640
tp2641
a(L619542702L
L0L
(lp2642
(lp2643
tp2644
a(L3274807848L
L0L
(lp2645
(lp2646
tp2647
a(L2123059967L
L0L
(lp2648
(lp2649
tp2650
a(L3146966332L
L0L
(lp2651
(lp2652
tp2653
a(L2392720019L
L0L
(lp2654
(lp2655
tp2656
atp2657
sI1074268816
(Vbootloader_common_vddsdio_configure
p2658
(lp2659
(L1829974089L
L3785322319L
(lp2660
(lp2661
Vrtc_vddsdio_get_config
p2662
atp2663
a(L1489249795L
L3785322319L
(lp2664
(lp2665
Vrtc_vddsdio_set_config
p2666
atp2667
a(L3360570486L
L0L
(lp2668
(lp2669
tp2670
atp2671
sI1074245020
(Vrtc_clk_32k_enable
p2672
(lp2673
(L753387299L
L0L
(lp2674
(lp2675
tp2676
a(L3776007933L
L3785322319L
(lp2677
(lp2678
Vrtc_clk_32k_enable_common
p2679
atp2680
a(L3496950L
L0L
(lp2681
(lp2682
tp2683
a(L2501812159L
L0L
(lp2684
(lp2685
tp2686
atp2687
sI1074240412
(Vbootloader_sha256_start
p2688
(lp2689
(L260677377L
L0L
(lp2690
(lp2691
tp2692
atp2693
sI1074239388
(Vbootloader_utility_load_partition_table
p2694
(lp2695
(L973068460L
L3785322319L
(lp2696
(lp2697
Vbootloader_mmap
p2698
atp2699
a(L1894723508L
L3785322319L
(lp2700
(lp2701
Vesp_log_early_timestamp
p2702
atp2703
a(L2258688482L
L0L
(lp2704
(lp2705
tp2706
a(L3360570486L
L0L
(lp2707
(lp2708
tp2709
a(L3881596654L
L3785322319L
(lp2710
(lp2711
Vesp_partition_table_verify
p2712
atp2713
a(L418712718L
L3785322319L
(lp2714
(lp2715
Vesp_log_early_timestamp
p2716
atp2717
a(L3331315958L
L1880226080L
(lp2718
(lp2719
Vesp_log_early_timestamp
p2720
aVesp_log_early_timestamp
p2721
atp2722
a(L650140130L
L0L
(lp2723
(lp2724
tp2725
a(L3929231144L
L1880226080L
(lp2726
(lp2727
Vbootloader_munmap
p2728
aVesp_log_early_timestamp
p2729
atp2730
a(L521126897L
L0L
(lp2731
(lp2732
tp2733
a(L3028464L
L0L
(lp2734
(lp2735
tp2736
a(L106L
L0L
(lp2737
(lp2738
tp2739
a(L1403802546L
L0L
(lp2740
(lp2741
tp2742
a(L352196314L
L3785322319L
(lp2743
(lp2744
Vesp_log_early_timestamp
p2745
atp2746
a(L3990577774L
L0L
(lp2747
(lp2748
tp2749
a(L3020187L
L0L
(lp2750
(lp2751
tp2752
a(L2318212397L
L0L
(lp2753
(lp2754
tp2755
a(L4208504540L
L0L
(lp2756
(lp2757
tp2758
a(L1859217843L
L0L
(lp2759
(lp2760
tp2761
a(L2546691246L
L0L
(lp2762
(lp2763
tp2764
a(L3797730446L
L0L
(lp2765
(lp2766
tp2767
a(L106L
L0L
(lp2768
(lp2769
tp2770
a(L93674324L
L0L
(lp2771
(lp2772
tp2773
a(L1583301205L
L0L
(lp2774
(lp2775
tp2776
a(L1938133383L
L0L
(lp2777
(lp2778
tp2779
a(L1630400759L
L0L
(lp2780
(lp2781
tp2782
a(L106L
L0L
(lp2783
(lp2784
tp2785
a(L928516522L
L0L
(lp2786
(lp2787
tp2788
a(L106L
L0L
(lp2789
(lp2790
tp2791
a(L568204863L
L0L
(lp2792
(lp2793
tp2794
atp2795
sI1074235548
(Vbootloader_flash_read_sfdp
p2796
(lp2797
(L711701400L
L0L
(lp2798
(lp2799
tp2800
a(L3334003234L
L3785322319L
(lp2801
(lp2802
V__assert_func
p2803
atp2804
a(L3704332455L
L3785322319L
(lp2805
(lp2806
Vbootloader_flash_execute_command_common
p2807
atp2808
atp2809
sI1074235804
(Vbootloader_flash_cs_timing_config
p2810
(lp2811
(L1940014330L
L0L
(lp2812
(lp2813
tp2814
atp2815
sI1074236828
(Vis_xmc_chip_strict
p2816
(lp2817
(L1286841609L
L0L
(lp2818
(lp2819
tp2820
a(L2234016759L
L0L
(lp2821
(lp2822
tp2823
a(L1069027148L
L0L
(lp2824
(lp2825
tp2826
a(L3021749L
L0L
(lp2827
(lp2828
tp2829
a(L1900148749L
L0L
(lp2830
(lp2831
tp2832
a(L1936875721L
L0L
(lp2833
(lp2834
tp2835
a(L3356166509L
L0L
(lp2836
(lp2837
tp2838
a(L1937769451L
L0L
(lp2839
(lp2840
tp2841
a(L2137658907L
L0L
(lp2842
(lp2843
tp2844
a(L4265949734L
L0L
(lp2845
(lp2846
tp2847
a(L3360570486L
L0L
(lp2848
(lp2849
tp2850
atp2851
sI1074247836
(Vesp_rom_spiflash_write
p2852
(lp2853
(L1176662179L
L0L
(lp2854
(lp2855
tp2856
a(L2258688483L
L0L
(lp2857
(lp2858
tp2859
a(L3360570486L
L0L
(lp2860
(lp2861
tp2862
a(L3368132847L
L0L
(lp2863
(lp2864
tp2865
a(L3106685981L
L0L
(lp2866
(lp2867
tp2868
a(L3488660639L
L3785322319L
(lp2869
(lp2870
Vesp_rom_spiflash_program_page_internal
p2871
atp2872
a(L3543402353L
L3785322319L
(lp2873
(lp2874
Vesp_rom_spiflash_program_page_internal
p2875
atp2876
a(L4222526342L
L0L
(lp2877
(lp2878
tp2879
a(L2004208511L
L0L
(lp2880
(lp2881
tp2882
a(L564470656L
L0L
(lp2883
(lp2884
tp2885
a(L2988842384L
L3785322319L
(lp2886
(lp2887
Vesp_rom_spiflash_program_page_internal
p2888
atp2889
a(L2302069176L
L0L
(lp2890
(lp2891
tp2892
atp2893
sI1074238104
(Vbootloader_mmap_get_free_pages
p2894
(lp2895
(L1496516875L
L0L
(lp2896
(lp2897
tp2898
atp2899
sI1074248088
(Vesp_rom_spiflash_read
p2900
(lp2901
(L2864722771L
L0L
(lp2902
(lp2903
tp2904
a(L3013250324L
L0L
(lp2905
(lp2906
tp2907
a(L340311750L
L0L
(lp2908
(lp2909
tp2910
a(L2355528925L
L0L
(lp2911
(lp2912
tp2913
a(L106L
L0L
(lp2914
(lp2915
tp2916
a(L633884026L
L0L
(lp2917
(lp2918
tp2919
a(L106L
L0L
(lp2920
(lp2921
tp2922
a(L12774736L
L0L
(lp2923
(lp2924
tp2925
a(L3571878573L
L0L
(lp2926
(lp2927
tp2928
a(L2884772704L
L0L
(lp2929
(lp2930
tp2931
a(L336550648L
L0L
(lp2932
(lp2933
tp2934
a(L493932352L
L0L
(lp2935
(lp2936
tp2937
a(L106L
L0L
(lp2938
(lp2939
tp2940
a(L2549202597L
L3785322319L
(lp2941
(lp2942
Vesp_rom_spiflash_wait_idle
p2943
atp2944
a(L3021737L
L0L
(lp2945
(lp2946
tp2947
a(L106L
L0L
(lp2948
(lp2949
tp2950
a(L1868280504L
L0L
(lp2951
(lp2952
tp2953
a(L106L
L0L
(lp2954
(lp2955
tp2956
a(L4024100605L
L0L
(lp2957
(lp2958
tp2959
a(L1221163038L
L0L
(lp2960
(lp2961
tp2962
a(L4122060822L
L0L
(lp2963
(lp2964
tp2965
a(L1406217664L
L0L
(lp2966
(lp2967
tp2968
a(L2989032L
L0L
(lp2969
(lp2970
tp2971
a(L3819849625L
L0L
(lp2972
(lp2973
tp2974
a(L726363469L
L0L
(lp2975
(lp2976
tp2977
a(L932902197L
L0L
(lp2978
(lp2979
tp2980
a(L3901821451L
L0L
(lp2981
(lp2982
tp2983
a(L3187605261L
L0L
(lp2984
(lp2985
tp2986
a(L2921907736L
L0L
(lp2987
(lp2988
tp2989
a(L4023125337L
L0L
(lp2990
(lp2991
tp2992
a(L384659096L
L0L
(lp2993
(lp2994
tp2995
a(L708728610L
L0L
(lp2996
(lp2997
tp2998
a(L1400585318L
L0L
(lp2999
(lp3000
tp3001
a(L781550816L
L0L
(lp3002
(lp3003
tp3004
a(L2687789892L
L0L
(lp3005
(lp3006
tp3007
a(L1405253496L
L0L
(lp3008
(lp3009
tp3010
a(L1756022091L
L0L
(lp3011
(lp3012
tp3013
a(L97689L
L0L
(lp3014
(lp3015
tp3016
a(L1183020347L
L0L
(lp3017
(lp3018
tp3019
a(L4014024819L
L0L
(lp3020
(lp3021
tp3022
a(L3621567083L
L0L
(lp3023
(lp3024
tp3025
atp3026
sI1074267820
(Vwdt_reset_info_dump
p3027
(lp3028
(L4037466985L
L0L
(lp3029
(lp3030
tp3031
a(L2233128219L
L0L
(lp3032
(lp3033
tp3034
a(L1272070406L
L0L
(lp3035
(lp3036
tp3037
a(L1103285333L
L0L
(lp3038
(lp3039
tp3040
a(L2992936549L
L3785322319L
(lp3041
(lp3042
Vesp_log_early_timestamp
p3043
atp3044
a(L2967992533L
L0L
(lp3045
(lp3046
tp3047
a(L557645342L
L3785322319L
(lp3048
(lp3049
Vesp_log_early_timestamp
p3050
atp3051
a(L2439807747L
L0L
(lp3052
(lp3053
tp3054
atp3055
sI1074270892
(Vmpu_hal_set_region_access
p3056
(lp3057
(L3538356822L
L0L
(lp3058
(lp3059
tp3060
a(L93674324L
L0L
(lp3061
(lp3062
tp3063
a(L2910371777L
L0L
(lp3064
(lp3065
tp3066
a(L3472092938L
L0L
(lp3067
(lp3068
tp3069
a(L3020187L
L0L
(lp3070
(lp3071
tp3072
a(L3360570486L
L0L
(lp3073
(lp3074
tp3075
a(L2258718273L
L0L
(lp3076
(lp3077
tp3078
a(L3446648619L
L0L
(lp3079
(lp3080
tp3081
a(L3739532189L
L0L
(lp3082
(lp3083
tp3084
a(L1300789895L
L0L
(lp3085
(lp3086
tp3087
atp3088
sI1074241696
(Vprocess_appended_hash_and_sig
p3089
(lp3090
(L1668084157L
L0L
(lp3091
(lp3092
tp3093
a(L2910371777L
L0L
(lp3094
(lp3095
tp3096
a(L1591589631L
L0L
(lp3097
(lp3098
tp3099
a(L2551256078L
L0L
(lp3100
(lp3101
tp3102
a(L2688085881L
L0L
(lp3103
(lp3104
tp3105
a(L3399920573L
L3785322319L
(lp3106
(lp3107
Vesp_log_early_timestamp
p3108
atp3109
a(L2268304300L
L3785322319L
(lp3110
(lp3111
Vbootloader_flash_read
p3112
atp3113
a(L3871473710L
L0L
(lp3114
(lp3115
tp3116
atp3117
sI1074238112
(Vbootloader_fill_random
p3118
(lp3119
(L1233865241L
L0L
(lp3120
(lp3121
tp3122
a(L2195342884L
L3785322319L
(lp3123
(lp3124
V__assert_func
p3125
atp3126
a(L1882547218L
L0L
(lp3127
(lp3128
tp3129
a(L2910371777L
L0L
(lp3130
(lp3131
tp3132
a(L95634693L
L0L
(lp3133
(lp3134
tp3135
a(L3630908706L
L0L
(lp3136
(lp3137
tp3138
a(L160162640L
L0L
(lp3139
(lp3140
tp3141
a(L97689L
L0L
(lp3142
(lp3143
tp3144
a(L3360570486L
L0L
(lp3145
(lp3146
tp3147
atp3148
sI1074238880
(Vload_image
p3149
(lp3150
(L162490783L
L1832448559L
(lp3151
(lp3152
Vesp_log_early_timestamp
p3153
aVbootloader_random_disable
p3154
aVbootloader_ana_clock_glitch_reset_config
p3155
atp3156
a(L2118498116L
L0L
(lp3157
(lp3158
tp3159
a(L106L
L0L
(lp3160
(lp3161
tp3162
a(L1789307221L
L3758435744L
(lp3163
(lp3164
Vmmu_hal_init
p3165
aVcache_ll_l1_get_bus
p3166
aVcache_ll_l1_enable_bus
p3167
aVcache_ll_l1_get_bus
p3168
aVcache_ll_l1_enable_bus
p3169
aVcache_ll_l1_get_bus
p3170
aVcache_ll_l1_enable_bus
p3171
aVcache_ll_l1_get_bus
p3172
aVcache_ll_l1_enable_bus
p3173
aVbootloader_console_deinit
p3174
atp3175
a(L746432701L
L0L
(lp3176
(lp3177
tp3178
a(L2902417580L
L0L
(lp3179
(lp3180
tp3181
a(L1366048922L
L3785322319L
(lp3182
(lp3183
Vesp_log_early_timestamp
p3184
atp3185
a(L3064806881L
L0L
(lp3186
(lp3187
tp3188
a(L839502558L
L0L
(lp3189
(lp3190
tp3191
a(L3020204L
L0L
(lp3192
(lp3193
tp3194
a(L3328497686L
L3785322319L
(lp3195
(lp3196
Vesp_log_early_timestamp
p3197
atp3198
a(L3644183142L
L0L
(lp3199
(lp3200
tp3201
a(L356605111L
L0L
(lp3202
(lp3203
tp3204
atp3205
sI1074245536
(Vrtc_clk_cpu_freq_mhz_to_config
p3206
(lp3207
(L908718885L
L3785322319L
(lp3208
(lp3209
Vrtc_clk_xtal_freq_get
p3210
atp3211
a(L60460069L
L0L
(lp3212
(lp3213
tp3214
a(L3802072124L
L0L
(lp3215
(lp3216
tp3217
a(L3159006042L
L0L
(lp3218
(lp3219
tp3220
a(L3360570486L
L0L
(lp3221
(lp3222
tp3223
a(L895147205L
L0L
(lp3224
(lp3225
tp3226
a(L3970036657L
L0L
(lp3227
(lp3228
tp3229
a(L2731353429L
L0L
(lp3230
(lp3231
tp3232
a(L1555485793L
L0L
(lp3233
(lp3234
tp3235
a(L2258897023L
L0L
(lp3236
(lp3237
tp3238
a(L1947499251L
L0L
(lp3239
(lp3240
tp3241
a(L1306331021L
L0L
(lp3242
(lp3243
tp3244
atp3245
sI1074269600
(Vbootloader_flash_update_id
p3246
(lp3247
(L2651720883L
L3785322319L
(lp3248
(lp3249
Vbootloader_read_flash_id
p3250
atp3251
atp3252
sI1074269112
(Vbootloader_random_enable
p3253
(lp3254
(L1578364810L
L0L
(lp3255
(lp3256
tp3257
atp3258
sI1074269880
(Vbootloader_enable_random
p3259
(lp3260
(L1278562623L
L1880226080L
(lp3261
(lp3262
Vesp_log_early_timestamp
p3263
aVbootloader_random_enable
p3264
atp3265
atp3266
sI1074237364
(Vspi_to_esp_err
p3267
(lp3268
(L3520881295L
L0L
(lp3269
(lp3270
tp3271
a(L2402400019L
L0L
(lp3272
(lp3273
tp3274
a(L3952441574L
L0L
(lp3275
(lp3276
tp3277
a(L3126521138L
L0L
(lp3278
(lp3279
tp3280
atp3281
sI1074237620
(Vbootloader_munmap
p3282
(lp3283
(L1697403118L
L0L
(lp3284
(lp3285
tp3286
a(L3761142808L
L0L
(lp3287
(lp3288
tp3289
a(L3360570486L
L0L
(lp3290
(lp3291
tp3292
atp3293
sI1074245812
(Vrtc_clk_apb_freq_update
p3294
(lp3295
(L723331471L
L0L
(lp3296
(lp3297
tp3298
atp3299
sI1074240432
(Vbootloader_sha256_data
p3300
(lp3301
(L4066096136L
L0L
(lp3302
(lp3303
tp3304
a(L110883720L
L0L
(lp3305
(lp3306
tp3307
a(L3884092851L
L3785322319L
(lp3308
(lp3309
V__assert_func
p3310
atp3311
a(L498498478L
L0L
(lp3312
(lp3313
tp3314
a(L1040021824L
L0L
(lp3315
(lp3316
tp3317
a(L2910371777L
L0L
(lp3318
(lp3319
tp3320
a(L3360570486L
L0L
(lp3321
(lp3322
tp3323
a(L1788837773L
L0L
(lp3324
(lp3325
tp3326
a(L541898147L
L0L
(lp3327
(lp3328
tp3329
a(L2604061911L
L0L
(lp3330
(lp3331
tp3332
a(L8683590L
L0L
(lp3333
(lp3334
tp3335
a(L3387118333L
L0L
(lp3336
(lp3337
tp3338
a(L2032890799L
L0L
(lp3339
(lp3340
tp3341
a(L3028464L
L0L
(lp3342
(lp3343
tp3344
a(L707876039L
L0L
(lp3345
(lp3346
tp3347
a(L498156265L
L0L
(lp3348
(lp3349
tp3350
atp3351
sI1074269104
(Vbootloader_init_mem
p3352
(lp3353
(L1287383080L
L3785322319L
(lp3354
(lp3355
Vesp_cpu_configure_region_protection
p3356
atp3357
atp3358
sI1074269616
(Vbootloader_clear_bss_section
p3359
(lp3360
(L2805319867L
L0L
(lp3361
(lp3362
tp3363
atp3364
sI1074268872
(Vbootloader_clock_configure
p3365
(lp3366
(L2559598596L
L1880226080L
(lp3367
(lp3368
Vesp_rom_uart_tx_wait_idle
p3369
aVefuse_hal_chip_revision
p3370
atp3371
a(L4006799969L
L0L
(lp3372
(lp3373
tp3374
a(L719086487L
L0L
(lp3375
(lp3376
tp3377
a(L106L
L0L
(lp3378
(lp3379
tp3380
a(L4161070602L
L1832448559L
(lp3381
(lp3382
Vrtc_clk_slow_src_get
p3383
aVrtc_clk_fast_src_get
p3384
aVrtc_clk_init
p3385
atp3386
a(L2587354260L
L0L
(lp3387
(lp3388
tp3389
a(L1108834551L
L3785322319L
(lp3390
(lp3391
Vrtc_clk_apb_freq_get
p3392
atp3393
a(L106L
L0L
(lp3394
(lp3395
tp3396
a(L106L
L0L
(lp3397
(lp3398
tp3399
atp3400
sI1074269640
(Vbootloader_read_bootloader_header
p3401
(lp3402
(L1351060515L
L3785322319L
(lp3403
(lp3404
Vbootloader_flash_read
p3405
atp3406
a(L996487665L
L3785322319L
(lp3407
(lp3408
Vesp_log_early_timestamp
p3409
atp3410
a(L735741265L
L0L
(lp3411
(lp3412
tp3413
atp3414
sI1074244804
(Vrtc_clk_cpu_freq_to_pll_mhz
p3415
(lp3416
(L1393544349L
L0L
(lp3417
(lp3418
tp3419
a(L405771233L
L0L
(lp3420
(lp3421
tp3422
a(L2930233244L
L0L
(lp3423
(lp3424
tp3425
a(L3298441904L
L0L
(lp3426
(lp3427
tp3428
a(L3680579786L
L0L
(lp3429
(lp3430
tp3431
a(L1298905564L
L0L
(lp3432
(lp3433
tp3434
a(L46269790L
L3785322319L
(lp3435
(lp3436
Vrtc_clk_wait_for_slow_cycle
p3437
atp3438
a(L1611366957L
L0L
(lp3439
(lp3440
tp3441
a(L1611366988L
L0L
(lp3442
(lp3443
tp3444
a(L94425498L
L3785322319L
(lp3445
(lp3446
Vabort
p3447
atp3448
atp3449
sI1074244036
(Vwdt_hal_config_stage
p3450
(lp3451
(L331558507L
L0L
(lp3452
(lp3453
tp3454
a(L4279082939L
L0L
(lp3455
(lp3456
tp3457
a(L93674324L
L0L
(lp3458
(lp3459
tp3460
a(L2902417580L
L0L
(lp3461
(lp3462
tp3463
a(L1485495983L
L0L
(lp3464
(lp3465
tp3466
a(L3020187L
L0L
(lp3467
(lp3468
tp3469
a(L94425498L
L3785322319L
(lp3470
(lp3471
Vabort
p3472
atp3473
a(L2718517169L
L0L
(lp3474
(lp3475
tp3476
a(L3360570486L
L0L
(lp3477
(lp3478
tp3479
a(L1996799187L
L0L
(lp3480
(lp3481
tp3482
a(L2771194801L
L0L
(lp3483
(lp3484
tp3485
a(L4278159418L
L0L
(lp3486
(lp3487
tp3488
a(L93674324L
L0L
(lp3489
(lp3490
tp3491
a(L3020204L
L0L
(lp3492
(lp3493
tp3494
a(L3391750594L
L0L
(lp3495
(lp3496
tp3497
a(L3020187L
L0L
(lp3498
(lp3499
tp3500
a(L106L
L0L
(lp3501
(lp3502
tp3503
a(L239610384L
L0L
(lp3504
(lp3505
tp3506
a(L831450820L
L0L
(lp3507
(lp3508
tp3509
a(L3340783449L
L0L
(lp3510
(lp3511
tp3512
atp3513
sI1074270660
(Vrtc_vddsdio_get_config
p3514
(lp3515
(L1424863558L
L0L
(lp3516
(lp3517
tp3518
a(L3421108135L
L0L
(lp3519
(lp3520
tp3521
a(L3002774692L
L0L
(lp3522
(lp3523
tp3524
a(L253680180L
L0L
(lp3525
(lp3526
tp3527
a(L2961852087L
L0L
(lp3528
(lp3529
tp3530
a(L2194851786L
L0L
(lp3531
(lp3532
tp3533
a(L1306330959L
L0L
(lp3534
(lp3535
tp3536
a(L1997193082L
L0L
(lp3537
(lp3538
tp3539
atp3540
sI1074244552
(Vmmu_hal_init
p3541
(lp3542
(L1381828061L
L0L
(lp3543
(lp3544
tp3545
a(L2010554219L
L0L
(lp3546
(lp3547
tp3548
a(L3268103L
L0L
(lp3549
(lp3550
tp3551
a(L3212334523L
L0L
(lp3552
(lp3553
tp3554
a(L2010554219L
L0L
(lp3555
(lp3556
tp3557
a(L3360570486L
L0L
(lp3558
(lp3559
tp3560
atp3561
sI1074236628
(Vesp_rom_uart_set_clock_baudrate
p3562
(lp3563
(L2889646162L
L0L
(lp3564
(lp3565
tp3566
a(L2316512566L
L0L
(lp3567
(lp3568
tp3569
a(L2805931268L
L0L
(lp3570
(lp3571
tp3572
a(L2901979283L
L0L
(lp3573
(lp3574
tp3575
atp3576
sI1074237396
(Vbootloader_mmap
p3577
(lp3578
(L3624397292L
L0L
(lp3579
(lp3580
tp3581
a(L3762918116L
L3785322319L
(lp3582
(lp3583
Vesp_log_early_timestamp
p3584
atp3585
a(L3871473710L
L0L
(lp3586
(lp3587
tp3588
a(L3729184599L
L0L
(lp3589
(lp3590
tp3591
a(L3066168078L
L3785322319L
(lp3592
(lp3593
Vesp_log_early_timestamp
p3594
atp3595
a(L1864365708L
L0L
(lp3596
(lp3597
tp3598
a(L2872111263L
L3785322319L
(lp3599
(lp3600
Vesp_log_early_timestamp
p3601
atp3602
a(L258722864L
L0L
(lp3603
(lp3604
tp3605
a(L3746164654L
L3785322319L
(lp3606
(lp3607
Vesp_log_early_timestamp
p3608
atp3609
a(L2535155408L
L0L
(lp3610
(lp3611
tp3612
atp3613
sI1074235600
(Vbootloader_read_flash_id
p3614
(lp3615
(L549578328L
L3785322319L
(lp3616
(lp3617
Vbootloader_execute_flash_command
p3618
atp3619
atp3620
sI1074245840
(Vrtc_clk_cpu_freq_to_xtal
p3621
(lp3622
(L2382625401L
L0L
(lp3623
(lp3624
tp3625
a(L94425498L
L3785322319L
(lp3626
(lp3627
Vabort
p3628
atp3629
a(L2975556993L
L3785322319L
(lp3630
(lp3631
Vrtc_clk_apb_freq_update
p3632
atp3633
a(L2258867232L
L0L
(lp3634
(lp3635
tp3636
a(L362206021L
L0L
(lp3637
(lp3638
tp3639
atp3640
sI1074247120
(Vrtc_clk_cal_ratio
p3641
(lp3642
(L1201925337L
L3785322319L
(lp3643
(lp3644
Vrtc_clk_cal_internal
p3645
atp3646
atp3647
sI1074241244
(Vbootloader_util_regions_overlap
p3648
(lp3649
(L2762640130L
L0L
(lp3650
(lp3651
tp3652
a(L2198512677L
L0L
(lp3653
(lp3654
tp3655
a(L2217655633L
L3785322319L
(lp3656
(lp3657
V__assert_func
p3658
atp3659
a(L97642L
L0L
(lp3660
(lp3661
tp3662
a(L996187529L
L0L
(lp3663
(lp3664
tp3665
a(L366123053L
L0L
(lp3666
(lp3667
tp3668
a(L2258867228L
L0L
(lp3669
(lp3670
tp3671
a(L1253626734L
L0L
(lp3672
(lp3673
tp3674
a(L2258897019L
L0L
(lp3675
(lp3676
tp3677
a(L3109269495L
L0L
(lp3678
(lp3679
tp3680
atp3681
sI1074269908
(Vbootloader_print_banner
p3682
(lp3683
(L137307312L
L1880226080L
(lp3684
(lp3685
Vesp_log_early_timestamp
p3686
aVesp_log_early_timestamp
p3687
atp3688
atp3689
sI1074245080
(Vrtc_clk_8m_enable
p3690
(lp3691
(L1843101924L
L0L
(lp3692
(lp3693
tp3694
a(L3147299128L
L0L
(lp3695
(lp3696
tp3697
a(L2151320156L
L0L
(lp3698
(lp3699
tp3700
a(L711175840L
L0L
(lp3701
(lp3702
tp3703
a(L3360570486L
L0L
(lp3704
(lp3705
tp3706
a(L1318267208L
L0L
(lp3707
(lp3708
tp3709
a(L512411289L
L0L
(lp3710
(lp3711
tp3712
atp3713
sI1074236900
(Vesp_log_early_timestamp
p3714
(lp3715
(L3733265409L
L0L
(lp3716
(lp3717
tp3718
atp3719
sI1074237924
(Vbootloader_flash_erase_sector
p3720
(lp3721
(L4129137686L
L1880226080L
(lp3722
(lp3723
Vesp_rom_spiflash_erase_sector
p3724
aVspi_to_esp_err
p3725
atp3726
atp3727
sI1074236384
(Vbootloader_flash_dummy_config
p3728
(lp3729
(L262000646L
L0L
(lp3730
(lp3731
tp3732
a(L2761717557L
L0L
(lp3733
(lp3734
tp3735
a(L1849044936L
L0L
(lp3736
(lp3737
tp3738
a(L708753936L
L0L
(lp3739
(lp3740
tp3741
a(L1010450057L
L0L
(lp3742
(lp3743
tp3744
a(L3020204L
L0L
(lp3745
(lp3746
tp3747
a(L1610443405L
L0L
(lp3748
(lp3749
tp3750
a(L4032120524L
L0L
(lp3751
(lp3752
tp3753
a(L2336993863L
L0L
(lp3754
(lp3755
tp3756
a(L1298875775L
L0L
(lp3757
(lp3758
tp3759
a(L3880393601L
L0L
(lp3760
(lp3761
tp3762
a(L3328946209L
L0L
(lp3763
(lp3764
tp3765
a(L1610443436L
L0L
(lp3766
(lp3767
tp3768
atp3769
sI1074237672
(Vbootloader_flash_read
p3770
(lp3771
(L728393898L
L0L
(lp3772
(lp3773
tp3774
a(L1489400095L
L3785322319L
(lp3775
(lp3776
Vesp_log_early_timestamp
p3777
atp3778
a(L1941789336L
L0L
(lp3779
(lp3780
tp3781
a(L3360570486L
L0L
(lp3782
(lp3783
tp3784
a(L2660352519L
L0L
(lp3785
(lp3786
tp3787
a(L1179571938L
L3785322319L
(lp3788
(lp3789
Vesp_log_early_timestamp
p3790
atp3791
a(L162336582L
L0L
(lp3792
(lp3793
tp3794
a(L814874711L
L3785322319L
(lp3795
(lp3796
Vesp_log_early_timestamp
p3797
atp3798
a(L3020204L
L0L
(lp3799
(lp3800
tp3801
a(L3893043951L
L0L
(lp3802
(lp3803
tp3804
a(L97422L
L0L
(lp3805
(lp3806
tp3807
a(L1190291857L
L0L
(lp3808
(lp3809
tp3810
a(L2961856275L
L0L
(lp3811
(lp3812
tp3813
a(L2859434406L
L3785322319L
(lp3814
(lp3815
V__assert_func
p3816
atp3817
a(L1539897528L
L0L
(lp3818
(lp3819
tp3820
a(L1915165223L
L0L
(lp3821
(lp3822
tp3823
a(L1336007148L
L1880226080L
(lp3824
(lp3825
Vesp_rom_spiflash_read
p3826
aVspi_to_esp_err
p3827
atp3828
atp3829
sI1074247400
(Vesp_rom_spiflash_wait_idle
p3830
(lp3831
(L3233077286L
L0L
(lp3832
(lp3833
tp3834
a(L2023766174L
L0L
(lp3835
(lp3836
tp3837
a(L2805935267L
L0L
(lp3838
(lp3839
tp3840
a(L3086959262L
L0L
(lp3841
(lp3842
tp3843
a(L4161019926L
L3785322319L
(lp3844
(lp3845
Vesp_rom_spiflash_read_status
p3846
atp3847
atp3848
sI1074238192
(Vbootloader_random_disable
p3849
(lp3850
(L2825582328L
L0L
(lp3851
(lp3852
tp3853
atp3854
sI1074246640
(Vrtc_clk_apb_freq_get
p3855
(lp3856
(L3268507198L
L0L
(lp3857
(lp3858
tp3859
atp3860
sI1074247152
(Vrtc_clk_wait_for_slow_cycle
p3861
(lp3862
(L57851970L
L0L
(lp3863
(lp3864
tp3865
a(L287687718L
L0L
(lp3866
(lp3867
tp3868
a(L3360570486L
L0L
(lp3869
(lp3870
tp3871
a(L2237399032L
L0L
(lp3872
(lp3873
tp3874
a(L2994547433L
L0L
(lp3875
(lp3876
tp3877
a(L2206597745L
L0L
(lp3878
(lp3879
tp3880
a(L788148307L
L3785322319L
(lp3881
(lp3882
Vesp_log_early_timestamp
p3883
atp3884
atp3885
sI1074241788
(Vshould_load
p3886
(lp3887
(L1379502686L
L0L
(lp3888
(lp3889
tp3890
a(L1182990556L
L0L
(lp3891
(lp3892
tp3893
a(L1188500889L
L0L
(lp3894
(lp3895
tp3896
a(L2306467100L
L0L
(lp3897
(lp3898
tp3899
a(L524505062L
L0L
(lp3900
(lp3901
tp3902
a(L2258897019L
L0L
(lp3903
(lp3904
tp3905
a(L3781799363L
L0L
(lp3906
(lp3907
tp3908
a(L3028464L
L0L
(lp3909
(lp3910
tp3911
a(L2219325068L
L0L
(lp3912
(lp3913
tp3914
a(L4277114872L
L0L
(lp3915
(lp3916
tp3917
a(L2824381917L
L0L
(lp3918
(lp3919
tp3920
a(L1243412227L
L0L
(lp3921
(lp3922
tp3923
a(L2011157548L
L0L
(lp3924
(lp3925
tp3926
a(L3126521138L
L0L
(lp3927
(lp3928
tp3929
a(L1305407438L
L0L
(lp3930
(lp3931
tp3932
a(L1305407469L
L0L
(lp3933
(lp3934
tp3935
atp3936
sI1074245628
(Vrtc_clk_cpu_freq_get_config
p3937
(lp3938
(L3852097526L
L0L
(lp3939
(lp3940
tp3941
a(L3020187L
L0L
(lp3942
(lp3943
tp3944
a(L3020187L
L0L
(lp3945
(lp3946
tp3947
a(L1339883774L
L3785322319L
(lp3948
(lp3949
Vrtc_clk_xtal_freq_get
p3950
atp3951
a(L3789795478L
L0L
(lp3952
(lp3953
tp3954
a(L1876772334L
L1880226080L
(lp3955
(lp3956
Vesp_log_early_timestamp
p3957
aVabort
p3958
atp3959
a(L3035450075L
L0L
(lp3960
(lp3961
tp3962
a(L3020187L
L0L
(lp3963
(lp3964
tp3965
a(L3028481L
L0L
(lp3966
(lp3967
tp3968
a(L38508693L
L0L
(lp3969
(lp3970
tp3971
a(L187152368L
L0L
(lp3972
(lp3973
tp3974
a(L1161083655L
L0L
(lp3975
(lp3976
tp3977
a(L1395485899L
L0L
(lp3978
(lp3979
tp3980
a(L2070600034L
L0L
(lp3981
(lp3982
tp3983
atp3984
sI1074269684
(Vbootloader_check_bootloader_validity
p3985
(lp3986
(L385075415L
L1832448559L
(lp3987
(lp3988
Vefuse_hal_chip_revision
p3989
aVesp_log_early_timestamp
p3990
aVbootloader_common_check_chip_validity
p3991
atp3992
atp3993
sI1074244600
(Vefuse_hal_get_rated_freq_mhz
p3994
(lp3995
(L3936657855L
L0L
(lp3996
(lp3997
tp3998
a(L3671388797L
L0L
(lp3999
(lp4000
tp4001
a(L3360570486L
L0L
(lp4002
(lp4003
tp4004
atp4005
sI1074237944
(Vbootloader_flash_write
p4006
(lp4007
(L3770380603L
L0L
(lp4008
(lp4009
tp4010
a(L2615366646L
L3785322319L
(lp4011
(lp4012
Vesp_log_early_timestamp
p4013
atp4014
a(L3833270346L
L0L
(lp4015
(lp4016
tp4017
a(L1610445075L
L0L
(lp4018
(lp4019
tp4020
a(L735741265L
L0L
(lp4021
(lp4022
tp4023
a(L3291333414L
L0L
(lp4024
(lp4025
tp4026
a(L1873007406L
L3785322319L
(lp4027
(lp4028
Vesp_log_early_timestamp
p4029
atp4030
a(L3283691850L
L0L
(lp4031
(lp4032
tp4033
a(L2141475974L
L3785322319L
(lp4034
(lp4035
Vesp_log_early_timestamp
p4036
atp4037
a(L3212356251L
L3785322319L
(lp4038
(lp4039
Vbootloader_flash_unlock
p4040
atp4041
a(L1799218633L
L0L
(lp4042
(lp4043
tp4044
a(L94425498L
L3785322319L
(lp4045
(lp4046
Vesp_rom_spiflash_write_encrypted
p4047
atp4048
a(L2927190544L
L3785322319L
(lp4049
(lp4050
Vspi_to_esp_err
p4051
atp4052
a(L2927190544L
L3785322319L
(lp4053
(lp4054
Vesp_rom_spiflash_write
p4055
atp4056
atp4057
ssS'functionsdups'
p4058
g11
((lp4059
tp4060
Rp4061
sS'immediatedups'
p4062
g11
((lp4063
tp4064
Rp4065
sS'functiondups'
p4066
g11
((lp4067
tp4068
Rp4069
sS'fuzzy'
p4070
(dp4071
L1536L
I1074240800
sL438947497L
I1074245256
sL2170867428L
I1074270224
sL617583950L
I1074236988
sL430153639L
I1074235916
sL3121027072L
I1074270660
sL2082889262L
I1074241696
sL291131346L
I1074244804
sL835568324L
I1074246684
sL2919016435L
I1074235256
sL16208487L
I1074234744
sL2319042089L
I1074245388
sL3881399234L
I1074245840
sL2919036513L
I1074238880
sL3769307958L
I1074267724
sL151789201L
I1074270040
sL2680783959L
I1074235648
sL3512578114L
I1074238728
sL1419132215L
I1074238112
sL2469233929L
I1074240588
sL701833459L
I1074268872
sL3897252859L
I1074238520
sL1065525808L
I1074236828
sL2327783177L
I1074240880
sL1164839255L
I1074241916
sL2272466760L
I1074245628
sL2117292686L
I1074241300
sL2044047637L
I1074239388
sL1188065553L
I1074237672
sL94556391L
I1074245416
sL3210669721L
I1074245020
sL1332800441L
I1074237220
sL2884218272L
I1074267820
sL1168466927L
I1074268040
sL1345429244L
I1074241052
sL3190020590L
I1074242636
sL2828970830L
I1074239268
sL4160102055L
I1074240064
sL4202185385L
I1074247400
sL1768086576L
I1074236384
sL4171975289L
I1074247700
sL1565254297L
I1074248000
sL1205407754L
I1074240096
sL2191698036L
I1074269752
sL1513350244L
I1074239752
sL1635528231L
I1074244036
sL519424169L
I1074247152
sL1060788199L
I1074245536
sL406720601L
I1074238604
sL737694352L
I1074247508
sL503029138L
I1074247448
sL1616763831L
I1074248088
sL2262558768L
I1074247312
sL424867129L
I1074247836
sL3834155367L
I1074241244
sL3338518926L
I1074237396
sL2123938668L
I1074245956
sL3883282432L
I1074241788
sL4173399607L
I1074243152
sL1667054119L
I1074240432
sL206902443L
I1074237944
ssb.