ccopy_reg
_reconstructor
p0
(crizzo
RizzoSignature
p1
c__builtin__
object
p2
Ntp3
Rp4
(dp5
S'formal'
p6
(dp7
L1355159495L
I1074239692
sL3856765925L
I1074245236
sL2958862168L
I1074246984
sL3468298416L
I1074236872
sL1741170115L
I1074238064
sL3137685769L
I1074244180
sL3505757179L
I1074234612
sL867946411L
I1074235692
sL268856855L
I1074268884
sL2965918685L
I1074270016
sL138009647L
I1074234652
sL1181169265L
I1074243268
sL463041666L
I1074247144
sL1454943397L
I1074238084
sL3783234402L
I1074247280
sL2507404398L
I1074270636
sL3545118830L
I1074267756
sL1564580706L
I1074245316
sL818480367L
I1074236768
sL3248221117L
I1074247340
sL2420455533L
I1074269700
sL2863282304L
I1074267139
sL1959081198L
I1074240728
sL2731772664L
I1074248388
sL2702580795L
I1074237428
sL2161201919L
I1074238332
sL2568602422L
I1074237760
sL3152403159L
I1074247532
sL3387824349L
I1074236056
sL612233294L
I1074238900
sL706737706L
I1074239968
sL2896295319L
I1074236968
sL69447444L
I1074240704
sL2613131260L
I1074237536
sL1674148343L
I1074245356
sL1927941589L
I1074240784
sL2485902447L
I1074236848
sL902150784L
I1074235740
sL2441030201L
I1074270200
sL308353321L
I1074269640
sL564397550L
I1074240956
sL2873562891L
I1074238660
sL2694490583L
I1074241148
sL3562425881L
I1074237128
sL4263947382L
I1074236672
sL3691354453L
I1074240336
sL48951736L
I1074238252
sL2235154283L
I1074242444
sL2657572914L
I1074248552
sL2166402678L
I1074235944
sL1585823442L
I1074244280
sL379058638L
I1074241820
sL1622896354L
I1074244308
sL2758900266L
I1074241692
sL3350021110L
I1074246516
sL426938157L
I1074235164
sL1100066510L
I1074269724
sL3129199843L
I1074235820
sL351311763L
I1074247232
sL2021586966L
I1074245660
sL3934645487L
I1074236940
sL3364913916L
I1074245448
sL2953397605L
I1074269372
sL3388866956L
I1074269796
sL3007247178L
I1074238868
sL1842486436L
I1074241204
sL2128774811L
I1074236704
sL1663827281L
I1074245776
sL2844920302L
I1074237812
sL3092480211L
I1074244780
sL1685548274L
I1074245300
sL3307282855L
I1074238224
sL1091213196L
I1074242944
sL2840751066L
I1074241600
sL3951815938L
I1074244212
sL2038336498L
I1074244632
sL1043339424L
I1074240240
sL7243517L
I1074245208
sL1888032017L
I1074240316
sL3380256487L
I1074235556
sL3790692972L
I1074244468
sL4134277361L
I1074245588
sL3371457387L
I1074269768
sL4038945309L
I1074235508
sL4034710493L
I1074244840
sL1322407281L
I1074242980
sL1341808985L
I1074240688
sL3876253865L
I1074238952
sL21429742L
I1074237040
sL2838859164L
I1074235888
sL361204269L
I1074238744
sL2140198974L
I1074246472
sL2997001746L
I1074237360
sL4010584764L
I1074246952
sL152949160L
I1074268644
sL4248297601L
I1074245076
sL1602802495L
I1074237072
sL4033219551L
I1074269624
sL2819127986L
I1074237092
sL209135561L
I1074240492
sL1877634603L
I1074270876
sL2411516799L
I1074235800
sL3349632354L
I1074248640
sL256127874L
I1074270796
sL3016363266L
I1074244496
sL1225633219L
I1074245632
sL1920715700L
I1074245052
sL3262741161L
I1074236524
sL1168915326L
I1074235456
sL3109370253L
I1074269968
sL2263182908L
I1074238244
sL2925091974L
I1074243864
sL3630163135L
I1074236956
sL188664287L
I1074235132
sL1499807873L
I1074244428
sL3670064932L
I1074268588
sL692536993L
I1074237400
sL2160242728L
I1074244900
sL217496090L
I1074245028
sL2669162231L
I1074235840
sL1695532512L
I1074239004
sL3275313366L
I1074239480
sL2950269736L
I1074267976
sL1320143707L
I1074269932
sL2518607080L
I1074237504
sL586403589L
I1074244380
sL4262538726L
I1074248252
sL3322869492L
I1074235780
sL440921530L
I1074240000
sL3018942732L
I1074267648
sL677806744L
I1074235716
sL76598382L
I1074239380
ssS'immediates'
p8
(dp9
sS'formaldups'
p10
c__builtin__
set
p11
((lp12
tp13
Rp14
sS'stringdups'
p15
g11
((lp16
tp17
Rp18
sS'fuzzydups'
p19
g11
((lp20
tp21
Rp22
sS'strings'
p23
(dp24
sS'functions'
p25
(dp26
I1074240000
(Vbootloader_utility_load_boot_image
p27
(lp28
(L3385398614L
L0L
(lp29
(lp30
tp31
a(L2177418995L
L3785322319L
(lp32
(lp33
Vtry_load_partition
p34
atp35
a(L1305243774L
L3785322319L
(lp36
(lp37
Vload_image
p38
atp39
a(L299665327L
L3785322319L
(lp40
(lp41
Vesp_log_early_timestamp
p42
atp43
a(L3827921190L
L3785322319L
(lp44
(lp45
Vbootloader_reset
p46
atp47
a(L1953693036L
L3785322319L
(lp48
(lp49
Vindex_to_partition
p50
atp51
a(L1204373741L
L3785322319L
(lp52
(lp53
Vtry_load_partition
p54
atp55
a(L1899865696L
L0L
(lp56
(lp57
tp58
a(L2695355117L
L3785322319L
(lp59
(lp60
Vset_actual_ota_seq
p61
atp62
a(L1868897605L
L3785322319L
(lp63
(lp64
Vlog_invalid_app_partition
p65
atp66
a(L831650730L
L0L
(lp67
(lp68
tp69
a(L3021737L
L0L
(lp70
(lp71
tp72
a(L695456438L
L0L
(lp73
(lp74
tp75
a(L1148002536L
L3785322319L
(lp76
(lp77
Vtry_load_partition
p78
atp79
a(L2590723623L
L3785322319L
(lp80
(lp81
Vesp_log_early_timestamp
p82
atp83
a(L2347390157L
L3785322319L
(lp84
(lp85
Vindex_to_partition
p86
atp87
a(L1204373741L
L3785322319L
(lp88
(lp89
Vtry_load_partition
p90
atp91
a(L3061261803L
L0L
(lp92
(lp93
tp94
a(L3582858798L
L3785322319L
(lp95
(lp96
Vlog_invalid_app_partition
p97
atp98
a(L3663038107L
L3785322319L
(lp99
(lp100
Vesp_log_early_timestamp
p101
atp102
atp103
sI1074236672
(Vbootloader_common_get_chip_ver_pkg
p104
(lp105
(L183333409L
L0L
(lp106
(lp107
tp108
atp109
sI1074245632
(Vrtc_clk_apb_freq_update
p110
(lp111
(L648133901L
L0L
(lp112
(lp113
tp114
atp115
sI1074267136
(V_init
p116
(lp117
(L3493042598L
L0L
(lp118
(lp119
tp120
atp121
sI1074267648
(Vcall_start_cpu0
p122
(lp123
(L1137852827L
L0L
(lp124
(lp125
tp126
a(L549459388L
L0L
(lp127
(lp128
tp129
a(L3212347974L
L3785322319L
(lp130
(lp131
Vbootloader_init
p132
atp133
a(L94425498L
L3785322319L
(lp134
(lp135
Vbootloader_reset
p136
atp137
a(L1122046408L
L0L
(lp138
(lp139
tp140
a(L4099474112L
L0L
(lp141
(lp142
tp143
a(L3015046664L
L3785322319L
(lp144
(lp145
Vbootloader_utility_load_partition_table
p146
atp147
a(L2761094216L
L3785322319L
(lp148
(lp149
Vesp_log_early_timestamp
p150
atp151
a(L405422123L
L3785322319L
(lp152
(lp153
Vbootloader_utility_get_selected_boot_partition
p154
atp155
a(L2055385849L
L3785322319L
(lp156
(lp157
Vbootloader_utility_load_boot_image
p158
atp159
atp160
sI1074236940
(Vefuse_hal_get_minor_chip_version
p161
(lp162
(L3957579839L
L0L
(lp163
(lp164
tp165
atp166
sI1074267139
(V_text_start
p167
(lp168
(L1817914933L
L0L
(lp169
(lp170
tp171
a(L93892250L
L0L
(lp172
(lp173
tp174
atp175
sI1074269700
(Vbootloader_clear_bss_section
p176
(lp177
(L1035474915L
L0L
(lp178
(lp179
tp180
atp181
sI1074240776
(Vbootloader_ana_clock_glitch_reset_config
p182
(lp183
(L2100504542L
L0L
(lp184
(lp185
tp186
atp187
sI1074269724
(Vbootloader_read_bootloader_header
p188
(lp189
(L2653072919L
L3785322319L
(lp190
(lp191
Vbootloader_flash_read
p192
atp193
a(L359550834L
L3785322319L
(lp194
(lp195
Vesp_log_early_timestamp
p196
atp197
a(L735741265L
L0L
(lp198
(lp199
tp200
atp201
sI1074240784
(Vprocess_checksum
p202
(lp203
(L3552259966L
L0L
(lp204
(lp205
tp206
a(L2910371777L
L0L
(lp207
(lp208
tp209
a(L186886970L
L0L
(lp210
(lp211
tp212
a(L2910371777L
L0L
(lp213
(lp214
tp215
a(L3020204L
L0L
(lp216
(lp217
tp218
a(L2480703612L
L3785322319L
(lp219
(lp220
Vbootloader_sha256_data
p221
atp222
a(L4179073442L
L0L
(lp223
(lp224
tp225
a(L1811888222L
L3785322319L
(lp226
(lp227
Vbootloader_flash_read
p228
atp229
a(L3126521138L
L0L
(lp230
(lp231
tp232
a(L2878945149L
L0L
(lp233
(lp234
tp235
a(L2037853476L
L3785322319L
(lp236
(lp237
Vesp_log_early_timestamp
p238
atp239
atp240
sI1074238224
(Vbootloader_enable_wp
p241
(lp242
(L1117825804L
L3785322319L
(lp243
(lp244
Vbootloader_execute_flash_command
p245
atp246
atp247
sI1074269968
(Vesp_cpu_configure_region_protection
p248
(lp249
(L3630570892L
L0L
(lp250
(lp251
tp252
a(L180431425L
L3785322319L
(lp253
(lp254
Vmpu_hal_set_region_access
p255
atp256
a(L2537388152L
L3785322319L
(lp257
(lp258
Vmpu_hal_set_region_access
p259
atp260
atp261
sI1074239004
(Vload_image
p262
(lp263
(L4278320029L
L1880226080L
(lp264
(lp265
Vbootloader_random_disable
p266
aVbootloader_ana_clock_glitch_reset_config
p267
atp268
a(L3893505478L
L0L
(lp269
(lp270
tp271
a(L106L
L0L
(lp272
(lp273
tp274
a(L134254403L
L3758435744L
(lp275
(lp276
Vmmu_hal_init
p277
aVcache_ll_l1_get_bus
p278
aVcache_ll_l1_enable_bus
p279
aVcache_ll_l1_get_bus
p280
aVcache_ll_l1_enable_bus
p281
aVcache_ll_l1_get_bus
p282
aVcache_ll_l1_enable_bus
p283
aVcache_ll_l1_get_bus
p284
aVcache_ll_l1_enable_bus
p285
aVbootloader_console_deinit
p286
atp287
a(L2366773478L
L0L
(lp288
(lp289
tp290
a(L2902417580L
L0L
(lp291
(lp292
tp293
a(L3087200444L
L3785322319L
(lp294
(lp295
Vesp_log_early_timestamp
p296
atp297
a(L3455620645L
L0L
(lp298
(lp299
tp300
a(L3193235534L
L0L
(lp301
(lp302
tp303
a(L3020204L
L0L
(lp304
(lp305
tp306
a(L646578685L
L3785322319L
(lp307
(lp308
Vesp_log_early_timestamp
p309
atp310
a(L3093629574L
L0L
(lp311
(lp312
tp313
a(L4254185231L
L0L
(lp314
(lp315
tp316
atp317
sI1074236956
(Vesp_dport_access_reg_read
p318
(lp319
(L1099794772L
L0L
(lp320
(lp321
tp322
atp323
sI1074234652
(Vbootloader_flash_execute_command_common
p324
(lp325
(L3865052895L
L0L
(lp326
(lp327
tp328
a(L3287175998L
L0L
(lp329
(lp330
tp331
a(L4121451103L
L3785322319L
(lp332
(lp333
V__assert_func
p334
atp335
a(L3021749L
L0L
(lp336
(lp337
tp338
a(L3999871974L
L0L
(lp339
(lp340
tp341
a(L543316797L
L0L
(lp342
(lp343
tp344
a(L2091933878L
L0L
(lp345
(lp346
tp347
a(L1702379862L
L0L
(lp348
(lp349
tp350
a(L3432464320L
L0L
(lp351
(lp352
tp353
a(L3539375712L
L0L
(lp354
(lp355
tp356
a(L3244449450L
L0L
(lp357
(lp358
tp359
a(L4233404408L
L0L
(lp360
(lp361
tp362
a(L2990329343L
L0L
(lp363
(lp364
tp365
a(L2051090536L
L0L
(lp366
(lp367
tp368
a(L3333696662L
L0L
(lp369
(lp370
tp371
a(L963425213L
L0L
(lp372
(lp373
tp374
a(L339491738L
L0L
(lp375
(lp376
tp377
a(L3360570486L
L0L
(lp378
(lp379
tp380
atp381
sI1074235164
(Vbootloader_flash_unlock
p382
(lp383
(L2142380611L
L3785322319L
(lp384
(lp385
Vesp_rom_spiflash_wait_idle
p386
atp387
a(L4212373562L
L0L
(lp388
(lp389
tp390
a(L4292483033L
L3785322319L
(lp391
(lp392
Vbootloader_execute_flash_command
p393
atp394
a(L106L
L0L
(lp395
(lp396
tp397
a(L1303560644L
L0L
(lp398
(lp399
tp400
a(L610618440L
L0L
(lp401
(lp402
tp403
a(L106L
L0L
(lp404
(lp405
tp406
a(L345249462L
L0L
(lp407
(lp408
tp409
a(L106L
L0L
(lp410
(lp411
tp412
a(L1024465569L
L0L
(lp413
(lp414
tp415
a(L106L
L0L
(lp416
(lp417
tp418
a(L1481761147L
L1880226080L
(lp419
(lp420
Vbootloader_execute_flash_command
p421
aVbootloader_execute_flash_command
p422
atp423
a(L2258807654L
L0L
(lp424
(lp425
tp426
a(L489806350L
L1832448559L
(lp427
(lp428
Vesp_rom_spiflash_wait_idle
p429
aVbootloader_execute_flash_command
p430
aVbootloader_execute_flash_command
p431
atp432
a(L879744646L
L1832448559L
(lp433
(lp434
Vesp_rom_spiflash_wait_idle
p435
aVbootloader_execute_flash_command
p436
aVbootloader_execute_flash_command
p437
atp438
a(L1840772931L
L1880226080L
(lp439
(lp440
Vesp_rom_spiflash_wait_idle
p441
aVbootloader_execute_flash_command
p442
atp443
a(L2993202392L
L0L
(lp444
(lp445
tp446
a(L508800419L
L1880226080L
(lp447
(lp448
Vbootloader_execute_flash_command
p449
aVbootloader_execute_flash_command
p450
atp451
a(L1303560369L
L0L
(lp452
(lp453
tp454
a(L1596544945L
L0L
(lp455
(lp456
tp457
a(L97689L
L0L
(lp458
(lp459
tp460
a(L106L
L0L
(lp461
(lp462
tp463
atp464
sI1074241820
(Vprocess_segments
p465
(lp466
(L933567253L
L0L
(lp467
(lp468
tp469
a(L3285816417L
L0L
(lp470
(lp471
tp472
a(L2393526353L
L0L
(lp473
(lp474
tp475
a(L106L
L0L
(lp476
(lp477
tp478
a(L1184913234L
L0L
(lp479
(lp480
tp481
a(L1118086683L
L3785322319L
(lp482
(lp483
Vesp_log_early_timestamp
p484
atp485
a(L3491764960L
L3785322319L
(lp486
(lp487
Vbootloader_flash_read
p488
atp489
a(L908816621L
L3785322319L
(lp490
(lp491
Vesp_log_early_timestamp
p492
atp493
a(L3871473710L
L0L
(lp494
(lp495
tp496
a(L1300630146L
L0L
(lp497
(lp498
tp499
a(L738857969L
L3785322319L
(lp500
(lp501
Vbootloader_sha256_data
p502
atp503
a(L3124001501L
L0L
(lp504
(lp505
tp506
a(L974643385L
L0L
(lp507
(lp508
tp509
a(L1810082356L
L0L
(lp510
(lp511
tp512
a(L4129104017L
L0L
(lp513
(lp514
tp515
a(L106L
L0L
(lp516
(lp517
tp518
a(L141486068L
L0L
(lp519
(lp520
tp521
a(L2587042390L
L0L
(lp522
(lp523
tp524
a(L1682130514L
L3785322319L
(lp525
(lp526
Vesp_log_early_timestamp
p527
atp528
a(L1114137787L
L0L
(lp529
(lp530
tp531
a(L568212210L
L0L
(lp532
(lp533
tp534
a(L749233863L
L3785322319L
(lp535
(lp536
Vesp_log_early_timestamp
p537
atp538
a(L2347770645L
L3785322319L
(lp539
(lp540
Vverify_load_addresses
p541
atp542
a(L106L
L0L
(lp543
(lp544
tp545
a(L299546812L
L0L
(lp546
(lp547
tp548
a(L262831199L
L0L
(lp549
(lp550
tp551
a(L3735077394L
L3785322319L
(lp552
(lp553
Vbootloader_mmap
p554
atp555
a(L175169014L
L3785322319L
(lp556
(lp557
Vesp_log_early_timestamp
p558
atp559
a(L1911351716L
L0L
(lp560
(lp561
tp562
a(L4205828899L
L0L
(lp563
(lp564
tp565
a(L1652679798L
L3785322319L
(lp566
(lp567
Vbootloader_munmap
p568
atp569
a(L3425676091L
L0L
(lp570
(lp571
tp572
a(L1782223905L
L3785322319L
(lp573
(lp574
Vbootloader_fill_random
p575
atp576
a(L3570641403L
L0L
(lp577
(lp578
tp579
a(L3574335487L
L0L
(lp580
(lp581
tp582
a(L3450268858L
L0L
(lp583
(lp584
tp585
a(L3021749L
L0L
(lp586
(lp587
tp588
a(L4179164843L
L0L
(lp589
(lp590
tp591
a(L1084626871L
L0L
(lp592
(lp593
tp594
a(L2902417580L
L0L
(lp595
(lp596
tp597
a(L167783179L
L0L
(lp598
(lp599
tp600
a(L1797921642L
L0L
(lp601
(lp602
tp603
a(L3437071223L
L0L
(lp604
(lp605
tp606
a(L3396129621L
L0L
(lp607
(lp608
tp609
a(L670934548L
L0L
(lp610
(lp611
tp612
a(L363643669L
L3785322319L
(lp613
(lp614
Vbootloader_sha256_data
p615
atp616
a(L90548756L
L0L
(lp617
(lp618
tp619
a(L4195963580L
L0L
(lp620
(lp621
tp622
a(L2394204398L
L0L
(lp623
(lp624
tp625
a(L617933722L
L0L
(lp626
(lp627
tp628
a(L308896050L
L3785322319L
(lp629
(lp630
Vshould_load
p631
atp632
a(L630320211L
L0L
(lp633
(lp634
tp635
a(L3028481L
L0L
(lp636
(lp637
tp638
a(L2176699418L
L3785322319L
(lp639
(lp640
Vbootloader_mmap_get_free_pages
p641
atp642
a(L847230985L
L0L
(lp643
(lp644
tp645
a(L3103552037L
L0L
(lp646
(lp647
tp648
atp649
sI1074244380
(Vmmu_hal_init
p650
(lp651
(L2805587975L
L0L
(lp652
(lp653
tp654
a(L2010554219L
L0L
(lp655
(lp656
tp657
a(L3268103L
L0L
(lp658
(lp659
tp660
a(L3212334523L
L0L
(lp661
(lp662
tp663
a(L2010554219L
L0L
(lp664
(lp665
tp666
a(L3360570486L
L0L
(lp667
(lp668
tp669
atp670
sI1074245660
(Vrtc_clk_cpu_freq_to_xtal
p671
(lp672
(L3046116771L
L0L
(lp673
(lp674
tp675
a(L94425498L
L3785322319L
(lp676
(lp677
Vabort
p678
atp679
a(L623998474L
L3785322319L
(lp680
(lp681
Vrtc_clk_apb_freq_update
p682
atp683
a(L2258867232L
L0L
(lp684
(lp685
tp686
a(L1438407065L
L0L
(lp687
(lp688
tp689
atp690
sI1074238744
(Vcache_ll_l1_get_bus
p691
(lp692
(L2721956783L
L0L
(lp693
(lp694
tp695
a(L94425498L
L3785322319L
(lp696
(lp697
Vabort
p698
atp699
a(L3175393928L
L0L
(lp700
(lp701
tp702
a(L1799159593L
L0L
(lp703
(lp704
tp705
a(L892952750L
L0L
(lp706
(lp707
tp708
a(L1182811810L
L0L
(lp709
(lp710
tp711
a(L1101742417L
L0L
(lp712
(lp713
tp714
a(L1100767927L
L0L
(lp715
(lp716
tp717
a(L3360570486L
L0L
(lp718
(lp719
tp720
a(L2727400564L
L0L
(lp721
(lp722
tp723
a(L892952750L
L0L
(lp724
(lp725
tp726
a(L2258688482L
L0L
(lp727
(lp728
tp729
a(L1802308380L
L0L
(lp730
(lp731
tp732
a(L2258718273L
L0L
(lp733
(lp734
tp735
a(L2938197270L
L0L
(lp736
(lp737
tp738
a(L2767111967L
L0L
(lp739
(lp740
tp741
a(L2748646817L
L0L
(lp742
(lp743
tp744
a(L1641149277L
L0L
(lp745
(lp746
tp747
a(L3207711893L
L0L
(lp748
(lp749
tp750
a(L3027019L
L0L
(lp751
(lp752
tp753
a(L1299866560L
L0L
(lp754
(lp755
tp756
a(L1299866436L
L0L
(lp757
(lp758
tp759
atp760
sI1074243864
(Vwdt_hal_config_stage
p761
(lp762
(L331558507L
L0L
(lp763
(lp764
tp765
a(L4279082939L
L0L
(lp766
(lp767
tp768
a(L93674324L
L0L
(lp769
(lp770
tp771
a(L2902417580L
L0L
(lp772
(lp773
tp774
a(L1396645752L
L0L
(lp775
(lp776
tp777
a(L3020187L
L0L
(lp778
(lp779
tp780
a(L94425498L
L3785322319L
(lp781
(lp782
Vabort
p783
atp784
a(L2161461704L
L0L
(lp785
(lp786
tp787
a(L3360570486L
L0L
(lp788
(lp789
tp790
a(L1457248181L
L0L
(lp791
(lp792
tp793
a(L1968552594L
L0L
(lp794
(lp795
tp796
a(L4278159418L
L0L
(lp797
(lp798
tp799
a(L93674324L
L0L
(lp800
(lp801
tp802
a(L3020204L
L0L
(lp803
(lp804
tp805
a(L1936393611L
L0L
(lp806
(lp807
tp808
a(L3020187L
L0L
(lp809
(lp810
tp811
a(L106L
L0L
(lp812
(lp813
tp814
a(L584867514L
L0L
(lp815
(lp816
tp817
a(L291899814L
L0L
(lp818
(lp819
tp820
a(L3686040579L
L0L
(lp821
(lp822
tp823
atp824
sI1074244632
(Vrtc_clk_cpu_freq_to_pll_mhz
p825
(lp826
(L1441168312L
L0L
(lp827
(lp828
tp829
a(L3298441904L
L0L
(lp830
(lp831
tp832
a(L3680579786L
L0L
(lp833
(lp834
tp835
a(L1298905564L
L0L
(lp836
(lp837
tp838
a(L1841883306L
L3785322319L
(lp839
(lp840
Vrtc_clk_wait_for_slow_cycle
p841
atp842
a(L1611366957L
L0L
(lp843
(lp844
tp845
a(L1611366988L
L0L
(lp846
(lp847
tp848
a(L94425498L
L3785322319L
(lp849
(lp850
Vabort
p851
atp852
atp853
sI1074244900
(Vrtc_clk_8m_enable
p854
(lp855
(L1116980035L
L0L
(lp856
(lp857
tp858
a(L611813754L
L0L
(lp859
(lp860
tp861
a(L2151320156L
L0L
(lp862
(lp863
tp864
a(L2201080984L
L0L
(lp865
(lp866
tp867
a(L3360570486L
L0L
(lp868
(lp869
tp870
a(L1318267208L
L0L
(lp871
(lp872
tp873
a(L2584494103L
L0L
(lp874
(lp875
tp876
atp877
sI1074238244
(Vbootloader_mmap_get_free_pages
p878
(lp879
(L1496516875L
L0L
(lp880
(lp881
tp882
atp883
sI1074236704
(Vesp_rom_uart_tx_wait_idle
p884
(lp885
(L2733747073L
L0L
(lp886
(lp887
tp888
a(L1301079727L
L0L
(lp889
(lp890
tp891
a(L3597746521L
L0L
(lp892
(lp893
tp894
a(L3694491048L
L0L
(lp895
(lp896
tp897
a(L3055926844L
L0L
(lp898
(lp899
tp900
a(L3360570486L
L0L
(lp901
(lp902
tp903
atp904
sI1074238252
(Vbootloader_fill_random
p905
(lp906
(L387180576L
L0L
(lp907
(lp908
tp909
a(L2924486945L
L3785322319L
(lp910
(lp911
V__assert_func
p912
atp913
a(L1882547218L
L0L
(lp914
(lp915
tp916
a(L2910371777L
L0L
(lp917
(lp918
tp919
a(L95634693L
L0L
(lp920
(lp921
tp922
a(L3630908706L
L0L
(lp923
(lp924
tp925
a(L160162640L
L0L
(lp926
(lp927
tp928
a(L97689L
L0L
(lp929
(lp930
tp931
a(L3360570486L
L0L
(lp932
(lp933
tp934
atp935
sI1074235692
(Vbootloader_read_status_8b_rdsr
p936
(lp937
(L1945786777L
L3785322319L
(lp938
(lp939
Vbootloader_execute_flash_command
p940
atp941
atp942
sI1074235944
(Vbootloader_flash_cs_timing_config
p943
(lp944
(L6299057L
L0L
(lp945
(lp946
tp947
atp948
sI1074236968
(Vis_xmc_chip_strict
p949
(lp950
(L1286841609L
L0L
(lp951
(lp952
tp953
a(L2234016759L
L0L
(lp954
(lp955
tp956
a(L1069027148L
L0L
(lp957
(lp958
tp959
a(L3021749L
L0L
(lp960
(lp961
tp962
a(L1900148749L
L0L
(lp963
(lp964
tp965
a(L1936875721L
L0L
(lp966
(lp967
tp968
a(L3356166509L
L0L
(lp969
(lp970
tp971
a(L1937769451L
L0L
(lp972
(lp973
tp974
a(L2137658907L
L0L
(lp975
(lp976
tp977
a(L4265949734L
L0L
(lp978
(lp979
tp980
a(L3360570486L
L0L
(lp981
(lp982
tp983
atp984
sI1074246952
(Vrtc_clk_cal_ratio
p985
(lp986
(L3533138594L
L3785322319L
(lp987
(lp988
Vrtc_clk_cal_internal
p989
atp990
atp991
sI1074240308
(Vbootloader_debug_buffer
p992
(lp993
(L2100504542L
L0L
(lp994
(lp995
tp996
atp997
sI1074240316
(Vbootloader_sha256_start
p998
(lp999
(L1535180675L
L0L
(lp1000
(lp1001
tp1002
atp1003
sI1074248252
(Vesp_rom_spiflash_erase_sector
p1004
(lp1005
(L2912087919L
L0L
(lp1006
(lp1007
tp1008
a(L2258688483L
L0L
(lp1009
(lp1010
tp1011
a(L3360570486L
L0L
(lp1012
(lp1013
tp1014
a(L3212356251L
L3785322319L
(lp1015
(lp1016
Vesp_rom_spiflash_enable_write
p1017
atp1018
a(L184152988L
L0L
(lp1019
(lp1020
tp1021
a(L4103131649L
L3785322319L
(lp1022
(lp1023
Vesp_rom_spiflash_wait_idle
p1024
atp1025
a(L3333707777L
L0L
(lp1026
(lp1027
tp1028
a(L3582858798L
L3785322319L
(lp1029
(lp1030
Vesp_rom_spiflash_wait_idle
p1031
atp1032
atp1033
sI1074267976
(Vbootloader_init
p1034
(lp1035
(L1256100286L
L3785322319L
(lp1036
(lp1037
Vbootloader_init_mem
p1038
atp1039
a(L2496550926L
L0L
(lp1040
(lp1041
tp1042
a(L2027378118L
L3785322319L
(lp1043
(lp1044
V__assert_func
p1045
atp1046
a(L408886226L
L0L
(lp1047
(lp1048
tp1049
a(L3771730718L
L0L
(lp1050
(lp1051
tp1052
a(L3813782018L
L0L
(lp1053
(lp1054
tp1055
a(L1676258143L
L0L
(lp1056
(lp1057
tp1058
a(L3027019L
L0L
(lp1059
(lp1060
tp1061
a(L2165555555L
L0L
(lp1062
(lp1063
tp1064
a(L1797062121L
L1832448559L
(lp1065
(lp1066
Vbootloader_clear_bss_section
p1067
aVbootloader_common_vddsdio_configure
p1068
aVbootloader_clock_get_rated_freq_mhz
p1069
atp1070
a(L3987130017L
L1157885199L
(lp1071
(lp1072
Vbootloader_clock_configure
p1073
aVbootloader_console_init
p1074
aVbootloader_print_banner
p1075
aVbootloader_flash_update_id
p1076
aVbootloader_flash_xmc_startup
p1077
atp1078
a(L1371217416L
L3785322319L
(lp1079
(lp1080
Vesp_log_early_timestamp
p1081
atp1082
a(L2835491336L
L3785322319L
(lp1083
(lp1084
Vesp_log_early_timestamp
p1085
atp1086
a(L3360570486L
L0L
(lp1087
(lp1088
tp1089
a(L2444883382L
L3785322319L
(lp1090
(lp1091
Vbootloader_read_bootloader_header
p1092
atp1093
a(L2444883382L
L3785322319L
(lp1094
(lp1095
Vbootloader_check_bootloader_validity
p1096
atp1097
a(L2859758235L
L1157885199L
(lp1098
(lp1099
Vbootloader_flash_gpio_config
p1100
aVbootloader_flash_dummy_config
p1101
aVbootloader_flash_cs_timing_config
p1102
aVbootloader_flash_unlock
p1103
aVbootloader_enable_qio_mode
p1104
atp1105
a(L93837694L
L0L
(lp1106
(lp1107
tp1108
a(L106L
L0L
(lp1109
(lp1110
tp1111
a(L3226039662L
L0L
(lp1112
(lp1113
tp1114
a(L1265057524L
L0L
(lp1115
(lp1116
tp1117
a(L2806354006L
L0L
(lp1118
(lp1119
tp1120
a(L2991536781L
L3785322319L
(lp1121
(lp1122
Vbootloader_enable_wp
p1123
atp1124
a(L378895346L
L0L
(lp1125
(lp1126
tp1127
a(L1895147922L
L0L
(lp1128
(lp1129
tp1130
a(L3457636795L
L3785322319L
(lp1131
(lp1132
Vesp_log_early_timestamp
p1133
atp1134
a(L1837681143L
L0L
(lp1135
(lp1136
tp1137
a(L1873516030L
L0L
(lp1138
(lp1139
tp1140
a(L1895147922L
L0L
(lp1141
(lp1142
tp1143
a(L14182512L
L3785322319L
(lp1144
(lp1145
Vesp_log_early_timestamp
p1146
atp1147
a(L4263191691L
L1880226080L
(lp1148
(lp1149
Vwdt_reset_info_dump
p1150
aVwdt_reset_info_dump
p1151
atp1152
a(L385083117L
L0L
(lp1153
(lp1154
tp1155
a(L3028481L
L0L
(lp1156
(lp1157
tp1158
a(L2920982674L
L1880226080L
(lp1159
(lp1160
Vbootloader_config_wdt
p1161
aVbootloader_enable_random
p1162
atp1163
atp1164
sI1074269768
(Vbootloader_check_bootloader_validity
p1165
(lp1166
(L1977038998L
L1880226080L
(lp1167
(lp1168
Vefuse_hal_chip_revision
p1169
aVbootloader_common_check_chip_validity
p1170
atp1171
atp1172
sI1074235716
(Vbootloader_read_status_8b_rdsr2
p1173
(lp1174
(L3746738790L
L3785322319L
(lp1175
(lp1176
Vbootloader_execute_flash_command
p1177
atp1178
atp1179
sI1074270796
(Vrtc_vddsdio_set_config
p1180
(lp1181
(L1525543098L
L0L
(lp1182
(lp1183
tp1184
atp1185
sI1074237760
(Vbootloader_munmap
p1186
(lp1187
(L1390725234L
L0L
(lp1188
(lp1189
tp1190
a(L1679328888L
L0L
(lp1191
(lp1192
tp1193
a(L3360570486L
L0L
(lp1194
(lp1195
tp1196
atp1197
sI1074237504
(Vspi_to_esp_err
p1198
(lp1199
(L3481169892L
L0L
(lp1200
(lp1201
tp1202
a(L2420870439L
L0L
(lp1203
(lp1204
tp1205
a(L3952441574L
L0L
(lp1206
(lp1207
tp1208
a(L3126521138L
L0L
(lp1209
(lp1210
tp1211
atp1212
sI1074235456
(Vbootloader_flash_read_sfdp
p1213
(lp1214
(L711701400L
L0L
(lp1215
(lp1216
tp1217
a(L3334003234L
L3785322319L
(lp1218
(lp1219
V__assert_func
p1220
atp1221
a(L3704332455L
L3785322319L
(lp1222
(lp1223
Vbootloader_flash_execute_command_common
p1224
atp1225
atp1226
sI1074241600
(Vprocess_appended_hash_and_sig
p1227
(lp1228
(L1668084157L
L0L
(lp1229
(lp1230
tp1231
a(L2910371777L
L0L
(lp1232
(lp1233
tp1234
a(L1591589631L
L0L
(lp1235
(lp1236
tp1237
a(L2551256078L
L0L
(lp1238
(lp1239
tp1240
a(L3884046905L
L0L
(lp1241
(lp1242
tp1243
a(L2607376716L
L3785322319L
(lp1244
(lp1245
Vesp_log_early_timestamp
p1246
atp1247
a(L2268304300L
L3785322319L
(lp1248
(lp1249
Vbootloader_flash_read
p1250
atp1251
a(L3871473710L
L0L
(lp1252
(lp1253
tp1254
atp1255
sI1074247232
(Vesp_rom_spiflash_wait_idle
p1256
(lp1257
(L3233075887L
L0L
(lp1258
(lp1259
tp1260
a(L2023766174L
L0L
(lp1261
(lp1262
tp1263
a(L2805933868L
L0L
(lp1264
(lp1265
tp1266
a(L3086959262L
L0L
(lp1267
(lp1268
tp1269
a(L4161019926L
L3785322319L
(lp1270
(lp1271
Vesp_rom_spiflash_read_status
p1272
atp1273
atp1274
sI1074270016
(Vrtc_clk_xtal_freq_estimate
p1275
(lp1276
(L3845076426L
L1880226080L
(lp1277
(lp1278
Vrtc_clk_8m_enabled
p1279
aVrtc_clk_8md256_enabled
p1280
atp1281
a(L2449794434L
L3785322319L
(lp1282
(lp1283
Vrtc_clk_8m_enable
p1284
atp1285
a(L558275025L
L3785322319L
(lp1286
(lp1287
Vrtc_clk_cal_ratio
p1288
atp1289
a(L1894802584L
L0L
(lp1290
(lp1291
tp1292
a(L1915120046L
L0L
(lp1293
(lp1294
tp1295
a(L2740879690L
L0L
(lp1296
(lp1297
tp1298
a(L1059750288L
L3785322319L
(lp1299
(lp1300
Vrtc_clk_8m_enable
p1301
atp1302
a(L1559246193L
L3785322319L
(lp1303
(lp1304
Vesp_log_early_timestamp
p1305
atp1306
a(L2894376164L
L0L
(lp1307
(lp1308
tp1309
a(L1641150486L
L0L
(lp1310
(lp1311
tp1312
a(L2127476427L
L3785322319L
(lp1313
(lp1314
Vesp_log_early_timestamp
p1315
atp1316
a(L3702092594L
L3785322319L
(lp1317
(lp1318
Vesp_log_early_timestamp
p1319
atp1320
atp1321
sI1074244428
(Vefuse_hal_get_rated_freq_mhz
p1322
(lp1323
(L3387138627L
L0L
(lp1324
(lp1325
tp1326
a(L3671388797L
L0L
(lp1327
(lp1328
tp1329
a(L3360570486L
L0L
(lp1330
(lp1331
tp1332
atp1333
sI1074245196
(Vrtc_clk_slow_src_get
p1334
(lp1335
(L376617603L
L3785322319L
(lp1336
(lp1337
Vclk_ll_rtc_slow_get_src
p1338
atp1339
atp1340
sI1074245448
(Vrtc_clk_cpu_freq_get_config
p1341
(lp1342
(L1549246068L
L0L
(lp1343
(lp1344
tp1345
a(L3020187L
L0L
(lp1346
(lp1347
tp1348
a(L3020187L
L0L
(lp1349
(lp1350
tp1351
a(L894730048L
L3785322319L
(lp1352
(lp1353
Vrtc_clk_xtal_freq_get
p1354
atp1355
a(L3789795478L
L0L
(lp1356
(lp1357
tp1358
a(L1100042805L
L1880226080L
(lp1359
(lp1360
Vesp_log_early_timestamp
p1361
aVabort
p1362
atp1363
a(L3930995869L
L0L
(lp1364
(lp1365
tp1366
a(L3020187L
L0L
(lp1367
(lp1368
tp1369
a(L3028481L
L0L
(lp1370
(lp1371
tp1372
a(L38508693L
L0L
(lp1373
(lp1374
tp1375
a(L187152368L
L0L
(lp1376
(lp1377
tp1378
a(L1161083655L
L0L
(lp1379
(lp1380
tp1381
a(L1395485899L
L0L
(lp1382
(lp1383
tp1384
a(L2070600034L
L0L
(lp1385
(lp1386
tp1387
atp1388
sI1074246472
(Vrtc_clk_apb_freq_get
p1389
(lp1390
(L555214938L
L0L
(lp1391
(lp1392
tp1393
atp1394
sI1074246984
(Vrtc_clk_wait_for_slow_cycle
p1395
(lp1396
(L2966150366L
L0L
(lp1397
(lp1398
tp1399
a(L287687718L
L0L
(lp1400
(lp1401
tp1402
a(L3360570486L
L0L
(lp1403
(lp1404
tp1405
a(L3728108016L
L0L
(lp1406
(lp1407
tp1408
a(L2994547433L
L0L
(lp1409
(lp1410
tp1411
a(L1031101807L
L0L
(lp1412
(lp1413
tp1414
a(L592498203L
L3785322319L
(lp1415
(lp1416
Vesp_log_early_timestamp
p1417
atp1418
atp1419
sI1074244180
(Vwdt_hal_write_protect_disable
p1420
(lp1421
(L2720025117L
L0L
(lp1422
(lp1423
tp1424
a(L4195472003L
L0L
(lp1425
(lp1426
tp1427
a(L3360570486L
L0L
(lp1428
(lp1429
tp1430
a(L1210571996L
L0L
(lp1431
(lp1432
tp1433
atp1434
sI1074240336
(Vbootloader_sha256_data
p1435
(lp1436
(L4066096136L
L0L
(lp1437
(lp1438
tp1439
a(L3197877865L
L0L
(lp1440
(lp1441
tp1442
a(L3627025138L
L3785322319L
(lp1443
(lp1444
V__assert_func
p1445
atp1446
a(L498498478L
L0L
(lp1447
(lp1448
tp1449
a(L2968424575L
L0L
(lp1450
(lp1451
tp1452
a(L2910371777L
L0L
(lp1453
(lp1454
tp1455
a(L3360570486L
L0L
(lp1456
(lp1457
tp1458
a(L1911737285L
L0L
(lp1459
(lp1460
tp1461
a(L541898147L
L0L
(lp1462
(lp1463
tp1464
a(L953830545L
L0L
(lp1465
(lp1466
tp1467
a(L1259070655L
L0L
(lp1468
(lp1469
tp1470
a(L2241452291L
L0L
(lp1471
(lp1472
tp1473
a(L2032890799L
L0L
(lp1474
(lp1475
tp1476
a(L3028464L
L0L
(lp1477
(lp1478
tp1479
a(L1834917352L
L0L
(lp1480
(lp1481
tp1482
a(L1076698600L
L0L
(lp1483
(lp1484
tp1485
atp1486
sI1074235740
(Vbootloader_read_status_16b_rdsr_rdsr2
p1487
(lp1488
(L2652824119L
L1880226080L
(lp1489
(lp1490
Vbootloader_execute_flash_command
p1491
aVbootloader_execute_flash_command
p1492
atp1493
atp1494
sI1074245208
(Vrtc_clk_slow_freq_get_hz
p1495
(lp1496
(L1826267122L
L3785322319L
(lp1497
(lp1498
Vclk_ll_rtc_slow_get_src
p1499
atp1500
a(L3983387562L
L0L
(lp1501
(lp1502
tp1503
a(L3631005815L
L0L
(lp1504
(lp1505
tp1506
a(L702739851L
L0L
(lp1507
(lp1508
tp1509
a(L3360570486L
L0L
(lp1510
(lp1511
tp1512
atp1513
sI1074267756
(Vwdt_reset_info_dump
p1514
(lp1515
(L4037466985L
L0L
(lp1516
(lp1517
tp1518
a(L826419141L
L0L
(lp1519
(lp1520
tp1521
a(L527117834L
L0L
(lp1522
(lp1523
tp1524
a(L1103285333L
L0L
(lp1525
(lp1526
tp1527
a(L897464656L
L3785322319L
(lp1528
(lp1529
Vesp_log_early_timestamp
p1530
atp1531
a(L2967992533L
L0L
(lp1532
(lp1533
tp1534
a(L144195250L
L3785322319L
(lp1535
(lp1536
Vesp_log_early_timestamp
p1537
atp1538
a(L2899013701L
L0L
(lp1539
(lp1540
tp1541
atp1542
sI1074237536
(Vbootloader_mmap
p1543
(lp1544
(L1371566704L
L0L
(lp1545
(lp1546
tp1547
a(L3213398888L
L3785322319L
(lp1548
(lp1549
Vesp_log_early_timestamp
p1550
atp1551
a(L3871473710L
L0L
(lp1552
(lp1553
tp1554
a(L3729184599L
L0L
(lp1555
(lp1556
tp1557
a(L3601287321L
L3785322319L
(lp1558
(lp1559
Vesp_log_early_timestamp
p1560
atp1561
a(L343127800L
L0L
(lp1562
(lp1563
tp1564
a(L3140138275L
L3785322319L
(lp1565
(lp1566
Vesp_log_early_timestamp
p1567
atp1568
a(L2700202424L
L0L
(lp1569
(lp1570
tp1571
a(L2524678404L
L3785322319L
(lp1572
(lp1573
Vesp_log_early_timestamp
p1574
atp1575
a(L2796553509L
L0L
(lp1576
(lp1577
tp1578
atp1579
sI1074236768
(Vesp_rom_uart_set_clock_baudrate
p1580
(lp1581
(L3381693543L
L0L
(lp1582
(lp1583
tp1584
a(L2334982986L
L0L
(lp1585
(lp1586
tp1587
a(L2805931264L
L0L
(lp1588
(lp1589
tp1590
a(L3887231631L
L0L
(lp1591
(lp1592
tp1593
atp1594
sI1074236524
(Vbootloader_flash_dummy_config
p1595
(lp1596
(L379397211L
L0L
(lp1597
(lp1598
tp1599
a(L2761717557L
L0L
(lp1600
(lp1601
tp1602
a(L1849044936L
L0L
(lp1603
(lp1604
tp1605
a(L3702150741L
L0L
(lp1606
(lp1607
tp1608
a(L1010450057L
L0L
(lp1609
(lp1610
tp1611
a(L3020204L
L0L
(lp1612
(lp1613
tp1614
a(L1610443405L
L0L
(lp1615
(lp1616
tp1617
a(L4032120524L
L0L
(lp1618
(lp1619
tp1620
a(L2336993863L
L0L
(lp1621
(lp1622
tp1623
a(L1298875775L
L0L
(lp1624
(lp1625
tp1626
a(L3880393601L
L0L
(lp1627
(lp1628
tp1629
a(L3433671740L
L0L
(lp1630
(lp1631
tp1632
a(L1610443436L
L0L
(lp1633
(lp1634
tp1635
atp1636
sI1074247532
(Vesp_rom_spiflash_config_readmode
p1637
(lp1638
(L2433196881L
L0L
(lp1639
(lp1640
tp1641
a(L3905548590L
L0L
(lp1642
(lp1643
tp1644
a(L2805933868L
L0L
(lp1645
(lp1646
tp1647
a(L3249937672L
L0L
(lp1648
(lp1649
tp1650
a(L111678584L
L0L
(lp1651
(lp1652
tp1653
a(L93837694L
L0L
(lp1654
(lp1655
tp1656
a(L106L
L0L
(lp1657
(lp1658
tp1659
a(L1221791084L
L0L
(lp1660
(lp1661
tp1662
a(L2805935155L
L0L
(lp1663
(lp1664
tp1665
a(L250984366L
L0L
(lp1666
(lp1667
tp1668
a(L106L
L0L
(lp1669
(lp1670
tp1671
a(L3940011506L
L0L
(lp1672
(lp1673
tp1674
a(L2890097920L
L0L
(lp1675
(lp1676
tp1677
a(L2122757262L
L0L
(lp1678
(lp1679
tp1680
a(L106L
L0L
(lp1681
(lp1682
tp1683
a(L2148591337L
L0L
(lp1684
(lp1685
tp1686
a(L847977116L
L0L
(lp1687
(lp1688
tp1689
a(L106L
L0L
(lp1690
(lp1691
tp1692
a(L2101345911L
L0L
(lp1693
(lp1694
tp1695
a(L2372650130L
L0L
(lp1696
(lp1697
tp1698
a(L3016870L
L0L
(lp1699
(lp1700
tp1701
a(L896112044L
L0L
(lp1702
(lp1703
tp1704
a(L107154712L
L0L
(lp1705
(lp1706
tp1707
a(L3304852550L
L0L
(lp1708
(lp1709
tp1710
a(L2882642734L
L0L
(lp1711
(lp1712
tp1713
a(L2993202392L
L0L
(lp1714
(lp1715
tp1716
a(L3304854015L
L0L
(lp1717
(lp1718
tp1719
a(L388859830L
L0L
(lp1720
(lp1721
tp1722
a(L2639626355L
L0L
(lp1723
(lp1724
tp1725
a(L978841778L
L0L
(lp1726
(lp1727
tp1728
a(L175703409L
L0L
(lp1729
(lp1730
tp1731
atp1732
sI1074269796
(Vbootloader_config_wdt
p1733
(lp1734
(L2503541646L
L505859776L
(lp1735
(lp1736
Vwdt_hal_write_protect_disable
p1737
aVwdt_hal_set_flashboot_en
p1738
aVwdt_hal_write_protect_enable
p1739
aVwdt_hal_init
p1740
aVrtc_clk_slow_freq_get_hz
p1741
aVwdt_hal_write_protect_disable
p1742
aVwdt_hal_config_stage
p1743
aVwdt_hal_enable
p1744
aVwdt_hal_write_protect_enable
p1745
aVwdt_hal_write_protect_disable
p1746
aVwdt_hal_set_flashboot_en
p1747
aVwdt_hal_write_protect_enable
p1748
atp1749
atp1750
sI1074248552
(Vesp_rom_spiflash_write_encrypted
p1751
(lp1752
(L1944247967L
L0L
(lp1753
(lp1754
tp1755
a(L1327433108L
L0L
(lp1756
(lp1757
tp1758
a(L97689L
L0L
(lp1759
(lp1760
tp1761
a(L3061232074L
L0L
(lp1762
(lp1763
tp1764
a(L4090136808L
L0L
(lp1765
(lp1766
tp1767
a(L1309309703L
L3785322319L
(lp1768
(lp1769
Vesp_rom_spiflash_write
p1770
atp1771
a(L3714595156L
L0L
(lp1772
(lp1773
tp1774
a(L735741265L
L0L
(lp1775
(lp1776
tp1777
atp1778
sI1074235508
(Vbootloader_read_flash_id
p1779
(lp1780
(L549578328L
L3785322319L
(lp1781
(lp1782
Vbootloader_execute_flash_command
p1783
atp1784
atp1785
sI1074237812
(Vbootloader_flash_read
p1786
(lp1787
(L728393898L
L0L
(lp1788
(lp1789
tp1790
a(L87270939L
L3785322319L
(lp1791
(lp1792
Vesp_log_early_timestamp
p1793
atp1794
a(L1941789336L
L0L
(lp1795
(lp1796
tp1797
a(L3360570486L
L0L
(lp1798
(lp1799
tp1800
a(L2660352519L
L0L
(lp1801
(lp1802
tp1803
a(L1039718061L
L3785322319L
(lp1804
(lp1805
Vesp_log_early_timestamp
p1806
atp1807
a(L162336582L
L0L
(lp1808
(lp1809
tp1810
a(L1179571907L
L3785322319L
(lp1811
(lp1812
Vesp_log_early_timestamp
p1813
atp1814
a(L3020204L
L0L
(lp1815
(lp1816
tp1817
a(L3893043951L
L0L
(lp1818
(lp1819
tp1820
a(L97422L
L0L
(lp1821
(lp1822
tp1823
a(L674456573L
L0L
(lp1824
(lp1825
tp1826
a(L1253319443L
L0L
(lp1827
(lp1828
tp1829
a(L2896487103L
L3785322319L
(lp1830
(lp1831
V__assert_func
p1832
atp1833
a(L2383244345L
L0L
(lp1834
(lp1835
tp1836
a(L4030841379L
L0L
(lp1837
(lp1838
tp1839
a(L2946905801L
L1880226080L
(lp1840
(lp1841
Vesp_rom_spiflash_read
p1842
aVspi_to_esp_err
p1843
atp1844
atp1845
sI1074244212
(Vwdt_hal_set_flashboot_en
p1846
(lp1847
(L2375320464L
L0L
(lp1848
(lp1849
tp1850
a(L3915867581L
L0L
(lp1851
(lp1852
tp1853
a(L3360570486L
L0L
(lp1854
(lp1855
tp1856
a(L3198685869L
L0L
(lp1857
(lp1858
tp1859
atp1860
sI1074244468
(Vclk_ll_rtc_slow_get_src
p1861
(lp1862
(L3579154085L
L0L
(lp1863
(lp1864
tp1865
a(L3020187L
L0L
(lp1866
(lp1867
tp1868
a(L2902417580L
L0L
(lp1869
(lp1870
tp1871
a(L2258688485L
L0L
(lp1872
(lp1873
tp1874
a(L3360570486L
L0L
(lp1875
(lp1876
tp1877
atp1878
sI1074245236
(Vrtc_clk_fast_src_set
p1879
(lp1880
(L3109630949L
L0L
(lp1881
(lp1882
tp1883
a(L3020187L
L0L
(lp1884
(lp1885
tp1886
a(L3827921190L
L3785322319L
(lp1887
(lp1888
Vabort
p1889
atp1890
a(L2904656757L
L0L
(lp1891
(lp1892
tp1893
a(L2553436348L
L0L
(lp1894
(lp1895
tp1896
a(L300459962L
L0L
(lp1897
(lp1898
tp1899
atp1900
sI1074246516
(Vrtc_clk_cal_internal
p1901
(lp1902
(L1876302533L
L0L
(lp1903
(lp1904
tp1905
a(L2034323484L
L3785322319L
(lp1906
(lp1907
V__assert_func
p1908
atp1909
a(L384777032L
L0L
(lp1910
(lp1911
tp1912
a(L54826884L
L0L
(lp1913
(lp1914
tp1915
a(L234746575L
L0L
(lp1916
(lp1917
tp1918
a(L861896856L
L3785322319L
(lp1919
(lp1920
Vrtc_clk_8m_enable
p1921
atp1922
a(L3886714587L
L3785322319L
(lp1923
(lp1924
Vrtc_clk_slow_src_get
p1925
atp1926
a(L1211065969L
L0L
(lp1927
(lp1928
tp1929
a(L97689L
L0L
(lp1930
(lp1931
tp1932
a(L1528385805L
L0L
(lp1933
(lp1934
tp1935
a(L3028464L
L0L
(lp1936
(lp1937
tp1938
a(L3028481L
L0L
(lp1939
(lp1940
tp1941
a(L3450258542L
L0L
(lp1942
(lp1943
tp1944
a(L671292429L
L3785322319L
(lp1945
(lp1946
Vrtc_clk_xtal_freq_get
p1947
atp1948
a(L2780079961L
L0L
(lp1949
(lp1950
tp1951
a(L826501131L
L0L
(lp1952
(lp1953
tp1954
a(L2195532465L
L3785322319L
(lp1955
(lp1956
Vesp_log_early_timestamp
p1957
atp1958
a(L3360570486L
L0L
(lp1959
(lp1960
tp1961
a(L106916348L
L0L
(lp1962
(lp1963
tp1964
a(L2997319531L
L0L
(lp1965
(lp1966
tp1967
a(L2910371777L
L0L
(lp1968
(lp1969
tp1970
a(L2902417580L
L0L
(lp1971
(lp1972
tp1973
a(L3023821615L
L0L
(lp1974
(lp1975
tp1976
a(L3631005548L
L0L
(lp1977
(lp1978
tp1979
a(L3765184871L
L0L
(lp1980
(lp1981
tp1982
a(L3352263364L
L0L
(lp1983
(lp1984
tp1985
a(L3028464L
L0L
(lp1986
(lp1987
tp1988
a(L4028024914L
L3785322319L
(lp1989
(lp1990
Vrtc_clk_8m_enable
p1991
atp1992
atp1993
sI1074238064
(Vbootloader_flash_erase_sector
p1994
(lp1995
(L4129137686L
L1880226080L
(lp1996
(lp1997
Vesp_rom_spiflash_erase_sector
p1998
aVspi_to_esp_err
p1999
atp2000
atp2001
sI1074237040
(Vesp_log_early_timestamp
p2002
(lp2003
(L387765101L
L0L
(lp2004
(lp2005
tp2006
atp2007
sI1074247280
(Vesp_rom_spiflash_enable_write
p2008
(lp2009
(L4294007845L
L3785322319L
(lp2010
(lp2011
Vesp_rom_spiflash_wait_idle
p2012
atp2013
a(L3137194272L
L0L
(lp2014
(lp2015
tp2016
a(L2258718275L
L0L
(lp2017
(lp2018
tp2019
a(L99543895L
L0L
(lp2020
(lp2021
tp2022
a(L2993202392L
L0L
(lp2023
(lp2024
tp2025
a(L1804543818L
L3785322319L
(lp2026
(lp2027
Vesp_rom_spiflash_read_status
p2028
atp2029
atp2030
sI1074238332
(Vbootloader_random_disable
p2031
(lp2032
(L1556825775L
L0L
(lp2033
(lp2034
tp2035
atp2036
sI1074241148
(Vbootloader_util_regions_overlap
p2037
(lp2038
(L2762640130L
L0L
(lp2039
(lp2040
tp2041
a(L3455000357L
L0L
(lp2042
(lp2043
tp2044
a(L591145840L
L3785322319L
(lp2045
(lp2046
V__assert_func
p2047
atp2048
a(L97642L
L0L
(lp2049
(lp2050
tp2051
a(L294748017L
L0L
(lp2052
(lp2053
tp2054
a(L366123053L
L0L
(lp2055
(lp2056
tp2057
a(L2258867228L
L0L
(lp2058
(lp2059
tp2060
a(L1253626734L
L0L
(lp2061
(lp2062
tp2063
a(L2258897019L
L0L
(lp2064
(lp2065
tp2066
a(L3109269495L
L0L
(lp2067
(lp2068
tp2069
atp2070
sI1074238084
(Vbootloader_flash_write
p2071
(lp2072
(L3770380603L
L0L
(lp2073
(lp2074
tp2075
a(L2547417610L
L3785322319L
(lp2076
(lp2077
Vesp_log_early_timestamp
p2078
atp2079
a(L3833270346L
L0L
(lp2080
(lp2081
tp2082
a(L1610445075L
L0L
(lp2083
(lp2084
tp2085
a(L735741265L
L0L
(lp2086
(lp2087
tp2088
a(L3291333414L
L0L
(lp2089
(lp2090
tp2091
a(L3508304306L
L3785322319L
(lp2092
(lp2093
Vesp_log_early_timestamp
p2094
atp2095
a(L3283691850L
L0L
(lp2096
(lp2097
tp2098
a(L1591956746L
L3785322319L
(lp2099
(lp2100
Vesp_log_early_timestamp
p2101
atp2102
a(L3212356251L
L3785322319L
(lp2103
(lp2104
Vbootloader_flash_unlock
p2105
atp2106
a(L1799218633L
L0L
(lp2107
(lp2108
tp2109
a(L94425498L
L3785322319L
(lp2110
(lp2111
Vesp_rom_spiflash_write_encrypted
p2112
atp2113
a(L2927190544L
L3785322319L
(lp2114
(lp2115
Vspi_to_esp_err
p2116
atp2117
a(L2927190544L
L3785322319L
(lp2118
(lp2119
Vesp_rom_spiflash_write
p2120
atp2121
atp2122
sI1074235780
(Vbootloader_write_status_8b_wrsr
p2123
(lp2124
(L3692606543L
L3785322319L
(lp2125
(lp2126
Vbootloader_execute_flash_command
p2127
atp2128
atp2129
sI1074242944
(Vbootloader_load_image
p2130
(lp2131
(L2699477848L
L3785322319L
(lp2132
(lp2133
Vimage_load
p2134
atp2135
atp2136
sI1074242444
(Vimage_load
p2137
(lp2138
(L3559420668L
L0L
(lp2139
(lp2140
tp2141
a(L1899869541L
L0L
(lp2142
(lp2143
tp2144
a(L979631281L
L0L
(lp2145
(lp2146
tp2147
a(L1525480527L
L0L
(lp2148
(lp2149
tp2150
a(L1043148059L
L0L
(lp2151
(lp2152
tp2153
a(L2796536461L
L0L
(lp2154
(lp2155
tp2156
a(L219902767L
L3785322319L
(lp2157
(lp2158
Vesp_log_early_timestamp
p2159
atp2160
a(L2068384292L
L0L
(lp2161
(lp2162
tp2163
a(L1968553470L
L3785322319L
(lp2164
(lp2165
Vbootloader_sha256_finish
p2166
atp2167
a(L1721531848L
L0L
(lp2168
(lp2169
tp2170
a(L3225218531L
L0L
(lp2171
(lp2172
tp2173
a(L3802071166L
L0L
(lp2174
(lp2175
tp2176
a(L1301867039L
L3785322319L
(lp2177
(lp2178
Vprocess_image_header
p2179
atp2180
a(L560228796L
L0L
(lp2181
(lp2182
tp2183
a(L4185758499L
L0L
(lp2184
(lp2185
tp2186
a(L1530940255L
L3785322319L
(lp2187
(lp2188
Vprocess_segments
p2189
atp2190
a(L1233227930L
L0L
(lp2191
(lp2192
tp2193
a(L2462932903L
L0L
(lp2194
(lp2195
tp2196
a(L2570888687L
L3785322319L
(lp2197
(lp2198
Vprocess_checksum
p2199
atp2200
a(L425503098L
L3785322319L
(lp2201
(lp2202
Vprocess_appended_hash_and_sig
p2203
atp2204
a(L780930979L
L0L
(lp2205
(lp2206
tp2207
a(L2334355956L
L0L
(lp2208
(lp2209
tp2210
a(L2239981356L
L0L
(lp2211
(lp2212
tp2213
a(L700839140L
L1880226080L
(lp2214
(lp2215
Vbootloader_sha256_finish
p2216
aVbootloader_debug_buffer
p2217
atp2218
a(L2547836173L
L1880226080L
(lp2219
(lp2220
Vesp_log_early_timestamp
p2221
aVbootloader_debug_buffer
p2222
atp2223
a(L1087646176L
L0L
(lp2224
(lp2225
tp2226
a(L2068384292L
L0L
(lp2227
(lp2228
tp2229
a(L3021148818L
L3785322319L
(lp2230
(lp2231
Vbootloader_sha256_finish
p2232
atp2233
a(L3028481L
L0L
(lp2234
(lp2235
tp2236
a(L139701033L
L0L
(lp2237
(lp2238
tp2239
a(L2878111010L
L0L
(lp2240
(lp2241
tp2242
a(L772115669L
L0L
(lp2243
(lp2244
tp2245
a(L2787789065L
L0L
(lp2246
(lp2247
tp2248
a(L85798113L
L0L
(lp2249
(lp2250
tp2251
a(L1351513776L
L0L
(lp2252
(lp2253
tp2254
a(L159346313L
L3785322319L
(lp2255
(lp2256
Vshould_load
p2257
atp2258
a(L4218574503L
L0L
(lp2259
(lp2260
tp2261
a(L3338774213L
L0L
(lp2262
(lp2263
tp2264
a(L3464541874L
L0L
(lp2265
(lp2266
tp2267
a(L3349572949L
L0L
(lp2268
(lp2269
tp2270
a(L2192292519L
L0L
(lp2271
(lp2272
tp2273
a(L106L
L0L
(lp2274
(lp2275
tp2276
a(L26615924L
L0L
(lp2277
(lp2278
tp2279
a(L1299866312L
L0L
(lp2280
(lp2281
tp2282
a(L490060329L
L0L
(lp2283
(lp2284
tp2285
atp2286
sI1074238868
(Vtry_load_partition
p2287
(lp2288
(L1898493800L
L0L
(lp2289
(lp2290
tp2291
a(L2454209732L
L3785322319L
(lp2292
(lp2293
Vbootloader_load_image
p2294
atp2295
a(L3360570486L
L0L
(lp2296
(lp2297
tp2298
atp2299
sI1074239380
(Vset_actual_ota_seq
p2300
(lp2301
(L4094723830L
L0L
(lp2302
(lp2303
tp2304
a(L3473028212L
L0L
(lp2305
(lp2306
tp2307
a(L3553024017L
L1832448559L
(lp2308
(lp2309
Vbootloader_common_ota_select_crc
p2310
aVesp_flash_encryption_enabled
p2311
aVbootloader_flash_erase_sector
p2312
atp2313
a(L3383023989L
L3785322319L
(lp2314
(lp2315
Vbootloader_flash_write
p2316
atp2317
a(L3264649066L
L3785322319L
(lp2318
(lp2319
Vesp_log_early_timestamp
p2320
atp2321
a(L3496950L
L0L
(lp2322
(lp2323
tp2324
atp2325
sI1074270876
(Vmpu_hal_set_region_access
p2326
(lp2327
(L3538356822L
L0L
(lp2328
(lp2329
tp2330
a(L93674324L
L0L
(lp2331
(lp2332
tp2333
a(L2910371777L
L0L
(lp2334
(lp2335
tp2336
a(L3472092938L
L0L
(lp2337
(lp2338
tp2339
a(L3020187L
L0L
(lp2340
(lp2341
tp2342
a(L3360570486L
L0L
(lp2343
(lp2344
tp2345
a(L2258718273L
L0L
(lp2346
(lp2347
tp2348
a(L3446648619L
L0L
(lp2349
(lp2350
tp2351
a(L3739532189L
L0L
(lp2352
(lp2353
tp2354
a(L1300789895L
L0L
(lp2355
(lp2356
tp2357
atp2358
sI1074237072
(Vbootloader_common_ota_select_crc
p2359
(lp2360
(L2530349931L
L0L
(lp2361
(lp2362
tp2363
atp2364
sI1074244496
(Vrtc_clk_32k_enable_common
p2365
(lp2366
(L1829043071L
L0L
(lp2367
(lp2368
tp2369
a(L97689L
L0L
(lp2370
(lp2371
tp2372
a(L2218417250L
L0L
(lp2373
(lp2374
tp2375
a(L2196549806L
L0L
(lp2376
(lp2377
tp2378
a(L51458058L
L0L
(lp2379
(lp2380
tp2381
atp2382
sI1074245776
(Vrtc_clk_cpu_freq_set_config
p2383
(lp2384
(L3260862648L
L3785322319L
(lp2385
(lp2386
Vrtc_clk_xtal_freq_get
p2387
atp2388
a(L3020187L
L0L
(lp2389
(lp2390
tp2391
a(L3028464L
L0L
(lp2392
(lp2393
tp2394
a(L264223053L
L1880226080L
(lp2395
(lp2396
Vrtc_clk_cpu_freq_to_xtal
p2397
aVrtc_clk_wait_for_slow_cycle
p2398
atp2399
a(L94425498L
L3785322319L
(lp2400
(lp2401
Vrtc_clk_bbpll_disable
p2402
atp2403
a(L3978916712L
L0L
(lp2404
(lp2405
tp2406
a(L2977209154L
L0L
(lp2407
(lp2408
tp2409
a(L2736411858L
L3785322319L
(lp2410
(lp2411
Vrtc_clk_cpu_freq_to_xtal
p2412
atp2413
a(L3360570486L
L0L
(lp2414
(lp2415
tp2416
a(L3020187L
L0L
(lp2417
(lp2418
tp2419
a(L106L
L0L
(lp2420
(lp2421
tp2422
a(L1190657172L
L1880226080L
(lp2423
(lp2424
Vrtc_clk_wait_for_slow_cycle
p2425
aVrtc_clk_xtal_freq_get
p2426
atp2427
a(L106L
L0L
(lp2428
(lp2429
tp2430
a(L2721924212L
L0L
(lp2431
(lp2432
tp2433
a(L106L
L0L
(lp2434
(lp2435
tp2436
a(L83268611L
L0L
(lp2437
(lp2438
tp2439
a(L106L
L0L
(lp2440
(lp2441
tp2442
a(L82344823L
L0L
(lp2443
(lp2444
tp2445
a(L106L
L0L
(lp2446
(lp2447
tp2448
a(L1274797871L
L0L
(lp2449
(lp2450
tp2451
a(L3425862026L
L0L
(lp2452
(lp2453
tp2454
a(L1401029473L
L1880226080L
(lp2455
(lp2456
Vclk_ll_rtc_slow_get_src
p2457
aVrtc_clk_cpu_freq_to_pll_mhz
p2458
atp2459
a(L408352291L
L0L
(lp2460
(lp2461
tp2462
a(L83268344L
L0L
(lp2463
(lp2464
tp2465
a(L82345090L
L0L
(lp2466
(lp2467
tp2468
a(L1299628291L
L0L
(lp2469
(lp2470
tp2471
a(L2792532176L
L0L
(lp2472
(lp2473
tp2474
a(L2258807646L
L0L
(lp2475
(lp2476
tp2477
a(L878473564L
L0L
(lp2478
(lp2479
tp2480
a(L2389426015L
L0L
(lp2481
(lp2482
tp2483
a(L1596574736L
L0L
(lp2484
(lp2485
tp2486
a(L2086626670L
L0L
(lp2487
(lp2488
tp2489
a(L1302638456L
L0L
(lp2490
(lp2491
tp2492
a(L810137203L
L0L
(lp2493
(lp2494
tp2495
a(L87353900L
L0L
(lp2496
(lp2497
tp2498
a(L3020187L
L0L
(lp2499
(lp2500
tp2501
a(L106L
L0L
(lp2502
(lp2503
tp2504
a(L2791725429L
L0L
(lp2505
(lp2506
tp2507
atp2508
sI1074241692
(Vshould_load
p2509
(lp2510
(L1049568420L
L0L
(lp2511
(lp2512
tp2513
a(L1182990556L
L0L
(lp2514
(lp2515
tp2516
a(L388737285L
L0L
(lp2517
(lp2518
tp2519
a(L2306467100L
L0L
(lp2520
(lp2521
tp2522
a(L524505062L
L0L
(lp2523
(lp2524
tp2525
a(L2258897019L
L0L
(lp2526
(lp2527
tp2528
a(L3781799363L
L0L
(lp2529
(lp2530
tp2531
a(L3028464L
L0L
(lp2532
(lp2533
tp2534
a(L1833574973L
L0L
(lp2535
(lp2536
tp2537
a(L4277114872L
L0L
(lp2538
(lp2539
tp2540
a(L2824381917L
L0L
(lp2541
(lp2542
tp2543
a(L1243412227L
L0L
(lp2544
(lp2545
tp2546
a(L2011157548L
L0L
(lp2547
(lp2548
tp2549
a(L3126521138L
L0L
(lp2550
(lp2551
tp2552
a(L1305407438L
L0L
(lp2553
(lp2554
tp2555
a(L1305407469L
L0L
(lp2556
(lp2557
tp2558
atp2559
sI1074270868
(Vbootloader_print_banner
p2560
(lp2561
(L2100504542L
L0L
(lp2562
(lp2563
tp2564
atp2565
sI1074235800
(Vbootloader_write_status_8b_wrsr2
p2566
(lp2567
(L3772914914L
L3785322319L
(lp2568
(lp2569
Vbootloader_execute_flash_command
p2570
atp2571
atp2572
sI1074236056
(Vbootloader_flash_gpio_config
p2573
(lp2574
(L3448878117L
L3785322319L
(lp2575
(lp2576
Vbootloader_common_get_chip_ver_pkg
p2577
atp2578
a(L106L
L0L
(lp2579
(lp2580
tp2581
a(L1998579353L
L0L
(lp2582
(lp2583
tp2584
a(L106L
L0L
(lp2585
(lp2586
tp2587
a(L961479410L
L0L
(lp2588
(lp2589
tp2590
a(L1365162803L
L0L
(lp2591
(lp2592
tp2593
a(L106L
L0L
(lp2594
(lp2595
tp2596
a(L4003626558L
L0L
(lp2597
(lp2598
tp2599
a(L2656511625L
L0L
(lp2600
(lp2601
tp2602
a(L3360570486L
L0L
(lp2603
(lp2604
tp2605
atp2606
sI1074242980
(Vesp_partition_table_verify
p2607
(lp2608
(L4221019429L
L0L
(lp2609
(lp2610
tp2611
a(L3612311543L
L0L
(lp2612
(lp2613
tp2614
a(L4090921686L
L0L
(lp2615
(lp2616
tp2617
a(L2910371777L
L0L
(lp2618
(lp2619
tp2620
a(L2810785767L
L0L
(lp2621
(lp2622
tp2623
a(L3360570486L
L0L
(lp2624
(lp2625
tp2626
a(L3190337587L
L0L
(lp2627
(lp2628
tp2629
a(L2069928857L
L0L
(lp2630
(lp2631
tp2632
a(L3020204L
L0L
(lp2633
(lp2634
tp2635
a(L245691717L
L3785322319L
(lp2636
(lp2637
Vesp_log_early_timestamp
p2638
atp2639
a(L552003060L
L3785322319L
(lp2640
(lp2641
Vesp_log_early_timestamp
p2642
atp2643
a(L3432911L
L0L
(lp2644
(lp2645
tp2646
a(L2902417580L
L0L
(lp2647
(lp2648
tp2649
a(L3020204L
L0L
(lp2650
(lp2651
tp2652
a(L1254851474L
L3785322319L
(lp2653
(lp2654
Vesp_log_early_timestamp
p2655
atp2656
a(L2867263840L
L0L
(lp2657
(lp2658
tp2659
a(L2365302570L
L0L
(lp2660
(lp2661
tp2662
a(L2902417580L
L0L
(lp2663
(lp2664
tp2665
a(L245690260L
L3785322319L
(lp2666
(lp2667
Vesp_log_early_timestamp
p2668
atp2669
a(L1305407469L
L0L
(lp2670
(lp2671
tp2672
a(L1167861556L
L0L
(lp2673
(lp2674
tp2675
a(L3914073261L
L0L
(lp2676
(lp2677
tp2678
a(L2910371777L
L0L
(lp2679
(lp2680
tp2681
a(L1235012932L
L0L
(lp2682
(lp2683
tp2684
a(L2167884577L
L3785322319L
(lp2685
(lp2686
Vesp_log_early_timestamp
p2687
atp2688
atp2689
sI1074237092
(Vbootloader_common_ota_select_valid
p2690
(lp2691
(L1563399710L
L3785322319L
(lp2692
(lp2693
Vbootloader_common_ota_select_invalid
p2694
atp2695
a(L3814720849L
L3785322319L
(lp2696
(lp2697
Vbootloader_common_ota_select_crc
p2698
atp2699
a(L3360570486L
L0L
(lp2700
(lp2701
tp2702
atp2703
sI1074235556
(Vbootloader_flash_xmc_startup
p2704
(lp2705
(L2007527597L
L3785322319L
(lp2706
(lp2707
Vis_xmc_chip_strict
p2708
atp2709
a(L2258688482L
L0L
(lp2710
(lp2711
tp2712
a(L3360570486L
L0L
(lp2713
(lp2714
tp2715
a(L251913992L
L3785322319L
(lp2716
(lp2717
Vbootloader_flash_read_sfdp
p2718
atp2719
a(L3093183620L
L267944800L
(lp2720
(lp2721
Vbootloader_execute_flash_command
p2722
aVbootloader_execute_flash_command
p2723
aVbootloader_execute_flash_command
p2724
aVbootloader_execute_flash_command
p2725
aVbootloader_read_flash_id
p2726
aVis_xmc_chip_strict
p2727
atp2728
a(L3994954364L
L3785322319L
(lp2729
(lp2730
Vesp_log_early_timestamp
p2731
atp2732
atp2733
sI1074245028
(Vrtc_clk_8m_enabled
p2734
(lp2735
(L1635618594L
L0L
(lp2736
(lp2737
tp2738
atp2739
sI1074268588
(Vbootloader_common_vddsdio_configure
p2740
(lp2741
(L1829974089L
L3785322319L
(lp2742
(lp2743
Vrtc_vddsdio_get_config
p2744
atp2745
a(L3047969944L
L3785322319L
(lp2746
(lp2747
Vrtc_vddsdio_set_config
p2748
atp2749
a(L3360570486L
L0L
(lp2750
(lp2751
tp2752
atp2753
sI1074270636
(Vrtc_vddsdio_get_config
p2754
(lp2755
(L324971470L
L0L
(lp2756
(lp2757
tp2758
a(L3421108135L
L0L
(lp2759
(lp2760
tp2761
a(L3002774692L
L0L
(lp2762
(lp2763
tp2764
a(L731766957L
L0L
(lp2765
(lp2766
tp2767
a(L1280282886L
L0L
(lp2768
(lp2769
tp2770
a(L2736422235L
L0L
(lp2771
(lp2772
tp2773
a(L1306330959L
L0L
(lp2774
(lp2775
tp2776
a(L3084663794L
L0L
(lp2777
(lp2778
tp2779
atp2780
sI1074235820
(Vbootloader_write_status_16b_wrsr
p2781
(lp2782
(L1235576642L
L3785322319L
(lp2783
(lp2784
Vbootloader_execute_flash_command
p2785
atp2786
atp2787
sI1074244780
(Vrtc_clk_bbpll_disable
p2788
(lp2789
(L1007955500L
L0L
(lp2790
(lp2791
tp2792
a(L2472207241L
L0L
(lp2793
(lp2794
tp2795
a(L3360570486L
L0L
(lp2796
(lp2797
tp2798
atp2799
sI1074247340
(Vesp_rom_spiflash_program_page_internal
p2800
(lp2801
(L2569069283L
L0L
(lp2802
(lp2803
tp2804
a(L2258688483L
L0L
(lp2805
(lp2806
tp2807
a(L3360570486L
L0L
(lp2808
(lp2809
tp2810
a(L874487604L
L0L
(lp2811
(lp2812
tp2813
a(L4235661475L
L3785322319L
(lp2814
(lp2815
Vesp_rom_spiflash_wait_idle
p2816
atp2817
a(L1299866312L
L0L
(lp2818
(lp2819
tp2820
a(L3212356251L
L3785322319L
(lp2821
(lp2822
Vesp_rom_spiflash_enable_write
p2823
atp2824
a(L1493157900L
L0L
(lp2825
(lp2826
tp2827
a(L1008842358L
L0L
(lp2828
(lp2829
tp2830
a(L2953702749L
L0L
(lp2831
(lp2832
tp2833
a(L2989032L
L0L
(lp2834
(lp2835
tp2836
a(L1965622133L
L0L
(lp2837
(lp2838
tp2839
a(L3110819530L
L0L
(lp2840
(lp2841
tp2842
a(L1958113242L
L0L
(lp2843
(lp2844
tp2845
a(L106L
L0L
(lp2846
(lp2847
tp2848
a(L3112950080L
L0L
(lp2849
(lp2850
tp2851
a(L1868606439L
L0L
(lp2852
(lp2853
tp2854
a(L1008983749L
L0L
(lp2855
(lp2856
tp2857
a(L1933954923L
L0L
(lp2858
(lp2859
tp2860
a(L1147866918L
L0L
(lp2861
(lp2862
tp2863
a(L3871602522L
L0L
(lp2864
(lp2865
tp2866
atp2867
sI1074269624
(Vbootloader_flash_update_id
p2868
(lp2869
(L3994864411L
L3785322319L
(lp2870
(lp2871
Vbootloader_read_flash_id
p2872
atp2873
atp2874
sI1074238900
(Vcache_ll_l1_enable_bus
p2875
(lp2876
(L3709595376L
L0L
(lp2877
(lp2878
tp2879
atp2880
sI1074241204
(Vverify_load_addresses
p2881
(lp2882
(L2764487219L
L0L
(lp2883
(lp2884
tp2885
a(L106L
L0L
(lp2886
(lp2887
tp2888
a(L97642L
L0L
(lp2889
(lp2890
tp2891
a(L2235167441L
L3785322319L
(lp2892
(lp2893
V__assert_func
p2894
atp2895
a(L1501529359L
L0L
(lp2896
(lp2897
tp2898
a(L106L
L0L
(lp2899
(lp2900
tp2901
a(L3611123590L
L0L
(lp2902
(lp2903
tp2904
a(L106L
L0L
(lp2905
(lp2906
tp2907
a(L1011603130L
L3785322319L
(lp2908
(lp2909
Vbootloader_util_regions_overlap
p2910
atp2911
a(L3136115638L
L3785322319L
(lp2912
(lp2913
Vbootloader_util_regions_overlap
p2914
atp2915
a(L3028481L
L0L
(lp2916
(lp2917
tp2918
a(L3015387297L
L3785322319L
(lp2919
(lp2920
Vbootloader_util_regions_overlap
p2921
atp2922
a(L3178819057L
L0L
(lp2923
(lp2924
tp2925
a(L164461258L
L0L
(lp2926
(lp2927
tp2928
a(L257599400L
L0L
(lp2929
(lp2930
tp2931
a(L2661576437L
L0L
(lp2932
(lp2933
tp2934
a(L2503437888L
L0L
(lp2935
(lp2936
tp2937
a(L677569396L
L3785322319L
(lp2938
(lp2939
Vverify_load_addresses
p2940
atp2941
a(L1351513776L
L0L
(lp2942
(lp2943
tp2944
a(L3061261803L
L0L
(lp2945
(lp2946
tp2947
a(L2743341656L
L0L
(lp2948
(lp2949
tp2950
a(L3276482861L
L0L
(lp2951
(lp2952
tp2953
a(L2082301726L
L0L
(lp2954
(lp2955
tp2956
a(L4005203510L
L3785322319L
(lp2957
(lp2958
Vbootloader_util_regions_overlap
p2959
atp2960
a(L3028481L
L0L
(lp2961
(lp2962
tp2963
a(L2015525981L
L3785322319L
(lp2964
(lp2965
Vbootloader_util_regions_overlap
p2966
atp2967
a(L1621859327L
L0L
(lp2968
(lp2969
tp2970
a(L1591468573L
L0L
(lp2971
(lp2972
tp2973
a(L3570143626L
L0L
(lp2974
(lp2975
tp2976
a(L3723286975L
L0L
(lp2977
(lp2978
tp2979
a(L307916691L
L0L
(lp2980
(lp2981
tp2982
a(L697239146L
L0L
(lp2983
(lp2984
tp2985
a(L106L
L0L
(lp2986
(lp2987
tp2988
a(L955500233L
L0L
(lp2989
(lp2990
tp2991
a(L307916056L
L0L
(lp2992
(lp2993
tp2994
a(L490080443L
L0L
(lp2995
(lp2996
tp2997
a(L106L
L0L
(lp2998
(lp2999
tp3000
a(L1639055030L
L3785322319L
(lp3001
(lp3002
Vesp_log_early_timestamp
p3003
atp3004
a(L955500109L
L0L
(lp3005
(lp3006
tp3007
a(L1303560427L
L0L
(lp3008
(lp3009
tp3010
atp3011
sI1074245300
(Vrtc_clk_fast_src_get
p3012
(lp3013
(L3360419488L
L0L
(lp3014
(lp3015
tp3016
atp3017
sI1074269372
(Vbootloader_enable_qio_mode
p3018
(lp3019
(L3607937143L
L3785322319L
(lp3020
(lp3021
Vesp_rom_spiflash_wait_idle
p3022
atp3023
a(L2573281202L
L0L
(lp3024
(lp3025
tp3026
a(L78057494L
L0L
(lp3027
(lp3028
tp3029
a(L3289196298L
L0L
(lp3030
(lp3031
tp3032
a(L92660513L
L0L
(lp3033
(lp3034
tp3035
a(L734887214L
L3785322319L
(lp3036
(lp3037
Vesp_rom_spiflash_wait_idle
p3038
atp3039
a(L3562429912L
L1880226080L
(lp3040
(lp3041
Vbootloader_execute_flash_command
p3042
aVesp_rom_spiflash_wait_idle
p3043
atp3044
a(L1923643745L
L3785322319L
(lp3045
(lp3046
Vesp_log_early_timestamp
p3047
atp3048
a(L3360570486L
L0L
(lp3049
(lp3050
tp3051
a(L4002193605L
L1880226080L
(lp3052
(lp3053
Vesp_rom_spiflash_config_readmode
p3054
aVbootloader_flash_get_wp_pin
p3055
atp3056
atp3057
sI1074237360
(Vbootloader_common_get_active_otadata
p3058
(lp3059
(L3317503532L
L0L
(lp3060
(lp3061
tp3062
a(L2503049265L
L1832448559L
(lp3063
(lp3064
Vbootloader_common_ota_select_valid
p3065
aVbootloader_common_ota_select_valid
p3066
aVbootloader_common_select_otadata
p3067
atp3068
a(L735741265L
L0L
(lp3069
(lp3070
tp3071
atp3072
sI1074236848
(Vefuse_hal_chip_revision
p3073
(lp3074
(L2719302832L
L1880226080L
(lp3075
(lp3076
Vefuse_hal_get_major_chip_version
p3077
aVefuse_hal_get_minor_chip_version
p3078
atp3079
atp3080
sI1074240688
(Vbootloader_console_deinit
p3081
(lp3082
(L211274347L
L0L
(lp3083
(lp3084
tp3085
atp3086
sI1074249392
(V_fini
p3087
(lp3088
(L3493042598L
L0L
(lp3089
(lp3090
tp3091
atp3092
sI1074240956
(Vprocess_image_header
p3093
(lp3094
(L2432076612L
L3785322319L
(lp3095
(lp3096
Vbootloader_flash_read
p3097
atp3098
a(L3020204L
L0L
(lp3099
(lp3100
tp3101
a(L4130667142L
L0L
(lp3102
(lp3103
tp3104
a(L3131381282L
L0L
(lp3105
(lp3106
tp3107
a(L1161397362L
L3785322319L
(lp3108
(lp3109
Vbootloader_sha256_start
p3110
atp3111
a(L1948257695L
L3785322319L
(lp3112
(lp3113
Vbootloader_sha256_data
p3114
atp3115
a(L1095449651L
L0L
(lp3116
(lp3117
tp3118
a(L3020204L
L0L
(lp3119
(lp3120
tp3121
a(L702738166L
L0L
(lp3122
(lp3123
tp3124
a(L3360570486L
L0L
(lp3125
(lp3126
tp3127
a(L1956156063L
L3785322319L
(lp3128
(lp3129
Vesp_log_early_timestamp
p3130
atp3131
a(L3718883008L
L3785322319L
(lp3132
(lp3133
Vbootloader_common_check_chip_validity
p3134
atp3135
a(L3677035427L
L0L
(lp3136
(lp3137
tp3138
a(L3028481L
L0L
(lp3139
(lp3140
tp3141
a(L1066470238L
L3785322319L
(lp3142
(lp3143
Vesp_log_early_timestamp
p3144
atp3145
a(L2250109166L
L0L
(lp3146
(lp3147
tp3148
a(L1235012870L
L0L
(lp3149
(lp3150
tp3151
a(L3063569071L
L0L
(lp3152
(lp3153
tp3154
atp3155
sI1074245052
(Vrtc_clk_8md256_enabled
p3156
(lp3157
(L791146723L
L0L
(lp3158
(lp3159
tp3160
atp3161
sI1074238648
(Vbootloader_clock_get_rated_freq_mhz
p3162
(lp3163
(L376617603L
L3785322319L
(lp3164
(lp3165
Vefuse_hal_get_rated_freq_mhz
p3166
atp3167
atp3168
sI1074244280
(Vwdt_hal_write_protect_enable
p3169
(lp3170
(L387778158L
L0L
(lp3171
(lp3172
tp3173
a(L4195472003L
L0L
(lp3174
(lp3175
tp3176
a(L3360570486L
L0L
(lp3177
(lp3178
tp3179
a(L802523425L
L0L
(lp3180
(lp3181
tp3182
atp3183
sI1074269640
(Vbootloader_flash_get_wp_pin
p3184
(lp3185
(L2601977293L
L3785322319L
(lp3186
(lp3187
Vbootloader_common_get_chip_ver_pkg
p3188
atp3189
a(L93674324L
L0L
(lp3190
(lp3191
tp3192
a(L4185764111L
L0L
(lp3193
(lp3194
tp3195
a(L1069118110L
L0L
(lp3196
(lp3197
tp3198
a(L3360570486L
L0L
(lp3199
(lp3200
tp3201
a(L3634856619L
L0L
(lp3202
(lp3203
tp3204
a(L426835595L
L3785322319L
(lp3205
(lp3206
Vefuse_hal_chip_revision
p3207
atp3208
a(L1641149339L
L0L
(lp3209
(lp3210
tp3211
atp3212
sI1074238660
(Vlog_invalid_app_partition
p3213
(lp3214
(L3521327925L
L0L
(lp3215
(lp3216
tp3217
a(L3028464L
L0L
(lp3218
(lp3219
tp3220
a(L464326025L
L3785322319L
(lp3221
(lp3222
Vesp_log_early_timestamp
p3223
atp3224
a(L3833270346L
L0L
(lp3225
(lp3226
tp3227
a(L3360570486L
L0L
(lp3228
(lp3229
tp3230
a(L4216513345L
L3785322319L
(lp3231
(lp3232
Vesp_log_early_timestamp
p3233
atp3234
a(L1654679790L
L3785322319L
(lp3235
(lp3236
Vesp_log_early_timestamp
p3237
atp3238
atp3239
sI1074243268
(Vwdt_hal_init
p3240
(lp3241
(L451036725L
L0L
(lp3242
(lp3243
tp3244
a(L3747970116L
L0L
(lp3245
(lp3246
tp3247
a(L2805932845L
L0L
(lp3248
(lp3249
tp3250
a(L990556070L
L0L
(lp3251
(lp3252
tp3253
a(L3661820987L
L0L
(lp3254
(lp3255
tp3256
a(L3360570486L
L0L
(lp3257
(lp3258
tp3259
a(L3003609849L
L0L
(lp3260
(lp3261
tp3262
atp3263
sI1074245316
(Vrtc_clk_xtal_freq_get
p3264
(lp3265
(L494606871L
L0L
(lp3266
(lp3267
tp3268
a(L2847936993L
L0L
(lp3269
(lp3270
tp3271
a(L2402598450L
L0L
(lp3272
(lp3273
tp3274
a(L3360570486L
L0L
(lp3275
(lp3276
tp3277
atp3278
sI1074248388
(Vesp_rom_spiflash_write
p3279
(lp3280
(L2085077026L
L0L
(lp3281
(lp3282
tp3283
a(L2258688483L
L0L
(lp3284
(lp3285
tp3286
a(L3360570486L
L0L
(lp3287
(lp3288
tp3289
a(L3368132847L
L0L
(lp3290
(lp3291
tp3292
a(L3106685981L
L0L
(lp3293
(lp3294
tp3295
a(L3488660639L
L3785322319L
(lp3296
(lp3297
Vesp_rom_spiflash_program_page_internal
p3298
atp3299
a(L3543402353L
L3785322319L
(lp3300
(lp3301
Vesp_rom_spiflash_program_page_internal
p3302
atp3303
a(L4222526342L
L0L
(lp3304
(lp3305
tp3306
a(L2004208511L
L0L
(lp3307
(lp3308
tp3309
a(L564470656L
L0L
(lp3310
(lp3311
tp3312
a(L2988842384L
L3785322319L
(lp3313
(lp3314
Vesp_rom_spiflash_program_page_internal
p3315
atp3316
a(L2302069176L
L0L
(lp3317
(lp3318
tp3319
atp3320
sI1074268876
(Vbootloader_init_mem
p3321
(lp3322
(L1287383080L
L3785322319L
(lp3323
(lp3324
Vesp_cpu_configure_region_protection
p3325
atp3326
atp3327
sI1074240704
(V__assert_func
p3328
(lp3329
(L3015227614L
L0L
(lp3330
(lp3331
tp3332
a(L106L
L0L
(lp3333
(lp3334
tp3335
atp3336
sI1074235840
(Vbootloader_read_status_8b_xmc25qu64a
p3337
(lp3338
(L3332904159L
L2485746240L
(lp3339
(lp3340
Vbootloader_execute_flash_command
p3341
aVesp_rom_spiflash_wait_idle
p3342
aVbootloader_execute_flash_command
p3343
aVbootloader_execute_flash_command
p3344
atp3345
atp3346
sI1074248640
(Vesp_rom_spiflash_read
p3347
(lp3348
(L1840417215L
L0L
(lp3349
(lp3350
tp3351
a(L2323079263L
L0L
(lp3352
(lp3353
tp3354
a(L340311750L
L0L
(lp3355
(lp3356
tp3357
a(L2355528925L
L0L
(lp3358
(lp3359
tp3360
a(L106L
L0L
(lp3361
(lp3362
tp3363
a(L633884026L
L0L
(lp3364
(lp3365
tp3366
a(L106L
L0L
(lp3367
(lp3368
tp3369
a(L3631604465L
L0L
(lp3370
(lp3371
tp3372
a(L4017882081L
L0L
(lp3373
(lp3374
tp3375
a(L863842694L
L0L
(lp3376
(lp3377
tp3378
a(L336550648L
L0L
(lp3379
(lp3380
tp3381
a(L834617250L
L0L
(lp3382
(lp3383
tp3384
a(L106L
L0L
(lp3385
(lp3386
tp3387
a(L3105826411L
L3785322319L
(lp3388
(lp3389
Vesp_rom_spiflash_wait_idle
p3390
atp3391
a(L3021737L
L0L
(lp3392
(lp3393
tp3394
a(L106L
L0L
(lp3395
(lp3396
tp3397
a(L1868280504L
L0L
(lp3398
(lp3399
tp3400
a(L106L
L0L
(lp3401
(lp3402
tp3403
a(L1504811040L
L0L
(lp3404
(lp3405
tp3406
a(L1221163038L
L0L
(lp3407
(lp3408
tp3409
a(L4122060822L
L0L
(lp3410
(lp3411
tp3412
a(L3654636374L
L0L
(lp3413
(lp3414
tp3415
a(L2989032L
L0L
(lp3416
(lp3417
tp3418
a(L3819849625L
L0L
(lp3419
(lp3420
tp3421
a(L3319041088L
L0L
(lp3422
(lp3423
tp3424
a(L1429756495L
L0L
(lp3425
(lp3426
tp3427
a(L3901822013L
L0L
(lp3428
(lp3429
tp3430
a(L2771746418L
L0L
(lp3431
(lp3432
tp3433
a(L2921907736L
L0L
(lp3434
(lp3435
tp3436
a(L4023125337L
L0L
(lp3437
(lp3438
tp3439
a(L3555448681L
L0L
(lp3440
(lp3441
tp3442
a(L2287305731L
L0L
(lp3443
(lp3444
tp3445
a(L1996371968L
L0L
(lp3446
(lp3447
tp3448
a(L781550816L
L0L
(lp3449
(lp3450
tp3451
a(L2687789892L
L0L
(lp3452
(lp3453
tp3454
a(L1405253496L
L0L
(lp3455
(lp3456
tp3457
a(L2880310901L
L0L
(lp3458
(lp3459
tp3460
a(L97689L
L0L
(lp3461
(lp3462
tp3463
a(L1183020347L
L0L
(lp3464
(lp3465
tp3466
a(L4014024819L
L0L
(lp3467
(lp3468
tp3469
a(L3621567083L
L0L
(lp3470
(lp3471
tp3472
atp3473
sI1074239692
(Vbootloader_utility_get_selected_boot_partition
p3474
(lp3475
(L2803238495L
L0L
(lp3476
(lp3477
tp3478
a(L1299867982L
L0L
(lp3479
(lp3480
tp3481
a(L3360570486L
L0L
(lp3482
(lp3483
tp3484
a(L3281482558L
L0L
(lp3485
(lp3486
tp3487
a(L3121032705L
L3785322319L
(lp3488
(lp3489
Vesp_log_early_timestamp
p3490
atp3491
a(L1726674248L
L0L
(lp3492
(lp3493
tp3494
a(L1375577398L
L3785322319L
(lp3495
(lp3496
Vbootloader_mmap
p3497
atp3498
a(L63610766L
L3785322319L
(lp3499
(lp3500
Vesp_log_early_timestamp
p3501
atp3502
a(L3101389472L
L1880226080L
(lp3503
(lp3504
Vbootloader_munmap
p3505
aVbootloader_common_ota_select_invalid
p3506
atp3507
a(L1103573946L
L0L
(lp3508
(lp3509
tp3510
a(L1876827316L
L3785322319L
(lp3511
(lp3512
Vbootloader_common_get_active_otadata
p3513
atp3514
a(L569346373L
L0L
(lp3515
(lp3516
tp3517
a(L3111084448L
L3785322319L
(lp3518
(lp3519
Vbootloader_common_ota_select_invalid
p3520
atp3521
a(L45272527L
L0L
(lp3522
(lp3523
tp3524
a(L847230968L
L0L
(lp3525
(lp3526
tp3527
a(L505081345L
L0L
(lp3528
(lp3529
tp3530
a(L919052234L
L3785322319L
(lp3531
(lp3532
Vbootloader_common_ota_select_crc
p3533
atp3534
a(L2287680455L
L0L
(lp3535
(lp3536
tp3537
a(L3542558037L
L3785322319L
(lp3538
(lp3539
Vbootloader_common_ota_select_crc
p3540
atp3541
a(L1299866312L
L0L
(lp3542
(lp3543
tp3544
a(L1849240841L
L0L
(lp3545
(lp3546
tp3547
a(L2152820954L
L3785322319L
(lp3548
(lp3549
Vesp_log_early_timestamp
p3550
atp3551
a(L2867263840L
L0L
(lp3552
(lp3553
tp3554
a(L4142632780L
L3785322319L
(lp3555
(lp3556
Vesp_log_early_timestamp
p3557
atp3558
atp3559
sI1074236872
(Vefuse_hal_get_major_chip_version
p3560
(lp3561
(L1638136297L
L0L
(lp3562
(lp3563
tp3564
a(L894792960L
L0L
(lp3565
(lp3566
tp3567
a(L3783348505L
L0L
(lp3568
(lp3569
tp3570
a(L3360570486L
L0L
(lp3571
(lp3572
tp3573
atp3574
sI1074237128
(Vbootloader_common_check_chip_validity
p3575
(lp3576
(L392423210L
L0L
(lp3577
(lp3578
tp3579
a(L241761751L
L3785322319L
(lp3580
(lp3581
Vesp_log_early_timestamp
p3582
atp3583
a(L522103407L
L3785322319L
(lp3584
(lp3585
Vefuse_hal_chip_revision
p3586
atp3587
a(L106L
L0L
(lp3588
(lp3589
tp3590
a(L4098603684L
L0L
(lp3591
(lp3592
tp3593
a(L3320960775L
L3785322319L
(lp3594
(lp3595
Vesp_log_early_timestamp
p3596
atp3597
a(L3028464L
L0L
(lp3598
(lp3599
tp3600
a(L1397322129L
L0L
(lp3601
(lp3602
tp3603
a(L3021749L
L0L
(lp3604
(lp3605
tp3606
a(L3463022021L
L3785322319L
(lp3607
(lp3608
Vesp_log_early_timestamp
p3609
atp3610
a(L1299867982L
L0L
(lp3611
(lp3612
tp3613
a(L3360570486L
L0L
(lp3614
(lp3615
tp3616
atp3617
sI1074244308
(Vwdt_hal_enable
p3618
(lp3619
(L2299130915L
L0L
(lp3620
(lp3621
tp3622
a(L165794138L
L0L
(lp3623
(lp3624
tp3625
a(L3360570486L
L0L
(lp3626
(lp3627
tp3628
a(L2847657174L
L0L
(lp3629
(lp3630
tp3631
atp3632
sI1074245076
(Vrtc_clk_slow_src_set
p3633
(lp3634
(L540459879L
L0L
(lp3635
(lp3636
tp3637
a(L3020187L
L0L
(lp3638
(lp3639
tp3640
a(L3028481L
L0L
(lp3641
(lp3642
tp3643
a(L487821223L
L0L
(lp3644
(lp3645
tp3646
a(L3164699159L
L0L
(lp3647
(lp3648
tp3649
a(L1851908495L
L0L
(lp3650
(lp3651
tp3652
a(L2729394930L
L0L
(lp3653
(lp3654
tp3655
a(L3138544334L
L0L
(lp3656
(lp3657
tp3658
a(L94425498L
L3785322319L
(lp3659
(lp3660
Vabort
p3661
atp3662
atp3663
sI1074245588
(Vrtc_clk_xtal_freq_update
p3664
(lp3665
(L328668897L
L0L
(lp3666
(lp3667
tp3668
a(L3509357017L
L0L
(lp3669
(lp3670
tp3671
a(L2266180931L
L0L
(lp3672
(lp3673
tp3674
atp3675
sI1074268884
(Vbootloader_random_enable
p3676
(lp3677
(L2481830133L
L0L
(lp3678
(lp3679
tp3680
atp3681
sI1074240728
(Vabort
p3682
(lp3683
(L2210763366L
L0L
(lp3684
(lp3685
tp3686
a(L409471316L
L0L
(lp3687
(lp3688
tp3689
a(L106L
L0L
(lp3690
(lp3691
tp3692
atp3693
sI1074237400
(Vbootloader_common_ota_select_invalid
p3694
(lp3695
(L4027567199L
L0L
(lp3696
(lp3697
tp3698
a(L3397985842L
L0L
(lp3699
(lp3700
tp3701
a(L2258867228L
L0L
(lp3702
(lp3703
tp3704
a(L3785235668L
L0L
(lp3705
(lp3706
tp3707
atp3708
sI1074269932
(Vbootloader_console_init
p3709
(lp3710
(L1241556179L
L1832448559L
(lp3711
(lp3712
Vesp_rom_uart_tx_wait_idle
p3713
aVrtc_clk_apb_freq_get
p3714
aVesp_rom_uart_set_clock_baudrate
p3715
atp3716
atp3717
sI1074239968
(Vbootloader_reset
p3718
(lp3719
(L1040804570L
L3785322319L
(lp3720
(lp3721
Vbootloader_console_deinit
p3722
atp3723
a(L106L
L0L
(lp3724
(lp3725
tp3726
atp3727
sI1074240492
(Vbootloader_sha256_finish
p3728
(lp3729
(L4066096136L
L0L
(lp3730
(lp3731
tp3732
a(L1918014298L
L0L
(lp3733
(lp3734
tp3735
a(L3627025138L
L3785322319L
(lp3736
(lp3737
V__assert_func
p3738
atp3739
a(L3020204L
L0L
(lp3740
(lp3741
tp3742
a(L1140538619L
L0L
(lp3743
(lp3744
tp3745
a(L2534656226L
L0L
(lp3746
(lp3747
tp3748
a(L2746554839L
L3785322319L
(lp3749
(lp3750
Vbootloader_sha256_data
p3751
atp3752
a(L2437171593L
L0L
(lp3753
(lp3754
tp3755
a(L770086497L
L3785322319L
(lp3756
(lp3757
Vbootloader_sha256_data
p3758
atp3759
a(L2482436287L
L0L
(lp3760
(lp3761
tp3762
a(L657425439L
L0L
(lp3763
(lp3764
tp3765
a(L3971462626L
L0L
(lp3766
(lp3767
tp3768
a(L657425439L
L0L
(lp3769
(lp3770
tp3771
a(L1808515429L
L0L
(lp3772
(lp3773
tp3774
a(L4004422193L
L0L
(lp3775
(lp3776
tp3777
a(L3347778L
L0L
(lp3778
(lp3779
tp3780
a(L3360570486L
L0L
(lp3781
(lp3782
tp3783
atp3784
sI1074245356
(Vrtc_clk_cpu_freq_mhz_to_config
p3785
(lp3786
(L908718885L
L3785322319L
(lp3787
(lp3788
Vrtc_clk_xtal_freq_get
p3789
atp3790
a(L60460069L
L0L
(lp3791
(lp3792
tp3793
a(L3802072124L
L0L
(lp3794
(lp3795
tp3796
a(L3159006042L
L0L
(lp3797
(lp3798
tp3799
a(L3360570486L
L0L
(lp3800
(lp3801
tp3802
a(L895147205L
L0L
(lp3803
(lp3804
tp3805
a(L3970036657L
L0L
(lp3806
(lp3807
tp3808
a(L2731353429L
L0L
(lp3809
(lp3810
tp3811
a(L1555485793L
L0L
(lp3812
(lp3813
tp3814
a(L2258897023L
L0L
(lp3815
(lp3816
tp3817
a(L1947499251L
L0L
(lp3818
(lp3819
tp3820
a(L1306331021L
L0L
(lp3821
(lp3822
tp3823
atp3824
sI1074268644
(Vbootloader_clock_configure
p3825
(lp3826
(L2559598596L
L1880226080L
(lp3827
(lp3828
Vesp_rom_uart_tx_wait_idle
p3829
aVefuse_hal_chip_revision
p3830
atp3831
a(L377556189L
L0L
(lp3832
(lp3833
tp3834
a(L883406775L
L0L
(lp3835
(lp3836
tp3837
a(L106L
L0L
(lp3838
(lp3839
tp3840
a(L4055587691L
L1832448559L
(lp3841
(lp3842
Vrtc_clk_slow_src_get
p3843
aVrtc_clk_fast_src_get
p3844
aVrtc_clk_init
p3845
atp3846
a(L2555738642L
L0L
(lp3847
(lp3848
tp3849
a(L1660176588L
L3785322319L
(lp3850
(lp3851
Vrtc_clk_apb_freq_get
p3852
atp3853
a(L106L
L0L
(lp3854
(lp3855
tp3856
a(L106L
L0L
(lp3857
(lp3858
tp3859
atp3860
sI1074269924
(Vbootloader_enable_random
p3861
(lp3862
(L1287383080L
L3785322319L
(lp3863
(lp3864
Vbootloader_random_enable
p3865
atp3866
atp3867
sI1074238952
(Vcache_ll_l1_enable_bus
p3868
(lp3869
(L3703586533L
L0L
(lp3870
(lp3871
tp3872
atp3873
sI1074244840
(Vrtc_clk_32k_enable
p3874
(lp3875
(L753387299L
L0L
(lp3876
(lp3877
tp3878
a(L3776007933L
L3785322319L
(lp3879
(lp3880
Vrtc_clk_32k_enable_common
p3881
atp3882
a(L3496950L
L0L
(lp3883
(lp3884
tp3885
a(L3974686761L
L0L
(lp3886
(lp3887
tp3888
atp3889
sI1074247144
(Vesp_rom_spiflash_read_status
p3890
(lp3891
(L2938520357L
L0L
(lp3892
(lp3893
tp3894
a(L1182811815L
L0L
(lp3895
(lp3896
tp3897
a(L3767893221L
L0L
(lp3898
(lp3899
tp3900
a(L106L
L0L
(lp3901
(lp3902
tp3903
a(L3778204656L
L0L
(lp3904
(lp3905
tp3906
a(L3274807848L
L0L
(lp3907
(lp3908
tp3909
a(L2123059967L
L0L
(lp3910
(lp3911
tp3912
a(L3146966332L
L0L
(lp3913
(lp3914
tp3915
a(L2392720019L
L0L
(lp3916
(lp3917
tp3918
atp3919
sI1074270200
(Vrtc_clk_init
p3920
(lp3921
(L3203660237L
L0L
(lp3922
(lp3923
tp3924
a(L42671777L
L3785322319L
(lp3925
(lp3926
Vrtc_clk_cpu_freq_to_xtal
p3927
atp3928
a(L4207943434L
L3785322319L
(lp3929
(lp3930
Vrtc_clk_xtal_freq_get
p3931
atp3932
a(L89029051L
L0L
(lp3933
(lp3934
tp3935
a(L4187693717L
L3785322319L
(lp3936
(lp3937
Vrtc_clk_xtal_freq_estimate
p3938
atp3939
a(L755739346L
L3785322319L
(lp3940
(lp3941
Vesp_log_early_timestamp
p3942
atp3943
a(L1144767841L
L1157885199L
(lp3944
(lp3945
Vesp_rom_uart_tx_wait_idle
p3946
aVrtc_clk_xtal_freq_update
p3947
aVrtc_clk_apb_freq_update
p3948
aVrtc_clk_cpu_freq_get_config
p3949
aVrtc_clk_cpu_freq_mhz_to_config
p3950
atp3951
a(L3662401972L
L1880226080L
(lp3952
(lp3953
Vesp_log_early_timestamp
p3954
aVabort
p3955
atp3956
a(L3028481L
L0L
(lp3957
(lp3958
tp3959
a(L4070631611L
L3785322319L
(lp3960
(lp3961
Vrtc_clk_xtal_freq_estimate
p3962
atp3963
a(L3344371599L
L3785322319L
(lp3964
(lp3965
Vesp_log_early_timestamp
p3966
atp3967
a(L1715681963L
L3785322319L
(lp3968
(lp3969
Vrtc_clk_cpu_freq_set_config
p3970
atp3971
a(L912310138L
L3785322319L
(lp3972
(lp3973
Vrtc_clk_32k_enable
p3974
atp3975
a(L3191820416L
L1832448559L
(lp3976
(lp3977
Vrtc_clk_8m_enable
p3978
aVrtc_clk_fast_src_set
p3979
aVrtc_clk_slow_src_set
p3980
atp3981
a(L1232958848L
L0L
(lp3982
(lp3983
tp3984
atp3985
sI1074234612
(Vesp_flash_encryption_enabled
p3986
(lp3987
(L2932383536L
L0L
(lp3988
(lp3989
tp3990
a(L2910371777L
L0L
(lp3991
(lp3992
tp3993
a(L3360570486L
L0L
(lp3994
(lp3995
tp3996
a(L3016870L
L0L
(lp3997
(lp3998
tp3999
a(L3745038218L
L0L
(lp4000
(lp4001
tp4002
a(L957607403L
L0L
(lp4003
(lp4004
tp4005
atp4006
sI1074237428
(Vbootloader_common_select_otadata
p4007
(lp4008
(L4071767857L
L0L
(lp4009
(lp4010
tp4011
a(L1999329187L
L0L
(lp4012
(lp4013
tp4014
a(L3846398843L
L0L
(lp4015
(lp4016
tp4017
a(L2501968171L
L0L
(lp4018
(lp4019
tp4020
a(L3360570486L
L0L
(lp4021
(lp4022
tp4023
a(L2045232488L
L0L
(lp4024
(lp4025
tp4026
a(L1243525916L
L0L
(lp4027
(lp4028
tp4029
a(L3094144427L
L0L
(lp4030
(lp4031
tp4032
a(L2399509845L
L0L
(lp4033
(lp4034
tp4035
a(L1641201884L
L0L
(lp4036
(lp4037
tp4038
atp4039
sI1074235888
(Vbootloader_write_status_8b_xmc25qu64a
p4040
(lp4041
(L3599908209L
L1157885199L
(lp4042
(lp4043
Vbootloader_execute_flash_command
p4044
aVesp_rom_spiflash_wait_idle
p4045
aVbootloader_execute_flash_command
p4046
aVesp_rom_spiflash_wait_idle
p4047
aVbootloader_execute_flash_command
p4048
atp4049
atp4050
sI1074240240
(Vindex_to_partition
p4051
(lp4052
(L4066096119L
L0L
(lp4053
(lp4054
tp4055
a(L1739185955L
L0L
(lp4056
(lp4057
tp4058
a(L2171552758L
L0L
(lp4059
(lp4060
tp4061
a(L2808906342L
L0L
(lp4062
(lp4063
tp4064
a(L2101481936L
L0L
(lp4065
(lp4066
tp4067
a(L3698927993L
L0L
(lp4068
(lp4069
tp4070
a(L2808826781L
L0L
(lp4071
(lp4072
tp4073
a(L3003398163L
L0L
(lp4074
(lp4075
tp4076
a(L2880709161L
L0L
(lp4077
(lp4078
tp4079
a(L1087646172L
L0L
(lp4080
(lp4081
tp4082
atp4083
sI1074235132
(Vbootloader_execute_flash_command
p4084
(lp4085
(L2481595632L
L3785322319L
(lp4086
(lp4087
Vbootloader_flash_execute_command_common
p4088
atp4089
atp4090
sI1074239480
(Vbootloader_utility_load_partition_table
p4091
(lp4092
(L3128219304L
L3785322319L
(lp4093
(lp4094
Vbootloader_mmap
p4095
atp4096
a(L770149735L
L3785322319L
(lp4097
(lp4098
Vesp_log_early_timestamp
p4099
atp4100
a(L2258688482L
L0L
(lp4101
(lp4102
tp4103
a(L3360570486L
L0L
(lp4104
(lp4105
tp4106
a(L255479872L
L3785322319L
(lp4107
(lp4108
Vesp_partition_table_verify
p4109
atp4110
a(L1224062835L
L0L
(lp4111
(lp4112
tp4113
a(L3761768803L
L0L
(lp4114
(lp4115
tp4116
a(L2311047843L
L3785322319L
(lp4117
(lp4118
Vbootloader_munmap
p4119
atp4120
a(L3398923045L
L3785322319L
(lp4121
(lp4122
Vesp_log_early_timestamp
p4123
atp4124
a(L3927622121L
L0L
(lp4125
(lp4126
tp4127
a(L3020187L
L0L
(lp4128
(lp4129
tp4130
a(L1532853611L
L0L
(lp4131
(lp4132
tp4133
a(L1036489382L
L0L
(lp4134
(lp4135
tp4136
a(L3020187L
L0L
(lp4137
(lp4138
tp4139
a(L475586725L
L0L
(lp4140
(lp4141
tp4142
a(L529263765L
L0L
(lp4143
(lp4144
tp4145
a(L775434204L
L0L
(lp4146
(lp4147
tp4148
a(L3579705151L
L0L
(lp4149
(lp4150
tp4151
a(L2387139071L
L0L
(lp4152
(lp4153
tp4154
a(L1599920163L
L0L
(lp4155
(lp4156
tp4157
atp4158
ssS'functionsdups'
p4159
g11
((lp4160
tp4161
Rp4162
sS'immediatedups'
p4163
g11
((lp4164
tp4165
Rp4166
sS'functiondups'
p4167
g11
((lp4168
tp4169
Rp4170
sS'fuzzy'
p4171
(dp4172
L438947497L
I1074245076
sL2170867428L
I1074270200
sL617583950L
I1074237128
sL1694124286L
I1074235888
sL430153639L
I1074236056
sL3121027072L
I1074270636
sL2082889262L
I1074241600
sL835568324L
I1074246516
sL3107765941L
I1074269372
sL1340445289L
I1074235556
sL2919016435L
I1074235164
sL16208487L
I1074234652
sL2319042089L
I1074245208
sL1907123383L
I1074239004
sL3881399234L
I1074245660
sL151789201L
I1074270016
sL1419132215L
I1074238252
sL4026659104L
I1074269640
sL2469233929L
I1074240492
sL701833459L
I1074268644
sL720751058L
I1074244632
sL2475522855L
I1074269932
sL3897252859L
I1074238660
sL1937794608L
I1074247532
sL1065525808L
I1074236968
sL1766137975L
I1074238868
sL2216817938L
I1074267976
sL2327783177L
I1074240784
sL2272466760L
I1074245448
sL2117292686L
I1074241204
sL1188065553L
I1074237812
sL1415908896L
I1074241820
sL94556391L
I1074245236
sL3210669721L
I1074244840
sL1332800441L
I1074237360
sL2884218272L
I1074267756
sL1345429244L
I1074240956
sL3190020590L
I1074242444
sL4160102055L
I1074239968
sL4202185385L
I1074247232
sL1768086576L
I1074236524
sL4171975289L
I1074248252
sL1565254297L
I1074248552
sL1205407754L
I1074240000
sL2191698036L
I1074269796
sL1635528231L
I1074243864
sL519424169L
I1074246984
sL1060788199L
I1074245356
sL4006207895L
I1074239380
sL406720601L
I1074238744
sL737694352L
I1074247340
sL503029138L
I1074247280
sL1616763831L
I1074248640
sL2262558768L
I1074247144
sL424867129L
I1074248388
sL3791345684L
I1074235840
sL3834155367L
I1074241148
sL2405032630L
I1074267648
sL3338518926L
I1074237536
sL1299206787L
I1074239480
sL2123938668L
I1074245776
sL3883282432L
I1074241692
sL4173399607L
I1074242980
sL4278077574L
I1074239692
sL1667054119L
I1074240336
sL206902443L
I1074238084
ssb.