ccopy_reg
_reconstructor
p0
(crizzo
RizzoSignature
p1
c__builtin__
object
p2
Ntp3
Rp4
(dp5
S'formal'
p6
(dp7
L2005196428L
I1074245524
sL1741170115L
I1074238000
sL2087186284L
I1074236412
sL1913647619L
I1074269952
sL3984280162L
I1074244504
sL3746738248L
I1074239392
sL2628804010L
I1074270876
sL4213015302L
I1074243292
sL461860251L
I1074247312
sL480657080L
I1074239512
sL286550283L
I1074270020
sL3976424482L
I1074234712
sL552298442L
I1074235280
sL2767810776L
I1074238020
sL2771134728L
I1074240200
sL2326361228L
I1074269372
sL2702580795L
I1074237376
sL2610420647L
I1074269796
sL2896295319L
I1074236900
sL25479346L
I1074240680
sL438696979L
I1074269924
sL1331791455L
I1074245616
sL1674148343L
I1074245672
sL1786019146L
I1074247680
sL4023292303L
I1074237452
sL3256726111L
I1074248008
sL2485902447L
I1074236740
sL723138898L
I1074238180
sL424336643L
I1074269660
sL366218909L
I1074270056
sL368505532L
I1074245948
sL848906711L
I1074248172
sL353716291L
I1074244704
sL1585823442L
I1074244604
sL1622896354L
I1074244632
sL3092620558L
I1074235680
sL2521269785L
I1074236980
sL730944497L
I1074239876
sL2189223198L
I1074240440
sL3580313603L
I1074241944
sL2493713350L
I1074245380
sL183144L
I1074238844
sL2930276314L
I1074235832
sL4161584248L
I1074268572
sL4175577751L
I1074244752
sL2723725103L
I1074240876
sL1633709340L
I1074245356
sL2813809866L
I1074236764
sL2366387314L
I1074270724
sL1330922710L
I1074246816
sL1731035566L
I1074236576
sL676927194L
I1074268860
sL244922653L
I1074242812
sL2691843063L
I1074245976
sL3307282855L
I1074238160
sL127813144L
I1074243576
sL2834351222L
I1074244924
sL3065846068L
I1074235580
sL3553146178L
I1074267728
sL2195669076L
I1074245332
sL357647324L
I1074268868
sL3361686224L
I1074268628
sL3042952135L
I1074267720
sL3721992006L
I1074240892
sL1160735408L
I1074242072
sL1662035087L
I1074267836
sL3041505513L
I1074237484
sL4038945309L
I1074235632
sL1435968304L
I1074244788
sL4178015136L
I1074247480
sL1992104215L
I1074236872
sL1112935418L
I1074234756
sL4020657674L
I1074246088
sL2931540503L
I1074247624
sL1382567621L
I1074238236
sL105563623L
I1074240512
sL2997001746L
I1074237308
sL59949349L
I1074241140
sL1087228788L
I1074238996
sL76756778L
I1074240972
sL556795273L
I1074269728
sL2819127986L
I1074237032
sL3195929028L
I1074240176
sL3024810484L
I1074270280
sL1481764497L
I1074237012
sL1877634603L
I1074270948
sL2687718384L
I1074243308
sL2789355142L
I1074244188
sL1098683832L
I1074245144
sL3015462521L
I1074238644
sL3066643969L
I1074247280
sL935372552L
I1074268060
sL886840080L
I1074237068
sL2062758462L
I1074236804
sL1347401601L
I1074240532
sL2248158928L
I1074238316
sL660825523L
I1074245204
sL3362774716L
I1074236660
sL3338519854L
I1074245904
sL2195659785L
I1074245552
sL540472814L
I1074247872
sL2263182908L
I1074238228
sL965583188L
I1074245764
sL114336524L
I1074269684
sL282668036L
I1074244536
sL963291061L
I1074248260
sL3630163135L
I1074236888
sL188664287L
I1074235248
sL2743385701L
I1074269356
sL2404540336L
I1074245496
sL2485146564L
I1074240916
sL692536993L
I1074237348
sL822000404L
I1074245632
sL921639684L
I1074235944
sL235684320L
I1074237744
sL3364903294L
I1074247576
sL675504051L
I1074236560
sL1817360290L
I1074241384
sL917018201L
I1074236972
sL237904351L
I1074241328
sL2758712477L
I1074241856
sL309068699L
I1074245084
sL1140246287L
I1074246772
sL2570362575L
I1074238728
sL3958998789L
I1074237692
sL4029637072L
I1074270104
ssS'immediates'
p8
(dp9
sS'formaldups'
p10
c__builtin__
set
p11
((lp12
tp13
Rp14
sS'stringdups'
p15
g11
((lp16
tp17
Rp18
sS'fuzzydups'
p19
g11
((lp20
tp21
Rp22
sS'strings'
p23
(dp24
sS'functions'
p25
(dp26
I1074245380
(Vrtc_clk_slow_src_set
p27
(lp28
(L585347011L
L2195759072L
(lp29
(lp30
tp31
a(L3020187L
L0L
(lp32
(lp33
tp34
a(L3028481L
L0L
(lp35
(lp36
tp37
a(L487821223L
L0L
(lp38
(lp39
tp40
a(L4271877108L
L1443213481L
(lp41
(lp42
tp43
a(L1851908495L
L0L
(lp44
(lp45
tp46
a(L1099319264L
L1443213481L
(lp47
(lp48
tp49
a(L3138544334L
L0L
(lp50
(lp51
tp52
a(L94425498L
L3785322319L
(lp53
(lp54
Vabort
p55
atp56
atp57
sI1074240512
(Vbootloader_sha256_start
p58
(lp59
(L1737386262L
L2534110409L
(lp60
(lp61
tp62
atp63
sI1074245632
(Vrtc_clk_xtal_freq_get
p64
(lp65
(L3313072792L
L1443213481L
(lp66
(lp67
tp68
a(L2847936993L
L0L
(lp69
(lp70
tp71
a(L2252934062L
L1443213481L
(lp72
(lp73
tp74
a(L3360570486L
L0L
(lp75
(lp76
tp77
atp78
sI1074247680
(Vesp_rom_spiflash_program_page_internal
p79
(lp80
(L2569069283L
L0L
(lp81
(lp82
tp83
a(L2258688483L
L0L
(lp84
(lp85
tp86
a(L3360570486L
L0L
(lp87
(lp88
tp89
a(L2295540031L
L1443213481L
(lp90
(lp91
tp92
a(L4235661475L
L3785322319L
(lp93
(lp94
Vesp_rom_spiflash_wait_idle
p95
atp96
a(L1299866312L
L0L
(lp97
(lp98
tp99
a(L3212356251L
L3785322319L
(lp100
(lp101
Vesp_rom_spiflash_enable_write
p102
atp103
a(L1834262847L
L2195759072L
(lp104
(lp105
tp106
a(L633937013L
L1443213481L
(lp107
(lp108
tp109
a(L2953702749L
L0L
(lp110
(lp111
tp112
a(L2989032L
L0L
(lp113
(lp114
tp115
a(L1965622133L
L0L
(lp116
(lp117
tp118
a(L809386272L
L2195759072L
(lp119
(lp120
tp121
a(L1958113242L
L0L
(lp122
(lp123
tp124
a(L106L
L0L
(lp125
(lp126
tp127
a(L3112950080L
L0L
(lp128
(lp129
tp130
a(L1868606439L
L0L
(lp131
(lp132
tp133
a(L147213506L
L1443213481L
(lp134
(lp135
tp136
a(L1933954923L
L0L
(lp137
(lp138
tp139
a(L1147866918L
L0L
(lp140
(lp141
tp142
a(L3871602522L
L0L
(lp143
(lp144
tp145
atp146
sI1074267136
(V_init
p147
(lp148
(L3493042598L
L0L
(lp149
(lp150
tp151
atp152
sI1074269952
(Vbootloader_print_banner
p153
(lp154
(L3569996224L
L1385564105L
(lp155
(lp156
Vesp_bootloader_get_description
p157
aVesp_log_early_timestamp
p158
aVesp_log_early_timestamp
p159
aVesp_log_early_timestamp
p160
atp161
atp162
sI1074237452
(Vspi_to_esp_err
p163
(lp164
(L2749733621L
L1443213481L
(lp165
(lp166
tp167
a(L1872507229L
L1443213481L
(lp168
(lp169
tp170
a(L3952441574L
L0L
(lp171
(lp172
tp173
a(L3126521138L
L0L
(lp174
(lp175
tp176
atp177
sI1074270724
(Vrtc_vddsdio_get_config
p178
(lp179
(L3097658956L
L1443213481L
(lp180
(lp181
tp182
a(L1750635626L
L0L
(lp183
(lp184
tp185
a(L3193418487L
L0L
(lp186
(lp187
tp188
a(L3511111289L
L1443213481L
(lp189
(lp190
tp191
a(L115635292L
L0L
(lp192
(lp193
tp194
a(L896053863L
L0L
(lp195
(lp196
tp197
a(L1306330959L
L0L
(lp198
(lp199
tp200
a(L1783408782L
L1443213481L
(lp201
(lp202
tp203
atp204
sI1074238728
(Vcache_ll_l1_get_bus
p205
(lp206
(L2749735183L
L1443213481L
(lp207
(lp208
tp209
a(L94425498L
L3785322319L
(lp210
(lp211
Vabort
p212
atp213
a(L1872514061L
L1443213481L
(lp214
(lp215
tp216
a(L3824526338L
L1443213481L
(lp217
(lp218
tp219
a(L892952750L
L0L
(lp220
(lp221
tp222
a(L1182811810L
L0L
(lp223
(lp224
tp225
a(L1101742417L
L0L
(lp226
(lp227
tp228
a(L1100767927L
L0L
(lp229
(lp230
tp231
a(L3360570486L
L0L
(lp232
(lp233
tp234
a(L1872508791L
L1443213481L
(lp235
(lp236
tp237
a(L2882938163L
L0L
(lp238
(lp239
tp240
a(L2927201858L
L0L
(lp241
(lp242
tp243
a(L2258718273L
L0L
(lp244
(lp245
tp246
a(L2580713941L
L0L
(lp247
(lp248
tp249
a(L1872508791L
L1443213481L
(lp250
(lp251
tp252
a(L1872514061L
L1443213481L
(lp253
(lp254
tp255
a(L1641149277L
L0L
(lp256
(lp257
tp258
a(L1872508791L
L1443213481L
(lp259
(lp260
tp261
a(L3027019L
L0L
(lp262
(lp263
tp264
a(L1299866560L
L0L
(lp265
(lp266
tp267
a(L1299866436L
L0L
(lp268
(lp269
tp270
atp271
sI1074240532
(Vbootloader_sha256_data
p272
(lp273
(L4066096136L
L0L
(lp274
(lp275
tp276
a(L1697654611L
L2195759072L
(lp277
(lp278
tp279
a(L2213948952L
L242900614L
(lp280
(lp281
V__assert_func
p282
atp283
a(L498498478L
L0L
(lp284
(lp285
tp286
a(L3590389832L
L1443213481L
(lp287
(lp288
tp289
a(L2910371777L
L0L
(lp290
(lp291
tp292
a(L3360570486L
L0L
(lp293
(lp294
tp295
a(L1087685526L
L2195759072L
(lp296
(lp297
tp298
a(L426633611L
L1443213481L
(lp299
(lp300
tp301
a(L2584057186L
L1443213481L
(lp302
(lp303
tp304
a(L3342433287L
L1443213481L
(lp305
(lp306
tp307
a(L2526675390L
L242900614L
(lp308
(lp309
V__bswapsi2
p310
atp311
a(L942815853L
L2195759072L
(lp312
(lp313
tp314
a(L1872507229L
L1443213481L
(lp315
(lp316
tp317
a(L147213506L
L1443213481L
(lp318
(lp319
tp320
a(L3745004802L
L0L
(lp321
(lp322
tp323
atp324
sI1074238996
(Vload_image
p325
(lp326
(L3963348381L
L473788538L
(lp327
(lp328
Vesp_log_early_timestamp
p329
aVbootloader_random_disable
p330
aVbootloader_ana_clock_glitch_reset_config
p331
atp332
a(L2261049225L
L0L
(lp333
(lp334
tp335
a(L106L
L0L
(lp336
(lp337
tp338
a(L4185838750L
L1624138773L
(lp339
(lp340
Vmmu_hal_unmap_all
p341
aVcache_ll_l1_get_bus
p342
aVcache_ll_l1_enable_bus
p343
aVcache_ll_l1_get_bus
p344
aVcache_ll_l1_enable_bus
p345
aVcache_ll_l1_get_bus
p346
aVcache_ll_l1_enable_bus
p347
aVcache_ll_l1_get_bus
p348
aVcache_ll_l1_enable_bus
p349
aVbootloader_console_deinit
p350
atp351
a(L2843581588L
L1443213481L
(lp352
(lp353
tp354
a(L2902417580L
L0L
(lp355
(lp356
tp357
a(L3421811081L
L362179215L
(lp358
(lp359
Vesp_log_early_timestamp
p360
atp361
a(L2552261596L
L0L
(lp362
(lp363
tp364
a(L670464924L
L2195759072L
(lp365
(lp366
tp367
a(L3020204L
L0L
(lp368
(lp369
tp370
a(L3421811081L
L362179215L
(lp371
(lp372
Vesp_log_early_timestamp
p373
atp374
a(L3291469664L
L0L
(lp375
(lp376
tp377
a(L2591655545L
L0L
(lp378
(lp379
tp380
atp381
sI1074238228
(Vbootloader_mmap_get_free_pages
p382
(lp383
(L1496516875L
L0L
(lp384
(lp385
tp386
atp387
sI1074245904
(Vrtc_clk_xtal_freq_update
p388
(lp389
(L3023525581L
L2195759072L
(lp390
(lp391
tp392
a(L3509357017L
L0L
(lp393
(lp394
tp395
a(L2266180931L
L0L
(lp396
(lp397
tp398
atp399
sI1074238236
(Vbootloader_fill_random
p400
(lp401
(L3377511333L
L2195759072L
(lp402
(lp403
tp404
a(L4033043682L
L4032149094L
(lp405
(lp406
V__assert_func
p407
atp408
a(L1882547218L
L0L
(lp409
(lp410
tp411
a(L2910371777L
L0L
(lp412
(lp413
tp414
a(L95634693L
L0L
(lp415
(lp416
tp417
a(L3630908706L
L0L
(lp418
(lp419
tp420
a(L160162640L
L0L
(lp421
(lp422
tp423
a(L97689L
L0L
(lp424
(lp425
tp426
a(L3360570486L
L0L
(lp427
(lp428
tp429
atp430
sI1074242072
(Vprocess_segments
p431
(lp432
(L1326203493L
L0L
(lp433
(lp434
tp435
a(L1640778736L
L0L
(lp436
(lp437
tp438
a(L3782401745L
L0L
(lp439
(lp440
tp441
a(L106L
L0L
(lp442
(lp443
tp444
a(L3028481L
L0L
(lp445
(lp446
tp447
a(L3014296803L
L3187408090L
(lp448
(lp449
Vesp_log_early_timestamp
p450
atp451
a(L761135359L
L3785322319L
(lp452
(lp453
Vbootloader_flash_read
p454
atp455
a(L3856957476L
L3187408090L
(lp456
(lp457
Vesp_log_early_timestamp
p458
atp459
a(L3871473710L
L0L
(lp460
(lp461
tp462
a(L219417435L
L0L
(lp463
(lp464
tp465
a(L616767314L
L3785322319L
(lp466
(lp467
Vbootloader_sha256_data
p468
atp469
a(L1599301852L
L1443213481L
(lp470
(lp471
tp472
a(L2258837437L
L0L
(lp473
(lp474
tp475
a(L1764156528L
L0L
(lp476
(lp477
tp478
a(L3028481L
L0L
(lp479
(lp480
tp481
a(L2231662647L
L3187408090L
(lp482
(lp483
Vesp_log_early_timestamp
p484
atp485
a(L268651496L
L1443213481L
(lp486
(lp487
tp488
a(L652851030L
L2195759072L
(lp489
(lp490
tp491
a(L3802069243L
L0L
(lp492
(lp493
tp494
a(L3696234693L
L1443213481L
(lp495
(lp496
tp497
a(L2258867228L
L0L
(lp498
(lp499
tp500
a(L2277415887L
L0L
(lp501
(lp502
tp503
a(L3177376558L
L0L
(lp504
(lp505
tp506
a(L3028481L
L0L
(lp507
(lp508
tp509
a(L3861001733L
L3187408090L
(lp510
(lp511
Vesp_log_early_timestamp
p512
atp513
a(L2640606608L
L0L
(lp514
(lp515
tp516
a(L3028481L
L0L
(lp517
(lp518
tp519
a(L3892729576L
L3833084538L
(lp520
(lp521
Vesp_log_early_timestamp
p522
atp523
a(L4033680444L
L404278070L
(lp524
(lp525
tp526
a(L2902417580L
L0L
(lp527
(lp528
tp529
a(L2902417580L
L0L
(lp530
(lp531
tp532
a(L1229952296L
L3785322319L
(lp533
(lp534
Vverify_load_addresses
p535
atp536
a(L3783935185L
L3785322319L
(lp537
(lp538
Vbootloader_mmap_get_free_pages
p539
atp540
a(L3028481L
L0L
(lp541
(lp542
tp543
a(L224879076L
L0L
(lp544
(lp545
tp546
a(L142590671L
L0L
(lp547
(lp548
tp549
a(L3028481L
L0L
(lp550
(lp551
tp552
a(L94425498L
L3785322319L
(lp553
(lp554
Vesp_log_early_timestamp
p555
atp556
a(L1961289970L
L1443213481L
(lp557
(lp558
tp559
a(L4085121624L
L3785322319L
(lp560
(lp561
Vshould_load
p562
atp563
a(L3028481L
L0L
(lp564
(lp565
tp566
a(L1038006420L
L3833084538L
(lp567
(lp568
Vesp_log_early_timestamp
p569
atp570
a(L106L
L0L
(lp571
(lp572
tp573
a(L3815630522L
L0L
(lp574
(lp575
tp576
a(L1646054028L
L3833084538L
(lp577
(lp578
Vesp_log_early_timestamp
p579
atp580
a(L2629678223L
L0L
(lp581
(lp582
tp583
a(L2684012095L
L0L
(lp584
(lp585
tp586
a(L3357777304L
L3785322319L
(lp587
(lp588
Vbootloader_mmap
p589
atp590
a(L3911420474L
L3187408090L
(lp591
(lp592
Vesp_log_early_timestamp
p593
atp594
a(L1698460186L
L0L
(lp595
(lp596
tp597
a(L3264682310L
L1443213481L
(lp598
(lp599
tp600
a(L4016429890L
L242900614L
(lp601
(lp602
Vmemcpy
p603
atp604
a(L1595421496L
L3785322319L
(lp605
(lp606
Vbootloader_munmap
p607
atp608
a(L2757579158L
L0L
(lp609
(lp610
tp611
a(L605525844L
L242900614L
(lp612
(lp613
Vbootloader_fill_random
p614
atp615
a(L3616854679L
L1443213481L
(lp616
(lp617
tp618
a(L3616854679L
L1443213481L
(lp619
(lp620
tp621
a(L3450268858L
L0L
(lp622
(lp623
tp624
a(L3021749L
L0L
(lp625
(lp626
tp627
a(L322434465L
L0L
(lp628
(lp629
tp630
a(L2494883302L
L0L
(lp631
(lp632
tp633
a(L2902417580L
L0L
(lp634
(lp635
tp636
a(L2213415704L
L1443213481L
(lp637
(lp638
tp639
a(L193456747L
L1443213481L
(lp640
(lp641
tp642
a(L1426980959L
L0L
(lp643
(lp644
tp645
a(L1841482652L
L0L
(lp646
(lp647
tp648
a(L653501462L
L0L
(lp649
(lp650
tp651
a(L3310548426L
L3785322319L
(lp652
(lp653
Vbootloader_sha256_data
p654
atp655
a(L90548756L
L0L
(lp656
(lp657
tp658
a(L1702191967L
L1443213481L
(lp659
(lp660
tp661
a(L2364005371L
L0L
(lp662
(lp663
tp664
atp665
sI1074239512
(Vbootloader_utility_load_partition_table
p666
(lp667
(L947873538L
L3833084538L
(lp668
(lp669
Vbootloader_mmap
p670
atp671
a(L3861134865L
L2147981551L
(lp672
(lp673
Vesp_log_early_timestamp
p674
atp675
a(L2258688482L
L0L
(lp676
(lp677
tp678
a(L3360570486L
L0L
(lp679
(lp680
tp681
a(L2379286607L
L3785322319L
(lp682
(lp683
Vesp_partition_table_verify
p684
atp685
a(L2695471221L
L2147981551L
(lp686
(lp687
Vesp_log_early_timestamp
p688
atp689
a(L2693125842L
L403192672L
(lp690
(lp691
Vesp_log_early_timestamp
p692
aVesp_log_early_timestamp
p693
atp694
a(L650140130L
L0L
(lp695
(lp696
tp697
a(L2163909172L
L2801279232L
(lp698
(lp699
Vbootloader_munmap
p700
aVesp_log_early_timestamp
p701
atp702
a(L521126897L
L0L
(lp703
(lp704
tp705
a(L3028464L
L0L
(lp706
(lp707
tp708
a(L106L
L0L
(lp709
(lp710
tp711
a(L147213506L
L1443213481L
(lp712
(lp713
tp714
a(L2919580219L
L2147981551L
(lp715
(lp716
Vesp_log_early_timestamp
p717
atp718
a(L3990577774L
L0L
(lp719
(lp720
tp721
a(L3020187L
L0L
(lp722
(lp723
tp724
a(L3201555411L
L1443213481L
(lp725
(lp726
tp727
a(L1843602828L
L1443213481L
(lp728
(lp729
tp730
a(L326114897L
L1443213481L
(lp731
(lp732
tp733
a(L2487812812L
L1443213481L
(lp734
(lp735
tp736
a(L3478727216L
L1443213481L
(lp737
(lp738
tp739
a(L106L
L0L
(lp740
(lp741
tp742
a(L93674324L
L0L
(lp743
(lp744
tp745
a(L1872515523L
L1443213481L
(lp746
(lp747
tp748
a(L1215408024L
L1443213481L
(lp749
(lp750
tp751
a(L1872515506L
L1443213481L
(lp752
(lp753
tp754
a(L106L
L0L
(lp755
(lp756
tp757
a(L1872515506L
L1443213481L
(lp758
(lp759
tp760
a(L106L
L0L
(lp761
(lp762
tp763
a(L268651496L
L1443213481L
(lp764
(lp765
tp766
atp767
sI1074244632
(Vwdt_hal_enable
p768
(lp769
(L2299130915L
L0L
(lp770
(lp771
tp772
a(L165794138L
L0L
(lp773
(lp774
tp775
a(L3360570486L
L0L
(lp776
(lp777
tp778
a(L2847657174L
L0L
(lp779
(lp780
tp781
atp782
sI1074245144
(Vrtc_clk_32k_enable
p783
(lp784
(L753387299L
L0L
(lp785
(lp786
tp787
a(L3776007933L
L3785322319L
(lp788
(lp789
Vrtc_clk_32k_enable_common
p790
atp791
a(L3496950L
L0L
(lp792
(lp793
tp794
a(L707626330L
L2534110409L
(lp795
(lp796
tp797
atp798
sI1074235680
(Vbootloader_flash_xmc_startup
p799
(lp800
(L3433652179L
L242900614L
(lp801
(lp802
Vis_xmc_chip_strict
p803
atp804
a(L2258688482L
L0L
(lp805
(lp806
tp807
a(L3360570486L
L0L
(lp808
(lp809
tp810
a(L2860324232L
L3785322319L
(lp811
(lp812
Vbootloader_flash_read_sfdp
p813
atp814
a(L933155447L
L3609046414L
(lp815
(lp816
Vesp_log_early_timestamp
p817
aVbootloader_execute_flash_command
p818
aVbootloader_execute_flash_command
p819
aVbootloader_execute_flash_command
p820
aVbootloader_execute_flash_command
p821
aVbootloader_read_flash_id
p822
aVis_xmc_chip_strict
p823
atp824
a(L1000132677L
L3187408090L
(lp825
(lp826
Vesp_log_early_timestamp
p827
atp828
atp829
sI1074269728
(Vbootloader_check_bootloader_validity
p830
(lp831
(L2945382592L
L1069700966L
(lp832
(lp833
Vefuse_hal_chip_revision
p834
aVesp_log_early_timestamp
p835
aVbootloader_common_check_chip_validity
p836
atp837
atp838
sI1074236972
(Vefuse_hal_get_disable_wafer_version_major
p839
(lp840
(L4194175088L
L0L
(lp841
(lp842
tp843
atp844
sI1074237484
(Vbootloader_mmap
p845
(lp846
(L3007611739L
L2195759072L
(lp847
(lp848
tp849
a(L1328961945L
L2147981551L
(lp850
(lp851
Vesp_log_early_timestamp
p852
atp853
a(L1596194698L
L1443213481L
(lp854
(lp855
tp856
a(L3729184599L
L0L
(lp857
(lp858
tp859
a(L4163264550L
L3187408090L
(lp860
(lp861
Vesp_log_early_timestamp
p862
atp863
a(L2258688482L
L0L
(lp864
(lp865
tp866
a(L3360570486L
L0L
(lp867
(lp868
tp869
a(L3419814624L
L1443213481L
(lp870
(lp871
tp872
a(L1441818867L
L1690040256L
(lp873
(lp874
tp875
a(L3433564204L
L362179215L
(lp876
(lp877
Vesp_log_early_timestamp
p878
atp879
a(L2543114737L
L2147981551L
(lp880
(lp881
Vesp_log_early_timestamp
p882
atp883
a(L1137490703L
L2195759072L
(lp884
(lp885
tp886
atp887
sI1074235944
(Vbootloader_flash_gpio_config
p888
(lp889
(L3362256192L
L3785322319L
(lp890
(lp891
Vbootloader_common_get_chip_ver_pkg
p892
atp893
a(L106L
L0L
(lp894
(lp895
tp896
a(L1998579353L
L0L
(lp897
(lp898
tp899
a(L106L
L0L
(lp900
(lp901
tp902
a(L1839763068L
L1443213481L
(lp903
(lp904
tp905
a(L2440320488L
L1396946377L
(lp906
(lp907
tp908
a(L106L
L0L
(lp909
(lp910
tp911
a(L4003626558L
L0L
(lp912
(lp913
tp914
a(L2164907201L
L2534110409L
(lp915
(lp916
tp917
a(L3360570486L
L0L
(lp918
(lp919
tp920
atp921
sI1074245672
(Vrtc_clk_cpu_freq_mhz_to_config
p922
(lp923
(L908718885L
L3785322319L
(lp924
(lp925
Vrtc_clk_xtal_freq_get
p926
atp927
a(L60460069L
L0L
(lp928
(lp929
tp930
a(L3802072124L
L0L
(lp931
(lp932
tp933
a(L3159006042L
L0L
(lp934
(lp935
tp936
a(L3360570486L
L0L
(lp937
(lp938
tp939
a(L895147205L
L0L
(lp940
(lp941
tp942
a(L3970036657L
L0L
(lp943
(lp944
tp945
a(L2731353429L
L0L
(lp946
(lp947
tp948
a(L1555485793L
L0L
(lp949
(lp950
tp951
a(L2258897023L
L0L
(lp952
(lp953
tp954
a(L1947499251L
L0L
(lp955
(lp956
tp957
a(L1306331021L
L0L
(lp958
(lp959
tp960
atp961
sI1074236980
(Vesp_log_early_timestamp
p962
(lp963
(L4015029253L
L1443213481L
(lp964
(lp965
tp966
atp967
sI1074249012
(V_fini
p968
(lp969
(L3493042598L
L0L
(lp970
(lp971
tp972
atp973
sI1074241328
(Vbootloader_util_regions_overlap
p974
(lp975
(L2762640130L
L0L
(lp976
(lp977
tp978
a(L1697654632L
L2195759072L
(lp979
(lp980
tp981
a(L2213948952L
L242900614L
(lp982
(lp983
V__assert_func
p984
atp985
a(L97642L
L0L
(lp986
(lp987
tp988
a(L1087686177L
L2195759072L
(lp989
(lp990
tp991
a(L366123053L
L0L
(lp992
(lp993
tp994
a(L2258867228L
L0L
(lp995
(lp996
tp997
a(L1253626734L
L0L
(lp998
(lp999
tp1000
a(L2258897019L
L0L
(lp1001
(lp1002
tp1003
a(L3109269495L
L0L
(lp1004
(lp1005
tp1006
atp1007
sI1074238000
(Vbootloader_flash_erase_sector
p1008
(lp1009
(L4129137686L
L1880226080L
(lp1010
(lp1011
Vesp_rom_spiflash_erase_sector
p1012
aVspi_to_esp_err
p1013
atp1014
atp1015
sI1074237744
(Vbootloader_flash_read
p1016
(lp1017
(L3022618172L
L0L
(lp1018
(lp1019
tp1020
a(L2493247481L
L2147981551L
(lp1021
(lp1022
Vesp_log_early_timestamp
p1023
atp1024
a(L852987398L
L1443213481L
(lp1025
(lp1026
tp1027
a(L1351513776L
L0L
(lp1028
(lp1029
tp1030
a(L1486740491L
L0L
(lp1031
(lp1032
tp1033
a(L4276228047L
L2147981551L
(lp1034
(lp1035
Vesp_log_early_timestamp
p1036
atp1037
a(L3283691850L
L0L
(lp1038
(lp1039
tp1040
a(L4276228016L
L2147981551L
(lp1041
(lp1042
Vesp_log_early_timestamp
p1043
atp1044
a(L3020204L
L0L
(lp1045
(lp1046
tp1047
a(L384130671L
L0L
(lp1048
(lp1049
tp1050
a(L97422L
L0L
(lp1051
(lp1052
tp1053
a(L515889772L
L2195759072L
(lp1054
(lp1055
tp1056
a(L3321969934L
L1690040256L
(lp1057
(lp1058
tp1059
a(L279744554L
L4032149094L
(lp1060
(lp1061
V__assert_func
p1062
atp1063
a(L4071371888L
L2534110409L
(lp1064
(lp1065
tp1066
a(L2438181396L
L1443213481L
(lp1067
(lp1068
tp1069
a(L1976506429L
L3635241909L
(lp1070
(lp1071
Vesp_rom_spiflash_read
p1072
aVspi_to_esp_err
p1073
atp1074
atp1075
sI1074244924
(Vrtc_clk_cpu_freq_to_pll_mhz
p1076
(lp1077
(L3231135830L
L0L
(lp1078
(lp1079
tp1080
a(L2102627717L
L2195759072L
(lp1081
(lp1082
tp1083
a(L2982280123L
L3380333161L
(lp1084
(lp1085
Vesp_rom_set_cpu_ticks_per_us
p1086
aVrtc_clk_wait_for_slow_cycle
p1087
atp1088
a(L708686908L
L1443213481L
(lp1089
(lp1090
tp1091
a(L3284807114L
L0L
(lp1092
(lp1093
tp1094
a(L94425498L
L3785322319L
(lp1095
(lp1096
Vabort
p1097
atp1098
a(L2258897019L
L0L
(lp1099
(lp1100
tp1101
a(L1113742378L
L0L
(lp1102
(lp1103
tp1104
a(L1306330990L
L0L
(lp1105
(lp1106
tp1107
atp1108
sI1074245948
(Vrtc_clk_apb_freq_update
p1109
(lp1110
(L3982322780L
L1443213481L
(lp1111
(lp1112
tp1113
atp1114
sI1074247480
(Vesp_rom_spiflash_read_status
p1115
(lp1116
(L3588638125L
L1443213481L
(lp1117
(lp1118
tp1119
a(L4250092034L
L2534110409L
(lp1120
(lp1121
tp1122
a(L4159619641L
L0L
(lp1123
(lp1124
tp1125
a(L2392720019L
L0L
(lp1126
(lp1127
tp1128
a(L2258688487L
L0L
(lp1129
(lp1130
tp1131
a(L4159619145L
L0L
(lp1132
(lp1133
tp1134
a(L3241763332L
L1443213481L
(lp1135
(lp1136
tp1137
a(L3117156279L
L0L
(lp1138
(lp1139
tp1140
a(L2123059967L
L0L
(lp1141
(lp1142
tp1143
a(L582177370L
L0L
(lp1144
(lp1145
tp1146
atp1147
sI1074267720
(Vesp_bootloader_get_description
p1148
(lp1149
(L2248573785L
L2195759072L
(lp1150
(lp1151
tp1152
atp1153
sI1074270280
(Vrtc_clk_init
p1154
(lp1155
(L1100006719L
L1443213481L
(lp1156
(lp1157
tp1158
a(L42671777L
L3785322319L
(lp1159
(lp1160
Vrtc_clk_cpu_freq_to_xtal
p1161
atp1162
a(L739905763L
L1743007695L
(lp1163
(lp1164
Vrtc_clk_xtal_freq_get
p1165
atp1166
a(L3028481L
L0L
(lp1167
(lp1168
tp1169
a(L4284274517L
L3785322319L
(lp1170
(lp1171
Vrtc_clk_xtal_freq_estimate
p1172
atp1173
a(L2576622952L
L3187408090L
(lp1174
(lp1175
Vesp_log_early_timestamp
p1176
atp1177
a(L1822030105L
L3065544262L
(lp1178
(lp1179
Vesp_rom_uart_tx_wait_idle
p1180
aVrtc_clk_xtal_freq_update
p1181
aVrtc_clk_apb_freq_update
p1182
aVrtc_clk_cpu_freq_get_config
p1183
aVrtc_clk_cpu_freq_mhz_to_config
p1184
atp1185
a(L521302419L
L2704288053L
(lp1186
(lp1187
Vesp_log_early_timestamp
p1188
aVabort
p1189
atp1190
a(L2902417580L
L0L
(lp1191
(lp1192
tp1193
a(L1899970065L
L0L
(lp1194
(lp1195
tp1196
a(L377687546L
L3785322319L
(lp1197
(lp1198
Vrtc_clk_xtal_freq_estimate
p1199
atp1200
a(L2163742247L
L3187408090L
(lp1201
(lp1202
Vesp_log_early_timestamp
p1203
atp1204
a(L299116989L
L2426646996L
(lp1205
(lp1206
Vrtc_clk_cpu_freq_set_config
p1207
aV__udivdi3
p1208
atp1209
a(L912310138L
L3785322319L
(lp1210
(lp1211
Vrtc_clk_32k_enable
p1212
atp1213
a(L3191820416L
L1832448559L
(lp1214
(lp1215
Vrtc_clk_8m_enable
p1216
aVrtc_clk_fast_src_set
p1217
aVrtc_clk_slow_src_set
p1218
atp1219
a(L1232958848L
L0L
(lp1220
(lp1221
tp1222
atp1223
sI1074238020
(Vbootloader_flash_write
p1224
(lp1225
(L3770380603L
L0L
(lp1226
(lp1227
tp1228
a(L2654201950L
L2147981551L
(lp1229
(lp1230
Vesp_log_early_timestamp
p1231
atp1232
a(L4207910112L
L1443213481L
(lp1233
(lp1234
tp1235
a(L1610445075L
L0L
(lp1236
(lp1237
tp1238
a(L735741265L
L0L
(lp1239
(lp1240
tp1241
a(L3291333414L
L0L
(lp1242
(lp1243
tp1244
a(L416217162L
L2147981551L
(lp1245
(lp1246
Vesp_log_early_timestamp
p1247
atp1248
a(L3283691850L
L0L
(lp1249
(lp1250
tp1251
a(L212182276L
L3187408090L
(lp1252
(lp1253
Vesp_log_early_timestamp
p1254
atp1255
a(L3212356251L
L3785322319L
(lp1256
(lp1257
Vbootloader_flash_unlock
p1258
atp1259
a(L1799218633L
L0L
(lp1260
(lp1261
tp1262
a(L94425498L
L3785322319L
(lp1263
(lp1264
Vesp_rom_spiflash_write_encrypted
p1265
atp1266
a(L2927190544L
L3785322319L
(lp1267
(lp1268
Vspi_to_esp_err
p1269
atp1270
a(L2927190544L
L3785322319L
(lp1271
(lp1272
Vesp_rom_spiflash_write
p1273
atp1274
atp1275
sI1074236740
(Vefuse_hal_chip_revision
p1276
(lp1277
(L2719302832L
L1880226080L
(lp1278
(lp1279
Vefuse_hal_get_major_chip_version
p1280
aVefuse_hal_get_minor_chip_version
p1281
atp1282
atp1283
sI1074248260
(Vesp_rom_spiflash_read
p1284
(lp1285
(L1499485309L
L1690040256L
(lp1286
(lp1287
tp1288
a(L3114780042L
L1679261929L
(lp1289
(lp1290
tp1291
a(L2860271684L
L0L
(lp1292
(lp1293
tp1294
a(L1872504408L
L1443213481L
(lp1295
(lp1296
tp1297
a(L106L
L0L
(lp1298
(lp1299
tp1300
a(L633884026L
L0L
(lp1301
(lp1302
tp1303
a(L106L
L0L
(lp1304
(lp1305
tp1306
a(L1100272902L
L1443213481L
(lp1307
(lp1308
tp1309
a(L1372101025L
L1690040256L
(lp1310
(lp1311
tp1312
a(L974197278L
L2195759072L
(lp1313
(lp1314
tp1315
a(L336550648L
L0L
(lp1316
(lp1317
tp1318
a(L3167414617L
L1443213481L
(lp1319
(lp1320
tp1321
a(L106L
L0L
(lp1322
(lp1323
tp1324
a(L3138763340L
L362179215L
(lp1325
(lp1326
Vesp_rom_spiflash_wait_idle
p1327
atp1328
a(L3021737L
L0L
(lp1329
(lp1330
tp1331
a(L106L
L0L
(lp1332
(lp1333
tp1334
a(L1868280504L
L0L
(lp1335
(lp1336
tp1337
a(L106L
L0L
(lp1338
(lp1339
tp1340
a(L750281353L
L0L
(lp1341
(lp1342
tp1343
a(L3897437082L
L0L
(lp1344
(lp1345
tp1346
a(L4122060822L
L0L
(lp1347
(lp1348
tp1349
a(L483218220L
L1443213481L
(lp1350
(lp1351
tp1352
a(L2989032L
L0L
(lp1353
(lp1354
tp1355
a(L3819849625L
L0L
(lp1356
(lp1357
tp1358
a(L1082031446L
L2195759072L
(lp1359
(lp1360
tp1361
a(L1872504408L
L1443213481L
(lp1362
(lp1363
tp1364
a(L147213506L
L1443213481L
(lp1365
(lp1366
tp1367
a(L2062799182L
L2534110409L
(lp1368
(lp1369
tp1370
a(L2921907736L
L0L
(lp1371
(lp1372
tp1373
a(L3677617742L
L1443213481L
(lp1374
(lp1375
tp1376
a(L2483025066L
L1679261929L
(lp1377
(lp1378
tp1379
a(L2136664087L
L1443213481L
(lp1380
(lp1381
tp1382
a(L3000478599L
L2195759072L
(lp1383
(lp1384
tp1385
a(L3333707777L
L0L
(lp1386
(lp1387
tp1388
a(L3251955268L
L0L
(lp1389
(lp1390
tp1391
a(L3418540920L
L0L
(lp1392
(lp1393
tp1394
a(L4183823801L
L1443213481L
(lp1395
(lp1396
tp1397
a(L97689L
L0L
(lp1398
(lp1399
tp1400
a(L2258897019L
L0L
(lp1401
(lp1402
tp1403
a(L4014024819L
L0L
(lp1404
(lp1405
tp1406
a(L3621567083L
L0L
(lp1407
(lp1408
tp1409
atp1410
sI1074241856
(Vprocess_appended_hash_and_sig
p1411
(lp1412
(L1668084157L
L0L
(lp1413
(lp1414
tp1415
a(L2910371777L
L0L
(lp1416
(lp1417
tp1418
a(L4285188111L
L0L
(lp1419
(lp1420
tp1421
a(L1151175705L
L0L
(lp1422
(lp1423
tp1424
a(L97689L
L0L
(lp1425
(lp1426
tp1427
a(L2250231589L
L3187408090L
(lp1428
(lp1429
Vesp_log_early_timestamp
p1430
atp1431
a(L268651496L
L1443213481L
(lp1432
(lp1433
tp1434
a(L1464893571L
L3785322319L
(lp1435
(lp1436
Vbootloader_flash_read
p1437
atp1438
a(L735741265L
L0L
(lp1439
(lp1440
tp1441
atp1442
sI1074270020
(Vbootloader_console_init
p1443
(lp1444
(L3806010175L
L988378406L
(lp1445
(lp1446
Vesp_rom_uart_tx_wait_idle
p1447
aVrtc_clk_apb_freq_get
p1448
aVesp_rom_uart_set_clock_baudrate
p1449
atp1450
atp1451
sI1074248008
(Vesp_rom_spiflash_write
p1452
(lp1453
(L924384987L
L1679261929L
(lp1454
(lp1455
tp1456
a(L2258688483L
L0L
(lp1457
(lp1458
tp1459
a(L3360570486L
L0L
(lp1460
(lp1461
tp1462
a(L3368132847L
L0L
(lp1463
(lp1464
tp1465
a(L3106685981L
L0L
(lp1466
(lp1467
tp1468
a(L3488660639L
L3785322319L
(lp1469
(lp1470
Vesp_rom_spiflash_program_page_internal
p1471
atp1472
a(L3543402353L
L3785322319L
(lp1473
(lp1474
Vesp_rom_spiflash_program_page_internal
p1475
atp1476
a(L4222526342L
L0L
(lp1477
(lp1478
tp1479
a(L2004208511L
L0L
(lp1480
(lp1481
tp1482
a(L564470656L
L0L
(lp1483
(lp1484
tp1485
a(L441922648L
L3785322319L
(lp1486
(lp1487
Vesp_rom_spiflash_program_page_internal
p1488
atp1489
a(L2302069176L
L0L
(lp1490
(lp1491
tp1492
atp1493
sI1074245204
(Vrtc_clk_8m_enable
p1494
(lp1495
(L2359152383L
L2195759072L
(lp1496
(lp1497
tp1498
a(L2145669267L
L1443213481L
(lp1499
(lp1500
tp1501
a(L2151320156L
L0L
(lp1502
(lp1503
tp1504
a(L1262936142L
L1443213481L
(lp1505
(lp1506
tp1507
a(L3360570486L
L0L
(lp1508
(lp1509
tp1510
a(L1318267208L
L0L
(lp1511
(lp1512
tp1513
a(L1085208965L
L1443213481L
(lp1514
(lp1515
tp1516
atp1517
sI1074237012
(Vbootloader_common_ota_select_crc
p1518
(lp1519
(L2925798959L
L1443213481L
(lp1520
(lp1521
tp1522
atp1523
sI1074267728
(Vcall_start_cpu0
p1524
(lp1525
(L342432055L
L1443213481L
(lp1526
(lp1527
tp1528
a(L4207910112L
L1443213481L
(lp1529
(lp1530
tp1531
a(L3212347974L
L3785322319L
(lp1532
(lp1533
Vbootloader_init
p1534
atp1535
a(L94425498L
L3785322319L
(lp1536
(lp1537
Vbootloader_reset
p1538
atp1539
a(L1872507246L
L1443213481L
(lp1540
(lp1541
tp1542
a(L4207910112L
L1443213481L
(lp1543
(lp1544
tp1545
a(L356913563L
L2218577417L
(lp1546
(lp1547
Vmemset
p1548
aVbootloader_utility_load_partition_table
p1549
atp1550
a(L3014296803L
L3187408090L
(lp1551
(lp1552
Vesp_log_early_timestamp
p1553
atp1554
a(L405422123L
L3785322319L
(lp1555
(lp1556
Vbootloader_utility_get_selected_boot_partition
p1557
atp1558
a(L2025208509L
L242900614L
(lp1559
(lp1560
Vbootloader_utility_load_boot_image
p1561
atp1562
atp1563
sI1074244188
(Vwdt_hal_config_stage
p1564
(lp1565
(L331558507L
L0L
(lp1566
(lp1567
tp1568
a(L4279082939L
L0L
(lp1569
(lp1570
tp1571
a(L93674324L
L0L
(lp1572
(lp1573
tp1574
a(L2902417580L
L0L
(lp1575
(lp1576
tp1577
a(L1506709436L
L1443213481L
(lp1578
(lp1579
tp1580
a(L3020187L
L0L
(lp1581
(lp1582
tp1583
a(L94425498L
L3785322319L
(lp1584
(lp1585
Vabort
p1586
atp1587
a(L1999536000L
L1443213481L
(lp1588
(lp1589
tp1590
a(L3360570486L
L0L
(lp1591
(lp1592
tp1593
a(L2402105077L
L1443213481L
(lp1594
(lp1595
tp1596
a(L3297501927L
L1443213481L
(lp1597
(lp1598
tp1599
a(L4278159418L
L0L
(lp1600
(lp1601
tp1602
a(L93674324L
L0L
(lp1603
(lp1604
tp1605
a(L3020204L
L0L
(lp1606
(lp1607
tp1608
a(L2956541743L
L1443213481L
(lp1609
(lp1610
tp1611
a(L3020187L
L0L
(lp1612
(lp1613
tp1614
a(L106L
L0L
(lp1615
(lp1616
tp1617
a(L1473987957L
L1443213481L
(lp1618
(lp1619
tp1620
a(L927955509L
L1443213481L
(lp1621
(lp1622
tp1623
a(L3740367810L
L1443213481L
(lp1624
(lp1625
tp1626
atp1627
sI1074236764
(Vefuse_hal_flash_encryption_enabled
p1628
(lp1629
(L221474917L
L1443213481L
(lp1630
(lp1631
tp1632
a(L2910371777L
L0L
(lp1633
(lp1634
tp1635
a(L3360570486L
L0L
(lp1636
(lp1637
tp1638
a(L3016870L
L0L
(lp1639
(lp1640
tp1641
a(L3745038218L
L0L
(lp1642
(lp1643
tp1644
a(L957607403L
L0L
(lp1645
(lp1646
tp1647
atp1648
sI1074234712
(Vbootloader_common_get_chip_ver_pkg
p1649
(lp1650
(L3197874814L
L1443213481L
(lp1651
(lp1652
tp1653
atp1654
sI1074245976
(Vrtc_clk_cpu_freq_to_xtal
p1655
(lp1656
(L767415990L
L3785322319L
(lp1657
(lp1658
Vesp_rom_set_cpu_ticks_per_us
p1659
atp1660
a(L94425498L
L3785322319L
(lp1661
(lp1662
Vabort
p1663
atp1664
a(L749912951L
L671729222L
(lp1665
(lp1666
Vrtc_clk_apb_freq_update
p1667
atp1668
a(L2258867230L
L0L
(lp1669
(lp1670
tp1671
a(L1803595874L
L2195759072L
(lp1672
(lp1673
tp1674
atp1675
sI1074270056
(Vesp_cpu_configure_region_protection
p1676
(lp1677
(L3233924472L
L581251951L
(lp1678
(lp1679
Vmemcpy
p1680
atp1681
a(L180431425L
L3785322319L
(lp1682
(lp1683
Vmpu_hal_set_region_access
p1684
atp1685
a(L2537388152L
L3785322319L
(lp1686
(lp1687
Vmpu_hal_set_region_access
p1688
atp1689
atp1690
sI1074244704
(Vmmu_hal_unmap_all
p1691
(lp1692
(L3970138582L
L1443213481L
(lp1693
(lp1694
tp1695
a(L2010554219L
L0L
(lp1696
(lp1697
tp1698
a(L147213506L
L1443213481L
(lp1699
(lp1700
tp1701
a(L3212334523L
L0L
(lp1702
(lp1703
tp1704
a(L2010554219L
L0L
(lp1705
(lp1706
tp1707
a(L3360570486L
L0L
(lp1708
(lp1709
tp1710
atp1711
sI1074240876
(Vbootloader_console_deinit
p1712
(lp1713
(L1858531217L
L1443213481L
(lp1714
(lp1715
tp1716
atp1717
sI1074238316
(Vbootloader_random_disable
p1718
(lp1719
(L482324986L
L2935979744L
(lp1720
(lp1721
tp1722
atp1723
sI1074269796
(Vbootloader_config_wdt
p1724
(lp1725
(L3447475412L
L603716358L
(lp1726
(lp1727
Vwdt_hal_write_protect_disable
p1728
aVwdt_hal_set_flashboot_en
p1729
aVwdt_hal_write_protect_enable
p1730
aVwdt_hal_init
p1731
aVrtc_clk_slow_freq_get_hz
p1732
aVwdt_hal_write_protect_disable
p1733
aV__udivdi3
p1734
aVwdt_hal_config_stage
p1735
aVwdt_hal_enable
p1736
aVwdt_hal_write_protect_enable
p1737
aVwdt_hal_write_protect_disable
p1738
aVwdt_hal_set_flashboot_en
p1739
aVwdt_hal_write_protect_enable
p1740
atp1741
atp1742
sI1074237032
(Vbootloader_common_ota_select_valid
p1743
(lp1744
(L1563399710L
L3785322319L
(lp1745
(lp1746
Vbootloader_common_ota_select_invalid
p1747
atp1748
a(L3814720849L
L3785322319L
(lp1749
(lp1750
Vbootloader_common_ota_select_crc
p1751
atp1752
a(L3360570486L
L0L
(lp1753
(lp1754
tp1755
atp1756
sI1074241384
(Vverify_load_addresses
p1757
(lp1758
(L2764487219L
L0L
(lp1759
(lp1760
tp1761
a(L106L
L0L
(lp1762
(lp1763
tp1764
a(L97642L
L0L
(lp1765
(lp1766
tp1767
a(L1682572953L
L4032149094L
(lp1768
(lp1769
V__assert_func
p1770
atp1771
a(L371731316L
L2195759072L
(lp1772
(lp1773
tp1774
a(L106L
L0L
(lp1775
(lp1776
tp1777
a(L3747671351L
L2195759072L
(lp1778
(lp1779
tp1780
a(L106L
L0L
(lp1781
(lp1782
tp1783
a(L159211233L
L4171435875L
(lp1784
(lp1785
Vbootloader_util_regions_overlap
p1786
atp1787
a(L3369736729L
L581251951L
(lp1788
(lp1789
Vbootloader_util_regions_overlap
p1790
atp1791
a(L3028481L
L0L
(lp1792
(lp1793
tp1794
a(L129067213L
L242900614L
(lp1795
(lp1796
Vbootloader_util_regions_overlap
p1797
atp1798
a(L51970127L
L2534110409L
(lp1799
(lp1800
tp1801
a(L3212477138L
L1443213481L
(lp1802
(lp1803
tp1804
a(L1032381749L
L0L
(lp1805
(lp1806
tp1807
a(L2837304413L
L0L
(lp1808
(lp1809
tp1810
a(L677569396L
L3785322319L
(lp1811
(lp1812
Vverify_load_addresses
p1813
atp1814
a(L1351513776L
L0L
(lp1815
(lp1816
tp1817
a(L956755582L
L0L
(lp1818
(lp1819
tp1820
a(L1550159667L
L1443213481L
(lp1821
(lp1822
tp1823
a(L2297907636L
L2195759072L
(lp1824
(lp1825
tp1826
a(L106L
L0L
(lp1827
(lp1828
tp1829
a(L1378880375L
L2195759072L
(lp1830
(lp1831
tp1832
a(L106L
L0L
(lp1833
(lp1834
tp1835
a(L1933245593L
L581251951L
(lp1836
(lp1837
Vbootloader_util_regions_overlap
p1838
atp1839
a(L3028481L
L0L
(lp1840
(lp1841
tp1842
a(L2219806806L
L581251951L
(lp1843
(lp1844
Vbootloader_util_regions_overlap
p1845
atp1846
a(L3186102034L
L1690040256L
(lp1847
(lp1848
tp1849
a(L1284972329L
L1443213481L
(lp1850
(lp1851
tp1852
a(L3236457224L
L1443213481L
(lp1853
(lp1854
tp1855
a(L2743341656L
L0L
(lp1856
(lp1857
tp1858
a(L182882711L
L0L
(lp1859
(lp1860
tp1861
a(L2268367078L
L2195759072L
(lp1862
(lp1863
tp1864
a(L297163306L
L0L
(lp1865
(lp1866
tp1867
a(L1900059593L
L0L
(lp1868
(lp1869
tp1870
a(L376010266L
L2534110409L
(lp1871
(lp1872
tp1873
a(L1319531632L
L1443213481L
(lp1874
(lp1875
tp1876
a(L3929371936L
L0L
(lp1877
(lp1878
tp1879
a(L147213506L
L1443213481L
(lp1880
(lp1881
tp1882
a(L4072848040L
L0L
(lp1883
(lp1884
tp1885
a(L106L
L0L
(lp1886
(lp1887
tp1888
a(L268651496L
L1443213481L
(lp1889
(lp1890
tp1891
a(L147213506L
L1443213481L
(lp1892
(lp1893
tp1894
a(L3020204L
L0L
(lp1895
(lp1896
tp1897
a(L885671544L
L2275292552L
(lp1898
(lp1899
Vesp_log_early_timestamp
p1900
atp1901
a(L1303560396L
L0L
(lp1902
(lp1903
tp1904
a(L268651496L
L1443213481L
(lp1905
(lp1906
tp1907
a(L1303560427L
L0L
(lp1908
(lp1909
tp1910
atp1911
sI1074241140
(Vprocess_image_header
p1912
(lp1913
(L3301900732L
L2218577417L
(lp1914
(lp1915
Vmemset
p1916
aVbootloader_flash_read
p1917
atp1918
a(L3020204L
L0L
(lp1919
(lp1920
tp1921
a(L4205021202L
L0L
(lp1922
(lp1923
tp1924
a(L321261932L
L0L
(lp1925
(lp1926
tp1927
a(L1161397362L
L3785322319L
(lp1928
(lp1929
Vbootloader_sha256_start
p1930
atp1931
a(L2062774299L
L3785322319L
(lp1932
(lp1933
Vbootloader_sha256_data
p1934
atp1935
a(L1291118193L
L0L
(lp1936
(lp1937
tp1938
a(L3028481L
L0L
(lp1939
(lp1940
tp1941
a(L559062533L
L3187408090L
(lp1942
(lp1943
Vesp_log_early_timestamp
p1944
atp1945
a(L147213506L
L1443213481L
(lp1946
(lp1947
tp1948
a(L2983970029L
L0L
(lp1949
(lp1950
tp1951
a(L4235213884L
L3785322319L
(lp1952
(lp1953
Vbootloader_common_check_chip_validity
p1954
atp1955
a(L4144303915L
L0L
(lp1956
(lp1957
tp1958
a(L3028481L
L0L
(lp1959
(lp1960
tp1961
a(L3714328738L
L3187408090L
(lp1962
(lp1963
Vesp_log_early_timestamp
p1964
atp1965
a(L2852701393L
L0L
(lp1966
(lp1967
tp1968
a(L2122516551L
L0L
(lp1969
(lp1970
tp1971
a(L3064492592L
L0L
(lp1972
(lp1973
tp1974
atp1975
sI1074246772
(Vrtc_clk_apb_freq_get
p1976
(lp1977
(L189810653L
L1679261929L
(lp1978
(lp1979
tp1980
atp1981
sI1074235248
(Vbootloader_execute_flash_command
p1982
(lp1983
(L2481595632L
L3785322319L
(lp1984
(lp1985
Vbootloader_flash_execute_command_common
p1986
atp1987
atp1988
sI1074247280
(Vrtc_clk_cal_ratio
p1989
(lp1990
(L3870710856L
L195123093L
(lp1991
(lp1992
Vrtc_clk_cal_internal
p1993
aV__udivdi3
p1994
atp1995
atp1996
sI1074240892
(V__assert_func
p1997
(lp1998
(L3115292802L
L2195759072L
(lp1999
(lp2000
tp2001
a(L106L
L0L
(lp2002
(lp2003
tp2004
atp2005
sI1074238844
(Vtry_load_partition
p2006
(lp2007
(L1263750142L
L0L
(lp2008
(lp2009
tp2010
a(L2258688482L
L0L
(lp2011
(lp2012
tp2013
a(L3360570486L
L0L
(lp2014
(lp2015
tp2016
a(L530241438L
L3785322319L
(lp2017
(lp2018
Vbootloader_load_image
p2019
atp2020
a(L4168266278L
L3187408090L
(lp2021
(lp2022
Vesp_log_early_timestamp
p2023
atp2024
atp2025
sI1074237308
(Vbootloader_common_get_active_otadata
p2026
(lp2027
(L3317503532L
L0L
(lp2028
(lp2029
tp2030
a(L2503049265L
L1832448559L
(lp2031
(lp2032
Vbootloader_common_ota_select_valid
p2033
aVbootloader_common_ota_select_valid
p2034
aVbootloader_common_select_otadata
p2035
atp2036
a(L735741265L
L0L
(lp2037
(lp2038
tp2039
atp2040
sI1074234744
(Vesp_flash_encryption_enabled
p2041
(lp2042
(L376617603L
L3785322319L
(lp2043
(lp2044
Vefuse_hal_flash_encryption_enabled
p2045
atp2046
atp2047
sI1074245496
(Vrtc_clk_slow_src_get
p2048
(lp2049
(L1566794270L
L1443213481L
(lp2050
(lp2051
tp2052
a(L3020187L
L0L
(lp2053
(lp2054
tp2055
a(L2902417580L
L0L
(lp2056
(lp2057
tp2058
a(L2258688485L
L0L
(lp2059
(lp2060
tp2061
a(L3360570486L
L0L
(lp2062
(lp2063
tp2064
atp2065
sI1074239876
(Vbootloader_utility_get_selected_boot_partition
p2066
(lp2067
(L2938832293L
L0L
(lp2068
(lp2069
tp2070
a(L2250662613L
L1443213481L
(lp2071
(lp2072
tp2073
a(L3987062097L
L2147981551L
(lp2074
(lp2075
Vesp_log_early_timestamp
p2076
atp2077
a(L558289164L
L1443213481L
(lp2078
(lp2079
tp2080
a(L3360570486L
L0L
(lp2081
(lp2082
tp2083
a(L3118387733L
L3785322319L
(lp2084
(lp2085
Vbootloader_mmap
p2086
atp2087
a(L3080008394L
L2147981551L
(lp2088
(lp2089
Vesp_log_early_timestamp
p2090
atp2091
a(L937961821L
L2410515468L
(lp2092
(lp2093
Vmemcpy
p2094
aVmemcpy
p2095
aVbootloader_munmap
p2096
aVbootloader_common_ota_select_invalid
p2097
atp2098
a(L2911028409L
L0L
(lp2099
(lp2100
tp2101
a(L726754926L
L3785322319L
(lp2102
(lp2103
Vbootloader_common_get_active_otadata
p2104
atp2105
a(L106L
L0L
(lp2106
(lp2107
tp2108
a(L4179097382L
L0L
(lp2109
(lp2110
tp2111
a(L788494392L
L3785322319L
(lp2112
(lp2113
Vbootloader_common_ota_select_invalid
p2114
atp2115
a(L638952356L
L1443213481L
(lp2116
(lp2117
tp2118
a(L1522345576L
L3833084538L
(lp2119
(lp2120
Vesp_log_early_timestamp
p2121
atp2122
a(L4207910112L
L1443213481L
(lp2123
(lp2124
tp2125
a(L1641201884L
L0L
(lp2126
(lp2127
tp2128
a(L3196944801L
L2147981551L
(lp2129
(lp2130
Vesp_log_early_timestamp
p2131
atp2132
a(L2302032704L
L0L
(lp2133
(lp2134
tp2135
a(L1173788779L
L3785322319L
(lp2136
(lp2137
Vbootloader_common_ota_select_crc
p2138
atp2139
a(L178397698L
L1443213481L
(lp2140
(lp2141
tp2142
a(L1324800084L
L3785322319L
(lp2143
(lp2144
Vbootloader_common_ota_select_crc
p2145
atp2146
a(L1299866312L
L0L
(lp2147
(lp2148
tp2149
a(L2704362655L
L1443213481L
(lp2150
(lp2151
tp2152
a(L344024800L
L3833084538L
(lp2153
(lp2154
Vesp_log_early_timestamp
p2155
atp2156
a(L1194215008L
L3833084538L
(lp2157
(lp2158
Vesp_log_early_timestamp
p2159
atp2160
atp2161
sI1074236804
(Vefuse_hal_get_major_chip_version
p2162
(lp2163
(L1572156932L
L2195759072L
(lp2164
(lp2165
tp2166
a(L894792960L
L0L
(lp2167
(lp2168
tp2169
a(L724635033L
L0L
(lp2170
(lp2171
tp2172
a(L3360570486L
L0L
(lp2173
(lp2174
tp2175
atp2176
sI1074234756
(Vbootloader_flash_execute_command_common
p2177
(lp2178
(L1988465817L
L0L
(lp2179
(lp2180
tp2181
a(L2946944720L
L2195759072L
(lp2182
(lp2183
tp2184
a(L2213948952L
L242900614L
(lp2185
(lp2186
V__assert_func
p2187
atp2188
a(L3021749L
L0L
(lp2189
(lp2190
tp2191
a(L1160973241L
L2195759072L
(lp2192
(lp2193
tp2194
a(L2792673601L
L1679261929L
(lp2195
(lp2196
tp2197
a(L3792188146L
L0L
(lp2198
(lp2199
tp2200
a(L4024113366L
L0L
(lp2201
(lp2202
tp2203
a(L3275299125L
L1443213481L
(lp2204
(lp2205
tp2206
a(L2232084959L
L2534110409L
(lp2207
(lp2208
tp2209
a(L1099389923L
L0L
(lp2210
(lp2211
tp2212
a(L857553440L
L2195759072L
(lp2213
(lp2214
tp2215
a(L3877681344L
L0L
(lp2216
(lp2217
tp2218
a(L73134175L
L1443213481L
(lp2219
(lp2220
tp2221
a(L1270255739L
L0L
(lp2222
(lp2223
tp2224
a(L3691039583L
L0L
(lp2225
(lp2226
tp2227
a(L3411317116L
L0L
(lp2228
(lp2229
tp2230
a(L3360570486L
L0L
(lp2231
(lp2232
tp2233
atp2234
sI1074245764
(Vrtc_clk_cpu_freq_get_config
p2235
(lp2236
(L4245581454L
L1443213481L
(lp2237
(lp2238
tp2239
a(L3020187L
L0L
(lp2240
(lp2241
tp2242
a(L3020187L
L0L
(lp2243
(lp2244
tp2245
a(L2734221335L
L242900614L
(lp2246
(lp2247
Vrtc_clk_xtal_freq_get
p2248
atp2249
a(L3789795478L
L0L
(lp2250
(lp2251
tp2252
a(L672805395L
L2704288053L
(lp2253
(lp2254
Vesp_log_early_timestamp
p2255
aVabort
p2256
atp2257
a(L3849169076L
L1443213481L
(lp2258
(lp2259
tp2260
a(L3020187L
L0L
(lp2261
(lp2262
tp2263
a(L3028481L
L0L
(lp2264
(lp2265
tp2266
a(L38508693L
L0L
(lp2267
(lp2268
tp2269
a(L187152368L
L0L
(lp2270
(lp2271
tp2272
a(L1161083655L
L0L
(lp2273
(lp2274
tp2275
a(L1395485899L
L0L
(lp2276
(lp2277
tp2278
a(L2070600034L
L0L
(lp2279
(lp2280
tp2281
atp2282
sI1074237068
(Vbootloader_common_check_chip_validity
p2283
(lp2284
(L2080115690L
L0L
(lp2285
(lp2286
tp2287
a(L3255759481L
L3187408090L
(lp2288
(lp2289
Vesp_log_early_timestamp
p2290
atp2291
a(L1299867982L
L0L
(lp2292
(lp2293
tp2294
a(L3360570486L
L0L
(lp2295
(lp2296
tp2297
a(L521940037L
L3785322319L
(lp2298
(lp2299
Vefuse_hal_chip_revision
p2300
atp2301
a(L332291457L
L1443213481L
(lp2302
(lp2303
tp2304
a(L780168284L
L362179215L
(lp2305
(lp2306
Vesp_log_early_timestamp
p2307
atp2308
a(L3028464L
L0L
(lp2309
(lp2310
tp2311
a(L573448730L
L0L
(lp2312
(lp2313
tp2314
a(L106L
L0L
(lp2315
(lp2316
tp2317
a(L3027019L
L0L
(lp2318
(lp2319
tp2320
a(L106L
L0L
(lp2321
(lp2322
tp2323
a(L3212356251L
L3785322319L
(lp2324
(lp2325
Vefuse_hal_get_disable_wafer_version_major
p2326
atp2327
a(L2465410698L
L362179215L
(lp2328
(lp2329
Vesp_log_early_timestamp
p2330
atp2331
atp2332
sI1074270104
(Vrtc_clk_xtal_freq_estimate
p2333
(lp2334
(L1823831978L
L1880226080L
(lp2335
(lp2336
Vrtc_clk_8m_enabled
p2337
aVrtc_clk_8md256_enabled
p2338
atp2339
a(L2449794434L
L3785322319L
(lp2340
(lp2341
Vrtc_clk_8m_enable
p2342
atp2343
a(L3726876033L
L2704288053L
(lp2344
(lp2345
Vrtc_clk_cal_ratio
p2346
aV__udivdi3
p2347
atp2348
a(L3934977694L
L0L
(lp2349
(lp2350
tp2351
a(L3955289886L
L0L
(lp2352
(lp2353
tp2354
a(L2553207239L
L3187408090L
(lp2355
(lp2356
Vesp_log_early_timestamp
p2357
atp2358
a(L2307427870L
L0L
(lp2359
(lp2360
tp2361
a(L1281346514L
L3785322319L
(lp2362
(lp2363
Vrtc_clk_8m_enable
p2364
atp2365
a(L3909119106L
L0L
(lp2366
(lp2367
tp2368
a(L2298857999L
L3187408090L
(lp2369
(lp2370
Vesp_log_early_timestamp
p2371
atp2372
a(L3304487880L
L0L
(lp2373
(lp2374
tp2375
a(L1641150486L
L0L
(lp2376
(lp2377
tp2378
a(L2026357443L
L3187408090L
(lp2379
(lp2380
Vesp_log_early_timestamp
p2381
atp2382
atp2383
sI1074240916
(Vabort
p2384
(lp2385
(L2564459292L
L1690040256L
(lp2386
(lp2387
tp2388
a(L409471316L
L0L
(lp2389
(lp2390
tp2391
a(L106L
L0L
(lp2392
(lp2393
tp2394
atp2395
sI1074245524
(Vrtc_clk_slow_freq_get_hz
p2396
(lp2397
(L1826267122L
L3785322319L
(lp2398
(lp2399
Vrtc_clk_slow_src_get
p2400
atp2401
a(L1872507229L
L1443213481L
(lp2402
(lp2403
tp2404
a(L2221201615L
L1443213481L
(lp2405
(lp2406
tp2407
a(L3360570486L
L0L
(lp2408
(lp2409
tp2410
atp2411
sI1074268060
(Vbootloader_init
p2412
(lp2413
(L2778985116L
L362179215L
(lp2414
(lp2415
Vbootloader_init_mem
p2416
atp2417
a(L2588916198L
L2195759072L
(lp2418
(lp2419
tp2420
a(L2569579240L
L242900614L
(lp2421
(lp2422
V__assert_func
p2423
atp2424
a(L2041988382L
L2534110409L
(lp2425
(lp2426
tp2427
a(L2946990947L
L2195759072L
(lp2428
(lp2429
tp2430
a(L3813782018L
L0L
(lp2431
(lp2432
tp2433
a(L2946991009L
L2195759072L
(lp2434
(lp2435
tp2436
a(L3027019L
L0L
(lp2437
(lp2438
tp2439
a(L2946991040L
L2195759072L
(lp2440
(lp2441
tp2442
a(L4055793689L
L1832448559L
(lp2443
(lp2444
Vbootloader_clear_bss_section
p2445
aVbootloader_common_vddsdio_configure
p2446
aVbootloader_clock_get_rated_freq_mhz
p2447
atp2448
a(L106L
L0L
(lp2449
(lp2450
tp2451
a(L1943573098L
L2769615034L
(lp2452
(lp2453
Vbootloader_clock_configure
p2454
aVbootloader_console_init
p2455
aVbootloader_print_banner
p2456
aVbootloader_flash_update_id
p2457
aVbootloader_flash_xmc_startup
p2458
atp2459
a(L3014296803L
L3187408090L
(lp2460
(lp2461
Vesp_log_early_timestamp
p2462
atp2463
a(L4245842452L
L3187408090L
(lp2464
(lp2465
Vesp_log_early_timestamp
p2466
atp2467
a(L3360570486L
L0L
(lp2468
(lp2469
tp2470
a(L2444883382L
L3785322319L
(lp2471
(lp2472
Vbootloader_read_bootloader_header
p2473
atp2474
a(L2444883382L
L3785322319L
(lp2475
(lp2476
Vbootloader_check_bootloader_validity
p2477
atp2478
a(L2444883382L
L3785322319L
(lp2479
(lp2480
Vbootloader_init_spi_flash
p2481
atp2482
a(L1947007263L
L2195759072L
(lp2483
(lp2484
tp2485
a(L254817508L
L0L
(lp2486
(lp2487
tp2488
a(L93892250L
L0L
(lp2489
(lp2490
tp2491
a(L2915015718L
L0L
(lp2492
(lp2493
tp2494
a(L1460895057L
L2218577417L
(lp2495
(lp2496
Vbootloader_config_wdt
p2497
aVbootloader_enable_random
p2498
atp2499
a(L1895147938L
L0L
(lp2500
(lp2501
tp2502
a(L2680457259L
L0L
(lp2503
(lp2504
tp2505
a(L3027019L
L0L
(lp2506
(lp2507
tp2508
a(L97315L
L0L
(lp2509
(lp2510
tp2511
a(L3014296803L
L3187408090L
(lp2512
(lp2513
Vesp_log_early_timestamp
p2514
atp2515
a(L1766563386L
L3187408090L
(lp2516
(lp2517
Vesp_log_early_timestamp
p2518
atp2519
a(L3164960223L
L0L
(lp2520
(lp2521
tp2522
a(L1895147938L
L0L
(lp2523
(lp2524
tp2525
a(L156585483L
L1880226080L
(lp2526
(lp2527
Vwdt_reset_info_dump
p2528
aVwdt_reset_info_dump
p2529
atp2530
atp2531
sI1074268572
(Vbootloader_common_vddsdio_configure
p2532
(lp2533
(L1829974089L
L3785322319L
(lp2534
(lp2535
Vrtc_vddsdio_get_config
p2536
atp2537
a(L351649043L
L3833084538L
(lp2538
(lp2539
Vrtc_vddsdio_set_config
p2540
atp2541
a(L3360570486L
L0L
(lp2542
(lp2543
tp2544
atp2545
sI1074270876
(Vrtc_vddsdio_set_config
p2546
(lp2547
(L3557742407L
L1443213481L
(lp2548
(lp2549
tp2550
atp2551
sI1074244752
(Vefuse_hal_get_rated_freq_mhz
p2552
(lp2553
(L1158870592L
L1443213481L
(lp2554
(lp2555
tp2556
a(L338960367L
L0L
(lp2557
(lp2558
tp2559
a(L3360570486L
L0L
(lp2560
(lp2561
tp2562
atp2563
sI1074235280
(Vbootloader_flash_unlock
p2564
(lp2565
(L1368360454L
L242900614L
(lp2566
(lp2567
Vesp_rom_spiflash_wait_idle
p2568
atp2569
a(L1574074940L
L0L
(lp2570
(lp2571
tp2572
a(L1667462067L
L3785322319L
(lp2573
(lp2574
Vbootloader_execute_flash_command
p2575
atp2576
a(L106L
L0L
(lp2577
(lp2578
tp2579
a(L1013678540L
L0L
(lp2580
(lp2581
tp2582
a(L2529045083L
L0L
(lp2583
(lp2584
tp2585
a(L990750093L
L1832448559L
(lp2586
(lp2587
Vesp_rom_spiflash_wait_idle
p2588
aVbootloader_execute_flash_command
p2589
aVbootloader_execute_flash_command
p2590
atp2591
a(L993671302L
L1832448559L
(lp2592
(lp2593
Vesp_rom_spiflash_wait_idle
p2594
aVbootloader_execute_flash_command
p2595
aVbootloader_execute_flash_command
p2596
atp2597
a(L1209048744L
L1880226080L
(lp2598
(lp2599
Vesp_rom_spiflash_wait_idle
p2600
aVbootloader_execute_flash_command
p2601
atp2602
a(L3162775668L
L0L
(lp2603
(lp2604
tp2605
a(L2435612105L
L0L
(lp2606
(lp2607
tp2608
a(L3664359624L
L0L
(lp2609
(lp2610
tp2611
a(L2074930120L
L1880226080L
(lp2612
(lp2613
Vbootloader_execute_flash_command
p2614
aVbootloader_execute_flash_command
p2615
atp2616
a(L2125014318L
L0L
(lp2617
(lp2618
tp2619
a(L568821667L
L0L
(lp2620
(lp2621
tp2622
a(L1711531685L
L1880226080L
(lp2623
(lp2624
Vbootloader_execute_flash_command
p2625
aVbootloader_execute_flash_command
p2626
atp2627
a(L3658700047L
L0L
(lp2628
(lp2629
tp2630
a(L3269997774L
L0L
(lp2631
(lp2632
tp2633
a(L106L
L0L
(lp2634
(lp2635
tp2636
a(L2993202392L
L0L
(lp2637
(lp2638
tp2639
atp2640
sI1074236560
(Vesp_rom_set_cpu_ticks_per_us
p2641
(lp2642
(L396058732L
L2195759072L
(lp2643
(lp2644
tp2645
atp2646
sI1074247312
(Vrtc_clk_wait_for_slow_cycle
p2647
(lp2648
(L2844697221L
L2624587680L
(lp2649
(lp2650
tp2651
a(L287687718L
L0L
(lp2652
(lp2653
tp2654
a(L3360570486L
L0L
(lp2655
(lp2656
tp2657
a(L3843203427L
L1443213481L
(lp2658
(lp2659
tp2660
a(L1300789833L
L0L
(lp2661
(lp2662
tp2663
a(L1259765481L
L0L
(lp2664
(lp2665
tp2666
a(L17340776L
L1443213481L
(lp2667
(lp2668
tp2669
a(L329680227L
L3187408090L
(lp2670
(lp2671
Vesp_log_early_timestamp
p2672
atp2673
atp2674
sI1074244504
(Vwdt_hal_write_protect_disable
p2675
(lp2676
(L3085072089L
L1443213481L
(lp2677
(lp2678
tp2679
a(L4195472003L
L0L
(lp2680
(lp2681
tp2682
a(L3360570486L
L0L
(lp2683
(lp2684
tp2685
a(L1210571996L
L0L
(lp2686
(lp2687
tp2688
atp2689
sI1074241944
(Vshould_load
p2690
(lp2691
(L4190720747L
L2534110409L
(lp2692
(lp2693
tp2694
a(L1182990556L
L0L
(lp2695
(lp2696
tp2697
a(L1744532171L
L1443213481L
(lp2698
(lp2699
tp2700
a(L2306467100L
L0L
(lp2701
(lp2702
tp2703
a(L4034276159L
L1443213481L
(lp2704
(lp2705
tp2706
a(L2258897019L
L0L
(lp2707
(lp2708
tp2709
a(L3781799363L
L0L
(lp2710
(lp2711
tp2712
a(L3028464L
L0L
(lp2713
(lp2714
tp2715
a(L166133047L
L2195759072L
(lp2716
(lp2717
tp2718
a(L4277114872L
L0L
(lp2719
(lp2720
tp2721
a(L2824381917L
L0L
(lp2722
(lp2723
tp2724
a(L1243412227L
L0L
(lp2725
(lp2726
tp2727
a(L2011157548L
L0L
(lp2728
(lp2729
tp2730
a(L3126521138L
L0L
(lp2731
(lp2732
tp2733
a(L1305407438L
L0L
(lp2734
(lp2735
tp2736
a(L1305407469L
L0L
(lp2737
(lp2738
tp2739
atp2740
sI1074247576
(Vesp_rom_spiflash_wait_idle
p2741
(lp2742
(L1698121947L
L1443213481L
(lp2743
(lp2744
tp2745
a(L2023766174L
L0L
(lp2746
(lp2747
tp2748
a(L147213506L
L1443213481L
(lp2749
(lp2750
tp2751
a(L3086959262L
L0L
(lp2752
(lp2753
tp2754
a(L4161019926L
L3785322319L
(lp2755
(lp2756
Vesp_rom_spiflash_read_status
p2757
atp2758
atp2759
sI1074237348
(Vbootloader_common_ota_select_invalid
p2760
(lp2761
(L4027567199L
L0L
(lp2762
(lp2763
tp2764
a(L3397985842L
L0L
(lp2765
(lp2766
tp2767
a(L2258867228L
L0L
(lp2768
(lp2769
tp2770
a(L3785235668L
L0L
(lp2771
(lp2772
tp2773
atp2774
sI1074269356
(Vbootloader_flash_update_id
p2775
(lp2776
(L296988142L
L3833084538L
(lp2777
(lp2778
Vbootloader_read_flash_id
p2779
atp2780
atp2781
sI1074236576
(Vesp_rom_uart_tx_wait_idle
p2782
(lp2783
(L3110839460L
L2534110409L
(lp2784
(lp2785
tp2786
a(L1301079727L
L0L
(lp2787
(lp2788
tp2789
a(L597952197L
L0L
(lp2790
(lp2791
tp2792
a(L1971823332L
L0L
(lp2793
(lp2794
tp2795
a(L3055926844L
L0L
(lp2796
(lp2797
tp2798
a(L3360570486L
L0L
(lp2799
(lp2800
tp2801
a(L3694491048L
L0L
(lp2802
(lp2803
tp2804
a(L106L
L0L
(lp2805
(lp2806
tp2807
atp2808
sI1074239392
(Vset_actual_ota_seq
p2809
(lp2810
(L4094723830L
L0L
(lp2811
(lp2812
tp2813
a(L3504298995L
L2195759072L
(lp2814
(lp2815
tp2816
a(L3856681007L
L961634322L
(lp2817
(lp2818
Vmemset
p2819
aVbootloader_common_ota_select_crc
p2820
aVesp_flash_encryption_enabled
p2821
aVbootloader_flash_erase_sector
p2822
atp2823
a(L2768623893L
L3785322319L
(lp2824
(lp2825
Vbootloader_flash_write
p2826
atp2827
a(L3693339703L
L2147981551L
(lp2828
(lp2829
Vesp_log_early_timestamp
p2830
atp2831
a(L3903819434L
L2147981551L
(lp2832
(lp2833
Vesp_log_early_timestamp
p2834
atp2835
a(L3360570486L
L0L
(lp2836
(lp2837
tp2838
atp2839
sI1074246816
(Vrtc_clk_cal_internal
p2840
(lp2841
(L4103044880L
L1443213481L
(lp2842
(lp2843
tp2844
a(L3906046821L
L4032149094L
(lp2845
(lp2846
V__assert_func
p2847
atp2848
a(L3821006588L
L1443213481L
(lp2849
(lp2850
tp2851
a(L1673513644L
L0L
(lp2852
(lp2853
tp2854
a(L2719210992L
L4021370767L
(lp2855
(lp2856
Vrtc_clk_slow_src_get
p2857
atp2858
a(L3008910671L
L0L
(lp2859
(lp2860
tp2861
a(L97689L
L0L
(lp2862
(lp2863
tp2864
a(L1872507229L
L1443213481L
(lp2865
(lp2866
tp2867
a(L3028464L
L0L
(lp2868
(lp2869
tp2870
a(L3028481L
L0L
(lp2871
(lp2872
tp2873
a(L147213506L
L1443213481L
(lp2874
(lp2875
tp2876
a(L3455571058L
L1374507264L
(lp2877
(lp2878
V__udivdi3
p2879
aVrtc_clk_xtal_freq_get
p2880
atp2881
a(L2780079961L
L0L
(lp2882
(lp2883
tp2884
a(L4208562267L
L1443213481L
(lp2885
(lp2886
tp2887
a(L4114459891L
L3187408090L
(lp2888
(lp2889
Vesp_log_early_timestamp
p2890
atp2891
a(L2258688482L
L0L
(lp2892
(lp2893
tp2894
a(L3360570486L
L0L
(lp2895
(lp2896
tp2897
a(L3553505594L
L0L
(lp2898
(lp2899
tp2900
a(L403361192L
L0L
(lp2901
(lp2902
tp2903
a(L3243404432L
L3785322319L
(lp2904
(lp2905
Vrtc_clk_8m_enable
p2906
atp2907
a(L390546255L
L2195759072L
(lp2908
(lp2909
tp2910
a(L3586367509L
L1443213481L
(lp2911
(lp2912
tp2913
a(L2910371777L
L0L
(lp2914
(lp2915
tp2916
a(L2902417580L
L0L
(lp2917
(lp2918
tp2919
a(L3082259486L
L1443213481L
(lp2920
(lp2921
tp2922
a(L3020204L
L0L
(lp2923
(lp2924
tp2925
a(L603598685L
L1443213481L
(lp2926
(lp2927
tp2928
a(L3429540926L
L0L
(lp2929
(lp2930
tp2931
a(L3028464L
L0L
(lp2932
(lp2933
tp2934
a(L615477255L
L242900614L
(lp2935
(lp2936
Vrtc_clk_8m_enable
p2937
atp2938
atp2939
sI1074238892
(Vcache_ll_l1_enable_bus
p2940
(lp2941
(L318252209L
L1443213481L
(lp2942
(lp2943
tp2944
atp2945
sI1074240680
(Vbootloader_sha256_finish
p2946
(lp2947
(L4066096136L
L0L
(lp2948
(lp2949
tp2950
a(L1697654722L
L2195759072L
(lp2951
(lp2952
tp2953
a(L2213948952L
L242900614L
(lp2954
(lp2955
V__assert_func
p2956
atp2957
a(L3020204L
L0L
(lp2958
(lp2959
tp2960
a(L2888288470L
L2534110409L
(lp2961
(lp2962
tp2963
a(L2534656226L
L0L
(lp2964
(lp2965
tp2966
a(L2740629735L
L4171435875L
(lp2967
(lp2968
Vbootloader_sha256_data
p2969
atp2970
a(L2946948570L
L2195759072L
(lp2971
(lp2972
tp2973
a(L354914383L
L2790500905L
(lp2974
(lp2975
V__bswapsi2
p2976
aVbootloader_sha256_data
p2977
atp2978
a(L2946948756L
L2195759072L
(lp2979
(lp2980
tp2981
a(L657425439L
L0L
(lp2982
(lp2983
tp2984
a(L4173600236L
L1443213481L
(lp2985
(lp2986
tp2987
a(L657425439L
L0L
(lp2988
(lp2989
tp2990
a(L2046284480L
L2195759072L
(lp2991
(lp2992
tp2993
a(L3616504601L
L4171435875L
(lp2994
(lp2995
V__bswapsi2
p2996
atp2997
a(L3347778L
L0L
(lp2998
(lp2999
tp3000
a(L3360570486L
L0L
(lp3001
(lp3002
tp3003
atp3004
sI1074238632
(Vbootloader_clock_get_rated_freq_mhz
p3005
(lp3006
(L376617603L
L3785322319L
(lp3007
(lp3008
Vefuse_hal_get_rated_freq_mhz
p3009
atp3010
atp3011
sI1074238644
(Vlog_invalid_app_partition
p3012
(lp3013
(L2157385331L
L2195759072L
(lp3014
(lp3015
tp3016
a(L3028464L
L0L
(lp3017
(lp3018
tp3019
a(L1760520779L
L3833084538L
(lp3020
(lp3021
Vesp_log_early_timestamp
p3022
atp3023
a(L4207910112L
L1443213481L
(lp3024
(lp3025
tp3026
a(L3360570486L
L0L
(lp3027
(lp3028
tp3029
a(L3212513603L
L3833084538L
(lp3030
(lp3031
Vesp_log_early_timestamp
p3032
atp3033
a(L431938678L
L2147981551L
(lp3034
(lp3035
Vesp_log_early_timestamp
p3036
atp3037
atp3038
sI1074244788
(Vrtc_clk_32k_enable_common
p3039
(lp3040
(L2821256590L
L2195759072L
(lp3041
(lp3042
tp3043
a(L97422L
L0L
(lp3044
(lp3045
tp3046
a(L2218417248L
L0L
(lp3047
(lp3048
tp3049
a(L339634797L
L1443213481L
(lp3050
(lp3051
tp3052
a(L51458120L
L0L
(lp3053
(lp3054
tp3055
atp3056
sI1074267836
(Vwdt_reset_info_dump
p3057
(lp3058
(L4037458708L
L0L
(lp3059
(lp3060
tp3061
a(L2865144428L
L4200222560L
(lp3062
(lp3063
tp3064
a(L217258670L
L0L
(lp3065
(lp3066
tp3067
a(L1103285333L
L0L
(lp3068
(lp3069
tp3070
a(L3750088731L
L2147981551L
(lp3071
(lp3072
Vesp_log_early_timestamp
p3073
atp3074
a(L3245125974L
L1443213481L
(lp3075
(lp3076
tp3077
a(L2920131454L
L4200222560L
(lp3078
(lp3079
tp3080
a(L3355528239L
L2147981551L
(lp3081
(lp3082
Vesp_log_early_timestamp
p3083
atp3084
atp3085
sI1074268860
(Vbootloader_init_mem
p3086
(lp3087
(L1287383080L
L3785322319L
(lp3088
(lp3089
Vesp_cpu_configure_region_protection
p3090
atp3091
atp3092
sI1074269372
(Vbootloader_init_spi_flash
p3093
(lp3094
(L1876290435L
L1994585993L
(lp3095
(lp3096
Vbootloader_flash_gpio_config
p3097
aVbootloader_flash_dummy_config
p3098
aVbootloader_flash_cs_timing_config
p3099
aVbootloader_flash_unlock
p3100
atp3101
a(L499308289L
L1443213481L
(lp3102
(lp3103
tp3104
a(L1872507246L
L1443213481L
(lp3105
(lp3106
tp3107
a(L147213506L
L1443213481L
(lp3108
(lp3109
tp3110
a(L83726857L
L2426646996L
(lp3111
(lp3112
Vesp_log_early_timestamp
p3113
aVbootloader_flash_get_spi_mode
p3114
atp3115
a(L93674324L
L0L
(lp3116
(lp3117
tp3118
a(L4183135214L
L1443213481L
(lp3119
(lp3120
tp3121
a(L147213506L
L1443213481L
(lp3122
(lp3123
tp3124
a(L3875746660L
L362179215L
(lp3125
(lp3126
Vesp_log_early_timestamp
p3127
atp3128
a(L93674324L
L0L
(lp3129
(lp3130
tp3131
a(L4183135214L
L1443213481L
(lp3132
(lp3133
tp3134
a(L1872507229L
L1443213481L
(lp3135
(lp3136
tp3137
a(L268651496L
L1443213481L
(lp3138
(lp3139
tp3140
a(L1872507229L
L1443213481L
(lp3141
(lp3142
tp3143
a(L1872507229L
L1443213481L
(lp3144
(lp3145
tp3146
a(L268651496L
L1443213481L
(lp3147
(lp3148
tp3149
a(L1872515506L
L1443213481L
(lp3150
(lp3151
tp3152
a(L1005860105L
L3187408090L
(lp3153
(lp3154
Vesp_log_early_timestamp
p3155
atp3156
a(L93674324L
L0L
(lp3157
(lp3158
tp3159
a(L3422553167L
L0L
(lp3160
(lp3161
tp3162
a(L1707909459L
L0L
(lp3163
(lp3164
tp3165
a(L4101522284L
L0L
(lp3166
(lp3167
tp3168
a(L3944678822L
L2082837423L
(lp3169
(lp3170
Vbootloader_enable_wp
p3171
atp3172
a(L3907331784L
L0L
(lp3173
(lp3174
tp3175
atp3176
sI1074240176
(Vbootloader_reset
p3177
(lp3178
(L479276581L
L2147981551L
(lp3179
(lp3180
Vbootloader_console_deinit
p3181
atp3182
a(L106L
L0L
(lp3183
(lp3184
tp3185
atp3186
sI1074245552
(Vrtc_clk_fast_src_set
p3187
(lp3188
(L1089140614L
L1443213481L
(lp3189
(lp3190
tp3191
a(L3020187L
L0L
(lp3192
(lp3193
tp3194
a(L3827921190L
L3785322319L
(lp3195
(lp3196
Vabort
p3197
atp3198
a(L2578095160L
L1443213481L
(lp3199
(lp3200
tp3201
a(L4159388630L
L1443213481L
(lp3202
(lp3203
tp3204
a(L300459962L
L0L
(lp3205
(lp3206
tp3207
atp3208
sI1074235580
(Vbootloader_flash_read_sfdp
p3209
(lp3210
(L711701400L
L0L
(lp3211
(lp3212
tp3213
a(L17919673L
L4032149094L
(lp3214
(lp3215
V__assert_func
p3216
atp3217
a(L3704332455L
L3785322319L
(lp3218
(lp3219
Vbootloader_flash_execute_command_common
p3220
atp3221
atp3222
sI1074235832
(Vbootloader_flash_cs_timing_config
p3223
(lp3224
(L1222249594L
L1690040256L
(lp3225
(lp3226
tp3227
atp3228
sI1074240440
(Vindex_to_partition
p3229
(lp3230
(L4066096119L
L0L
(lp3231
(lp3232
tp3233
a(L1101255660L
L0L
(lp3234
(lp3235
tp3236
a(L1955702725L
L0L
(lp3237
(lp3238
tp3239
a(L3698927993L
L0L
(lp3240
(lp3241
tp3242
a(L2808906342L
L0L
(lp3243
(lp3244
tp3245
a(L4211744375L
L0L
(lp3246
(lp3247
tp3248
a(L3097778015L
L0L
(lp3249
(lp3250
tp3251
a(L1816235430L
L0L
(lp3252
(lp3253
tp3254
a(L2179185678L
L0L
(lp3255
(lp3256
tp3257
a(L3369319173L
L0L
(lp3258
(lp3259
tp3260
atp3261
sI1074244536
(Vwdt_hal_set_flashboot_en
p3262
(lp3263
(L2375320464L
L0L
(lp3264
(lp3265
tp3266
a(L3915867581L
L0L
(lp3267
(lp3268
tp3269
a(L3360570486L
L0L
(lp3270
(lp3271
tp3272
a(L3823116953L
L1443213481L
(lp3273
(lp3274
tp3275
atp3276
sI1074240964
(Vbootloader_ana_clock_glitch_reset_config
p3277
(lp3278
(L2100504542L
L0L
(lp3279
(lp3280
tp3281
atp3282
sI1074237376
(Vbootloader_common_select_otadata
p3283
(lp3284
(L4071767857L
L0L
(lp3285
(lp3286
tp3287
a(L1999329187L
L0L
(lp3288
(lp3289
tp3290
a(L3846398843L
L0L
(lp3291
(lp3292
tp3293
a(L2501968171L
L0L
(lp3294
(lp3295
tp3296
a(L3360570486L
L0L
(lp3297
(lp3298
tp3299
a(L2045232488L
L0L
(lp3300
(lp3301
tp3302
a(L1243525916L
L0L
(lp3303
(lp3304
tp3305
a(L3094144427L
L0L
(lp3306
(lp3307
tp3308
a(L2399509845L
L0L
(lp3309
(lp3310
tp3311
a(L1641201884L
L0L
(lp3312
(lp3313
tp3314
atp3315
sI1074247872
(Vesp_rom_spiflash_erase_sector
p3316
(lp3317
(L3892694408L
L1679261929L
(lp3318
(lp3319
tp3320
a(L2258688483L
L0L
(lp3321
(lp3322
tp3323
a(L3360570486L
L0L
(lp3324
(lp3325
tp3326
a(L3212356251L
L3785322319L
(lp3327
(lp3328
Vesp_rom_spiflash_enable_write
p3329
atp3330
a(L184152988L
L0L
(lp3331
(lp3332
tp3333
a(L1036552696L
L362179215L
(lp3334
(lp3335
Vesp_rom_spiflash_wait_idle
p3336
atp3337
a(L3333707777L
L0L
(lp3338
(lp3339
tp3340
a(L3582858798L
L3785322319L
(lp3341
(lp3342
Vesp_rom_spiflash_wait_idle
p3343
atp3344
atp3345
sI1074240972
(Vprocess_checksum
p3346
(lp3347
(L166193219L
L242900614L
(lp3348
(lp3349
Vmemset
p3350
atp3351
a(L3028481L
L0L
(lp3352
(lp3353
tp3354
a(L186886970L
L0L
(lp3355
(lp3356
tp3357
a(L2902417580L
L0L
(lp3358
(lp3359
tp3360
a(L3028481L
L0L
(lp3361
(lp3362
tp3363
a(L169792351L
L3187408090L
(lp3364
(lp3365
Vesp_log_early_timestamp
p3366
atp3367
a(L268651496L
L1443213481L
(lp3368
(lp3369
tp3370
a(L3236648107L
L3785322319L
(lp3371
(lp3372
Vbootloader_flash_read
p3373
atp3374
a(L735741265L
L0L
(lp3375
(lp3376
tp3377
a(L3020204L
L0L
(lp3378
(lp3379
tp3380
a(L2480703612L
L3785322319L
(lp3381
(lp3382
Vbootloader_sha256_data
p3383
atp3384
a(L3436105237L
L0L
(lp3385
(lp3386
tp3387
a(L106L
L0L
(lp3388
(lp3389
tp3390
atp3391
sI1074268868
(Vbootloader_random_enable
p3392
(lp3393
(L2397175084L
L664430240L
(lp3394
(lp3395
tp3396
atp3397
sI1074236872
(Vefuse_hal_get_minor_chip_version
p3398
(lp3399
(L2292056065L
L1443213481L
(lp3400
(lp3401
tp3402
atp3403
sI1074240200
(Vbootloader_utility_load_boot_image
p3404
(lp3405
(L421993435L
L242900614L
(lp3406
(lp3407
Vmemset
p3408
atp3409
a(L2177418995L
L3785322319L
(lp3410
(lp3411
Vtry_load_partition
p3412
atp3413
a(L1305243774L
L3785322319L
(lp3414
(lp3415
Vload_image
p3416
atp3417
a(L4114459891L
L3187408090L
(lp3418
(lp3419
Vesp_log_early_timestamp
p3420
atp3421
a(L3827921190L
L3785322319L
(lp3422
(lp3423
Vbootloader_reset
p3424
atp3425
a(L1953693036L
L3785322319L
(lp3426
(lp3427
Vindex_to_partition
p3428
atp3429
a(L1204373741L
L3785322319L
(lp3430
(lp3431
Vtry_load_partition
p3432
atp3433
a(L1899865696L
L0L
(lp3434
(lp3435
tp3436
a(L2695355117L
L3785322319L
(lp3437
(lp3438
Vset_actual_ota_seq
p3439
atp3440
a(L1868897605L
L3785322319L
(lp3441
(lp3442
Vlog_invalid_app_partition
p3443
atp3444
a(L831650730L
L0L
(lp3445
(lp3446
tp3447
a(L3021737L
L0L
(lp3448
(lp3449
tp3450
a(L695456438L
L0L
(lp3451
(lp3452
tp3453
a(L315114854L
L3833084538L
(lp3454
(lp3455
Vtry_load_partition
p3456
atp3457
a(L89447667L
L2147981551L
(lp3458
(lp3459
Vesp_log_early_timestamp
p3460
atp3461
a(L2347390157L
L3785322319L
(lp3462
(lp3463
Vindex_to_partition
p3464
atp3465
a(L1204373741L
L3785322319L
(lp3466
(lp3467
Vtry_load_partition
p3468
atp3469
a(L3061261803L
L0L
(lp3470
(lp3471
tp3472
a(L3582858798L
L3785322319L
(lp3473
(lp3474
Vlog_invalid_app_partition
p3475
atp3476
a(L3581752791L
L2704288053L
(lp3477
(lp3478
Vesp_log_early_timestamp
p3479
aVmemset
p3480
atp3481
atp3482
sI1074246088
(Vrtc_clk_cpu_freq_set_config
p3483
(lp3484
(L1040494747L
L3833084538L
(lp3485
(lp3486
Vrtc_clk_xtal_freq_get
p3487
atp3488
a(L2308773007L
L0L
(lp3489
(lp3490
tp3491
a(L3253451229L
L1880226080L
(lp3492
(lp3493
Vrtc_clk_cpu_freq_to_xtal
p3494
aVrtc_clk_wait_for_slow_cycle
p3495
atp3496
a(L2243645672L
L0L
(lp3497
(lp3498
tp3499
a(L4002786498L
L0L
(lp3500
(lp3501
tp3502
a(L2736411858L
L3785322319L
(lp3503
(lp3504
Vrtc_clk_cpu_freq_to_xtal
p3505
atp3506
a(L3360570486L
L0L
(lp3507
(lp3508
tp3509
a(L2755207760L
L1832448559L
(lp3510
(lp3511
Vrtc_clk_cpu_freq_to_xtal
p3512
aVrtc_clk_wait_for_slow_cycle
p3513
aVrtc_clk_bbpll_disable
p3514
atp3515
a(L3020187L
L0L
(lp3516
(lp3517
tp3518
a(L106L
L0L
(lp3519
(lp3520
tp3521
a(L2730236852L
L1156451872L
(lp3522
(lp3523
Vrtc_clk_wait_for_slow_cycle
p3524
aVrtc_clk_xtal_freq_get
p3525
atp3526
a(L106L
L0L
(lp3527
(lp3528
tp3529
a(L3776069396L
L1443213481L
(lp3530
(lp3531
tp3532
a(L83268611L
L0L
(lp3533
(lp3534
tp3535
a(L106L
L0L
(lp3536
(lp3537
tp3538
a(L82345090L
L0L
(lp3539
(lp3540
tp3541
a(L106L
L0L
(lp3542
(lp3543
tp3544
a(L2258718273L
L0L
(lp3545
(lp3546
tp3547
a(L3298883534L
L0L
(lp3548
(lp3549
tp3550
a(L3519990574L
L1443213481L
(lp3551
(lp3552
tp3553
a(L2508198718L
L1743007695L
(lp3554
(lp3555
Vrtc_clk_cpu_freq_to_pll_mhz
p3556
atp3557
a(L935233121L
L2534110409L
(lp3558
(lp3559
tp3560
a(L83268344L
L0L
(lp3561
(lp3562
tp3563
a(L82344823L
L0L
(lp3564
(lp3565
tp3566
a(L1569180676L
L0L
(lp3567
(lp3568
tp3569
a(L2258837488L
L0L
(lp3570
(lp3571
tp3572
a(L4233337962L
L1443213481L
(lp3573
(lp3574
tp3575
a(L1482311963L
L0L
(lp3576
(lp3577
tp3578
a(L133411965L
L0L
(lp3579
(lp3580
tp3581
a(L3673491036L
L0L
(lp3582
(lp3583
tp3584
a(L4197990447L
L0L
(lp3585
(lp3586
tp3587
a(L903154985L
L0L
(lp3588
(lp3589
tp3590
a(L3020187L
L0L
(lp3591
(lp3592
tp3593
a(L106L
L0L
(lp3594
(lp3595
tp3596
a(L1317698645L
L93324751L
(lp3597
(lp3598
Vesp_rom_set_cpu_ticks_per_us
p3599
atp3600
atp3601
sI1074247624
(Vesp_rom_spiflash_enable_write
p3602
(lp3603
(L2885777558L
L1303911398L
(lp3604
(lp3605
Vesp_rom_spiflash_wait_idle
p3606
atp3607
a(L3333707777L
L0L
(lp3608
(lp3609
tp3610
a(L2258688484L
L0L
(lp3611
(lp3612
tp3613
a(L99543895L
L0L
(lp3614
(lp3615
tp3616
a(L2993202392L
L0L
(lp3617
(lp3618
tp3619
a(L1265538927L
L242900614L
(lp3620
(lp3621
Vesp_rom_spiflash_read_status
p3622
atp3623
atp3624
sI1074245332
(Vrtc_clk_8m_enabled
p3625
(lp3626
(L563532105L
L1443213481L
(lp3627
(lp3628
tp3629
atp3630
sI1074269660
(Vbootloader_clear_bss_section
p3631
(lp3632
(L2193193874L
L4032149094L
(lp3633
(lp3634
Vmemset
p3635
atp3636
atp3637
sI1074238160
(Vbootloader_enable_wp
p3638
(lp3639
(L1117825804L
L3785322319L
(lp3640
(lp3641
Vbootloader_execute_flash_command
p3642
atp3643
atp3644
sI1074243292
(Vbootloader_load_image
p3645
(lp3646
(L1155870502L
L3785322319L
(lp3647
(lp3648
Vimage_load
p3649
atp3650
atp3651
sI1074245084
(Vrtc_clk_bbpll_disable
p3652
(lp3653
(L3512291683L
L1690040256L
(lp3654
(lp3655
tp3656
a(L2472207241L
L0L
(lp3657
(lp3658
tp3659
a(L3360570486L
L0L
(lp3660
(lp3661
tp3662
atp3663
sI1074268628
(Vbootloader_clock_configure
p3664
(lp3665
(L2559598596L
L1880226080L
(lp3666
(lp3667
Vesp_rom_uart_tx_wait_idle
p3668
aVefuse_hal_chip_revision
p3669
atp3670
a(L1757625900L
L1443213481L
(lp3671
(lp3672
tp3673
a(L741498227L
L1443213481L
(lp3674
(lp3675
tp3676
a(L106L
L0L
(lp3677
(lp3678
tp3679
a(L4228321918L
L1405109379L
(lp3680
(lp3681
Vrtc_clk_slow_src_get
p3682
aVrtc_clk_fast_src_get
p3683
aVrtc_clk_init
p3684
atp3685
a(L2538867838L
L2195759072L
(lp3686
(lp3687
tp3688
a(L1038013235L
L3833084538L
(lp3689
(lp3690
Vrtc_clk_apb_freq_get
p3691
atp3692
a(L106L
L0L
(lp3693
(lp3694
tp3695
a(L106L
L0L
(lp3696
(lp3697
tp3698
atp3699
sI1074236888
(Vesp_dport_access_reg_read
p3700
(lp3701
(L1099794772L
L0L
(lp3702
(lp3703
tp3704
atp3705
sI1074236900
(Vis_xmc_chip_strict
p3706
(lp3707
(L1286841609L
L0L
(lp3708
(lp3709
tp3710
a(L2234016759L
L0L
(lp3711
(lp3712
tp3713
a(L1069027148L
L0L
(lp3714
(lp3715
tp3716
a(L3021749L
L0L
(lp3717
(lp3718
tp3719
a(L1900148749L
L0L
(lp3720
(lp3721
tp3722
a(L1936875721L
L0L
(lp3723
(lp3724
tp3725
a(L3356166509L
L0L
(lp3726
(lp3727
tp3728
a(L1937769451L
L0L
(lp3729
(lp3730
tp3731
a(L2137658907L
L0L
(lp3732
(lp3733
tp3734
a(L4265949734L
L0L
(lp3735
(lp3736
tp3737
a(L3360570486L
L0L
(lp3738
(lp3739
tp3740
atp3741
sI1074238180
(Vbootloader_flash_get_spi_mode
p3742
(lp3743
(L1418320346L
L1443213481L
(lp3744
(lp3745
tp3746
a(L2046153171L
L0L
(lp3747
(lp3748
tp3749
a(L893866618L
L0L
(lp3750
(lp3751
tp3752
a(L894790139L
L0L
(lp3753
(lp3754
tp3755
a(L822032846L
L0L
(lp3756
(lp3757
tp3758
a(L3360570486L
L0L
(lp3759
(lp3760
tp3761
atp3762
sI1074238944
(Vcache_ll_l1_enable_bus
p3763
(lp3764
(L318252209L
L1443213481L
(lp3765
(lp3766
tp3767
atp3768
sI1074243308
(Vesp_partition_table_verify
p3769
(lp3770
(L44179228L
L1443213481L
(lp3771
(lp3772
tp3773
a(L3031150553L
L1443213481L
(lp3774
(lp3775
tp3776
a(L1184829782L
L0L
(lp3777
(lp3778
tp3779
a(L3020204L
L0L
(lp3780
(lp3781
tp3782
a(L26389654L
L3187408090L
(lp3783
(lp3784
Vesp_log_early_timestamp
p3785
atp3786
a(L1235012963L
L0L
(lp3787
(lp3788
tp3789
a(L3190337587L
L0L
(lp3790
(lp3791
tp3792
a(L2069928857L
L0L
(lp3793
(lp3794
tp3795
a(L2902417580L
L0L
(lp3796
(lp3797
tp3798
a(L2543114737L
L2147981551L
(lp3799
(lp3800
Vesp_log_early_timestamp
p3801
atp3802
a(L1715222413L
L1443213481L
(lp3803
(lp3804
tp3805
a(L3020204L
L0L
(lp3806
(lp3807
tp3808
a(L3020204L
L0L
(lp3809
(lp3810
tp3811
a(L1328961945L
L2147981551L
(lp3812
(lp3813
Vesp_log_early_timestamp
p3814
atp3815
a(L4207910112L
L1443213481L
(lp3816
(lp3817
tp3818
a(L1235012932L
L0L
(lp3819
(lp3820
tp3821
a(L458256366L
L4021370767L
(lp3822
(lp3823
Vmemcmp
p3824
atp3825
a(L3020204L
L0L
(lp3826
(lp3827
tp3828
a(L2543114737L
L2147981551L
(lp3829
(lp3830
Vesp_log_early_timestamp
p3831
atp3832
a(L1305407469L
L0L
(lp3833
(lp3834
tp3835
a(L1167861556L
L0L
(lp3836
(lp3837
tp3838
a(L818997085L
L0L
(lp3839
(lp3840
tp3841
a(L3360570486L
L0L
(lp3842
(lp3843
tp3844
a(L3020204L
L0L
(lp3845
(lp3846
tp3847
a(L3999534504L
L3187408090L
(lp3848
(lp3849
Vesp_log_early_timestamp
p3850
atp3851
atp3852
sI1074245356
(Vrtc_clk_8md256_enabled
p3853
(lp3854
(L4014027530L
L1443213481L
(lp3855
(lp3856
tp3857
atp3858
sI1074248172
(Vesp_rom_spiflash_write_encrypted
p3859
(lp3860
(L1944247967L
L0L
(lp3861
(lp3862
tp3863
a(L3825342292L
L1443213481L
(lp3864
(lp3865
tp3866
a(L97689L
L0L
(lp3867
(lp3868
tp3869
a(L3061232074L
L0L
(lp3870
(lp3871
tp3872
a(L1562911102L
L1443213481L
(lp3873
(lp3874
tp3875
a(L1309309703L
L3785322319L
(lp3876
(lp3877
Vesp_rom_spiflash_write
p3878
atp3879
a(L2269233063L
L1443213481L
(lp3880
(lp3881
tp3882
a(L735741265L
L0L
(lp3883
(lp3884
tp3885
atp3886
sI1074269924
(Vbootloader_enable_random
p3887
(lp3888
(L859804465L
L2704288053L
(lp3889
(lp3890
Vesp_log_early_timestamp
p3891
aVbootloader_random_enable
p3892
atp3893
atp3894
sI1074270948
(Vmpu_hal_set_region_access
p3895
(lp3896
(L3538356822L
L0L
(lp3897
(lp3898
tp3899
a(L93674324L
L0L
(lp3900
(lp3901
tp3902
a(L2910371777L
L0L
(lp3903
(lp3904
tp3905
a(L3472092938L
L0L
(lp3906
(lp3907
tp3908
a(L3020187L
L0L
(lp3909
(lp3910
tp3911
a(L3360570486L
L0L
(lp3912
(lp3913
tp3914
a(L2258718273L
L0L
(lp3915
(lp3916
tp3917
a(L3446648619L
L0L
(lp3918
(lp3919
tp3920
a(L3739532189L
L0L
(lp3921
(lp3922
tp3923
a(L1300789895L
L0L
(lp3924
(lp3925
tp3926
atp3927
sI1074236660
(Vesp_rom_uart_set_clock_baudrate
p3928
(lp3929
(L1471953879L
L1443213481L
(lp3930
(lp3931
tp3932
a(L1872515506L
L1443213481L
(lp3933
(lp3934
tp3935
a(L147213506L
L1443213481L
(lp3936
(lp3937
tp3938
a(L3104172142L
L1443213481L
(lp3939
(lp3940
tp3941
atp3942
sI1074235632
(Vbootloader_read_flash_id
p3943
(lp3944
(L549578328L
L3785322319L
(lp3945
(lp3946
Vbootloader_execute_flash_command
p3947
atp3948
atp3949
sI1074245616
(Vrtc_clk_fast_src_get
p3950
(lp3951
(L2217920473L
L1443213481L
(lp3952
(lp3953
tp3954
atp3955
sI1074237692
(Vbootloader_munmap
p3956
(lp3957
(L4096859803L
L2195759072L
(lp3958
(lp3959
tp3960
a(L4150885370L
L2624587680L
(lp3961
(lp3962
tp3963
a(L3360570486L
L0L
(lp3964
(lp3965
tp3966
atp3967
sI1074236412
(Vbootloader_flash_dummy_config
p3968
(lp3969
(L2633298977L
L1443213481L
(lp3970
(lp3971
tp3972
a(L2761717557L
L0L
(lp3973
(lp3974
tp3975
a(L1849044936L
L0L
(lp3976
(lp3977
tp3978
a(L2198646520L
L2195759072L
(lp3979
(lp3980
tp3981
a(L1857500547L
L1443213481L
(lp3982
(lp3983
tp3984
a(L3020204L
L0L
(lp3985
(lp3986
tp3987
a(L1610443405L
L0L
(lp3988
(lp3989
tp3990
a(L4032120524L
L0L
(lp3991
(lp3992
tp3993
a(L2336993863L
L0L
(lp3994
(lp3995
tp3996
a(L1298875775L
L0L
(lp3997
(lp3998
tp3999
a(L3880393601L
L0L
(lp4000
(lp4001
tp4002
a(L2272848587L
L1443213481L
(lp4003
(lp4004
tp4005
a(L1610443436L
L0L
(lp4006
(lp4007
tp4008
atp4009
sI1074242812
(Vimage_load
p4010
(lp4011
(L3048705773L
L0L
(lp4012
(lp4013
tp4014
a(L3463713141L
L0L
(lp4015
(lp4016
tp4017
a(L3309803581L
L0L
(lp4018
(lp4019
tp4020
a(L256049682L
L0L
(lp4021
(lp4022
tp4023
a(L1935188817L
L0L
(lp4024
(lp4025
tp4026
a(L3028481L
L0L
(lp4027
(lp4028
tp4029
a(L3021749L
L0L
(lp4030
(lp4031
tp4032
a(L106L
L0L
(lp4033
(lp4034
tp4035
a(L585264737L
L0L
(lp4036
(lp4037
tp4038
a(L1145291904L
L3785322319L
(lp4039
(lp4040
Vprocess_image_header
p4041
atp4042
a(L823859500L
L0L
(lp4043
(lp4044
tp4045
a(L3061291474L
L0L
(lp4046
(lp4047
tp4048
a(L4106474008L
L3785322319L
(lp4049
(lp4050
Vprocess_segments
p4051
atp4052
a(L3868840998L
L0L
(lp4053
(lp4054
tp4055
a(L2962085561L
L1443213481L
(lp4056
(lp4057
tp4058
a(L1827898452L
L3785322319L
(lp4059
(lp4060
Vprocess_checksum
p4061
atp4062
a(L2214715179L
L3785322319L
(lp4063
(lp4064
Vprocess_appended_hash_and_sig
p4065
atp4066
a(L3028481L
L0L
(lp4067
(lp4068
tp4069
a(L2902417580L
L0L
(lp4070
(lp4071
tp4072
a(L3285560995L
L3785322319L
(lp4073
(lp4074
Vbootloader_sha256_finish
p4075
atp4076
a(L3946560000L
L0L
(lp4077
(lp4078
tp4079
a(L93674324L
L0L
(lp4080
(lp4081
tp4082
a(L2674734805L
L2195759072L
(lp4083
(lp4084
tp4085
a(L1168805591L
L1443213481L
(lp4086
(lp4087
tp4088
a(L1179424413L
L0L
(lp4089
(lp4090
tp4091
a(L3928150917L
L0L
(lp4092
(lp4093
tp4094
a(L106L
L0L
(lp4095
(lp4096
tp4097
a(L3871473710L
L0L
(lp4098
(lp4099
tp4100
a(L3884726427L
L0L
(lp4101
(lp4102
tp4103
a(L106L
L0L
(lp4104
(lp4105
tp4106
a(L3020187L
L0L
(lp4107
(lp4108
tp4109
a(L1337906930L
L3187408090L
(lp4110
(lp4111
Vesp_log_early_timestamp
p4112
atp4113
a(L2868044067L
L0L
(lp4114
(lp4115
tp4116
a(L1179764900L
L0L
(lp4117
(lp4118
tp4119
a(L2332746046L
L3785322319L
(lp4120
(lp4121
Vbootloader_sha256_finish
p4122
atp4123
a(L3721568057L
L242900614L
(lp4124
(lp4125
Vmemset
p4126
atp4127
a(L3020204L
L0L
(lp4128
(lp4129
tp4130
a(L3039742375L
L1443213481L
(lp4131
(lp4132
tp4133
a(L106L
L0L
(lp4134
(lp4135
tp4136
a(L3307179591L
L2839326997L
(lp4137
(lp4138
Vmemset
p4139
aVbootloader_sha256_finish
p4140
aVbootloader_debug_buffer
p4141
aVmemcmp
p4142
atp4143
a(L3433271982L
L2266857161L
(lp4144
(lp4145
Vesp_log_early_timestamp
p4146
aVbootloader_debug_buffer
p4147
atp4148
a(L3741653406L
L3785322319L
(lp4149
(lp4150
Vshould_load
p4151
atp4152
a(L2764257181L
L0L
(lp4153
(lp4154
tp4155
a(L3338774213L
L0L
(lp4156
(lp4157
tp4158
a(L193456747L
L1443213481L
(lp4159
(lp4160
tp4161
a(L3349572949L
L0L
(lp4162
(lp4163
tp4164
a(L2192292519L
L0L
(lp4165
(lp4166
tp4167
a(L106L
L0L
(lp4168
(lp4169
tp4170
a(L1702191967L
L1443213481L
(lp4171
(lp4172
tp4173
a(L1299866312L
L0L
(lp4174
(lp4175
tp4176
a(L3010020263L
L0L
(lp4177
(lp4178
tp4179
atp4180
sI1074244604
(Vwdt_hal_write_protect_enable
p4181
(lp4182
(L387778158L
L0L
(lp4183
(lp4184
tp4185
a(L4195472003L
L0L
(lp4186
(lp4187
tp4188
a(L3360570486L
L0L
(lp4189
(lp4190
tp4191
a(L802523425L
L0L
(lp4192
(lp4193
tp4194
atp4195
sI1074269684
(Vbootloader_read_bootloader_header
p4196
(lp4197
(L2948018849L
L242900614L
(lp4198
(lp4199
Vbootloader_flash_read
p4200
atp4201
a(L804259852L
L3187408090L
(lp4202
(lp4203
Vesp_log_early_timestamp
p4204
atp4205
a(L735741265L
L0L
(lp4206
(lp4207
tp4208
atp4209
sI1074243576
(Vwdt_hal_init
p4210
(lp4211
(L1845705415L
L242900614L
(lp4212
(lp4213
Vmemset
p4214
atp4215
a(L106L
L0L
(lp4216
(lp4217
tp4218
a(L147213506L
L1443213481L
(lp4219
(lp4220
tp4221
a(L3076988543L
L0L
(lp4222
(lp4223
tp4224
a(L746843176L
L3294285696L
(lp4225
(lp4226
tp4227
a(L3028464L
L0L
(lp4228
(lp4229
tp4230
a(L268651496L
L1443213481L
(lp4231
(lp4232
tp4233
a(L213928354L
L1443213481L
(lp4234
(lp4235
tp4236
a(L1646580088L
L3294285696L
(lp4237
(lp4238
tp4239
a(L3360570486L
L0L
(lp4240
(lp4241
tp4242
atp4243
sI1074240504
(Vbootloader_debug_buffer
p4244
(lp4245
(L2100504542L
L0L
(lp4246
(lp4247
tp4248
atp4249
ssS'functionsdups'
p4250
g11
((lp4251
tp4252
Rp4253
sS'immediatedups'
p4254
g11
((lp4255
tp4256
Rp4257
sS'functiondups'
p4258
g11
((lp4259
tp4260
Rp4261
sS'fuzzy'
p4262
(dp4263
L366261972L
I1074270280
sL2376760616L
I1074243308
sL1898962604L
I1074238728
sL3223682214L
I1074248172
sL4033782891L
I1074244536
sL1651792242L
I1074247624
sL1500945776L
I1074268060
sL800708016L
I1074239512
sL2092869556L
I1074247872
sL1772626723L
I1074235832
sL2539816556L
I1074236660
sL3032120501L
I1074245764
sL2471313117L
I1074240680
sL2641888616L
I1074246816
sL381028389L
I1074240892
sL3711025829L
I1074240200
sL3500016395L
I1074242072
sL1962232032L
I1074245632
sL797548049L
I1074240512
sL3374853808L
I1074269660
sL2859057779L
I1074269356
sL2835607711L
I1074270020
sL2095240828L
I1074234756
sL1348852091L
I1074248260
sL2182127758L
I1074270104
sL3221945515L
I1074245904
sL1485246373L
I1074240972
sL3525303483L
I1074245496
sL1247030641L
I1074268868
sL214341344L
I1074244704
sL1729011238L
I1074241944
sL1959102959L
I1074237484
sL4242478965L
I1074238236
sL2216531249L
I1074245524
sL579471141L
I1074269924
sL1096063205L
I1074236804
sL2906154889L
I1074247576
sL1065525808L
I1074236900
sL2849727465L
I1074238996
sL1821770661L
I1074237692
sL332090111L
I1074236576
sL282843886L
I1074237744
sL3703425408L
I1074245204
sL2038713658L
I1074246772
sL2688270468L
I1074269728
sL2708185770L
I1074241328
sL3890904617L
I1074245976
sL3530961461L
I1074270724
sL1605229163L
I1074239876
sL1210592366L
I1074245380
sL1332800441L
I1074237308
sL209111356L
I1074245552
sL3183721996L
I1074235280
sL3558783183L
I1074238020
sL1377360842L
I1074244788
sL2726707668L
I1074268572
sL3300368739L
I1074267836
sL1161792488L
I1074241140
sL4091350277L
I1074247680
sL2871786995L
I1074269796
sL3578810761L
I1074235580
sL2018002450L
I1074235680
sL531949167L
I1074237068
sL1060788199L
I1074245672
sL1444874434L
I1074269952
sL994994961L
I1074238644
sL2663898648L
I1074269684
sL1155028103L
I1074270056
sL627477382L
I1074235944
sL814911857L
I1074240532
sL3280013925L
I1074238316
sL1862804207L
I1074244188
sL2806886186L
I1074268628
sL1815510750L
I1074244924
sL963803290L
I1074246088
sL3715950101L
I1074244504
sL3420458249L
I1074247480
sL3274368577L
I1074238844
sL3246158480L
I1074239392
sL1872673135L
I1074240176
sL1214705044L
I1074236412
sL4155364446L
I1074237032
sL755401973L
I1074267728
sL230862646L
I1074237452
sL2452281182L
I1074247312
sL1564551092L
I1074241856
sL1122585247L
I1074243576
sL3659714901L
I1074241384
sL2752268667L
I1074244752
sL3428612389L
I1074247280
sL1950296771L
I1074248008
sL1396037064L
I1074245144
sL1014311563L
I1074242812
sL1596982735L
I1074269372
ssb.