ccopy_reg
_reconstructor
p0
(crizzo
RizzoSignature
p1
c__builtin__
object
p2
Ntp3
Rp4
(dp5
S'formal'
p6
(dp7
L2005196428L
I1074245524
sL1741170115L
I1074238000
sL2087186284L
I1074236412
sL1913647619L
I1074269940
sL3984280162L
I1074244504
sL3746738248L
I1074239392
sL2628804010L
I1074270864
sL4213015302L
I1074243292
sL461860251L
I1074247312
sL286550283L
I1074270008
sL3976424482L
I1074234712
sL552298442L
I1074235280
sL2767810776L
I1074238020
sL2771134728L
I1074240200
sL2326361228L
I1074269360
sL2702580795L
I1074237376
sL2610420647L
I1074269784
sL2896295319L
I1074236900
sL25479346L
I1074240680
sL438696979L
I1074269912
sL1123431371L
I1074239512
sL1331791455L
I1074245616
sL1674148343L
I1074245672
sL1786019146L
I1074247680
sL4023292303L
I1074237452
sL3256726111L
I1074248008
sL2485902447L
I1074236740
sL723138898L
I1074238180
sL424336643L
I1074269648
sL366218909L
I1074270044
sL368505532L
I1074245948
sL848906711L
I1074248172
sL353716291L
I1074244704
sL1585823442L
I1074244604
sL1622896354L
I1074244632
sL3649180891L
I1074267728
sL3092620558L
I1074235680
sL2521269785L
I1074236980
sL730944497L
I1074239876
sL2189223198L
I1074240440
sL3580313603L
I1074241944
sL2493713350L
I1074245380
sL183144L
I1074238844
sL2930276314L
I1074235832
sL4161584248L
I1074268560
sL4175577751L
I1074244752
sL2723725103L
I1074240876
sL1633709340L
I1074245356
sL2813809866L
I1074236764
sL2366387314L
I1074270712
sL1330922710L
I1074246816
sL1731035566L
I1074236576
sL676927194L
I1074268848
sL244922653L
I1074242812
sL2691843063L
I1074245976
sL3307282855L
I1074238160
sL127813144L
I1074243576
sL2834351222L
I1074244924
sL3065846068L
I1074235580
sL2195669076L
I1074245332
sL357647324L
I1074268856
sL3361686224L
I1074268616
sL3042952135L
I1074267720
sL3721992006L
I1074240892
sL1160735408L
I1074242072
sL1662035087L
I1074267824
sL3041505513L
I1074237484
sL4038945309L
I1074235632
sL1435968304L
I1074244788
sL4178015136L
I1074247480
sL1992104215L
I1074236872
sL1112935418L
I1074234756
sL4020657674L
I1074246088
sL2931540503L
I1074247624
sL1382567621L
I1074238236
sL105563623L
I1074240512
sL2997001746L
I1074237308
sL59949349L
I1074241140
sL1087228788L
I1074238996
sL76756778L
I1074240972
sL556795273L
I1074269716
sL2819127986L
I1074237032
sL3195929028L
I1074240176
sL3024810484L
I1074270268
sL1481764497L
I1074237012
sL1877634603L
I1074270936
sL2687718384L
I1074243308
sL2789355142L
I1074244188
sL1098683832L
I1074245144
sL3015462521L
I1074238644
sL3066643969L
I1074247280
sL935372552L
I1074268048
sL886840080L
I1074237068
sL2062758462L
I1074236804
sL1347401601L
I1074240532
sL2248158928L
I1074238316
sL660825523L
I1074245204
sL3362774716L
I1074236660
sL3338519854L
I1074245904
sL2195659785L
I1074245552
sL540472814L
I1074247872
sL2263182908L
I1074238228
sL965583188L
I1074245764
sL114336524L
I1074269672
sL282668036L
I1074244536
sL963291061L
I1074248260
sL3630163135L
I1074236888
sL188664287L
I1074235248
sL2743385701L
I1074269344
sL2404540336L
I1074245496
sL2485146564L
I1074240916
sL692536993L
I1074237348
sL822000404L
I1074245632
sL921639684L
I1074235944
sL235684320L
I1074237744
sL3364903294L
I1074247576
sL675504051L
I1074236560
sL1817360290L
I1074241384
sL917018201L
I1074236972
sL237904351L
I1074241328
sL2758712477L
I1074241856
sL309068699L
I1074245084
sL1140246287L
I1074246772
sL2570362575L
I1074238728
sL3958998789L
I1074237692
sL4029637072L
I1074270092
ssS'immediates'
p8
(dp9
sS'formaldups'
p10
c__builtin__
set
p11
((lp12
tp13
Rp14
sS'stringdups'
p15
g11
((lp16
tp17
Rp18
sS'fuzzydups'
p19
g11
((lp20
tp21
Rp22
sS'strings'
p23
(dp24
sS'functions'
p25
(dp26
I1074245380
(Vrtc_clk_slow_src_set
p27
(lp28
(L585347011L
L2195759072L
(lp29
(lp30
tp31
a(L3020187L
L0L
(lp32
(lp33
tp34
a(L3028481L
L0L
(lp35
(lp36
tp37
a(L487821223L
L0L
(lp38
(lp39
tp40
a(L4271877108L
L1443213481L
(lp41
(lp42
tp43
a(L1851908495L
L0L
(lp44
(lp45
tp46
a(L1099319264L
L1443213481L
(lp47
(lp48
tp49
a(L3138544334L
L0L
(lp50
(lp51
tp52
a(L94425498L
L3785322319L
(lp53
(lp54
Vabort
p55
atp56
atp57
sI1074240512
(Vbootloader_sha256_start
p58
(lp59
(L1737386262L
L2534110409L
(lp60
(lp61
tp62
atp63
sI1074245632
(Vrtc_clk_xtal_freq_get
p64
(lp65
(L3313072792L
L1443213481L
(lp66
(lp67
tp68
a(L2847936993L
L0L
(lp69
(lp70
tp71
a(L2252934062L
L1443213481L
(lp72
(lp73
tp74
a(L3360570486L
L0L
(lp75
(lp76
tp77
atp78
sI1074247680
(Vesp_rom_spiflash_program_page_internal
p79
(lp80
(L2569069283L
L0L
(lp81
(lp82
tp83
a(L2258688483L
L0L
(lp84
(lp85
tp86
a(L3360570486L
L0L
(lp87
(lp88
tp89
a(L2295540031L
L1443213481L
(lp90
(lp91
tp92
a(L4235661475L
L3785322319L
(lp93
(lp94
Vesp_rom_spiflash_wait_idle
p95
atp96
a(L1299866312L
L0L
(lp97
(lp98
tp99
a(L3212356251L
L3785322319L
(lp100
(lp101
Vesp_rom_spiflash_enable_write
p102
atp103
a(L1834262847L
L2195759072L
(lp104
(lp105
tp106
a(L633937013L
L1443213481L
(lp107
(lp108
tp109
a(L2953702749L
L0L
(lp110
(lp111
tp112
a(L2989032L
L0L
(lp113
(lp114
tp115
a(L1965622133L
L0L
(lp116
(lp117
tp118
a(L809386272L
L2195759072L
(lp119
(lp120
tp121
a(L1958113242L
L0L
(lp122
(lp123
tp124
a(L106L
L0L
(lp125
(lp126
tp127
a(L3112950080L
L0L
(lp128
(lp129
tp130
a(L1868606439L
L0L
(lp131
(lp132
tp133
a(L147213506L
L1443213481L
(lp134
(lp135
tp136
a(L1933954923L
L0L
(lp137
(lp138
tp139
a(L1147866918L
L0L
(lp140
(lp141
tp142
a(L3871602522L
L0L
(lp143
(lp144
tp145
atp146
sI1074267136
(V_init
p147
(lp148
(L3493042598L
L0L
(lp149
(lp150
tp151
atp152
sI1074237452
(Vspi_to_esp_err
p153
(lp154
(L2749733621L
L1443213481L
(lp155
(lp156
tp157
a(L1872507229L
L1443213481L
(lp158
(lp159
tp160
a(L3952441574L
L0L
(lp161
(lp162
tp163
a(L3126521138L
L0L
(lp164
(lp165
tp166
atp167
sI1074238728
(Vcache_ll_l1_get_bus
p168
(lp169
(L2749735183L
L1443213481L
(lp170
(lp171
tp172
a(L94425498L
L3785322319L
(lp173
(lp174
Vabort
p175
atp176
a(L1872514061L
L1443213481L
(lp177
(lp178
tp179
a(L3824526338L
L1443213481L
(lp180
(lp181
tp182
a(L892952750L
L0L
(lp183
(lp184
tp185
a(L1182811810L
L0L
(lp186
(lp187
tp188
a(L1101742417L
L0L
(lp189
(lp190
tp191
a(L1100767927L
L0L
(lp192
(lp193
tp194
a(L3360570486L
L0L
(lp195
(lp196
tp197
a(L1872508791L
L1443213481L
(lp198
(lp199
tp200
a(L2882938163L
L0L
(lp201
(lp202
tp203
a(L2927201858L
L0L
(lp204
(lp205
tp206
a(L2258718273L
L0L
(lp207
(lp208
tp209
a(L2580713941L
L0L
(lp210
(lp211
tp212
a(L1872508791L
L1443213481L
(lp213
(lp214
tp215
a(L1872514061L
L1443213481L
(lp216
(lp217
tp218
a(L1641149277L
L0L
(lp219
(lp220
tp221
a(L1872508791L
L1443213481L
(lp222
(lp223
tp224
a(L3027019L
L0L
(lp225
(lp226
tp227
a(L1299866560L
L0L
(lp228
(lp229
tp230
a(L1299866436L
L0L
(lp231
(lp232
tp233
atp234
sI1074240532
(Vbootloader_sha256_data
p235
(lp236
(L4066096136L
L0L
(lp237
(lp238
tp239
a(L1697654611L
L2195759072L
(lp240
(lp241
tp242
a(L2213948952L
L242900614L
(lp243
(lp244
V__assert_func
p245
atp246
a(L498498478L
L0L
(lp247
(lp248
tp249
a(L3590389832L
L1443213481L
(lp250
(lp251
tp252
a(L2910371777L
L0L
(lp253
(lp254
tp255
a(L3360570486L
L0L
(lp256
(lp257
tp258
a(L1087685526L
L2195759072L
(lp259
(lp260
tp261
a(L426633611L
L1443213481L
(lp262
(lp263
tp264
a(L2584057186L
L1443213481L
(lp265
(lp266
tp267
a(L3342433287L
L1443213481L
(lp268
(lp269
tp270
a(L2526675390L
L242900614L
(lp271
(lp272
V__bswapsi2
p273
atp274
a(L942815853L
L2195759072L
(lp275
(lp276
tp277
a(L1872507229L
L1443213481L
(lp278
(lp279
tp280
a(L147213506L
L1443213481L
(lp281
(lp282
tp283
a(L3745004802L
L0L
(lp284
(lp285
tp286
atp287
sI1074238996
(Vload_image
p288
(lp289
(L3963348381L
L473788538L
(lp290
(lp291
Vesp_log_early_timestamp
p292
aVbootloader_random_disable
p293
aVbootloader_ana_clock_glitch_reset_config
p294
atp295
a(L2261049225L
L0L
(lp296
(lp297
tp298
a(L106L
L0L
(lp299
(lp300
tp301
a(L4185838750L
L1624138773L
(lp302
(lp303
Vmmu_hal_unmap_all
p304
aVcache_ll_l1_get_bus
p305
aVcache_ll_l1_enable_bus
p306
aVcache_ll_l1_get_bus
p307
aVcache_ll_l1_enable_bus
p308
aVcache_ll_l1_get_bus
p309
aVcache_ll_l1_enable_bus
p310
aVcache_ll_l1_get_bus
p311
aVcache_ll_l1_enable_bus
p312
aVbootloader_console_deinit
p313
atp314
a(L2843581588L
L1443213481L
(lp315
(lp316
tp317
a(L2902417580L
L0L
(lp318
(lp319
tp320
a(L3421811081L
L362179215L
(lp321
(lp322
Vesp_log_early_timestamp
p323
atp324
a(L2552261596L
L0L
(lp325
(lp326
tp327
a(L670464924L
L2195759072L
(lp328
(lp329
tp330
a(L3020204L
L0L
(lp331
(lp332
tp333
a(L3421811081L
L362179215L
(lp334
(lp335
Vesp_log_early_timestamp
p336
atp337
a(L3291469664L
L0L
(lp338
(lp339
tp340
a(L2591655545L
L0L
(lp341
(lp342
tp343
atp344
sI1074238228
(Vbootloader_mmap_get_free_pages
p345
(lp346
(L1496516875L
L0L
(lp347
(lp348
tp349
atp350
sI1074245904
(Vrtc_clk_xtal_freq_update
p351
(lp352
(L3023525581L
L2195759072L
(lp353
(lp354
tp355
a(L3509357017L
L0L
(lp356
(lp357
tp358
a(L2266180931L
L0L
(lp359
(lp360
tp361
atp362
sI1074238236
(Vbootloader_fill_random
p363
(lp364
(L3377511333L
L2195759072L
(lp365
(lp366
tp367
a(L4033043682L
L4032149094L
(lp368
(lp369
V__assert_func
p370
atp371
a(L1882547218L
L0L
(lp372
(lp373
tp374
a(L2910371777L
L0L
(lp375
(lp376
tp377
a(L95634693L
L0L
(lp378
(lp379
tp380
a(L3630908706L
L0L
(lp381
(lp382
tp383
a(L160162640L
L0L
(lp384
(lp385
tp386
a(L97689L
L0L
(lp387
(lp388
tp389
a(L3360570486L
L0L
(lp390
(lp391
tp392
atp393
sI1074269716
(Vbootloader_check_bootloader_validity
p394
(lp395
(L2945382592L
L1069700966L
(lp396
(lp397
Vefuse_hal_chip_revision
p398
aVesp_log_early_timestamp
p399
aVbootloader_common_check_chip_validity
p400
atp401
atp402
sI1074242072
(Vprocess_segments
p403
(lp404
(L1326203493L
L0L
(lp405
(lp406
tp407
a(L1640778736L
L0L
(lp408
(lp409
tp410
a(L3782401745L
L0L
(lp411
(lp412
tp413
a(L106L
L0L
(lp414
(lp415
tp416
a(L3028481L
L0L
(lp417
(lp418
tp419
a(L3014296803L
L3187408090L
(lp420
(lp421
Vesp_log_early_timestamp
p422
atp423
a(L761135359L
L3785322319L
(lp424
(lp425
Vbootloader_flash_read
p426
atp427
a(L3856957476L
L3187408090L
(lp428
(lp429
Vesp_log_early_timestamp
p430
atp431
a(L3871473710L
L0L
(lp432
(lp433
tp434
a(L219417435L
L0L
(lp435
(lp436
tp437
a(L616767314L
L3785322319L
(lp438
(lp439
Vbootloader_sha256_data
p440
atp441
a(L1599301852L
L1443213481L
(lp442
(lp443
tp444
a(L2258837437L
L0L
(lp445
(lp446
tp447
a(L1764156528L
L0L
(lp448
(lp449
tp450
a(L3028481L
L0L
(lp451
(lp452
tp453
a(L2231662647L
L3187408090L
(lp454
(lp455
Vesp_log_early_timestamp
p456
atp457
a(L268651496L
L1443213481L
(lp458
(lp459
tp460
a(L652851030L
L2195759072L
(lp461
(lp462
tp463
a(L3802069243L
L0L
(lp464
(lp465
tp466
a(L3696234693L
L1443213481L
(lp467
(lp468
tp469
a(L2258867228L
L0L
(lp470
(lp471
tp472
a(L2277415887L
L0L
(lp473
(lp474
tp475
a(L3177376558L
L0L
(lp476
(lp477
tp478
a(L3028481L
L0L
(lp479
(lp480
tp481
a(L3861001733L
L3187408090L
(lp482
(lp483
Vesp_log_early_timestamp
p484
atp485
a(L2640606608L
L0L
(lp486
(lp487
tp488
a(L3028481L
L0L
(lp489
(lp490
tp491
a(L3892729576L
L3833084538L
(lp492
(lp493
Vesp_log_early_timestamp
p494
atp495
a(L4033680444L
L404278070L
(lp496
(lp497
tp498
a(L2902417580L
L0L
(lp499
(lp500
tp501
a(L2902417580L
L0L
(lp502
(lp503
tp504
a(L1229952296L
L3785322319L
(lp505
(lp506
Vverify_load_addresses
p507
atp508
a(L3783935185L
L3785322319L
(lp509
(lp510
Vbootloader_mmap_get_free_pages
p511
atp512
a(L3028481L
L0L
(lp513
(lp514
tp515
a(L224879076L
L0L
(lp516
(lp517
tp518
a(L142590671L
L0L
(lp519
(lp520
tp521
a(L3028481L
L0L
(lp522
(lp523
tp524
a(L94425498L
L3785322319L
(lp525
(lp526
Vesp_log_early_timestamp
p527
atp528
a(L1961289970L
L1443213481L
(lp529
(lp530
tp531
a(L4085121624L
L3785322319L
(lp532
(lp533
Vshould_load
p534
atp535
a(L3028481L
L0L
(lp536
(lp537
tp538
a(L1038006420L
L3833084538L
(lp539
(lp540
Vesp_log_early_timestamp
p541
atp542
a(L106L
L0L
(lp543
(lp544
tp545
a(L3815630522L
L0L
(lp546
(lp547
tp548
a(L1646054028L
L3833084538L
(lp549
(lp550
Vesp_log_early_timestamp
p551
atp552
a(L2629678223L
L0L
(lp553
(lp554
tp555
a(L2684012095L
L0L
(lp556
(lp557
tp558
a(L3357777304L
L3785322319L
(lp559
(lp560
Vbootloader_mmap
p561
atp562
a(L3911420474L
L3187408090L
(lp563
(lp564
Vesp_log_early_timestamp
p565
atp566
a(L1698460186L
L0L
(lp567
(lp568
tp569
a(L3264682310L
L1443213481L
(lp570
(lp571
tp572
a(L4016429890L
L242900614L
(lp573
(lp574
Vmemcpy
p575
atp576
a(L1595421496L
L3785322319L
(lp577
(lp578
Vbootloader_munmap
p579
atp580
a(L2757579158L
L0L
(lp581
(lp582
tp583
a(L605525844L
L242900614L
(lp584
(lp585
Vbootloader_fill_random
p586
atp587
a(L3616854679L
L1443213481L
(lp588
(lp589
tp590
a(L3616854679L
L1443213481L
(lp591
(lp592
tp593
a(L3450268858L
L0L
(lp594
(lp595
tp596
a(L3021749L
L0L
(lp597
(lp598
tp599
a(L322434465L
L0L
(lp600
(lp601
tp602
a(L2494883302L
L0L
(lp603
(lp604
tp605
a(L2902417580L
L0L
(lp606
(lp607
tp608
a(L2213415704L
L1443213481L
(lp609
(lp610
tp611
a(L193456747L
L1443213481L
(lp612
(lp613
tp614
a(L1426980959L
L0L
(lp615
(lp616
tp617
a(L1841482652L
L0L
(lp618
(lp619
tp620
a(L653501462L
L0L
(lp621
(lp622
tp623
a(L3310548426L
L3785322319L
(lp624
(lp625
Vbootloader_sha256_data
p626
atp627
a(L90548756L
L0L
(lp628
(lp629
tp630
a(L1702191967L
L1443213481L
(lp631
(lp632
tp633
a(L2364005371L
L0L
(lp634
(lp635
tp636
atp637
sI1074239512
(Vbootloader_utility_load_partition_table
p638
(lp639
(L3401680957L
L3833084538L
(lp640
(lp641
Vbootloader_mmap
p642
atp643
a(L3861134865L
L2147981551L
(lp644
(lp645
Vesp_log_early_timestamp
p646
atp647
a(L2258688482L
L0L
(lp648
(lp649
tp650
a(L3360570486L
L0L
(lp651
(lp652
tp653
a(L2379286607L
L3785322319L
(lp654
(lp655
Vesp_partition_table_verify
p656
atp657
a(L2695471221L
L2147981551L
(lp658
(lp659
Vesp_log_early_timestamp
p660
atp661
a(L2693125842L
L403192672L
(lp662
(lp663
Vesp_log_early_timestamp
p664
aVesp_log_early_timestamp
p665
atp666
a(L650140130L
L0L
(lp667
(lp668
tp669
a(L2163909172L
L2801279232L
(lp670
(lp671
Vbootloader_munmap
p672
aVesp_log_early_timestamp
p673
atp674
a(L521126897L
L0L
(lp675
(lp676
tp677
a(L3028464L
L0L
(lp678
(lp679
tp680
a(L106L
L0L
(lp681
(lp682
tp683
a(L147213506L
L1443213481L
(lp684
(lp685
tp686
a(L2919580219L
L2147981551L
(lp687
(lp688
Vesp_log_early_timestamp
p689
atp690
a(L3990577774L
L0L
(lp691
(lp692
tp693
a(L3020187L
L0L
(lp694
(lp695
tp696
a(L3201555411L
L1443213481L
(lp697
(lp698
tp699
a(L1843602828L
L1443213481L
(lp700
(lp701
tp702
a(L326114897L
L1443213481L
(lp703
(lp704
tp705
a(L2487812812L
L1443213481L
(lp706
(lp707
tp708
a(L3478727216L
L1443213481L
(lp709
(lp710
tp711
a(L106L
L0L
(lp712
(lp713
tp714
a(L93674324L
L0L
(lp715
(lp716
tp717
a(L1872515523L
L1443213481L
(lp718
(lp719
tp720
a(L1215408024L
L1443213481L
(lp721
(lp722
tp723
a(L1872515506L
L1443213481L
(lp724
(lp725
tp726
a(L106L
L0L
(lp727
(lp728
tp729
a(L1872515506L
L1443213481L
(lp730
(lp731
tp732
a(L106L
L0L
(lp733
(lp734
tp735
a(L268651496L
L1443213481L
(lp736
(lp737
tp738
atp739
sI1074244632
(Vwdt_hal_enable
p740
(lp741
(L2299130915L
L0L
(lp742
(lp743
tp744
a(L165794138L
L0L
(lp745
(lp746
tp747
a(L3360570486L
L0L
(lp748
(lp749
tp750
a(L2847657174L
L0L
(lp751
(lp752
tp753
atp754
sI1074245144
(Vrtc_clk_32k_enable
p755
(lp756
(L753387299L
L0L
(lp757
(lp758
tp759
a(L3776007933L
L3785322319L
(lp760
(lp761
Vrtc_clk_32k_enable_common
p762
atp763
a(L3496950L
L0L
(lp764
(lp765
tp766
a(L707626330L
L2534110409L
(lp767
(lp768
tp769
atp770
sI1074235680
(Vbootloader_flash_xmc_startup
p771
(lp772
(L3433652179L
L242900614L
(lp773
(lp774
Vis_xmc_chip_strict
p775
atp776
a(L2258688482L
L0L
(lp777
(lp778
tp779
a(L3360570486L
L0L
(lp780
(lp781
tp782
a(L2860324232L
L3785322319L
(lp783
(lp784
Vbootloader_flash_read_sfdp
p785
atp786
a(L933155447L
L3609046414L
(lp787
(lp788
Vesp_log_early_timestamp
p789
aVbootloader_execute_flash_command
p790
aVbootloader_execute_flash_command
p791
aVbootloader_execute_flash_command
p792
aVbootloader_execute_flash_command
p793
aVbootloader_read_flash_id
p794
aVis_xmc_chip_strict
p795
atp796
a(L1000132677L
L3187408090L
(lp797
(lp798
Vesp_log_early_timestamp
p799
atp800
atp801
sI1074236972
(Vefuse_hal_get_disable_wafer_version_major
p802
(lp803
(L4194175088L
L0L
(lp804
(lp805
tp806
atp807
sI1074237484
(Vbootloader_mmap
p808
(lp809
(L3007611739L
L2195759072L
(lp810
(lp811
tp812
a(L1328961945L
L2147981551L
(lp813
(lp814
Vesp_log_early_timestamp
p815
atp816
a(L1596194698L
L1443213481L
(lp817
(lp818
tp819
a(L3729184599L
L0L
(lp820
(lp821
tp822
a(L4163264550L
L3187408090L
(lp823
(lp824
Vesp_log_early_timestamp
p825
atp826
a(L2258688482L
L0L
(lp827
(lp828
tp829
a(L3360570486L
L0L
(lp830
(lp831
tp832
a(L3419814624L
L1443213481L
(lp833
(lp834
tp835
a(L1441818867L
L1690040256L
(lp836
(lp837
tp838
a(L3433564204L
L362179215L
(lp839
(lp840
Vesp_log_early_timestamp
p841
atp842
a(L2543114737L
L2147981551L
(lp843
(lp844
Vesp_log_early_timestamp
p845
atp846
a(L1137490703L
L2195759072L
(lp847
(lp848
tp849
atp850
sI1074235944
(Vbootloader_flash_gpio_config
p851
(lp852
(L3362256192L
L3785322319L
(lp853
(lp854
Vbootloader_common_get_chip_ver_pkg
p855
atp856
a(L106L
L0L
(lp857
(lp858
tp859
a(L1998579353L
L0L
(lp860
(lp861
tp862
a(L106L
L0L
(lp863
(lp864
tp865
a(L1839763068L
L1443213481L
(lp866
(lp867
tp868
a(L2440320488L
L1396946377L
(lp869
(lp870
tp871
a(L106L
L0L
(lp872
(lp873
tp874
a(L4003626558L
L0L
(lp875
(lp876
tp877
a(L2164907201L
L2534110409L
(lp878
(lp879
tp880
a(L3360570486L
L0L
(lp881
(lp882
tp883
atp884
sI1074245672
(Vrtc_clk_cpu_freq_mhz_to_config
p885
(lp886
(L908718885L
L3785322319L
(lp887
(lp888
Vrtc_clk_xtal_freq_get
p889
atp890
a(L60460069L
L0L
(lp891
(lp892
tp893
a(L3802072124L
L0L
(lp894
(lp895
tp896
a(L3159006042L
L0L
(lp897
(lp898
tp899
a(L3360570486L
L0L
(lp900
(lp901
tp902
a(L895147205L
L0L
(lp903
(lp904
tp905
a(L3970036657L
L0L
(lp906
(lp907
tp908
a(L2731353429L
L0L
(lp909
(lp910
tp911
a(L1555485793L
L0L
(lp912
(lp913
tp914
a(L2258897023L
L0L
(lp915
(lp916
tp917
a(L1947499251L
L0L
(lp918
(lp919
tp920
a(L1306331021L
L0L
(lp921
(lp922
tp923
atp924
sI1074270008
(Vbootloader_console_init
p925
(lp926
(L3806010175L
L988378406L
(lp927
(lp928
Vesp_rom_uart_tx_wait_idle
p929
aVrtc_clk_apb_freq_get
p930
aVesp_rom_uart_set_clock_baudrate
p931
atp932
atp933
sI1074236980
(Vesp_log_early_timestamp
p934
(lp935
(L4015029253L
L1443213481L
(lp936
(lp937
tp938
atp939
sI1074249012
(V_fini
p940
(lp941
(L3493042598L
L0L
(lp942
(lp943
tp944
atp945
sI1074270268
(Vrtc_clk_init
p946
(lp947
(L1100006719L
L1443213481L
(lp948
(lp949
tp950
a(L42671777L
L3785322319L
(lp951
(lp952
Vrtc_clk_cpu_freq_to_xtal
p953
atp954
a(L739905763L
L1743007695L
(lp955
(lp956
Vrtc_clk_xtal_freq_get
p957
atp958
a(L3028481L
L0L
(lp959
(lp960
tp961
a(L4284274517L
L3785322319L
(lp962
(lp963
Vrtc_clk_xtal_freq_estimate
p964
atp965
a(L2576622952L
L3187408090L
(lp966
(lp967
Vesp_log_early_timestamp
p968
atp969
a(L1822030105L
L3065544262L
(lp970
(lp971
Vesp_rom_uart_tx_wait_idle
p972
aVrtc_clk_xtal_freq_update
p973
aVrtc_clk_apb_freq_update
p974
aVrtc_clk_cpu_freq_get_config
p975
aVrtc_clk_cpu_freq_mhz_to_config
p976
atp977
a(L521302419L
L2704288053L
(lp978
(lp979
Vesp_log_early_timestamp
p980
aVabort
p981
atp982
a(L2902417580L
L0L
(lp983
(lp984
tp985
a(L1899970065L
L0L
(lp986
(lp987
tp988
a(L377687546L
L3785322319L
(lp989
(lp990
Vrtc_clk_xtal_freq_estimate
p991
atp992
a(L2163742247L
L3187408090L
(lp993
(lp994
Vesp_log_early_timestamp
p995
atp996
a(L299116989L
L2426646996L
(lp997
(lp998
Vrtc_clk_cpu_freq_set_config
p999
aV__udivdi3
p1000
atp1001
a(L912310138L
L3785322319L
(lp1002
(lp1003
Vrtc_clk_32k_enable
p1004
atp1005
a(L3191820416L
L1832448559L
(lp1006
(lp1007
Vrtc_clk_8m_enable
p1008
aVrtc_clk_fast_src_set
p1009
aVrtc_clk_slow_src_set
p1010
atp1011
a(L1232958848L
L0L
(lp1012
(lp1013
tp1014
atp1015
sI1074241328
(Vbootloader_util_regions_overlap
p1016
(lp1017
(L2762640130L
L0L
(lp1018
(lp1019
tp1020
a(L1697654632L
L2195759072L
(lp1021
(lp1022
tp1023
a(L2213948952L
L242900614L
(lp1024
(lp1025
V__assert_func
p1026
atp1027
a(L97642L
L0L
(lp1028
(lp1029
tp1030
a(L1087686177L
L2195759072L
(lp1031
(lp1032
tp1033
a(L366123053L
L0L
(lp1034
(lp1035
tp1036
a(L2258867228L
L0L
(lp1037
(lp1038
tp1039
a(L1253626734L
L0L
(lp1040
(lp1041
tp1042
a(L2258897019L
L0L
(lp1043
(lp1044
tp1045
a(L3109269495L
L0L
(lp1046
(lp1047
tp1048
atp1049
sI1074238000
(Vbootloader_flash_erase_sector
p1050
(lp1051
(L4129137686L
L1880226080L
(lp1052
(lp1053
Vesp_rom_spiflash_erase_sector
p1054
aVspi_to_esp_err
p1055
atp1056
atp1057
sI1074237744
(Vbootloader_flash_read
p1058
(lp1059
(L3022618172L
L0L
(lp1060
(lp1061
tp1062
a(L2493247481L
L2147981551L
(lp1063
(lp1064
Vesp_log_early_timestamp
p1065
atp1066
a(L852987398L
L1443213481L
(lp1067
(lp1068
tp1069
a(L1351513776L
L0L
(lp1070
(lp1071
tp1072
a(L1486740491L
L0L
(lp1073
(lp1074
tp1075
a(L4276228047L
L2147981551L
(lp1076
(lp1077
Vesp_log_early_timestamp
p1078
atp1079
a(L3283691850L
L0L
(lp1080
(lp1081
tp1082
a(L4276228016L
L2147981551L
(lp1083
(lp1084
Vesp_log_early_timestamp
p1085
atp1086
a(L3020204L
L0L
(lp1087
(lp1088
tp1089
a(L384130671L
L0L
(lp1090
(lp1091
tp1092
a(L97422L
L0L
(lp1093
(lp1094
tp1095
a(L515889772L
L2195759072L
(lp1096
(lp1097
tp1098
a(L3321969934L
L1690040256L
(lp1099
(lp1100
tp1101
a(L279744554L
L4032149094L
(lp1102
(lp1103
V__assert_func
p1104
atp1105
a(L4071371888L
L2534110409L
(lp1106
(lp1107
tp1108
a(L2438181396L
L1443213481L
(lp1109
(lp1110
tp1111
a(L1976506429L
L3635241909L
(lp1112
(lp1113
Vesp_rom_spiflash_read
p1114
aVspi_to_esp_err
p1115
atp1116
atp1117
sI1074244924
(Vrtc_clk_cpu_freq_to_pll_mhz
p1118
(lp1119
(L3231135830L
L0L
(lp1120
(lp1121
tp1122
a(L2102627717L
L2195759072L
(lp1123
(lp1124
tp1125
a(L2982280123L
L3380333161L
(lp1126
(lp1127
Vesp_rom_set_cpu_ticks_per_us
p1128
aVrtc_clk_wait_for_slow_cycle
p1129
atp1130
a(L708686908L
L1443213481L
(lp1131
(lp1132
tp1133
a(L3284807114L
L0L
(lp1134
(lp1135
tp1136
a(L94425498L
L3785322319L
(lp1137
(lp1138
Vabort
p1139
atp1140
a(L2258897019L
L0L
(lp1141
(lp1142
tp1143
a(L1113742378L
L0L
(lp1144
(lp1145
tp1146
a(L1306330990L
L0L
(lp1147
(lp1148
tp1149
atp1150
sI1074245948
(Vrtc_clk_apb_freq_update
p1151
(lp1152
(L3982322780L
L1443213481L
(lp1153
(lp1154
tp1155
atp1156
sI1074247480
(Vesp_rom_spiflash_read_status
p1157
(lp1158
(L3588638125L
L1443213481L
(lp1159
(lp1160
tp1161
a(L4250092034L
L2534110409L
(lp1162
(lp1163
tp1164
a(L4159619641L
L0L
(lp1165
(lp1166
tp1167
a(L2392720019L
L0L
(lp1168
(lp1169
tp1170
a(L2258688487L
L0L
(lp1171
(lp1172
tp1173
a(L4159619145L
L0L
(lp1174
(lp1175
tp1176
a(L3241763332L
L1443213481L
(lp1177
(lp1178
tp1179
a(L3117156279L
L0L
(lp1180
(lp1181
tp1182
a(L2123059967L
L0L
(lp1183
(lp1184
tp1185
a(L582177370L
L0L
(lp1186
(lp1187
tp1188
atp1189
sI1074267720
(Vesp_bootloader_get_description
p1190
(lp1191
(L2248573785L
L2195759072L
(lp1192
(lp1193
tp1194
atp1195
sI1074238020
(Vbootloader_flash_write
p1196
(lp1197
(L3770380603L
L0L
(lp1198
(lp1199
tp1200
a(L2654201950L
L2147981551L
(lp1201
(lp1202
Vesp_log_early_timestamp
p1203
atp1204
a(L4207910112L
L1443213481L
(lp1205
(lp1206
tp1207
a(L1610445075L
L0L
(lp1208
(lp1209
tp1210
a(L735741265L
L0L
(lp1211
(lp1212
tp1213
a(L3291333414L
L0L
(lp1214
(lp1215
tp1216
a(L416217162L
L2147981551L
(lp1217
(lp1218
Vesp_log_early_timestamp
p1219
atp1220
a(L3283691850L
L0L
(lp1221
(lp1222
tp1223
a(L212182276L
L3187408090L
(lp1224
(lp1225
Vesp_log_early_timestamp
p1226
atp1227
a(L3212356251L
L3785322319L
(lp1228
(lp1229
Vbootloader_flash_unlock
p1230
atp1231
a(L1799218633L
L0L
(lp1232
(lp1233
tp1234
a(L94425498L
L3785322319L
(lp1235
(lp1236
Vesp_rom_spiflash_write_encrypted
p1237
atp1238
a(L2927190544L
L3785322319L
(lp1239
(lp1240
Vspi_to_esp_err
p1241
atp1242
a(L2927190544L
L3785322319L
(lp1243
(lp1244
Vesp_rom_spiflash_write
p1245
atp1246
atp1247
sI1074236740
(Vefuse_hal_chip_revision
p1248
(lp1249
(L2719302832L
L1880226080L
(lp1250
(lp1251
Vefuse_hal_get_major_chip_version
p1252
aVefuse_hal_get_minor_chip_version
p1253
atp1254
atp1255
sI1074248260
(Vesp_rom_spiflash_read
p1256
(lp1257
(L1499485309L
L1690040256L
(lp1258
(lp1259
tp1260
a(L3114780042L
L1679261929L
(lp1261
(lp1262
tp1263
a(L2860271684L
L0L
(lp1264
(lp1265
tp1266
a(L1872504408L
L1443213481L
(lp1267
(lp1268
tp1269
a(L106L
L0L
(lp1270
(lp1271
tp1272
a(L633884026L
L0L
(lp1273
(lp1274
tp1275
a(L106L
L0L
(lp1276
(lp1277
tp1278
a(L1100272902L
L1443213481L
(lp1279
(lp1280
tp1281
a(L1372101025L
L1690040256L
(lp1282
(lp1283
tp1284
a(L974197278L
L2195759072L
(lp1285
(lp1286
tp1287
a(L336550648L
L0L
(lp1288
(lp1289
tp1290
a(L3167414617L
L1443213481L
(lp1291
(lp1292
tp1293
a(L106L
L0L
(lp1294
(lp1295
tp1296
a(L3138763340L
L362179215L
(lp1297
(lp1298
Vesp_rom_spiflash_wait_idle
p1299
atp1300
a(L3021737L
L0L
(lp1301
(lp1302
tp1303
a(L106L
L0L
(lp1304
(lp1305
tp1306
a(L1868280504L
L0L
(lp1307
(lp1308
tp1309
a(L106L
L0L
(lp1310
(lp1311
tp1312
a(L750281353L
L0L
(lp1313
(lp1314
tp1315
a(L3897437082L
L0L
(lp1316
(lp1317
tp1318
a(L4122060822L
L0L
(lp1319
(lp1320
tp1321
a(L483218220L
L1443213481L
(lp1322
(lp1323
tp1324
a(L2989032L
L0L
(lp1325
(lp1326
tp1327
a(L3819849625L
L0L
(lp1328
(lp1329
tp1330
a(L1082031446L
L2195759072L
(lp1331
(lp1332
tp1333
a(L1872504408L
L1443213481L
(lp1334
(lp1335
tp1336
a(L147213506L
L1443213481L
(lp1337
(lp1338
tp1339
a(L2062799182L
L2534110409L
(lp1340
(lp1341
tp1342
a(L2921907736L
L0L
(lp1343
(lp1344
tp1345
a(L3677617742L
L1443213481L
(lp1346
(lp1347
tp1348
a(L2483025066L
L1679261929L
(lp1349
(lp1350
tp1351
a(L2136664087L
L1443213481L
(lp1352
(lp1353
tp1354
a(L3000478599L
L2195759072L
(lp1355
(lp1356
tp1357
a(L3333707777L
L0L
(lp1358
(lp1359
tp1360
a(L3251955268L
L0L
(lp1361
(lp1362
tp1363
a(L3418540920L
L0L
(lp1364
(lp1365
tp1366
a(L4183823801L
L1443213481L
(lp1367
(lp1368
tp1369
a(L97689L
L0L
(lp1370
(lp1371
tp1372
a(L2258897019L
L0L
(lp1373
(lp1374
tp1375
a(L4014024819L
L0L
(lp1376
(lp1377
tp1378
a(L3621567083L
L0L
(lp1379
(lp1380
tp1381
atp1382
sI1074241856
(Vprocess_appended_hash_and_sig
p1383
(lp1384
(L1668084157L
L0L
(lp1385
(lp1386
tp1387
a(L2910371777L
L0L
(lp1388
(lp1389
tp1390
a(L4285188111L
L0L
(lp1391
(lp1392
tp1393
a(L1151175705L
L0L
(lp1394
(lp1395
tp1396
a(L97689L
L0L
(lp1397
(lp1398
tp1399
a(L2250231589L
L3187408090L
(lp1400
(lp1401
Vesp_log_early_timestamp
p1402
atp1403
a(L268651496L
L1443213481L
(lp1404
(lp1405
tp1406
a(L1464893571L
L3785322319L
(lp1407
(lp1408
Vbootloader_flash_read
p1409
atp1410
a(L735741265L
L0L
(lp1411
(lp1412
tp1413
atp1414
sI1074248008
(Vesp_rom_spiflash_write
p1415
(lp1416
(L924384987L
L1679261929L
(lp1417
(lp1418
tp1419
a(L2258688483L
L0L
(lp1420
(lp1421
tp1422
a(L3360570486L
L0L
(lp1423
(lp1424
tp1425
a(L3368132847L
L0L
(lp1426
(lp1427
tp1428
a(L3106685981L
L0L
(lp1429
(lp1430
tp1431
a(L3488660639L
L3785322319L
(lp1432
(lp1433
Vesp_rom_spiflash_program_page_internal
p1434
atp1435
a(L3543402353L
L3785322319L
(lp1436
(lp1437
Vesp_rom_spiflash_program_page_internal
p1438
atp1439
a(L4222526342L
L0L
(lp1440
(lp1441
tp1442
a(L2004208511L
L0L
(lp1443
(lp1444
tp1445
a(L564470656L
L0L
(lp1446
(lp1447
tp1448
a(L441922648L
L3785322319L
(lp1449
(lp1450
Vesp_rom_spiflash_program_page_internal
p1451
atp1452
a(L2302069176L
L0L
(lp1453
(lp1454
tp1455
atp1456
sI1074269784
(Vbootloader_config_wdt
p1457
(lp1458
(L3447475412L
L603716358L
(lp1459
(lp1460
Vwdt_hal_write_protect_disable
p1461
aVwdt_hal_set_flashboot_en
p1462
aVwdt_hal_write_protect_enable
p1463
aVwdt_hal_init
p1464
aVrtc_clk_slow_freq_get_hz
p1465
aVwdt_hal_write_protect_disable
p1466
aV__udivdi3
p1467
aVwdt_hal_config_stage
p1468
aVwdt_hal_enable
p1469
aVwdt_hal_write_protect_enable
p1470
aVwdt_hal_write_protect_disable
p1471
aVwdt_hal_set_flashboot_en
p1472
aVwdt_hal_write_protect_enable
p1473
atp1474
atp1475
sI1074245204
(Vrtc_clk_8m_enable
p1476
(lp1477
(L2359152383L
L2195759072L
(lp1478
(lp1479
tp1480
a(L2145669267L
L1443213481L
(lp1481
(lp1482
tp1483
a(L2151320156L
L0L
(lp1484
(lp1485
tp1486
a(L1262936142L
L1443213481L
(lp1487
(lp1488
tp1489
a(L3360570486L
L0L
(lp1490
(lp1491
tp1492
a(L1318267208L
L0L
(lp1493
(lp1494
tp1495
a(L1085208965L
L1443213481L
(lp1496
(lp1497
tp1498
atp1499
sI1074237012
(Vbootloader_common_ota_select_crc
p1500
(lp1501
(L2925798959L
L1443213481L
(lp1502
(lp1503
tp1504
atp1505
sI1074270044
(Vesp_cpu_configure_region_protection
p1506
(lp1507
(L3233924472L
L581251951L
(lp1508
(lp1509
Vmemcpy
p1510
atp1511
a(L180431425L
L3785322319L
(lp1512
(lp1513
Vmpu_hal_set_region_access
p1514
atp1515
a(L2537388152L
L3785322319L
(lp1516
(lp1517
Vmpu_hal_set_region_access
p1518
atp1519
atp1520
sI1074267728
(Vcall_start_cpu0
p1521
(lp1522
(L3609105705L
L3785322319L
(lp1523
(lp1524
Vbootloader_init
p1525
atp1526
a(L3827921190L
L3785322319L
(lp1527
(lp1528
Vbootloader_reset
p1529
atp1530
a(L1838317996L
L2218577417L
(lp1531
(lp1532
Vmemset
p1533
aVbootloader_utility_load_partition_table
p1534
atp1535
a(L3014296803L
L3187408090L
(lp1536
(lp1537
Vesp_log_early_timestamp
p1538
atp1539
a(L405422123L
L3785322319L
(lp1540
(lp1541
Vbootloader_utility_get_selected_boot_partition
p1542
atp1543
a(L3689005314L
L4021370767L
(lp1544
(lp1545
Vbootloader_utility_load_boot_image
p1546
atp1547
atp1548
sI1074244188
(Vwdt_hal_config_stage
p1549
(lp1550
(L331558507L
L0L
(lp1551
(lp1552
tp1553
a(L4279082939L
L0L
(lp1554
(lp1555
tp1556
a(L93674324L
L0L
(lp1557
(lp1558
tp1559
a(L2902417580L
L0L
(lp1560
(lp1561
tp1562
a(L1506709436L
L1443213481L
(lp1563
(lp1564
tp1565
a(L3020187L
L0L
(lp1566
(lp1567
tp1568
a(L94425498L
L3785322319L
(lp1569
(lp1570
Vabort
p1571
atp1572
a(L1999536000L
L1443213481L
(lp1573
(lp1574
tp1575
a(L3360570486L
L0L
(lp1576
(lp1577
tp1578
a(L2402105077L
L1443213481L
(lp1579
(lp1580
tp1581
a(L3297501927L
L1443213481L
(lp1582
(lp1583
tp1584
a(L4278159418L
L0L
(lp1585
(lp1586
tp1587
a(L93674324L
L0L
(lp1588
(lp1589
tp1590
a(L3020204L
L0L
(lp1591
(lp1592
tp1593
a(L2956541743L
L1443213481L
(lp1594
(lp1595
tp1596
a(L3020187L
L0L
(lp1597
(lp1598
tp1599
a(L106L
L0L
(lp1600
(lp1601
tp1602
a(L1473987957L
L1443213481L
(lp1603
(lp1604
tp1605
a(L927955509L
L1443213481L
(lp1606
(lp1607
tp1608
a(L3740367810L
L1443213481L
(lp1609
(lp1610
tp1611
atp1612
sI1074236764
(Vefuse_hal_flash_encryption_enabled
p1613
(lp1614
(L221474917L
L1443213481L
(lp1615
(lp1616
tp1617
a(L2910371777L
L0L
(lp1618
(lp1619
tp1620
a(L3360570486L
L0L
(lp1621
(lp1622
tp1623
a(L3016870L
L0L
(lp1624
(lp1625
tp1626
a(L3745038218L
L0L
(lp1627
(lp1628
tp1629
a(L957607403L
L0L
(lp1630
(lp1631
tp1632
atp1633
sI1074234712
(Vbootloader_common_get_chip_ver_pkg
p1634
(lp1635
(L3197874814L
L1443213481L
(lp1636
(lp1637
tp1638
atp1639
sI1074245976
(Vrtc_clk_cpu_freq_to_xtal
p1640
(lp1641
(L767415990L
L3785322319L
(lp1642
(lp1643
Vesp_rom_set_cpu_ticks_per_us
p1644
atp1645
a(L94425498L
L3785322319L
(lp1646
(lp1647
Vabort
p1648
atp1649
a(L749912951L
L671729222L
(lp1650
(lp1651
Vrtc_clk_apb_freq_update
p1652
atp1653
a(L2258867230L
L0L
(lp1654
(lp1655
tp1656
a(L1803595874L
L2195759072L
(lp1657
(lp1658
tp1659
atp1660
sI1074244704
(Vmmu_hal_unmap_all
p1661
(lp1662
(L3970138582L
L1443213481L
(lp1663
(lp1664
tp1665
a(L2010554219L
L0L
(lp1666
(lp1667
tp1668
a(L147213506L
L1443213481L
(lp1669
(lp1670
tp1671
a(L3212334523L
L0L
(lp1672
(lp1673
tp1674
a(L2010554219L
L0L
(lp1675
(lp1676
tp1677
a(L3360570486L
L0L
(lp1678
(lp1679
tp1680
atp1681
sI1074240876
(Vbootloader_console_deinit
p1682
(lp1683
(L1858531217L
L1443213481L
(lp1684
(lp1685
tp1686
atp1687
sI1074238316
(Vbootloader_random_disable
p1688
(lp1689
(L482324986L
L2935979744L
(lp1690
(lp1691
tp1692
atp1693
sI1074237032
(Vbootloader_common_ota_select_valid
p1694
(lp1695
(L1563399710L
L3785322319L
(lp1696
(lp1697
Vbootloader_common_ota_select_invalid
p1698
atp1699
a(L3814720849L
L3785322319L
(lp1700
(lp1701
Vbootloader_common_ota_select_crc
p1702
atp1703
a(L3360570486L
L0L
(lp1704
(lp1705
tp1706
atp1707
sI1074241384
(Vverify_load_addresses
p1708
(lp1709
(L2764487219L
L0L
(lp1710
(lp1711
tp1712
a(L106L
L0L
(lp1713
(lp1714
tp1715
a(L97642L
L0L
(lp1716
(lp1717
tp1718
a(L1682572953L
L4032149094L
(lp1719
(lp1720
V__assert_func
p1721
atp1722
a(L371731316L
L2195759072L
(lp1723
(lp1724
tp1725
a(L106L
L0L
(lp1726
(lp1727
tp1728
a(L3747671351L
L2195759072L
(lp1729
(lp1730
tp1731
a(L106L
L0L
(lp1732
(lp1733
tp1734
a(L159211233L
L4171435875L
(lp1735
(lp1736
Vbootloader_util_regions_overlap
p1737
atp1738
a(L3369736729L
L581251951L
(lp1739
(lp1740
Vbootloader_util_regions_overlap
p1741
atp1742
a(L3028481L
L0L
(lp1743
(lp1744
tp1745
a(L129067213L
L242900614L
(lp1746
(lp1747
Vbootloader_util_regions_overlap
p1748
atp1749
a(L51970127L
L2534110409L
(lp1750
(lp1751
tp1752
a(L3212477138L
L1443213481L
(lp1753
(lp1754
tp1755
a(L1032381749L
L0L
(lp1756
(lp1757
tp1758
a(L2837304413L
L0L
(lp1759
(lp1760
tp1761
a(L677569396L
L3785322319L
(lp1762
(lp1763
Vverify_load_addresses
p1764
atp1765
a(L1351513776L
L0L
(lp1766
(lp1767
tp1768
a(L956755582L
L0L
(lp1769
(lp1770
tp1771
a(L1550159667L
L1443213481L
(lp1772
(lp1773
tp1774
a(L2297907636L
L2195759072L
(lp1775
(lp1776
tp1777
a(L106L
L0L
(lp1778
(lp1779
tp1780
a(L1378880375L
L2195759072L
(lp1781
(lp1782
tp1783
a(L106L
L0L
(lp1784
(lp1785
tp1786
a(L1933245593L
L581251951L
(lp1787
(lp1788
Vbootloader_util_regions_overlap
p1789
atp1790
a(L3028481L
L0L
(lp1791
(lp1792
tp1793
a(L2219806806L
L581251951L
(lp1794
(lp1795
Vbootloader_util_regions_overlap
p1796
atp1797
a(L3186102034L
L1690040256L
(lp1798
(lp1799
tp1800
a(L1284972329L
L1443213481L
(lp1801
(lp1802
tp1803
a(L3236457224L
L1443213481L
(lp1804
(lp1805
tp1806
a(L2743341656L
L0L
(lp1807
(lp1808
tp1809
a(L182882711L
L0L
(lp1810
(lp1811
tp1812
a(L2268367078L
L2195759072L
(lp1813
(lp1814
tp1815
a(L297163306L
L0L
(lp1816
(lp1817
tp1818
a(L1900059593L
L0L
(lp1819
(lp1820
tp1821
a(L376010266L
L2534110409L
(lp1822
(lp1823
tp1824
a(L1319531632L
L1443213481L
(lp1825
(lp1826
tp1827
a(L3929371936L
L0L
(lp1828
(lp1829
tp1830
a(L147213506L
L1443213481L
(lp1831
(lp1832
tp1833
a(L4072848040L
L0L
(lp1834
(lp1835
tp1836
a(L106L
L0L
(lp1837
(lp1838
tp1839
a(L268651496L
L1443213481L
(lp1840
(lp1841
tp1842
a(L147213506L
L1443213481L
(lp1843
(lp1844
tp1845
a(L3020204L
L0L
(lp1846
(lp1847
tp1848
a(L885671544L
L2275292552L
(lp1849
(lp1850
Vesp_log_early_timestamp
p1851
atp1852
a(L1303560396L
L0L
(lp1853
(lp1854
tp1855
a(L268651496L
L1443213481L
(lp1856
(lp1857
tp1858
a(L1303560427L
L0L
(lp1859
(lp1860
tp1861
atp1862
sI1074241140
(Vprocess_image_header
p1863
(lp1864
(L3301900732L
L2218577417L
(lp1865
(lp1866
Vmemset
p1867
aVbootloader_flash_read
p1868
atp1869
a(L3020204L
L0L
(lp1870
(lp1871
tp1872
a(L4205021202L
L0L
(lp1873
(lp1874
tp1875
a(L321261932L
L0L
(lp1876
(lp1877
tp1878
a(L1161397362L
L3785322319L
(lp1879
(lp1880
Vbootloader_sha256_start
p1881
atp1882
a(L2062774299L
L3785322319L
(lp1883
(lp1884
Vbootloader_sha256_data
p1885
atp1886
a(L1291118193L
L0L
(lp1887
(lp1888
tp1889
a(L3028481L
L0L
(lp1890
(lp1891
tp1892
a(L559062533L
L3187408090L
(lp1893
(lp1894
Vesp_log_early_timestamp
p1895
atp1896
a(L147213506L
L1443213481L
(lp1897
(lp1898
tp1899
a(L2983970029L
L0L
(lp1900
(lp1901
tp1902
a(L4235213884L
L3785322319L
(lp1903
(lp1904
Vbootloader_common_check_chip_validity
p1905
atp1906
a(L4144303915L
L0L
(lp1907
(lp1908
tp1909
a(L3028481L
L0L
(lp1910
(lp1911
tp1912
a(L3714328738L
L3187408090L
(lp1913
(lp1914
Vesp_log_early_timestamp
p1915
atp1916
a(L2852701393L
L0L
(lp1917
(lp1918
tp1919
a(L2122516551L
L0L
(lp1920
(lp1921
tp1922
a(L3064492592L
L0L
(lp1923
(lp1924
tp1925
atp1926
sI1074246772
(Vrtc_clk_apb_freq_get
p1927
(lp1928
(L189810653L
L1679261929L
(lp1929
(lp1930
tp1931
atp1932
sI1074235248
(Vbootloader_execute_flash_command
p1933
(lp1934
(L2481595632L
L3785322319L
(lp1935
(lp1936
Vbootloader_flash_execute_command_common
p1937
atp1938
atp1939
sI1074247280
(Vrtc_clk_cal_ratio
p1940
(lp1941
(L3870710856L
L195123093L
(lp1942
(lp1943
Vrtc_clk_cal_internal
p1944
aV__udivdi3
p1945
atp1946
atp1947
sI1074240892
(V__assert_func
p1948
(lp1949
(L3115292802L
L2195759072L
(lp1950
(lp1951
tp1952
a(L106L
L0L
(lp1953
(lp1954
tp1955
atp1956
sI1074238844
(Vtry_load_partition
p1957
(lp1958
(L1263750142L
L0L
(lp1959
(lp1960
tp1961
a(L2258688482L
L0L
(lp1962
(lp1963
tp1964
a(L3360570486L
L0L
(lp1965
(lp1966
tp1967
a(L530241438L
L3785322319L
(lp1968
(lp1969
Vbootloader_load_image
p1970
atp1971
a(L4168266278L
L3187408090L
(lp1972
(lp1973
Vesp_log_early_timestamp
p1974
atp1975
atp1976
sI1074237308
(Vbootloader_common_get_active_otadata
p1977
(lp1978
(L3317503532L
L0L
(lp1979
(lp1980
tp1981
a(L2503049265L
L1832448559L
(lp1982
(lp1983
Vbootloader_common_ota_select_valid
p1984
aVbootloader_common_ota_select_valid
p1985
aVbootloader_common_select_otadata
p1986
atp1987
a(L735741265L
L0L
(lp1988
(lp1989
tp1990
atp1991
sI1074234744
(Vesp_flash_encryption_enabled
p1992
(lp1993
(L376617603L
L3785322319L
(lp1994
(lp1995
Vefuse_hal_flash_encryption_enabled
p1996
atp1997
atp1998
sI1074245496
(Vrtc_clk_slow_src_get
p1999
(lp2000
(L1566794270L
L1443213481L
(lp2001
(lp2002
tp2003
a(L3020187L
L0L
(lp2004
(lp2005
tp2006
a(L2902417580L
L0L
(lp2007
(lp2008
tp2009
a(L2258688485L
L0L
(lp2010
(lp2011
tp2012
a(L3360570486L
L0L
(lp2013
(lp2014
tp2015
atp2016
sI1074239876
(Vbootloader_utility_get_selected_boot_partition
p2017
(lp2018
(L2938832293L
L0L
(lp2019
(lp2020
tp2021
a(L2250662613L
L1443213481L
(lp2022
(lp2023
tp2024
a(L3987062097L
L2147981551L
(lp2025
(lp2026
Vesp_log_early_timestamp
p2027
atp2028
a(L558289164L
L1443213481L
(lp2029
(lp2030
tp2031
a(L3360570486L
L0L
(lp2032
(lp2033
tp2034
a(L3118387733L
L3785322319L
(lp2035
(lp2036
Vbootloader_mmap
p2037
atp2038
a(L3080008394L
L2147981551L
(lp2039
(lp2040
Vesp_log_early_timestamp
p2041
atp2042
a(L937961821L
L2410515468L
(lp2043
(lp2044
Vmemcpy
p2045
aVmemcpy
p2046
aVbootloader_munmap
p2047
aVbootloader_common_ota_select_invalid
p2048
atp2049
a(L2911028409L
L0L
(lp2050
(lp2051
tp2052
a(L726754926L
L3785322319L
(lp2053
(lp2054
Vbootloader_common_get_active_otadata
p2055
atp2056
a(L106L
L0L
(lp2057
(lp2058
tp2059
a(L4179097382L
L0L
(lp2060
(lp2061
tp2062
a(L788494392L
L3785322319L
(lp2063
(lp2064
Vbootloader_common_ota_select_invalid
p2065
atp2066
a(L638952356L
L1443213481L
(lp2067
(lp2068
tp2069
a(L1522345576L
L3833084538L
(lp2070
(lp2071
Vesp_log_early_timestamp
p2072
atp2073
a(L4207910112L
L1443213481L
(lp2074
(lp2075
tp2076
a(L1641201884L
L0L
(lp2077
(lp2078
tp2079
a(L3196944801L
L2147981551L
(lp2080
(lp2081
Vesp_log_early_timestamp
p2082
atp2083
a(L2302032704L
L0L
(lp2084
(lp2085
tp2086
a(L1173788779L
L3785322319L
(lp2087
(lp2088
Vbootloader_common_ota_select_crc
p2089
atp2090
a(L178397698L
L1443213481L
(lp2091
(lp2092
tp2093
a(L1324800084L
L3785322319L
(lp2094
(lp2095
Vbootloader_common_ota_select_crc
p2096
atp2097
a(L1299866312L
L0L
(lp2098
(lp2099
tp2100
a(L2704362655L
L1443213481L
(lp2101
(lp2102
tp2103
a(L344024800L
L3833084538L
(lp2104
(lp2105
Vesp_log_early_timestamp
p2106
atp2107
a(L1194215008L
L3833084538L
(lp2108
(lp2109
Vesp_log_early_timestamp
p2110
atp2111
atp2112
sI1074236804
(Vefuse_hal_get_major_chip_version
p2113
(lp2114
(L1572156932L
L2195759072L
(lp2115
(lp2116
tp2117
a(L894792960L
L0L
(lp2118
(lp2119
tp2120
a(L724635033L
L0L
(lp2121
(lp2122
tp2123
a(L3360570486L
L0L
(lp2124
(lp2125
tp2126
atp2127
sI1074234756
(Vbootloader_flash_execute_command_common
p2128
(lp2129
(L1988465817L
L0L
(lp2130
(lp2131
tp2132
a(L2946944720L
L2195759072L
(lp2133
(lp2134
tp2135
a(L2213948952L
L242900614L
(lp2136
(lp2137
V__assert_func
p2138
atp2139
a(L3021749L
L0L
(lp2140
(lp2141
tp2142
a(L1160973241L
L2195759072L
(lp2143
(lp2144
tp2145
a(L2792673601L
L1679261929L
(lp2146
(lp2147
tp2148
a(L3792188146L
L0L
(lp2149
(lp2150
tp2151
a(L4024113366L
L0L
(lp2152
(lp2153
tp2154
a(L3275299125L
L1443213481L
(lp2155
(lp2156
tp2157
a(L2232084959L
L2534110409L
(lp2158
(lp2159
tp2160
a(L1099389923L
L0L
(lp2161
(lp2162
tp2163
a(L857553440L
L2195759072L
(lp2164
(lp2165
tp2166
a(L3877681344L
L0L
(lp2167
(lp2168
tp2169
a(L73134175L
L1443213481L
(lp2170
(lp2171
tp2172
a(L1270255739L
L0L
(lp2173
(lp2174
tp2175
a(L3691039583L
L0L
(lp2176
(lp2177
tp2178
a(L3411317116L
L0L
(lp2179
(lp2180
tp2181
a(L3360570486L
L0L
(lp2182
(lp2183
tp2184
atp2185
sI1074245764
(Vrtc_clk_cpu_freq_get_config
p2186
(lp2187
(L4245581454L
L1443213481L
(lp2188
(lp2189
tp2190
a(L3020187L
L0L
(lp2191
(lp2192
tp2193
a(L3020187L
L0L
(lp2194
(lp2195
tp2196
a(L2734221335L
L242900614L
(lp2197
(lp2198
Vrtc_clk_xtal_freq_get
p2199
atp2200
a(L3789795478L
L0L
(lp2201
(lp2202
tp2203
a(L672805395L
L2704288053L
(lp2204
(lp2205
Vesp_log_early_timestamp
p2206
aVabort
p2207
atp2208
a(L3849169076L
L1443213481L
(lp2209
(lp2210
tp2211
a(L3020187L
L0L
(lp2212
(lp2213
tp2214
a(L3028481L
L0L
(lp2215
(lp2216
tp2217
a(L38508693L
L0L
(lp2218
(lp2219
tp2220
a(L187152368L
L0L
(lp2221
(lp2222
tp2223
a(L1161083655L
L0L
(lp2224
(lp2225
tp2226
a(L1395485899L
L0L
(lp2227
(lp2228
tp2229
a(L2070600034L
L0L
(lp2230
(lp2231
tp2232
atp2233
sI1074270092
(Vrtc_clk_xtal_freq_estimate
p2234
(lp2235
(L1823831978L
L1880226080L
(lp2236
(lp2237
Vrtc_clk_8m_enabled
p2238
aVrtc_clk_8md256_enabled
p2239
atp2240
a(L2449794434L
L3785322319L
(lp2241
(lp2242
Vrtc_clk_8m_enable
p2243
atp2244
a(L3726876033L
L2704288053L
(lp2245
(lp2246
Vrtc_clk_cal_ratio
p2247
aV__udivdi3
p2248
atp2249
a(L3934977694L
L0L
(lp2250
(lp2251
tp2252
a(L3955289886L
L0L
(lp2253
(lp2254
tp2255
a(L2553207239L
L3187408090L
(lp2256
(lp2257
Vesp_log_early_timestamp
p2258
atp2259
a(L2307427870L
L0L
(lp2260
(lp2261
tp2262
a(L1281346514L
L3785322319L
(lp2263
(lp2264
Vrtc_clk_8m_enable
p2265
atp2266
a(L3909119106L
L0L
(lp2267
(lp2268
tp2269
a(L2298857999L
L3187408090L
(lp2270
(lp2271
Vesp_log_early_timestamp
p2272
atp2273
a(L3304487880L
L0L
(lp2274
(lp2275
tp2276
a(L1641150486L
L0L
(lp2277
(lp2278
tp2279
a(L2026357443L
L3187408090L
(lp2280
(lp2281
Vesp_log_early_timestamp
p2282
atp2283
atp2284
sI1074237068
(Vbootloader_common_check_chip_validity
p2285
(lp2286
(L2080115690L
L0L
(lp2287
(lp2288
tp2289
a(L3255759481L
L3187408090L
(lp2290
(lp2291
Vesp_log_early_timestamp
p2292
atp2293
a(L1299867982L
L0L
(lp2294
(lp2295
tp2296
a(L3360570486L
L0L
(lp2297
(lp2298
tp2299
a(L521940037L
L3785322319L
(lp2300
(lp2301
Vefuse_hal_chip_revision
p2302
atp2303
a(L332291457L
L1443213481L
(lp2304
(lp2305
tp2306
a(L780168284L
L362179215L
(lp2307
(lp2308
Vesp_log_early_timestamp
p2309
atp2310
a(L3028464L
L0L
(lp2311
(lp2312
tp2313
a(L573448730L
L0L
(lp2314
(lp2315
tp2316
a(L106L
L0L
(lp2317
(lp2318
tp2319
a(L3027019L
L0L
(lp2320
(lp2321
tp2322
a(L106L
L0L
(lp2323
(lp2324
tp2325
a(L3212356251L
L3785322319L
(lp2326
(lp2327
Vefuse_hal_get_disable_wafer_version_major
p2328
atp2329
a(L2465410698L
L362179215L
(lp2330
(lp2331
Vesp_log_early_timestamp
p2332
atp2333
atp2334
sI1074240916
(Vabort
p2335
(lp2336
(L2564459292L
L1690040256L
(lp2337
(lp2338
tp2339
a(L409471316L
L0L
(lp2340
(lp2341
tp2342
a(L106L
L0L
(lp2343
(lp2344
tp2345
atp2346
sI1074245524
(Vrtc_clk_slow_freq_get_hz
p2347
(lp2348
(L1826267122L
L3785322319L
(lp2349
(lp2350
Vrtc_clk_slow_src_get
p2351
atp2352
a(L1872507229L
L1443213481L
(lp2353
(lp2354
tp2355
a(L2221201615L
L1443213481L
(lp2356
(lp2357
tp2358
a(L3360570486L
L0L
(lp2359
(lp2360
tp2361
atp2362
sI1074244752
(Vefuse_hal_get_rated_freq_mhz
p2363
(lp2364
(L1158870592L
L1443213481L
(lp2365
(lp2366
tp2367
a(L338960367L
L0L
(lp2368
(lp2369
tp2370
a(L3360570486L
L0L
(lp2371
(lp2372
tp2373
atp2374
sI1074235280
(Vbootloader_flash_unlock
p2375
(lp2376
(L1368360454L
L242900614L
(lp2377
(lp2378
Vesp_rom_spiflash_wait_idle
p2379
atp2380
a(L1574074940L
L0L
(lp2381
(lp2382
tp2383
a(L1667462067L
L3785322319L
(lp2384
(lp2385
Vbootloader_execute_flash_command
p2386
atp2387
a(L106L
L0L
(lp2388
(lp2389
tp2390
a(L1013678540L
L0L
(lp2391
(lp2392
tp2393
a(L2529045083L
L0L
(lp2394
(lp2395
tp2396
a(L990750093L
L1832448559L
(lp2397
(lp2398
Vesp_rom_spiflash_wait_idle
p2399
aVbootloader_execute_flash_command
p2400
aVbootloader_execute_flash_command
p2401
atp2402
a(L993671302L
L1832448559L
(lp2403
(lp2404
Vesp_rom_spiflash_wait_idle
p2405
aVbootloader_execute_flash_command
p2406
aVbootloader_execute_flash_command
p2407
atp2408
a(L1209048744L
L1880226080L
(lp2409
(lp2410
Vesp_rom_spiflash_wait_idle
p2411
aVbootloader_execute_flash_command
p2412
atp2413
a(L3162775668L
L0L
(lp2414
(lp2415
tp2416
a(L2435612105L
L0L
(lp2417
(lp2418
tp2419
a(L3664359624L
L0L
(lp2420
(lp2421
tp2422
a(L2074930120L
L1880226080L
(lp2423
(lp2424
Vbootloader_execute_flash_command
p2425
aVbootloader_execute_flash_command
p2426
atp2427
a(L2125014318L
L0L
(lp2428
(lp2429
tp2430
a(L568821667L
L0L
(lp2431
(lp2432
tp2433
a(L1711531685L
L1880226080L
(lp2434
(lp2435
Vbootloader_execute_flash_command
p2436
aVbootloader_execute_flash_command
p2437
atp2438
a(L3658700047L
L0L
(lp2439
(lp2440
tp2441
a(L3269997774L
L0L
(lp2442
(lp2443
tp2444
a(L106L
L0L
(lp2445
(lp2446
tp2447
a(L2993202392L
L0L
(lp2448
(lp2449
tp2450
atp2451
sI1074236560
(Vesp_rom_set_cpu_ticks_per_us
p2452
(lp2453
(L396058732L
L2195759072L
(lp2454
(lp2455
tp2456
atp2457
sI1074247312
(Vrtc_clk_wait_for_slow_cycle
p2458
(lp2459
(L2844697221L
L2624587680L
(lp2460
(lp2461
tp2462
a(L287687718L
L0L
(lp2463
(lp2464
tp2465
a(L3360570486L
L0L
(lp2466
(lp2467
tp2468
a(L3843203427L
L1443213481L
(lp2469
(lp2470
tp2471
a(L1300789833L
L0L
(lp2472
(lp2473
tp2474
a(L1259765481L
L0L
(lp2475
(lp2476
tp2477
a(L17340776L
L1443213481L
(lp2478
(lp2479
tp2480
a(L329680227L
L3187408090L
(lp2481
(lp2482
Vesp_log_early_timestamp
p2483
atp2484
atp2485
sI1074268048
(Vbootloader_init
p2486
(lp2487
(L2778985116L
L362179215L
(lp2488
(lp2489
Vbootloader_init_mem
p2490
atp2491
a(L2588916198L
L2195759072L
(lp2492
(lp2493
tp2494
a(L2569579240L
L242900614L
(lp2495
(lp2496
V__assert_func
p2497
atp2498
a(L2041988382L
L2534110409L
(lp2499
(lp2500
tp2501
a(L2946990947L
L2195759072L
(lp2502
(lp2503
tp2504
a(L3813782018L
L0L
(lp2505
(lp2506
tp2507
a(L2946991009L
L2195759072L
(lp2508
(lp2509
tp2510
a(L3027019L
L0L
(lp2511
(lp2512
tp2513
a(L2946991040L
L2195759072L
(lp2514
(lp2515
tp2516
a(L4055793689L
L1832448559L
(lp2517
(lp2518
Vbootloader_clear_bss_section
p2519
aVbootloader_common_vddsdio_configure
p2520
aVbootloader_clock_get_rated_freq_mhz
p2521
atp2522
a(L106L
L0L
(lp2523
(lp2524
tp2525
a(L1943573098L
L2769615034L
(lp2526
(lp2527
Vbootloader_clock_configure
p2528
aVbootloader_console_init
p2529
aVbootloader_print_banner
p2530
aVbootloader_flash_update_id
p2531
aVbootloader_flash_xmc_startup
p2532
atp2533
a(L3014296803L
L3187408090L
(lp2534
(lp2535
Vesp_log_early_timestamp
p2536
atp2537
a(L4245842452L
L3187408090L
(lp2538
(lp2539
Vesp_log_early_timestamp
p2540
atp2541
a(L3360570486L
L0L
(lp2542
(lp2543
tp2544
a(L2444883382L
L3785322319L
(lp2545
(lp2546
Vbootloader_read_bootloader_header
p2547
atp2548
a(L2444883382L
L3785322319L
(lp2549
(lp2550
Vbootloader_check_bootloader_validity
p2551
atp2552
a(L2444883382L
L3785322319L
(lp2553
(lp2554
Vbootloader_init_spi_flash
p2555
atp2556
a(L1947007263L
L2195759072L
(lp2557
(lp2558
tp2559
a(L254817508L
L0L
(lp2560
(lp2561
tp2562
a(L93892250L
L0L
(lp2563
(lp2564
tp2565
a(L2915015718L
L0L
(lp2566
(lp2567
tp2568
a(L1460895057L
L2218577417L
(lp2569
(lp2570
Vbootloader_config_wdt
p2571
aVbootloader_enable_random
p2572
atp2573
a(L1895147938L
L0L
(lp2574
(lp2575
tp2576
a(L2680457259L
L0L
(lp2577
(lp2578
tp2579
a(L3027019L
L0L
(lp2580
(lp2581
tp2582
a(L97315L
L0L
(lp2583
(lp2584
tp2585
a(L3014296803L
L3187408090L
(lp2586
(lp2587
Vesp_log_early_timestamp
p2588
atp2589
a(L1766563386L
L3187408090L
(lp2590
(lp2591
Vesp_log_early_timestamp
p2592
atp2593
a(L3164960223L
L0L
(lp2594
(lp2595
tp2596
a(L1895147938L
L0L
(lp2597
(lp2598
tp2599
a(L156585483L
L1880226080L
(lp2600
(lp2601
Vwdt_reset_info_dump
p2602
aVwdt_reset_info_dump
p2603
atp2604
atp2605
sI1074268560
(Vbootloader_common_vddsdio_configure
p2606
(lp2607
(L1829974089L
L3785322319L
(lp2608
(lp2609
Vrtc_vddsdio_get_config
p2610
atp2611
a(L351649043L
L3833084538L
(lp2612
(lp2613
Vrtc_vddsdio_set_config
p2614
atp2615
a(L3360570486L
L0L
(lp2616
(lp2617
tp2618
atp2619
sI1074270864
(Vrtc_vddsdio_set_config
p2620
(lp2621
(L3557742407L
L1443213481L
(lp2622
(lp2623
tp2624
atp2625
sI1074244504
(Vwdt_hal_write_protect_disable
p2626
(lp2627
(L3085072089L
L1443213481L
(lp2628
(lp2629
tp2630
a(L4195472003L
L0L
(lp2631
(lp2632
tp2633
a(L3360570486L
L0L
(lp2634
(lp2635
tp2636
a(L1210571996L
L0L
(lp2637
(lp2638
tp2639
atp2640
sI1074241944
(Vshould_load
p2641
(lp2642
(L4190720747L
L2534110409L
(lp2643
(lp2644
tp2645
a(L1182990556L
L0L
(lp2646
(lp2647
tp2648
a(L1744532171L
L1443213481L
(lp2649
(lp2650
tp2651
a(L2306467100L
L0L
(lp2652
(lp2653
tp2654
a(L4034276159L
L1443213481L
(lp2655
(lp2656
tp2657
a(L2258897019L
L0L
(lp2658
(lp2659
tp2660
a(L3781799363L
L0L
(lp2661
(lp2662
tp2663
a(L3028464L
L0L
(lp2664
(lp2665
tp2666
a(L166133047L
L2195759072L
(lp2667
(lp2668
tp2669
a(L4277114872L
L0L
(lp2670
(lp2671
tp2672
a(L2824381917L
L0L
(lp2673
(lp2674
tp2675
a(L1243412227L
L0L
(lp2676
(lp2677
tp2678
a(L2011157548L
L0L
(lp2679
(lp2680
tp2681
a(L3126521138L
L0L
(lp2682
(lp2683
tp2684
a(L1305407438L
L0L
(lp2685
(lp2686
tp2687
a(L1305407469L
L0L
(lp2688
(lp2689
tp2690
atp2691
sI1074247576
(Vesp_rom_spiflash_wait_idle
p2692
(lp2693
(L1698121947L
L1443213481L
(lp2694
(lp2695
tp2696
a(L2023766174L
L0L
(lp2697
(lp2698
tp2699
a(L147213506L
L1443213481L
(lp2700
(lp2701
tp2702
a(L3086959262L
L0L
(lp2703
(lp2704
tp2705
a(L4161019926L
L3785322319L
(lp2706
(lp2707
Vesp_rom_spiflash_read_status
p2708
atp2709
atp2710
sI1074237348
(Vbootloader_common_ota_select_invalid
p2711
(lp2712
(L4027567199L
L0L
(lp2713
(lp2714
tp2715
a(L3397985842L
L0L
(lp2716
(lp2717
tp2718
a(L2258867228L
L0L
(lp2719
(lp2720
tp2721
a(L3785235668L
L0L
(lp2722
(lp2723
tp2724
atp2725
sI1074236576
(Vesp_rom_uart_tx_wait_idle
p2726
(lp2727
(L3110839460L
L2534110409L
(lp2728
(lp2729
tp2730
a(L1301079727L
L0L
(lp2731
(lp2732
tp2733
a(L597952197L
L0L
(lp2734
(lp2735
tp2736
a(L1971823332L
L0L
(lp2737
(lp2738
tp2739
a(L3055926844L
L0L
(lp2740
(lp2741
tp2742
a(L3360570486L
L0L
(lp2743
(lp2744
tp2745
a(L3694491048L
L0L
(lp2746
(lp2747
tp2748
a(L106L
L0L
(lp2749
(lp2750
tp2751
atp2752
sI1074239392
(Vset_actual_ota_seq
p2753
(lp2754
(L4094723830L
L0L
(lp2755
(lp2756
tp2757
a(L3504298995L
L2195759072L
(lp2758
(lp2759
tp2760
a(L3856681007L
L961634322L
(lp2761
(lp2762
Vmemset
p2763
aVbootloader_common_ota_select_crc
p2764
aVesp_flash_encryption_enabled
p2765
aVbootloader_flash_erase_sector
p2766
atp2767
a(L2768623893L
L3785322319L
(lp2768
(lp2769
Vbootloader_flash_write
p2770
atp2771
a(L3693339703L
L2147981551L
(lp2772
(lp2773
Vesp_log_early_timestamp
p2774
atp2775
a(L3903819434L
L2147981551L
(lp2776
(lp2777
Vesp_log_early_timestamp
p2778
atp2779
a(L3360570486L
L0L
(lp2780
(lp2781
tp2782
atp2783
sI1074246816
(Vrtc_clk_cal_internal
p2784
(lp2785
(L4103044880L
L1443213481L
(lp2786
(lp2787
tp2788
a(L3906046821L
L4032149094L
(lp2789
(lp2790
V__assert_func
p2791
atp2792
a(L3821006588L
L1443213481L
(lp2793
(lp2794
tp2795
a(L1673513644L
L0L
(lp2796
(lp2797
tp2798
a(L2719210992L
L4021370767L
(lp2799
(lp2800
Vrtc_clk_slow_src_get
p2801
atp2802
a(L3008910671L
L0L
(lp2803
(lp2804
tp2805
a(L97689L
L0L
(lp2806
(lp2807
tp2808
a(L1872507229L
L1443213481L
(lp2809
(lp2810
tp2811
a(L3028464L
L0L
(lp2812
(lp2813
tp2814
a(L3028481L
L0L
(lp2815
(lp2816
tp2817
a(L147213506L
L1443213481L
(lp2818
(lp2819
tp2820
a(L3455571058L
L1374507264L
(lp2821
(lp2822
V__udivdi3
p2823
aVrtc_clk_xtal_freq_get
p2824
atp2825
a(L2780079961L
L0L
(lp2826
(lp2827
tp2828
a(L4208562267L
L1443213481L
(lp2829
(lp2830
tp2831
a(L4114459891L
L3187408090L
(lp2832
(lp2833
Vesp_log_early_timestamp
p2834
atp2835
a(L2258688482L
L0L
(lp2836
(lp2837
tp2838
a(L3360570486L
L0L
(lp2839
(lp2840
tp2841
a(L3553505594L
L0L
(lp2842
(lp2843
tp2844
a(L403361192L
L0L
(lp2845
(lp2846
tp2847
a(L3243404432L
L3785322319L
(lp2848
(lp2849
Vrtc_clk_8m_enable
p2850
atp2851
a(L390546255L
L2195759072L
(lp2852
(lp2853
tp2854
a(L3586367509L
L1443213481L
(lp2855
(lp2856
tp2857
a(L2910371777L
L0L
(lp2858
(lp2859
tp2860
a(L2902417580L
L0L
(lp2861
(lp2862
tp2863
a(L3082259486L
L1443213481L
(lp2864
(lp2865
tp2866
a(L3020204L
L0L
(lp2867
(lp2868
tp2869
a(L603598685L
L1443213481L
(lp2870
(lp2871
tp2872
a(L3429540926L
L0L
(lp2873
(lp2874
tp2875
a(L3028464L
L0L
(lp2876
(lp2877
tp2878
a(L615477255L
L242900614L
(lp2879
(lp2880
Vrtc_clk_8m_enable
p2881
atp2882
atp2883
sI1074269344
(Vbootloader_flash_update_id
p2884
(lp2885
(L296988142L
L3833084538L
(lp2886
(lp2887
Vbootloader_read_flash_id
p2888
atp2889
atp2890
sI1074238892
(Vcache_ll_l1_enable_bus
p2891
(lp2892
(L318252209L
L1443213481L
(lp2893
(lp2894
tp2895
atp2896
sI1074240680
(Vbootloader_sha256_finish
p2897
(lp2898
(L4066096136L
L0L
(lp2899
(lp2900
tp2901
a(L1697654722L
L2195759072L
(lp2902
(lp2903
tp2904
a(L2213948952L
L242900614L
(lp2905
(lp2906
V__assert_func
p2907
atp2908
a(L3020204L
L0L
(lp2909
(lp2910
tp2911
a(L2888288470L
L2534110409L
(lp2912
(lp2913
tp2914
a(L2534656226L
L0L
(lp2915
(lp2916
tp2917
a(L2740629735L
L4171435875L
(lp2918
(lp2919
Vbootloader_sha256_data
p2920
atp2921
a(L2946948570L
L2195759072L
(lp2922
(lp2923
tp2924
a(L354914383L
L2790500905L
(lp2925
(lp2926
V__bswapsi2
p2927
aVbootloader_sha256_data
p2928
atp2929
a(L2946948756L
L2195759072L
(lp2930
(lp2931
tp2932
a(L657425439L
L0L
(lp2933
(lp2934
tp2935
a(L4173600236L
L1443213481L
(lp2936
(lp2937
tp2938
a(L657425439L
L0L
(lp2939
(lp2940
tp2941
a(L2046284480L
L2195759072L
(lp2942
(lp2943
tp2944
a(L3616504601L
L4171435875L
(lp2945
(lp2946
V__bswapsi2
p2947
atp2948
a(L3347778L
L0L
(lp2949
(lp2950
tp2951
a(L3360570486L
L0L
(lp2952
(lp2953
tp2954
atp2955
sI1074238632
(Vbootloader_clock_get_rated_freq_mhz
p2956
(lp2957
(L376617603L
L3785322319L
(lp2958
(lp2959
Vefuse_hal_get_rated_freq_mhz
p2960
atp2961
atp2962
sI1074268856
(Vbootloader_random_enable
p2963
(lp2964
(L2397175084L
L664430240L
(lp2965
(lp2966
tp2967
atp2968
sI1074238644
(Vlog_invalid_app_partition
p2969
(lp2970
(L2157385331L
L2195759072L
(lp2971
(lp2972
tp2973
a(L3028464L
L0L
(lp2974
(lp2975
tp2976
a(L1760520779L
L3833084538L
(lp2977
(lp2978
Vesp_log_early_timestamp
p2979
atp2980
a(L4207910112L
L1443213481L
(lp2981
(lp2982
tp2983
a(L3360570486L
L0L
(lp2984
(lp2985
tp2986
a(L3212513603L
L3833084538L
(lp2987
(lp2988
Vesp_log_early_timestamp
p2989
atp2990
a(L431938678L
L2147981551L
(lp2991
(lp2992
Vesp_log_early_timestamp
p2993
atp2994
atp2995
sI1074244788
(Vrtc_clk_32k_enable_common
p2996
(lp2997
(L2821256590L
L2195759072L
(lp2998
(lp2999
tp3000
a(L97422L
L0L
(lp3001
(lp3002
tp3003
a(L2218417248L
L0L
(lp3004
(lp3005
tp3006
a(L339634797L
L1443213481L
(lp3007
(lp3008
tp3009
a(L51458120L
L0L
(lp3010
(lp3011
tp3012
atp3013
sI1074240176
(Vbootloader_reset
p3014
(lp3015
(L479276581L
L2147981551L
(lp3016
(lp3017
Vbootloader_console_deinit
p3018
atp3019
a(L106L
L0L
(lp3020
(lp3021
tp3022
atp3023
sI1074245552
(Vrtc_clk_fast_src_set
p3024
(lp3025
(L1089140614L
L1443213481L
(lp3026
(lp3027
tp3028
a(L3020187L
L0L
(lp3029
(lp3030
tp3031
a(L3827921190L
L3785322319L
(lp3032
(lp3033
Vabort
p3034
atp3035
a(L2578095160L
L1443213481L
(lp3036
(lp3037
tp3038
a(L4159388630L
L1443213481L
(lp3039
(lp3040
tp3041
a(L300459962L
L0L
(lp3042
(lp3043
tp3044
atp3045
sI1074267824
(Vwdt_reset_info_dump
p3046
(lp3047
(L4037458708L
L0L
(lp3048
(lp3049
tp3050
a(L2865144428L
L4200222560L
(lp3051
(lp3052
tp3053
a(L217258670L
L0L
(lp3054
(lp3055
tp3056
a(L1103285333L
L0L
(lp3057
(lp3058
tp3059
a(L3750088731L
L2147981551L
(lp3060
(lp3061
Vesp_log_early_timestamp
p3062
atp3063
a(L3245125974L
L1443213481L
(lp3064
(lp3065
tp3066
a(L2920131454L
L4200222560L
(lp3067
(lp3068
tp3069
a(L3355528239L
L2147981551L
(lp3070
(lp3071
Vesp_log_early_timestamp
p3072
atp3073
atp3074
sI1074268848
(Vbootloader_init_mem
p3075
(lp3076
(L1287383080L
L3785322319L
(lp3077
(lp3078
Vesp_cpu_configure_region_protection
p3079
atp3080
atp3081
sI1074269360
(Vbootloader_init_spi_flash
p3082
(lp3083
(L1876290435L
L1994585993L
(lp3084
(lp3085
Vbootloader_flash_gpio_config
p3086
aVbootloader_flash_dummy_config
p3087
aVbootloader_flash_cs_timing_config
p3088
aVbootloader_flash_unlock
p3089
atp3090
a(L499308289L
L1443213481L
(lp3091
(lp3092
tp3093
a(L1872507246L
L1443213481L
(lp3094
(lp3095
tp3096
a(L147213506L
L1443213481L
(lp3097
(lp3098
tp3099
a(L83726857L
L2426646996L
(lp3100
(lp3101
Vesp_log_early_timestamp
p3102
aVbootloader_flash_get_spi_mode
p3103
atp3104
a(L93674324L
L0L
(lp3105
(lp3106
tp3107
a(L4183135214L
L1443213481L
(lp3108
(lp3109
tp3110
a(L147213506L
L1443213481L
(lp3111
(lp3112
tp3113
a(L3875746660L
L362179215L
(lp3114
(lp3115
Vesp_log_early_timestamp
p3116
atp3117
a(L93674324L
L0L
(lp3118
(lp3119
tp3120
a(L4183135214L
L1443213481L
(lp3121
(lp3122
tp3123
a(L1872507229L
L1443213481L
(lp3124
(lp3125
tp3126
a(L268651496L
L1443213481L
(lp3127
(lp3128
tp3129
a(L1872507229L
L1443213481L
(lp3130
(lp3131
tp3132
a(L1872507229L
L1443213481L
(lp3133
(lp3134
tp3135
a(L268651496L
L1443213481L
(lp3136
(lp3137
tp3138
a(L1872515506L
L1443213481L
(lp3139
(lp3140
tp3141
a(L1005860105L
L3187408090L
(lp3142
(lp3143
Vesp_log_early_timestamp
p3144
atp3145
a(L93674324L
L0L
(lp3146
(lp3147
tp3148
a(L3422553167L
L0L
(lp3149
(lp3150
tp3151
a(L1707909459L
L0L
(lp3152
(lp3153
tp3154
a(L4101522284L
L0L
(lp3155
(lp3156
tp3157
a(L3944678822L
L2082837423L
(lp3158
(lp3159
Vbootloader_enable_wp
p3160
atp3161
a(L3907331784L
L0L
(lp3162
(lp3163
tp3164
atp3165
sI1074235580
(Vbootloader_flash_read_sfdp
p3166
(lp3167
(L711701400L
L0L
(lp3168
(lp3169
tp3170
a(L17919673L
L4032149094L
(lp3171
(lp3172
V__assert_func
p3173
atp3174
a(L3704332455L
L3785322319L
(lp3175
(lp3176
Vbootloader_flash_execute_command_common
p3177
atp3178
atp3179
sI1074235832
(Vbootloader_flash_cs_timing_config
p3180
(lp3181
(L1222249594L
L1690040256L
(lp3182
(lp3183
tp3184
atp3185
sI1074240440
(Vindex_to_partition
p3186
(lp3187
(L4066096119L
L0L
(lp3188
(lp3189
tp3190
a(L1101255660L
L0L
(lp3191
(lp3192
tp3193
a(L1955702725L
L0L
(lp3194
(lp3195
tp3196
a(L3698927993L
L0L
(lp3197
(lp3198
tp3199
a(L2808906342L
L0L
(lp3200
(lp3201
tp3202
a(L4211744375L
L0L
(lp3203
(lp3204
tp3205
a(L3097778015L
L0L
(lp3206
(lp3207
tp3208
a(L1816235430L
L0L
(lp3209
(lp3210
tp3211
a(L2179185678L
L0L
(lp3212
(lp3213
tp3214
a(L3369319173L
L0L
(lp3215
(lp3216
tp3217
atp3218
sI1074244536
(Vwdt_hal_set_flashboot_en
p3219
(lp3220
(L2375320464L
L0L
(lp3221
(lp3222
tp3223
a(L3915867581L
L0L
(lp3224
(lp3225
tp3226
a(L3360570486L
L0L
(lp3227
(lp3228
tp3229
a(L3823116953L
L1443213481L
(lp3230
(lp3231
tp3232
atp3233
sI1074268616
(Vbootloader_clock_configure
p3234
(lp3235
(L2559598596L
L1880226080L
(lp3236
(lp3237
Vesp_rom_uart_tx_wait_idle
p3238
aVefuse_hal_chip_revision
p3239
atp3240
a(L1757625900L
L1443213481L
(lp3241
(lp3242
tp3243
a(L741498227L
L1443213481L
(lp3244
(lp3245
tp3246
a(L106L
L0L
(lp3247
(lp3248
tp3249
a(L4228321918L
L1405109379L
(lp3250
(lp3251
Vrtc_clk_slow_src_get
p3252
aVrtc_clk_fast_src_get
p3253
aVrtc_clk_init
p3254
atp3255
a(L2538867838L
L2195759072L
(lp3256
(lp3257
tp3258
a(L1038013235L
L3833084538L
(lp3259
(lp3260
Vrtc_clk_apb_freq_get
p3261
atp3262
a(L106L
L0L
(lp3263
(lp3264
tp3265
a(L106L
L0L
(lp3266
(lp3267
tp3268
atp3269
sI1074240964
(Vbootloader_ana_clock_glitch_reset_config
p3270
(lp3271
(L2100504542L
L0L
(lp3272
(lp3273
tp3274
atp3275
sI1074237376
(Vbootloader_common_select_otadata
p3276
(lp3277
(L4071767857L
L0L
(lp3278
(lp3279
tp3280
a(L1999329187L
L0L
(lp3281
(lp3282
tp3283
a(L3846398843L
L0L
(lp3284
(lp3285
tp3286
a(L2501968171L
L0L
(lp3287
(lp3288
tp3289
a(L3360570486L
L0L
(lp3290
(lp3291
tp3292
a(L2045232488L
L0L
(lp3293
(lp3294
tp3295
a(L1243525916L
L0L
(lp3296
(lp3297
tp3298
a(L3094144427L
L0L
(lp3299
(lp3300
tp3301
a(L2399509845L
L0L
(lp3302
(lp3303
tp3304
a(L1641201884L
L0L
(lp3305
(lp3306
tp3307
atp3308
sI1074247872
(Vesp_rom_spiflash_erase_sector
p3309
(lp3310
(L3892694408L
L1679261929L
(lp3311
(lp3312
tp3313
a(L2258688483L
L0L
(lp3314
(lp3315
tp3316
a(L3360570486L
L0L
(lp3317
(lp3318
tp3319
a(L3212356251L
L3785322319L
(lp3320
(lp3321
Vesp_rom_spiflash_enable_write
p3322
atp3323
a(L184152988L
L0L
(lp3324
(lp3325
tp3326
a(L1036552696L
L362179215L
(lp3327
(lp3328
Vesp_rom_spiflash_wait_idle
p3329
atp3330
a(L3333707777L
L0L
(lp3331
(lp3332
tp3333
a(L3582858798L
L3785322319L
(lp3334
(lp3335
Vesp_rom_spiflash_wait_idle
p3336
atp3337
atp3338
sI1074240972
(Vprocess_checksum
p3339
(lp3340
(L166193219L
L242900614L
(lp3341
(lp3342
Vmemset
p3343
atp3344
a(L3028481L
L0L
(lp3345
(lp3346
tp3347
a(L186886970L
L0L
(lp3348
(lp3349
tp3350
a(L2902417580L
L0L
(lp3351
(lp3352
tp3353
a(L3028481L
L0L
(lp3354
(lp3355
tp3356
a(L169792351L
L3187408090L
(lp3357
(lp3358
Vesp_log_early_timestamp
p3359
atp3360
a(L268651496L
L1443213481L
(lp3361
(lp3362
tp3363
a(L3236648107L
L3785322319L
(lp3364
(lp3365
Vbootloader_flash_read
p3366
atp3367
a(L735741265L
L0L
(lp3368
(lp3369
tp3370
a(L3020204L
L0L
(lp3371
(lp3372
tp3373
a(L2480703612L
L3785322319L
(lp3374
(lp3375
Vbootloader_sha256_data
p3376
atp3377
a(L3436105237L
L0L
(lp3378
(lp3379
tp3380
a(L106L
L0L
(lp3381
(lp3382
tp3383
atp3384
sI1074236872
(Vefuse_hal_get_minor_chip_version
p3385
(lp3386
(L2292056065L
L1443213481L
(lp3387
(lp3388
tp3389
atp3390
sI1074240200
(Vbootloader_utility_load_boot_image
p3391
(lp3392
(L421993435L
L242900614L
(lp3393
(lp3394
Vmemset
p3395
atp3396
a(L2177418995L
L3785322319L
(lp3397
(lp3398
Vtry_load_partition
p3399
atp3400
a(L1305243774L
L3785322319L
(lp3401
(lp3402
Vload_image
p3403
atp3404
a(L4114459891L
L3187408090L
(lp3405
(lp3406
Vesp_log_early_timestamp
p3407
atp3408
a(L3827921190L
L3785322319L
(lp3409
(lp3410
Vbootloader_reset
p3411
atp3412
a(L1953693036L
L3785322319L
(lp3413
(lp3414
Vindex_to_partition
p3415
atp3416
a(L1204373741L
L3785322319L
(lp3417
(lp3418
Vtry_load_partition
p3419
atp3420
a(L1899865696L
L0L
(lp3421
(lp3422
tp3423
a(L2695355117L
L3785322319L
(lp3424
(lp3425
Vset_actual_ota_seq
p3426
atp3427
a(L1868897605L
L3785322319L
(lp3428
(lp3429
Vlog_invalid_app_partition
p3430
atp3431
a(L831650730L
L0L
(lp3432
(lp3433
tp3434
a(L3021737L
L0L
(lp3435
(lp3436
tp3437
a(L695456438L
L0L
(lp3438
(lp3439
tp3440
a(L315114854L
L3833084538L
(lp3441
(lp3442
Vtry_load_partition
p3443
atp3444
a(L89447667L
L2147981551L
(lp3445
(lp3446
Vesp_log_early_timestamp
p3447
atp3448
a(L2347390157L
L3785322319L
(lp3449
(lp3450
Vindex_to_partition
p3451
atp3452
a(L1204373741L
L3785322319L
(lp3453
(lp3454
Vtry_load_partition
p3455
atp3456
a(L3061261803L
L0L
(lp3457
(lp3458
tp3459
a(L3582858798L
L3785322319L
(lp3460
(lp3461
Vlog_invalid_app_partition
p3462
atp3463
a(L3581752791L
L2704288053L
(lp3464
(lp3465
Vesp_log_early_timestamp
p3466
aVmemset
p3467
atp3468
atp3469
sI1074246088
(Vrtc_clk_cpu_freq_set_config
p3470
(lp3471
(L1040494747L
L3833084538L
(lp3472
(lp3473
Vrtc_clk_xtal_freq_get
p3474
atp3475
a(L2308773007L
L0L
(lp3476
(lp3477
tp3478
a(L3253451229L
L1880226080L
(lp3479
(lp3480
Vrtc_clk_cpu_freq_to_xtal
p3481
aVrtc_clk_wait_for_slow_cycle
p3482
atp3483
a(L2243645672L
L0L
(lp3484
(lp3485
tp3486
a(L4002786498L
L0L
(lp3487
(lp3488
tp3489
a(L2736411858L
L3785322319L
(lp3490
(lp3491
Vrtc_clk_cpu_freq_to_xtal
p3492
atp3493
a(L3360570486L
L0L
(lp3494
(lp3495
tp3496
a(L2755207760L
L1832448559L
(lp3497
(lp3498
Vrtc_clk_cpu_freq_to_xtal
p3499
aVrtc_clk_wait_for_slow_cycle
p3500
aVrtc_clk_bbpll_disable
p3501
atp3502
a(L3020187L
L0L
(lp3503
(lp3504
tp3505
a(L106L
L0L
(lp3506
(lp3507
tp3508
a(L2730236852L
L1156451872L
(lp3509
(lp3510
Vrtc_clk_wait_for_slow_cycle
p3511
aVrtc_clk_xtal_freq_get
p3512
atp3513
a(L106L
L0L
(lp3514
(lp3515
tp3516
a(L3776069396L
L1443213481L
(lp3517
(lp3518
tp3519
a(L83268611L
L0L
(lp3520
(lp3521
tp3522
a(L106L
L0L
(lp3523
(lp3524
tp3525
a(L82345090L
L0L
(lp3526
(lp3527
tp3528
a(L106L
L0L
(lp3529
(lp3530
tp3531
a(L2258718273L
L0L
(lp3532
(lp3533
tp3534
a(L3298883534L
L0L
(lp3535
(lp3536
tp3537
a(L3519990574L
L1443213481L
(lp3538
(lp3539
tp3540
a(L2508198718L
L1743007695L
(lp3541
(lp3542
Vrtc_clk_cpu_freq_to_pll_mhz
p3543
atp3544
a(L935233121L
L2534110409L
(lp3545
(lp3546
tp3547
a(L83268344L
L0L
(lp3548
(lp3549
tp3550
a(L82344823L
L0L
(lp3551
(lp3552
tp3553
a(L1569180676L
L0L
(lp3554
(lp3555
tp3556
a(L2258837488L
L0L
(lp3557
(lp3558
tp3559
a(L4233337962L
L1443213481L
(lp3560
(lp3561
tp3562
a(L1482311963L
L0L
(lp3563
(lp3564
tp3565
a(L133411965L
L0L
(lp3566
(lp3567
tp3568
a(L3673491036L
L0L
(lp3569
(lp3570
tp3571
a(L4197990447L
L0L
(lp3572
(lp3573
tp3574
a(L903154985L
L0L
(lp3575
(lp3576
tp3577
a(L3020187L
L0L
(lp3578
(lp3579
tp3580
a(L106L
L0L
(lp3581
(lp3582
tp3583
a(L1317698645L
L93324751L
(lp3584
(lp3585
Vesp_rom_set_cpu_ticks_per_us
p3586
atp3587
atp3588
sI1074247624
(Vesp_rom_spiflash_enable_write
p3589
(lp3590
(L2885777558L
L1303911398L
(lp3591
(lp3592
Vesp_rom_spiflash_wait_idle
p3593
atp3594
a(L3333707777L
L0L
(lp3595
(lp3596
tp3597
a(L2258688484L
L0L
(lp3598
(lp3599
tp3600
a(L99543895L
L0L
(lp3601
(lp3602
tp3603
a(L2993202392L
L0L
(lp3604
(lp3605
tp3606
a(L1265538927L
L242900614L
(lp3607
(lp3608
Vesp_rom_spiflash_read_status
p3609
atp3610
atp3611
sI1074269912
(Vbootloader_enable_random
p3612
(lp3613
(L859804465L
L2704288053L
(lp3614
(lp3615
Vesp_log_early_timestamp
p3616
aVbootloader_random_enable
p3617
atp3618
atp3619
sI1074270936
(Vmpu_hal_set_region_access
p3620
(lp3621
(L3538356822L
L0L
(lp3622
(lp3623
tp3624
a(L93674324L
L0L
(lp3625
(lp3626
tp3627
a(L2910371777L
L0L
(lp3628
(lp3629
tp3630
a(L3472092938L
L0L
(lp3631
(lp3632
tp3633
a(L3020187L
L0L
(lp3634
(lp3635
tp3636
a(L3360570486L
L0L
(lp3637
(lp3638
tp3639
a(L2258718273L
L0L
(lp3640
(lp3641
tp3642
a(L3446648619L
L0L
(lp3643
(lp3644
tp3645
a(L3739532189L
L0L
(lp3646
(lp3647
tp3648
a(L1300789895L
L0L
(lp3649
(lp3650
tp3651
atp3652
sI1074245332
(Vrtc_clk_8m_enabled
p3653
(lp3654
(L563532105L
L1443213481L
(lp3655
(lp3656
tp3657
atp3658
sI1074238160
(Vbootloader_enable_wp
p3659
(lp3660
(L1117825804L
L3785322319L
(lp3661
(lp3662
Vbootloader_execute_flash_command
p3663
atp3664
atp3665
sI1074269648
(Vbootloader_clear_bss_section
p3666
(lp3667
(L2193193874L
L4032149094L
(lp3668
(lp3669
Vmemset
p3670
atp3671
atp3672
sI1074243292
(Vbootloader_load_image
p3673
(lp3674
(L1155870502L
L3785322319L
(lp3675
(lp3676
Vimage_load
p3677
atp3678
atp3679
sI1074245084
(Vrtc_clk_bbpll_disable
p3680
(lp3681
(L3512291683L
L1690040256L
(lp3682
(lp3683
tp3684
a(L2472207241L
L0L
(lp3685
(lp3686
tp3687
a(L3360570486L
L0L
(lp3688
(lp3689
tp3690
atp3691
sI1074236888
(Vesp_dport_access_reg_read
p3692
(lp3693
(L1099794772L
L0L
(lp3694
(lp3695
tp3696
atp3697
sI1074269672
(Vbootloader_read_bootloader_header
p3698
(lp3699
(L2948018849L
L242900614L
(lp3700
(lp3701
Vbootloader_flash_read
p3702
atp3703
a(L804259852L
L3187408090L
(lp3704
(lp3705
Vesp_log_early_timestamp
p3706
atp3707
a(L735741265L
L0L
(lp3708
(lp3709
tp3710
atp3711
sI1074236900
(Vis_xmc_chip_strict
p3712
(lp3713
(L1286841609L
L0L
(lp3714
(lp3715
tp3716
a(L2234016759L
L0L
(lp3717
(lp3718
tp3719
a(L1069027148L
L0L
(lp3720
(lp3721
tp3722
a(L3021749L
L0L
(lp3723
(lp3724
tp3725
a(L1900148749L
L0L
(lp3726
(lp3727
tp3728
a(L1936875721L
L0L
(lp3729
(lp3730
tp3731
a(L3356166509L
L0L
(lp3732
(lp3733
tp3734
a(L1937769451L
L0L
(lp3735
(lp3736
tp3737
a(L2137658907L
L0L
(lp3738
(lp3739
tp3740
a(L4265949734L
L0L
(lp3741
(lp3742
tp3743
a(L3360570486L
L0L
(lp3744
(lp3745
tp3746
atp3747
sI1074238180
(Vbootloader_flash_get_spi_mode
p3748
(lp3749
(L1418320346L
L1443213481L
(lp3750
(lp3751
tp3752
a(L2046153171L
L0L
(lp3753
(lp3754
tp3755
a(L893866618L
L0L
(lp3756
(lp3757
tp3758
a(L894790139L
L0L
(lp3759
(lp3760
tp3761
a(L822032846L
L0L
(lp3762
(lp3763
tp3764
a(L3360570486L
L0L
(lp3765
(lp3766
tp3767
atp3768
sI1074238944
(Vcache_ll_l1_enable_bus
p3769
(lp3770
(L318252209L
L1443213481L
(lp3771
(lp3772
tp3773
atp3774
sI1074243308
(Vesp_partition_table_verify
p3775
(lp3776
(L44179228L
L1443213481L
(lp3777
(lp3778
tp3779
a(L3031150553L
L1443213481L
(lp3780
(lp3781
tp3782
a(L1184829782L
L0L
(lp3783
(lp3784
tp3785
a(L3020204L
L0L
(lp3786
(lp3787
tp3788
a(L26389654L
L3187408090L
(lp3789
(lp3790
Vesp_log_early_timestamp
p3791
atp3792
a(L1235012963L
L0L
(lp3793
(lp3794
tp3795
a(L3190337587L
L0L
(lp3796
(lp3797
tp3798
a(L2069928857L
L0L
(lp3799
(lp3800
tp3801
a(L2902417580L
L0L
(lp3802
(lp3803
tp3804
a(L2543114737L
L2147981551L
(lp3805
(lp3806
Vesp_log_early_timestamp
p3807
atp3808
a(L1715222413L
L1443213481L
(lp3809
(lp3810
tp3811
a(L3020204L
L0L
(lp3812
(lp3813
tp3814
a(L3020204L
L0L
(lp3815
(lp3816
tp3817
a(L1328961945L
L2147981551L
(lp3818
(lp3819
Vesp_log_early_timestamp
p3820
atp3821
a(L4207910112L
L1443213481L
(lp3822
(lp3823
tp3824
a(L1235012932L
L0L
(lp3825
(lp3826
tp3827
a(L458256366L
L4021370767L
(lp3828
(lp3829
Vmemcmp
p3830
atp3831
a(L3020204L
L0L
(lp3832
(lp3833
tp3834
a(L2543114737L
L2147981551L
(lp3835
(lp3836
Vesp_log_early_timestamp
p3837
atp3838
a(L1305407469L
L0L
(lp3839
(lp3840
tp3841
a(L1167861556L
L0L
(lp3842
(lp3843
tp3844
a(L818997085L
L0L
(lp3845
(lp3846
tp3847
a(L3360570486L
L0L
(lp3848
(lp3849
tp3850
a(L3020204L
L0L
(lp3851
(lp3852
tp3853
a(L3999534504L
L3187408090L
(lp3854
(lp3855
Vesp_log_early_timestamp
p3856
atp3857
atp3858
sI1074245356
(Vrtc_clk_8md256_enabled
p3859
(lp3860
(L4014027530L
L1443213481L
(lp3861
(lp3862
tp3863
atp3864
sI1074248172
(Vesp_rom_spiflash_write_encrypted
p3865
(lp3866
(L1944247967L
L0L
(lp3867
(lp3868
tp3869
a(L3825342292L
L1443213481L
(lp3870
(lp3871
tp3872
a(L97689L
L0L
(lp3873
(lp3874
tp3875
a(L3061232074L
L0L
(lp3876
(lp3877
tp3878
a(L1562911102L
L1443213481L
(lp3879
(lp3880
tp3881
a(L1309309703L
L3785322319L
(lp3882
(lp3883
Vesp_rom_spiflash_write
p3884
atp3885
a(L2269233063L
L1443213481L
(lp3886
(lp3887
tp3888
a(L735741265L
L0L
(lp3889
(lp3890
tp3891
atp3892
sI1074270712
(Vrtc_vddsdio_get_config
p3893
(lp3894
(L3097658956L
L1443213481L
(lp3895
(lp3896
tp3897
a(L1750635626L
L0L
(lp3898
(lp3899
tp3900
a(L3193418487L
L0L
(lp3901
(lp3902
tp3903
a(L3511111289L
L1443213481L
(lp3904
(lp3905
tp3906
a(L115635292L
L0L
(lp3907
(lp3908
tp3909
a(L896053863L
L0L
(lp3910
(lp3911
tp3912
a(L1306330959L
L0L
(lp3913
(lp3914
tp3915
a(L1783408782L
L1443213481L
(lp3916
(lp3917
tp3918
atp3919
sI1074236660
(Vesp_rom_uart_set_clock_baudrate
p3920
(lp3921
(L1471953879L
L1443213481L
(lp3922
(lp3923
tp3924
a(L1872515506L
L1443213481L
(lp3925
(lp3926
tp3927
a(L147213506L
L1443213481L
(lp3928
(lp3929
tp3930
a(L3104172142L
L1443213481L
(lp3931
(lp3932
tp3933
atp3934
sI1074235632
(Vbootloader_read_flash_id
p3935
(lp3936
(L549578328L
L3785322319L
(lp3937
(lp3938
Vbootloader_execute_flash_command
p3939
atp3940
atp3941
sI1074245616
(Vrtc_clk_fast_src_get
p3942
(lp3943
(L2217920473L
L1443213481L
(lp3944
(lp3945
tp3946
atp3947
sI1074237692
(Vbootloader_munmap
p3948
(lp3949
(L4096859803L
L2195759072L
(lp3950
(lp3951
tp3952
a(L4150885370L
L2624587680L
(lp3953
(lp3954
tp3955
a(L3360570486L
L0L
(lp3956
(lp3957
tp3958
atp3959
sI1074236412
(Vbootloader_flash_dummy_config
p3960
(lp3961
(L2633298977L
L1443213481L
(lp3962
(lp3963
tp3964
a(L2761717557L
L0L
(lp3965
(lp3966
tp3967
a(L1849044936L
L0L
(lp3968
(lp3969
tp3970
a(L2198646520L
L2195759072L
(lp3971
(lp3972
tp3973
a(L1857500547L
L1443213481L
(lp3974
(lp3975
tp3976
a(L3020204L
L0L
(lp3977
(lp3978
tp3979
a(L1610443405L
L0L
(lp3980
(lp3981
tp3982
a(L4032120524L
L0L
(lp3983
(lp3984
tp3985
a(L2336993863L
L0L
(lp3986
(lp3987
tp3988
a(L1298875775L
L0L
(lp3989
(lp3990
tp3991
a(L3880393601L
L0L
(lp3992
(lp3993
tp3994
a(L2272848587L
L1443213481L
(lp3995
(lp3996
tp3997
a(L1610443436L
L0L
(lp3998
(lp3999
tp4000
atp4001
sI1074242812
(Vimage_load
p4002
(lp4003
(L3048705773L
L0L
(lp4004
(lp4005
tp4006
a(L3463713141L
L0L
(lp4007
(lp4008
tp4009
a(L3309803581L
L0L
(lp4010
(lp4011
tp4012
a(L256049682L
L0L
(lp4013
(lp4014
tp4015
a(L1935188817L
L0L
(lp4016
(lp4017
tp4018
a(L3028481L
L0L
(lp4019
(lp4020
tp4021
a(L3021749L
L0L
(lp4022
(lp4023
tp4024
a(L106L
L0L
(lp4025
(lp4026
tp4027
a(L585264737L
L0L
(lp4028
(lp4029
tp4030
a(L1145291904L
L3785322319L
(lp4031
(lp4032
Vprocess_image_header
p4033
atp4034
a(L823859500L
L0L
(lp4035
(lp4036
tp4037
a(L3061291474L
L0L
(lp4038
(lp4039
tp4040
a(L4106474008L
L3785322319L
(lp4041
(lp4042
Vprocess_segments
p4043
atp4044
a(L3868840998L
L0L
(lp4045
(lp4046
tp4047
a(L2962085561L
L1443213481L
(lp4048
(lp4049
tp4050
a(L1827898452L
L3785322319L
(lp4051
(lp4052
Vprocess_checksum
p4053
atp4054
a(L2214715179L
L3785322319L
(lp4055
(lp4056
Vprocess_appended_hash_and_sig
p4057
atp4058
a(L3028481L
L0L
(lp4059
(lp4060
tp4061
a(L2902417580L
L0L
(lp4062
(lp4063
tp4064
a(L3285560995L
L3785322319L
(lp4065
(lp4066
Vbootloader_sha256_finish
p4067
atp4068
a(L3946560000L
L0L
(lp4069
(lp4070
tp4071
a(L93674324L
L0L
(lp4072
(lp4073
tp4074
a(L2674734805L
L2195759072L
(lp4075
(lp4076
tp4077
a(L1168805591L
L1443213481L
(lp4078
(lp4079
tp4080
a(L1179424413L
L0L
(lp4081
(lp4082
tp4083
a(L3928150917L
L0L
(lp4084
(lp4085
tp4086
a(L106L
L0L
(lp4087
(lp4088
tp4089
a(L3871473710L
L0L
(lp4090
(lp4091
tp4092
a(L3884726427L
L0L
(lp4093
(lp4094
tp4095
a(L106L
L0L
(lp4096
(lp4097
tp4098
a(L3020187L
L0L
(lp4099
(lp4100
tp4101
a(L1337906930L
L3187408090L
(lp4102
(lp4103
Vesp_log_early_timestamp
p4104
atp4105
a(L2868044067L
L0L
(lp4106
(lp4107
tp4108
a(L1179764900L
L0L
(lp4109
(lp4110
tp4111
a(L2332746046L
L3785322319L
(lp4112
(lp4113
Vbootloader_sha256_finish
p4114
atp4115
a(L3721568057L
L242900614L
(lp4116
(lp4117
Vmemset
p4118
atp4119
a(L3020204L
L0L
(lp4120
(lp4121
tp4122
a(L3039742375L
L1443213481L
(lp4123
(lp4124
tp4125
a(L106L
L0L
(lp4126
(lp4127
tp4128
a(L3307179591L
L2839326997L
(lp4129
(lp4130
Vmemset
p4131
aVbootloader_sha256_finish
p4132
aVbootloader_debug_buffer
p4133
aVmemcmp
p4134
atp4135
a(L3433271982L
L2266857161L
(lp4136
(lp4137
Vesp_log_early_timestamp
p4138
aVbootloader_debug_buffer
p4139
atp4140
a(L3741653406L
L3785322319L
(lp4141
(lp4142
Vshould_load
p4143
atp4144
a(L2764257181L
L0L
(lp4145
(lp4146
tp4147
a(L3338774213L
L0L
(lp4148
(lp4149
tp4150
a(L193456747L
L1443213481L
(lp4151
(lp4152
tp4153
a(L3349572949L
L0L
(lp4154
(lp4155
tp4156
a(L2192292519L
L0L
(lp4157
(lp4158
tp4159
a(L106L
L0L
(lp4160
(lp4161
tp4162
a(L1702191967L
L1443213481L
(lp4163
(lp4164
tp4165
a(L1299866312L
L0L
(lp4166
(lp4167
tp4168
a(L3010020263L
L0L
(lp4169
(lp4170
tp4171
atp4172
sI1074244604
(Vwdt_hal_write_protect_enable
p4173
(lp4174
(L387778158L
L0L
(lp4175
(lp4176
tp4177
a(L4195472003L
L0L
(lp4178
(lp4179
tp4180
a(L3360570486L
L0L
(lp4181
(lp4182
tp4183
a(L802523425L
L0L
(lp4184
(lp4185
tp4186
atp4187
sI1074269940
(Vbootloader_print_banner
p4188
(lp4189
(L3569996224L
L1385564105L
(lp4190
(lp4191
Vesp_bootloader_get_description
p4192
aVesp_log_early_timestamp
p4193
aVesp_log_early_timestamp
p4194
aVesp_log_early_timestamp
p4195
atp4196
atp4197
sI1074243576
(Vwdt_hal_init
p4198
(lp4199
(L1845705415L
L242900614L
(lp4200
(lp4201
Vmemset
p4202
atp4203
a(L106L
L0L
(lp4204
(lp4205
tp4206
a(L147213506L
L1443213481L
(lp4207
(lp4208
tp4209
a(L3076988543L
L0L
(lp4210
(lp4211
tp4212
a(L746843176L
L3294285696L
(lp4213
(lp4214
tp4215
a(L3028464L
L0L
(lp4216
(lp4217
tp4218
a(L268651496L
L1443213481L
(lp4219
(lp4220
tp4221
a(L213928354L
L1443213481L
(lp4222
(lp4223
tp4224
a(L1646580088L
L3294285696L
(lp4225
(lp4226
tp4227
a(L3360570486L
L0L
(lp4228
(lp4229
tp4230
atp4231
sI1074240504
(Vbootloader_debug_buffer
p4232
(lp4233
(L2100504542L
L0L
(lp4234
(lp4235
tp4236
atp4237
ssS'functionsdups'
p4238
g11
((lp4239
tp4240
Rp4241
sS'immediatedups'
p4242
g11
((lp4243
tp4244
Rp4245
sS'functiondups'
p4246
g11
((lp4247
tp4248
Rp4249
sS'fuzzy'
p4250
(dp4251
L366261972L
I1074270268
sL2376760616L
I1074243308
sL1898962604L
I1074238728
sL3223682214L
I1074248172
sL4033782891L
I1074244536
sL1651792242L
I1074247624
sL1500945776L
I1074268048
sL800708016L
I1074239512
sL2092869556L
I1074247872
sL1772626723L
I1074235832
sL2539816556L
I1074236660
sL3032120501L
I1074245764
sL2471313117L
I1074240680
sL2641888616L
I1074246816
sL381028389L
I1074240892
sL3711025829L
I1074240200
sL3500016395L
I1074242072
sL1962232032L
I1074245632
sL797548049L
I1074240512
sL3374853808L
I1074269648
sL2859057779L
I1074269344
sL2835607711L
I1074270008
sL2095240828L
I1074234756
sL1348852091L
I1074248260
sL2182127758L
I1074270092
sL3221945515L
I1074245904
sL1485246373L
I1074240972
sL3525303483L
I1074245496
sL1247030641L
I1074268856
sL214341344L
I1074244704
sL1729011238L
I1074241944
sL1959102959L
I1074237484
sL4242478965L
I1074238236
sL2216531249L
I1074245524
sL579471141L
I1074269912
sL1096063205L
I1074236804
sL2906154889L
I1074247576
sL1065525808L
I1074236900
sL2849727465L
I1074238996
sL1821770661L
I1074237692
sL332090111L
I1074236576
sL282843886L
I1074237744
sL3703425408L
I1074245204
sL2038713658L
I1074246772
sL2688270468L
I1074269716
sL2708185770L
I1074241328
sL3890904617L
I1074245976
sL3530961461L
I1074270712
sL1605229163L
I1074239876
sL1210592366L
I1074245380
sL1332800441L
I1074237308
sL209111356L
I1074245552
sL3183721996L
I1074235280
sL3558783183L
I1074238020
sL1377360842L
I1074244788
sL2726707668L
I1074268560
sL3300368739L
I1074267824
sL1161792488L
I1074241140
sL4091350277L
I1074247680
sL2871786995L
I1074269784
sL3578810761L
I1074235580
sL2018002450L
I1074235680
sL531949167L
I1074237068
sL1060788199L
I1074245672
sL1444874434L
I1074269940
sL994994961L
I1074238644
sL2663898648L
I1074269672
sL1155028103L
I1074270044
sL627477382L
I1074235944
sL814911857L
I1074240532
sL3280013925L
I1074238316
sL1862804207L
I1074244188
sL2806886186L
I1074268616
sL1815510750L
I1074244924
sL963803290L
I1074246088
sL3715950101L
I1074244504
sL3420458249L
I1074247480
sL3274368577L
I1074238844
sL3246158480L
I1074239392
sL1872673135L
I1074240176
sL1214705044L
I1074236412
sL4155364446L
I1074237032
sL230862646L
I1074237452
sL2452281182L
I1074247312
sL1564551092L
I1074241856
sL1122585247L
I1074243576
sL3659714901L
I1074241384
sL2752268667L
I1074244752
sL3428612389L
I1074247280
sL1950296771L
I1074248008
sL1396037064L
I1074245144
sL1014311563L
I1074242812
sL2196372118L
I1074267728
sL1596982735L
I1074269360
ssb.