ccopy_reg
_reconstructor
p0
(crizzo
RizzoSignature
p1
c__builtin__
object
p2
Ntp3
Rp4
(dp5
S'formal'
p6
(dp7
L2005196428L
I1074245524
sL1741170115L
I1074238000
sL2087186284L
I1074236412
sL1913647619L
I1074270004
sL3984280162L
I1074244504
sL3746738248L
I1074239392
sL2628804010L
I1074270928
sL4213015302L
I1074243292
sL461860251L
I1074247312
sL286550283L
I1074270072
sL3976424482L
I1074234712
sL552298442L
I1074235280
sL2767810776L
I1074238020
sL2771134728L
I1074240200
sL2326361228L
I1074269424
sL2702580795L
I1074237376
sL2610420647L
I1074269848
sL2896295319L
I1074236900
sL25479346L
I1074240680
sL438696979L
I1074269976
sL1123431371L
I1074239512
sL1331791455L
I1074245616
sL1674148343L
I1074245672
sL1786019146L
I1074247680
sL4023292303L
I1074237452
sL3256726111L
I1074248008
sL2485902447L
I1074236740
sL723138898L
I1074238180
sL424336643L
I1074269712
sL366218909L
I1074270108
sL368505532L
I1074245948
sL848906711L
I1074248172
sL353716291L
I1074244704
sL2220432655L
I1074267740
sL1585823442L
I1074244604
sL1622896354L
I1074244632
sL3092620558L
I1074235680
sL2521269785L
I1074236980
sL730944497L
I1074239876
sL2189223198L
I1074240440
sL3580313603L
I1074241944
sL2493713350L
I1074245380
sL183144L
I1074238844
sL2930276314L
I1074235832
sL4161584248L
I1074268624
sL4175577751L
I1074244752
sL2723725103L
I1074240876
sL1633709340L
I1074245356
sL2813809866L
I1074236764
sL2366387314L
I1074270776
sL1330922710L
I1074246816
sL1731035566L
I1074236576
sL676927194L
I1074268912
sL244922653L
I1074242812
sL2691843063L
I1074245976
sL3307282855L
I1074238160
sL127813144L
I1074243576
sL2834351222L
I1074244924
sL3065846068L
I1074235580
sL2195669076L
I1074245332
sL357647324L
I1074268920
sL3361686224L
I1074268680
sL3042952135L
I1074267732
sL3721992006L
I1074240892
sL1160735408L
I1074242072
sL1662035087L
I1074267888
sL3041505513L
I1074237484
sL4038945309L
I1074235632
sL1435968304L
I1074244788
sL4178015136L
I1074247480
sL1992104215L
I1074236872
sL1112935418L
I1074234756
sL4020657674L
I1074246088
sL2931540503L
I1074247624
sL1382567621L
I1074238236
sL105563623L
I1074240512
sL2997001746L
I1074237308
sL59949349L
I1074241140
sL1087228788L
I1074238996
sL76756778L
I1074240972
sL556795273L
I1074269780
sL2819127986L
I1074237032
sL3195929028L
I1074240176
sL3024810484L
I1074270332
sL1481764497L
I1074237012
sL1877634603L
I1074271008
sL2687718384L
I1074243308
sL2789355142L
I1074244188
sL1098683832L
I1074245144
sL3015462521L
I1074238644
sL3066643969L
I1074247280
sL935372552L
I1074268112
sL886840080L
I1074237068
sL2062758462L
I1074236804
sL1347401601L
I1074240532
sL2248158928L
I1074238316
sL660825523L
I1074245204
sL3362774716L
I1074236660
sL3338519854L
I1074245904
sL2195659785L
I1074245552
sL540472814L
I1074247872
sL2263182908L
I1074238228
sL965583188L
I1074245764
sL114336524L
I1074269736
sL282668036L
I1074244536
sL963291061L
I1074248260
sL3630163135L
I1074236888
sL188664287L
I1074235248
sL2743385701L
I1074269408
sL2404540336L
I1074245496
sL2485146564L
I1074240916
sL692536993L
I1074237348
sL822000404L
I1074245632
sL921639684L
I1074235944
sL235684320L
I1074237744
sL3364903294L
I1074247576
sL675504051L
I1074236560
sL1817360290L
I1074241384
sL917018201L
I1074236972
sL237904351L
I1074241328
sL2758712477L
I1074241856
sL309068699L
I1074245084
sL1140246287L
I1074246772
sL2570362575L
I1074238728
sL3958998789L
I1074237692
sL4029637072L
I1074270156
ssS'immediates'
p8
(dp9
sS'formaldups'
p10
c__builtin__
set
p11
((lp12
tp13
Rp14
sS'stringdups'
p15
g11
((lp16
tp17
Rp18
sS'fuzzydups'
p19
g11
((lp20
tp21
Rp22
sS'strings'
p23
(dp24
sS'functions'
p25
(dp26
I1074268680
(Vbootloader_clock_configure
p27
(lp28
(L2559598596L
L1880226080L
(lp29
(lp30
Vesp_rom_uart_tx_wait_idle
p31
aVefuse_hal_chip_revision
p32
atp33
a(L1757625900L
L1443213481L
(lp34
(lp35
tp36
a(L741498227L
L1443213481L
(lp37
(lp38
tp39
a(L106L
L0L
(lp40
(lp41
tp42
a(L4228321918L
L1405109379L
(lp43
(lp44
Vrtc_clk_slow_src_get
p45
aVrtc_clk_fast_src_get
p46
aVrtc_clk_init
p47
atp48
a(L2538867838L
L2195759072L
(lp49
(lp50
tp51
a(L1038013235L
L3833084538L
(lp52
(lp53
Vrtc_clk_apb_freq_get
p54
atp55
a(L106L
L0L
(lp56
(lp57
tp58
a(L106L
L0L
(lp59
(lp60
tp61
atp62
sI1074245380
(Vrtc_clk_slow_src_set
p63
(lp64
(L585347011L
L2195759072L
(lp65
(lp66
tp67
a(L3020187L
L0L
(lp68
(lp69
tp70
a(L3028481L
L0L
(lp71
(lp72
tp73
a(L487821223L
L0L
(lp74
(lp75
tp76
a(L4271877108L
L1443213481L
(lp77
(lp78
tp79
a(L1851908495L
L0L
(lp80
(lp81
tp82
a(L1099319264L
L1443213481L
(lp83
(lp84
tp85
a(L3138544334L
L0L
(lp86
(lp87
tp88
a(L94425498L
L3785322319L
(lp89
(lp90
Vabort
p91
atp92
atp93
sI1074240512
(Vbootloader_sha256_start
p94
(lp95
(L1737386262L
L2534110409L
(lp96
(lp97
tp98
atp99
sI1074245632
(Vrtc_clk_xtal_freq_get
p100
(lp101
(L3313072792L
L1443213481L
(lp102
(lp103
tp104
a(L2847936993L
L0L
(lp105
(lp106
tp107
a(L2252934062L
L1443213481L
(lp108
(lp109
tp110
a(L3360570486L
L0L
(lp111
(lp112
tp113
atp114
sI1074247680
(Vesp_rom_spiflash_program_page_internal
p115
(lp116
(L2569069283L
L0L
(lp117
(lp118
tp119
a(L2258688483L
L0L
(lp120
(lp121
tp122
a(L3360570486L
L0L
(lp123
(lp124
tp125
a(L2295540031L
L1443213481L
(lp126
(lp127
tp128
a(L4235661475L
L3785322319L
(lp129
(lp130
Vesp_rom_spiflash_wait_idle
p131
atp132
a(L1299866312L
L0L
(lp133
(lp134
tp135
a(L3212356251L
L3785322319L
(lp136
(lp137
Vesp_rom_spiflash_enable_write
p138
atp139
a(L1834262847L
L2195759072L
(lp140
(lp141
tp142
a(L633937013L
L1443213481L
(lp143
(lp144
tp145
a(L2953702749L
L0L
(lp146
(lp147
tp148
a(L2989032L
L0L
(lp149
(lp150
tp151
a(L1965622133L
L0L
(lp152
(lp153
tp154
a(L809386272L
L2195759072L
(lp155
(lp156
tp157
a(L1958113242L
L0L
(lp158
(lp159
tp160
a(L106L
L0L
(lp161
(lp162
tp163
a(L3112950080L
L0L
(lp164
(lp165
tp166
a(L1868606439L
L0L
(lp167
(lp168
tp169
a(L147213506L
L1443213481L
(lp170
(lp171
tp172
a(L1933954923L
L0L
(lp173
(lp174
tp175
a(L1147866918L
L0L
(lp176
(lp177
tp178
a(L3871602522L
L0L
(lp179
(lp180
tp181
atp182
sI1074267136
(V_init
p183
(lp184
(L3493042598L
L0L
(lp185
(lp186
tp187
atp188
sI1074237452
(Vspi_to_esp_err
p189
(lp190
(L2749733621L
L1443213481L
(lp191
(lp192
tp193
a(L1872507229L
L1443213481L
(lp194
(lp195
tp196
a(L3952441574L
L0L
(lp197
(lp198
tp199
a(L3126521138L
L0L
(lp200
(lp201
tp202
atp203
sI1074238728
(Vcache_ll_l1_get_bus
p204
(lp205
(L2749735183L
L1443213481L
(lp206
(lp207
tp208
a(L94425498L
L3785322319L
(lp209
(lp210
Vabort
p211
atp212
a(L1872514061L
L1443213481L
(lp213
(lp214
tp215
a(L3824526338L
L1443213481L
(lp216
(lp217
tp218
a(L892952750L
L0L
(lp219
(lp220
tp221
a(L1182811810L
L0L
(lp222
(lp223
tp224
a(L1101742417L
L0L
(lp225
(lp226
tp227
a(L1100767927L
L0L
(lp228
(lp229
tp230
a(L3360570486L
L0L
(lp231
(lp232
tp233
a(L1872508791L
L1443213481L
(lp234
(lp235
tp236
a(L2882938163L
L0L
(lp237
(lp238
tp239
a(L2927201858L
L0L
(lp240
(lp241
tp242
a(L2258718273L
L0L
(lp243
(lp244
tp245
a(L2580713941L
L0L
(lp246
(lp247
tp248
a(L1872508791L
L1443213481L
(lp249
(lp250
tp251
a(L1872514061L
L1443213481L
(lp252
(lp253
tp254
a(L1641149277L
L0L
(lp255
(lp256
tp257
a(L1872508791L
L1443213481L
(lp258
(lp259
tp260
a(L3027019L
L0L
(lp261
(lp262
tp263
a(L1299866560L
L0L
(lp264
(lp265
tp266
a(L1299866436L
L0L
(lp267
(lp268
tp269
atp270
sI1074269976
(Vbootloader_enable_random
p271
(lp272
(L859804465L
L2704288053L
(lp273
(lp274
Vesp_log_early_timestamp
p275
aVbootloader_random_enable
p276
atp277
atp278
sI1074271000
(Vbootloader_hooks_include
p279
(lp280
(L2100504542L
L0L
(lp281
(lp282
tp283
atp284
sI1074240532
(Vbootloader_sha256_data
p285
(lp286
(L4066096136L
L0L
(lp287
(lp288
tp289
a(L1697654611L
L2195759072L
(lp290
(lp291
tp292
a(L2213948952L
L242900614L
(lp293
(lp294
V__assert_func
p295
atp296
a(L498498478L
L0L
(lp297
(lp298
tp299
a(L3590389832L
L1443213481L
(lp300
(lp301
tp302
a(L2910371777L
L0L
(lp303
(lp304
tp305
a(L3360570486L
L0L
(lp306
(lp307
tp308
a(L1087685526L
L2195759072L
(lp309
(lp310
tp311
a(L426633611L
L1443213481L
(lp312
(lp313
tp314
a(L2584057186L
L1443213481L
(lp315
(lp316
tp317
a(L3342433287L
L1443213481L
(lp318
(lp319
tp320
a(L2526675390L
L242900614L
(lp321
(lp322
V__bswapsi2
p323
atp324
a(L942815853L
L2195759072L
(lp325
(lp326
tp327
a(L1872507229L
L1443213481L
(lp328
(lp329
tp330
a(L147213506L
L1443213481L
(lp331
(lp332
tp333
a(L3745004802L
L0L
(lp334
(lp335
tp336
atp337
sI1074238996
(Vload_image
p338
(lp339
(L3963348381L
L473788538L
(lp340
(lp341
Vesp_log_early_timestamp
p342
aVbootloader_random_disable
p343
aVbootloader_ana_clock_glitch_reset_config
p344
atp345
a(L2261049225L
L0L
(lp346
(lp347
tp348
a(L106L
L0L
(lp349
(lp350
tp351
a(L4185838750L
L1624138773L
(lp352
(lp353
Vmmu_hal_unmap_all
p354
aVcache_ll_l1_get_bus
p355
aVcache_ll_l1_enable_bus
p356
aVcache_ll_l1_get_bus
p357
aVcache_ll_l1_enable_bus
p358
aVcache_ll_l1_get_bus
p359
aVcache_ll_l1_enable_bus
p360
aVcache_ll_l1_get_bus
p361
aVcache_ll_l1_enable_bus
p362
aVbootloader_console_deinit
p363
atp364
a(L2843581588L
L1443213481L
(lp365
(lp366
tp367
a(L2902417580L
L0L
(lp368
(lp369
tp370
a(L3421811081L
L362179215L
(lp371
(lp372
Vesp_log_early_timestamp
p373
atp374
a(L2552261596L
L0L
(lp375
(lp376
tp377
a(L670464924L
L2195759072L
(lp378
(lp379
tp380
a(L3020204L
L0L
(lp381
(lp382
tp383
a(L3421811081L
L362179215L
(lp384
(lp385
Vesp_log_early_timestamp
p386
atp387
a(L3291469664L
L0L
(lp388
(lp389
tp390
a(L2591655545L
L0L
(lp391
(lp392
tp393
atp394
sI1074238228
(Vbootloader_mmap_get_free_pages
p395
(lp396
(L1496516875L
L0L
(lp397
(lp398
tp399
atp400
sI1074245904
(Vrtc_clk_xtal_freq_update
p401
(lp402
(L3023525581L
L2195759072L
(lp403
(lp404
tp405
a(L3509357017L
L0L
(lp406
(lp407
tp408
a(L2266180931L
L0L
(lp409
(lp410
tp411
atp412
sI1074269712
(Vbootloader_clear_bss_section
p413
(lp414
(L2193193874L
L4032149094L
(lp415
(lp416
Vmemset
p417
atp418
atp419
sI1074238236
(Vbootloader_fill_random
p420
(lp421
(L3377511333L
L2195759072L
(lp422
(lp423
tp424
a(L4033043682L
L4032149094L
(lp425
(lp426
V__assert_func
p427
atp428
a(L1882547218L
L0L
(lp429
(lp430
tp431
a(L2910371777L
L0L
(lp432
(lp433
tp434
a(L95634693L
L0L
(lp435
(lp436
tp437
a(L3630908706L
L0L
(lp438
(lp439
tp440
a(L160162640L
L0L
(lp441
(lp442
tp443
a(L97689L
L0L
(lp444
(lp445
tp446
a(L3360570486L
L0L
(lp447
(lp448
tp449
atp450
sI1074242072
(Vprocess_segments
p451
(lp452
(L1326203493L
L0L
(lp453
(lp454
tp455
a(L1640778736L
L0L
(lp456
(lp457
tp458
a(L3782401745L
L0L
(lp459
(lp460
tp461
a(L106L
L0L
(lp462
(lp463
tp464
a(L3028481L
L0L
(lp465
(lp466
tp467
a(L3014296803L
L3187408090L
(lp468
(lp469
Vesp_log_early_timestamp
p470
atp471
a(L761135359L
L3785322319L
(lp472
(lp473
Vbootloader_flash_read
p474
atp475
a(L3856957476L
L3187408090L
(lp476
(lp477
Vesp_log_early_timestamp
p478
atp479
a(L3871473710L
L0L
(lp480
(lp481
tp482
a(L219417435L
L0L
(lp483
(lp484
tp485
a(L616767314L
L3785322319L
(lp486
(lp487
Vbootloader_sha256_data
p488
atp489
a(L1599301852L
L1443213481L
(lp490
(lp491
tp492
a(L2258837437L
L0L
(lp493
(lp494
tp495
a(L1764156528L
L0L
(lp496
(lp497
tp498
a(L3028481L
L0L
(lp499
(lp500
tp501
a(L2231662647L
L3187408090L
(lp502
(lp503
Vesp_log_early_timestamp
p504
atp505
a(L268651496L
L1443213481L
(lp506
(lp507
tp508
a(L652851030L
L2195759072L
(lp509
(lp510
tp511
a(L3802069243L
L0L
(lp512
(lp513
tp514
a(L3696234693L
L1443213481L
(lp515
(lp516
tp517
a(L2258867228L
L0L
(lp518
(lp519
tp520
a(L2277415887L
L0L
(lp521
(lp522
tp523
a(L3177376558L
L0L
(lp524
(lp525
tp526
a(L3028481L
L0L
(lp527
(lp528
tp529
a(L3861001733L
L3187408090L
(lp530
(lp531
Vesp_log_early_timestamp
p532
atp533
a(L2640606608L
L0L
(lp534
(lp535
tp536
a(L3028481L
L0L
(lp537
(lp538
tp539
a(L3892729576L
L3833084538L
(lp540
(lp541
Vesp_log_early_timestamp
p542
atp543
a(L4033680444L
L404278070L
(lp544
(lp545
tp546
a(L2902417580L
L0L
(lp547
(lp548
tp549
a(L2902417580L
L0L
(lp550
(lp551
tp552
a(L1229952296L
L3785322319L
(lp553
(lp554
Vverify_load_addresses
p555
atp556
a(L3783935185L
L3785322319L
(lp557
(lp558
Vbootloader_mmap_get_free_pages
p559
atp560
a(L3028481L
L0L
(lp561
(lp562
tp563
a(L224879076L
L0L
(lp564
(lp565
tp566
a(L142590671L
L0L
(lp567
(lp568
tp569
a(L3028481L
L0L
(lp570
(lp571
tp572
a(L94425498L
L3785322319L
(lp573
(lp574
Vesp_log_early_timestamp
p575
atp576
a(L1961289970L
L1443213481L
(lp577
(lp578
tp579
a(L4085121624L
L3785322319L
(lp580
(lp581
Vshould_load
p582
atp583
a(L3028481L
L0L
(lp584
(lp585
tp586
a(L1038006420L
L3833084538L
(lp587
(lp588
Vesp_log_early_timestamp
p589
atp590
a(L106L
L0L
(lp591
(lp592
tp593
a(L3815630522L
L0L
(lp594
(lp595
tp596
a(L1646054028L
L3833084538L
(lp597
(lp598
Vesp_log_early_timestamp
p599
atp600
a(L2629678223L
L0L
(lp601
(lp602
tp603
a(L2684012095L
L0L
(lp604
(lp605
tp606
a(L3357777304L
L3785322319L
(lp607
(lp608
Vbootloader_mmap
p609
atp610
a(L3911420474L
L3187408090L
(lp611
(lp612
Vesp_log_early_timestamp
p613
atp614
a(L1698460186L
L0L
(lp615
(lp616
tp617
a(L3264682310L
L1443213481L
(lp618
(lp619
tp620
a(L4016429890L
L242900614L
(lp621
(lp622
Vmemcpy
p623
atp624
a(L1595421496L
L3785322319L
(lp625
(lp626
Vbootloader_munmap
p627
atp628
a(L2757579158L
L0L
(lp629
(lp630
tp631
a(L605525844L
L242900614L
(lp632
(lp633
Vbootloader_fill_random
p634
atp635
a(L3616854679L
L1443213481L
(lp636
(lp637
tp638
a(L3616854679L
L1443213481L
(lp639
(lp640
tp641
a(L3450268858L
L0L
(lp642
(lp643
tp644
a(L3021749L
L0L
(lp645
(lp646
tp647
a(L322434465L
L0L
(lp648
(lp649
tp650
a(L2494883302L
L0L
(lp651
(lp652
tp653
a(L2902417580L
L0L
(lp654
(lp655
tp656
a(L2213415704L
L1443213481L
(lp657
(lp658
tp659
a(L193456747L
L1443213481L
(lp660
(lp661
tp662
a(L1426980959L
L0L
(lp663
(lp664
tp665
a(L1841482652L
L0L
(lp666
(lp667
tp668
a(L653501462L
L0L
(lp669
(lp670
tp671
a(L3310548426L
L3785322319L
(lp672
(lp673
Vbootloader_sha256_data
p674
atp675
a(L90548756L
L0L
(lp676
(lp677
tp678
a(L1702191967L
L1443213481L
(lp679
(lp680
tp681
a(L2364005371L
L0L
(lp682
(lp683
tp684
atp685
sI1074239512
(Vbootloader_utility_load_partition_table
p686
(lp687
(L3401680957L
L3833084538L
(lp688
(lp689
Vbootloader_mmap
p690
atp691
a(L3861134865L
L2147981551L
(lp692
(lp693
Vesp_log_early_timestamp
p694
atp695
a(L2258688482L
L0L
(lp696
(lp697
tp698
a(L3360570486L
L0L
(lp699
(lp700
tp701
a(L2379286607L
L3785322319L
(lp702
(lp703
Vesp_partition_table_verify
p704
atp705
a(L2695471221L
L2147981551L
(lp706
(lp707
Vesp_log_early_timestamp
p708
atp709
a(L2693125842L
L403192672L
(lp710
(lp711
Vesp_log_early_timestamp
p712
aVesp_log_early_timestamp
p713
atp714
a(L650140130L
L0L
(lp715
(lp716
tp717
a(L2163909172L
L2801279232L
(lp718
(lp719
Vbootloader_munmap
p720
aVesp_log_early_timestamp
p721
atp722
a(L521126897L
L0L
(lp723
(lp724
tp725
a(L3028464L
L0L
(lp726
(lp727
tp728
a(L106L
L0L
(lp729
(lp730
tp731
a(L147213506L
L1443213481L
(lp732
(lp733
tp734
a(L2919580219L
L2147981551L
(lp735
(lp736
Vesp_log_early_timestamp
p737
atp738
a(L3990577774L
L0L
(lp739
(lp740
tp741
a(L3020187L
L0L
(lp742
(lp743
tp744
a(L3201555411L
L1443213481L
(lp745
(lp746
tp747
a(L1843602828L
L1443213481L
(lp748
(lp749
tp750
a(L326114897L
L1443213481L
(lp751
(lp752
tp753
a(L2487812812L
L1443213481L
(lp754
(lp755
tp756
a(L3478727216L
L1443213481L
(lp757
(lp758
tp759
a(L106L
L0L
(lp760
(lp761
tp762
a(L93674324L
L0L
(lp763
(lp764
tp765
a(L1872515523L
L1443213481L
(lp766
(lp767
tp768
a(L1215408024L
L1443213481L
(lp769
(lp770
tp771
a(L1872515506L
L1443213481L
(lp772
(lp773
tp774
a(L106L
L0L
(lp775
(lp776
tp777
a(L1872515506L
L1443213481L
(lp778
(lp779
tp780
a(L106L
L0L
(lp781
(lp782
tp783
a(L268651496L
L1443213481L
(lp784
(lp785
tp786
atp787
sI1074244632
(Vwdt_hal_enable
p788
(lp789
(L2299130915L
L0L
(lp790
(lp791
tp792
a(L165794138L
L0L
(lp793
(lp794
tp795
a(L3360570486L
L0L
(lp796
(lp797
tp798
a(L2847657174L
L0L
(lp799
(lp800
tp801
atp802
sI1074245144
(Vrtc_clk_32k_enable
p803
(lp804
(L753387299L
L0L
(lp805
(lp806
tp807
a(L3776007933L
L3785322319L
(lp808
(lp809
Vrtc_clk_32k_enable_common
p810
atp811
a(L3496950L
L0L
(lp812
(lp813
tp814
a(L707626330L
L2534110409L
(lp815
(lp816
tp817
atp818
sI1074269736
(Vbootloader_read_bootloader_header
p819
(lp820
(L2948018849L
L242900614L
(lp821
(lp822
Vbootloader_flash_read
p823
atp824
a(L804259852L
L3187408090L
(lp825
(lp826
Vesp_log_early_timestamp
p827
atp828
a(L735741265L
L0L
(lp829
(lp830
tp831
atp832
sI1074235680
(Vbootloader_flash_xmc_startup
p833
(lp834
(L3433652179L
L242900614L
(lp835
(lp836
Vis_xmc_chip_strict
p837
atp838
a(L2258688482L
L0L
(lp839
(lp840
tp841
a(L3360570486L
L0L
(lp842
(lp843
tp844
a(L2860324232L
L3785322319L
(lp845
(lp846
Vbootloader_flash_read_sfdp
p847
atp848
a(L933155447L
L3609046414L
(lp849
(lp850
Vesp_log_early_timestamp
p851
aVbootloader_execute_flash_command
p852
aVbootloader_execute_flash_command
p853
aVbootloader_execute_flash_command
p854
aVbootloader_execute_flash_command
p855
aVbootloader_read_flash_id
p856
aVis_xmc_chip_strict
p857
atp858
a(L1000132677L
L3187408090L
(lp859
(lp860
Vesp_log_early_timestamp
p861
atp862
atp863
sI1074271008
(Vmpu_hal_set_region_access
p864
(lp865
(L3538356822L
L0L
(lp866
(lp867
tp868
a(L93674324L
L0L
(lp869
(lp870
tp871
a(L2910371777L
L0L
(lp872
(lp873
tp874
a(L3472092938L
L0L
(lp875
(lp876
tp877
a(L3020187L
L0L
(lp878
(lp879
tp880
a(L3360570486L
L0L
(lp881
(lp882
tp883
a(L2258718273L
L0L
(lp884
(lp885
tp886
a(L3446648619L
L0L
(lp887
(lp888
tp889
a(L3739532189L
L0L
(lp890
(lp891
tp892
a(L1300789895L
L0L
(lp893
(lp894
tp895
atp896
sI1074236972
(Vefuse_hal_get_disable_wafer_version_major
p897
(lp898
(L4194175088L
L0L
(lp899
(lp900
tp901
atp902
sI1074237484
(Vbootloader_mmap
p903
(lp904
(L3007611739L
L2195759072L
(lp905
(lp906
tp907
a(L1328961945L
L2147981551L
(lp908
(lp909
Vesp_log_early_timestamp
p910
atp911
a(L1596194698L
L1443213481L
(lp912
(lp913
tp914
a(L3729184599L
L0L
(lp915
(lp916
tp917
a(L4163264550L
L3187408090L
(lp918
(lp919
Vesp_log_early_timestamp
p920
atp921
a(L2258688482L
L0L
(lp922
(lp923
tp924
a(L3360570486L
L0L
(lp925
(lp926
tp927
a(L3419814624L
L1443213481L
(lp928
(lp929
tp930
a(L1441818867L
L1690040256L
(lp931
(lp932
tp933
a(L3433564204L
L362179215L
(lp934
(lp935
Vesp_log_early_timestamp
p936
atp937
a(L2543114737L
L2147981551L
(lp938
(lp939
Vesp_log_early_timestamp
p940
atp941
a(L1137490703L
L2195759072L
(lp942
(lp943
tp944
atp945
sI1074235944
(Vbootloader_flash_gpio_config
p946
(lp947
(L3362256192L
L3785322319L
(lp948
(lp949
Vbootloader_common_get_chip_ver_pkg
p950
atp951
a(L106L
L0L
(lp952
(lp953
tp954
a(L1998579353L
L0L
(lp955
(lp956
tp957
a(L106L
L0L
(lp958
(lp959
tp960
a(L1839763068L
L1443213481L
(lp961
(lp962
tp963
a(L2440320488L
L1396946377L
(lp964
(lp965
tp966
a(L106L
L0L
(lp967
(lp968
tp969
a(L4003626558L
L0L
(lp970
(lp971
tp972
a(L2164907201L
L2534110409L
(lp973
(lp974
tp975
a(L3360570486L
L0L
(lp976
(lp977
tp978
atp979
sI1074245672
(Vrtc_clk_cpu_freq_mhz_to_config
p980
(lp981
(L908718885L
L3785322319L
(lp982
(lp983
Vrtc_clk_xtal_freq_get
p984
atp985
a(L60460069L
L0L
(lp986
(lp987
tp988
a(L3802072124L
L0L
(lp989
(lp990
tp991
a(L3159006042L
L0L
(lp992
(lp993
tp994
a(L3360570486L
L0L
(lp995
(lp996
tp997
a(L895147205L
L0L
(lp998
(lp999
tp1000
a(L3970036657L
L0L
(lp1001
(lp1002
tp1003
a(L2731353429L
L0L
(lp1004
(lp1005
tp1006
a(L1555485793L
L0L
(lp1007
(lp1008
tp1009
a(L2258897023L
L0L
(lp1010
(lp1011
tp1012
a(L1947499251L
L0L
(lp1013
(lp1014
tp1015
a(L1306331021L
L0L
(lp1016
(lp1017
tp1018
atp1019
sI1074270776
(Vrtc_vddsdio_get_config
p1020
(lp1021
(L3097658956L
L1443213481L
(lp1022
(lp1023
tp1024
a(L1750635626L
L0L
(lp1025
(lp1026
tp1027
a(L3193418487L
L0L
(lp1028
(lp1029
tp1030
a(L3511111289L
L1443213481L
(lp1031
(lp1032
tp1033
a(L115635292L
L0L
(lp1034
(lp1035
tp1036
a(L896053863L
L0L
(lp1037
(lp1038
tp1039
a(L1306330959L
L0L
(lp1040
(lp1041
tp1042
a(L1783408782L
L1443213481L
(lp1043
(lp1044
tp1045
atp1046
sI1074236980
(Vesp_log_early_timestamp
p1047
(lp1048
(L4015029253L
L1443213481L
(lp1049
(lp1050
tp1051
atp1052
sI1074249012
(V_fini
p1053
(lp1054
(L3493042598L
L0L
(lp1055
(lp1056
tp1057
atp1058
sI1074241328
(Vbootloader_util_regions_overlap
p1059
(lp1060
(L2762640130L
L0L
(lp1061
(lp1062
tp1063
a(L1697654632L
L2195759072L
(lp1064
(lp1065
tp1066
a(L2213948952L
L242900614L
(lp1067
(lp1068
V__assert_func
p1069
atp1070
a(L97642L
L0L
(lp1071
(lp1072
tp1073
a(L1087686177L
L2195759072L
(lp1074
(lp1075
tp1076
a(L366123053L
L0L
(lp1077
(lp1078
tp1079
a(L2258867228L
L0L
(lp1080
(lp1081
tp1082
a(L1253626734L
L0L
(lp1083
(lp1084
tp1085
a(L2258897019L
L0L
(lp1086
(lp1087
tp1088
a(L3109269495L
L0L
(lp1089
(lp1090
tp1091
atp1092
sI1074238000
(Vbootloader_flash_erase_sector
p1093
(lp1094
(L4129137686L
L1880226080L
(lp1095
(lp1096
Vesp_rom_spiflash_erase_sector
p1097
aVspi_to_esp_err
p1098
atp1099
atp1100
sI1074237744
(Vbootloader_flash_read
p1101
(lp1102
(L3022618172L
L0L
(lp1103
(lp1104
tp1105
a(L2493247481L
L2147981551L
(lp1106
(lp1107
Vesp_log_early_timestamp
p1108
atp1109
a(L852987398L
L1443213481L
(lp1110
(lp1111
tp1112
a(L1351513776L
L0L
(lp1113
(lp1114
tp1115
a(L1486740491L
L0L
(lp1116
(lp1117
tp1118
a(L4276228047L
L2147981551L
(lp1119
(lp1120
Vesp_log_early_timestamp
p1121
atp1122
a(L3283691850L
L0L
(lp1123
(lp1124
tp1125
a(L4276228016L
L2147981551L
(lp1126
(lp1127
Vesp_log_early_timestamp
p1128
atp1129
a(L3020204L
L0L
(lp1130
(lp1131
tp1132
a(L384130671L
L0L
(lp1133
(lp1134
tp1135
a(L97422L
L0L
(lp1136
(lp1137
tp1138
a(L515889772L
L2195759072L
(lp1139
(lp1140
tp1141
a(L3321969934L
L1690040256L
(lp1142
(lp1143
tp1144
a(L279744554L
L4032149094L
(lp1145
(lp1146
V__assert_func
p1147
atp1148
a(L4071371888L
L2534110409L
(lp1149
(lp1150
tp1151
a(L2438181396L
L1443213481L
(lp1152
(lp1153
tp1154
a(L1976506429L
L3635241909L
(lp1155
(lp1156
Vesp_rom_spiflash_read
p1157
aVspi_to_esp_err
p1158
atp1159
atp1160
sI1074244924
(Vrtc_clk_cpu_freq_to_pll_mhz
p1161
(lp1162
(L3231135830L
L0L
(lp1163
(lp1164
tp1165
a(L2102627717L
L2195759072L
(lp1166
(lp1167
tp1168
a(L2982280123L
L3380333161L
(lp1169
(lp1170
Vesp_rom_set_cpu_ticks_per_us
p1171
aVrtc_clk_wait_for_slow_cycle
p1172
atp1173
a(L708686908L
L1443213481L
(lp1174
(lp1175
tp1176
a(L3284807114L
L0L
(lp1177
(lp1178
tp1179
a(L94425498L
L3785322319L
(lp1180
(lp1181
Vabort
p1182
atp1183
a(L2258897019L
L0L
(lp1184
(lp1185
tp1186
a(L1113742378L
L0L
(lp1187
(lp1188
tp1189
a(L1306330990L
L0L
(lp1190
(lp1191
tp1192
atp1193
sI1074245948
(Vrtc_clk_apb_freq_update
p1194
(lp1195
(L3982322780L
L1443213481L
(lp1196
(lp1197
tp1198
atp1199
sI1074270004
(Vbootloader_print_banner
p1200
(lp1201
(L3569996224L
L1385564105L
(lp1202
(lp1203
Vesp_bootloader_get_description
p1204
aVesp_log_early_timestamp
p1205
aVesp_log_early_timestamp
p1206
aVesp_log_early_timestamp
p1207
atp1208
atp1209
sI1074247480
(Vesp_rom_spiflash_read_status
p1210
(lp1211
(L3588638125L
L1443213481L
(lp1212
(lp1213
tp1214
a(L4250092034L
L2534110409L
(lp1215
(lp1216
tp1217
a(L4159619641L
L0L
(lp1218
(lp1219
tp1220
a(L2392720019L
L0L
(lp1221
(lp1222
tp1223
a(L2258688487L
L0L
(lp1224
(lp1225
tp1226
a(L4159619145L
L0L
(lp1227
(lp1228
tp1229
a(L3241763332L
L1443213481L
(lp1230
(lp1231
tp1232
a(L3117156279L
L0L
(lp1233
(lp1234
tp1235
a(L2123059967L
L0L
(lp1236
(lp1237
tp1238
a(L582177370L
L0L
(lp1239
(lp1240
tp1241
atp1242
sI1074238020
(Vbootloader_flash_write
p1243
(lp1244
(L3770380603L
L0L
(lp1245
(lp1246
tp1247
a(L2654201950L
L2147981551L
(lp1248
(lp1249
Vesp_log_early_timestamp
p1250
atp1251
a(L4207910112L
L1443213481L
(lp1252
(lp1253
tp1254
a(L1610445075L
L0L
(lp1255
(lp1256
tp1257
a(L735741265L
L0L
(lp1258
(lp1259
tp1260
a(L3291333414L
L0L
(lp1261
(lp1262
tp1263
a(L416217162L
L2147981551L
(lp1264
(lp1265
Vesp_log_early_timestamp
p1266
atp1267
a(L3283691850L
L0L
(lp1268
(lp1269
tp1270
a(L212182276L
L3187408090L
(lp1271
(lp1272
Vesp_log_early_timestamp
p1273
atp1274
a(L3212356251L
L3785322319L
(lp1275
(lp1276
Vbootloader_flash_unlock
p1277
atp1278
a(L1799218633L
L0L
(lp1279
(lp1280
tp1281
a(L94425498L
L3785322319L
(lp1282
(lp1283
Vesp_rom_spiflash_write_encrypted
p1284
atp1285
a(L2927190544L
L3785322319L
(lp1286
(lp1287
Vspi_to_esp_err
p1288
atp1289
a(L2927190544L
L3785322319L
(lp1290
(lp1291
Vesp_rom_spiflash_write
p1292
atp1293
atp1294
sI1074236740
(Vefuse_hal_chip_revision
p1295
(lp1296
(L2719302832L
L1880226080L
(lp1297
(lp1298
Vefuse_hal_get_major_chip_version
p1299
aVefuse_hal_get_minor_chip_version
p1300
atp1301
atp1302
sI1074248260
(Vesp_rom_spiflash_read
p1303
(lp1304
(L1499485309L
L1690040256L
(lp1305
(lp1306
tp1307
a(L3114780042L
L1679261929L
(lp1308
(lp1309
tp1310
a(L2860271684L
L0L
(lp1311
(lp1312
tp1313
a(L1872504408L
L1443213481L
(lp1314
(lp1315
tp1316
a(L106L
L0L
(lp1317
(lp1318
tp1319
a(L633884026L
L0L
(lp1320
(lp1321
tp1322
a(L106L
L0L
(lp1323
(lp1324
tp1325
a(L1100272902L
L1443213481L
(lp1326
(lp1327
tp1328
a(L1372101025L
L1690040256L
(lp1329
(lp1330
tp1331
a(L974197278L
L2195759072L
(lp1332
(lp1333
tp1334
a(L336550648L
L0L
(lp1335
(lp1336
tp1337
a(L3167414617L
L1443213481L
(lp1338
(lp1339
tp1340
a(L106L
L0L
(lp1341
(lp1342
tp1343
a(L3138763340L
L362179215L
(lp1344
(lp1345
Vesp_rom_spiflash_wait_idle
p1346
atp1347
a(L3021737L
L0L
(lp1348
(lp1349
tp1350
a(L106L
L0L
(lp1351
(lp1352
tp1353
a(L1868280504L
L0L
(lp1354
(lp1355
tp1356
a(L106L
L0L
(lp1357
(lp1358
tp1359
a(L750281353L
L0L
(lp1360
(lp1361
tp1362
a(L3897437082L
L0L
(lp1363
(lp1364
tp1365
a(L4122060822L
L0L
(lp1366
(lp1367
tp1368
a(L483218220L
L1443213481L
(lp1369
(lp1370
tp1371
a(L2989032L
L0L
(lp1372
(lp1373
tp1374
a(L3819849625L
L0L
(lp1375
(lp1376
tp1377
a(L1082031446L
L2195759072L
(lp1378
(lp1379
tp1380
a(L1872504408L
L1443213481L
(lp1381
(lp1382
tp1383
a(L147213506L
L1443213481L
(lp1384
(lp1385
tp1386
a(L2062799182L
L2534110409L
(lp1387
(lp1388
tp1389
a(L2921907736L
L0L
(lp1390
(lp1391
tp1392
a(L3677617742L
L1443213481L
(lp1393
(lp1394
tp1395
a(L2483025066L
L1679261929L
(lp1396
(lp1397
tp1398
a(L2136664087L
L1443213481L
(lp1399
(lp1400
tp1401
a(L3000478599L
L2195759072L
(lp1402
(lp1403
tp1404
a(L3333707777L
L0L
(lp1405
(lp1406
tp1407
a(L3251955268L
L0L
(lp1408
(lp1409
tp1410
a(L3418540920L
L0L
(lp1411
(lp1412
tp1413
a(L4183823801L
L1443213481L
(lp1414
(lp1415
tp1416
a(L97689L
L0L
(lp1417
(lp1418
tp1419
a(L2258897019L
L0L
(lp1420
(lp1421
tp1422
a(L4014024819L
L0L
(lp1423
(lp1424
tp1425
a(L3621567083L
L0L
(lp1426
(lp1427
tp1428
atp1429
sI1074241856
(Vprocess_appended_hash_and_sig
p1430
(lp1431
(L1668084157L
L0L
(lp1432
(lp1433
tp1434
a(L2910371777L
L0L
(lp1435
(lp1436
tp1437
a(L4285188111L
L0L
(lp1438
(lp1439
tp1440
a(L1151175705L
L0L
(lp1441
(lp1442
tp1443
a(L97689L
L0L
(lp1444
(lp1445
tp1446
a(L2250231589L
L3187408090L
(lp1447
(lp1448
Vesp_log_early_timestamp
p1449
atp1450
a(L268651496L
L1443213481L
(lp1451
(lp1452
tp1453
a(L1464893571L
L3785322319L
(lp1454
(lp1455
Vbootloader_flash_read
p1456
atp1457
a(L735741265L
L0L
(lp1458
(lp1459
tp1460
atp1461
sI1074248008
(Vesp_rom_spiflash_write
p1462
(lp1463
(L924384987L
L1679261929L
(lp1464
(lp1465
tp1466
a(L2258688483L
L0L
(lp1467
(lp1468
tp1469
a(L3360570486L
L0L
(lp1470
(lp1471
tp1472
a(L3368132847L
L0L
(lp1473
(lp1474
tp1475
a(L3106685981L
L0L
(lp1476
(lp1477
tp1478
a(L3488660639L
L3785322319L
(lp1479
(lp1480
Vesp_rom_spiflash_program_page_internal
p1481
atp1482
a(L3543402353L
L3785322319L
(lp1483
(lp1484
Vesp_rom_spiflash_program_page_internal
p1485
atp1486
a(L4222526342L
L0L
(lp1487
(lp1488
tp1489
a(L2004208511L
L0L
(lp1490
(lp1491
tp1492
a(L564470656L
L0L
(lp1493
(lp1494
tp1495
a(L441922648L
L3785322319L
(lp1496
(lp1497
Vesp_rom_spiflash_program_page_internal
p1498
atp1499
a(L2302069176L
L0L
(lp1500
(lp1501
tp1502
atp1503
sI1074245204
(Vrtc_clk_8m_enable
p1504
(lp1505
(L2359152383L
L2195759072L
(lp1506
(lp1507
tp1508
a(L2145669267L
L1443213481L
(lp1509
(lp1510
tp1511
a(L2151320156L
L0L
(lp1512
(lp1513
tp1514
a(L1262936142L
L1443213481L
(lp1515
(lp1516
tp1517
a(L3360570486L
L0L
(lp1518
(lp1519
tp1520
a(L1318267208L
L0L
(lp1521
(lp1522
tp1523
a(L1085208965L
L1443213481L
(lp1524
(lp1525
tp1526
atp1527
sI1074237012
(Vbootloader_common_ota_select_crc
p1528
(lp1529
(L2925798959L
L1443213481L
(lp1530
(lp1531
tp1532
atp1533
sI1074267740
(Vcall_start_cpu0
p1534
(lp1535
(L342432055L
L1443213481L
(lp1536
(lp1537
tp1538
a(L94425498L
L3785322319L
(lp1539
(lp1540
Vbootloader_before_init
p1541
atp1542
a(L3279886022L
L3785322319L
(lp1543
(lp1544
Vbootloader_init
p1545
atp1546
a(L94425498L
L3785322319L
(lp1547
(lp1548
Vbootloader_reset
p1549
atp1550
a(L2889740857L
L3948687668L
(lp1551
(lp1552
tp1553
a(L94425498L
L3785322319L
(lp1554
(lp1555
Vbootloader_after_init
p1556
atp1557
a(L148084059L
L2218577417L
(lp1558
(lp1559
Vmemset
p1560
aVbootloader_utility_load_partition_table
p1561
atp1562
a(L3014296803L
L3187408090L
(lp1563
(lp1564
Vesp_log_early_timestamp
p1565
atp1566
a(L405422123L
L3785322319L
(lp1567
(lp1568
Vbootloader_utility_get_selected_boot_partition
p1569
atp1570
a(L2025208509L
L242900614L
(lp1571
(lp1572
Vbootloader_utility_load_boot_image
p1573
atp1574
atp1575
sI1074244188
(Vwdt_hal_config_stage
p1576
(lp1577
(L331558507L
L0L
(lp1578
(lp1579
tp1580
a(L4279082939L
L0L
(lp1581
(lp1582
tp1583
a(L93674324L
L0L
(lp1584
(lp1585
tp1586
a(L2902417580L
L0L
(lp1587
(lp1588
tp1589
a(L1506709436L
L1443213481L
(lp1590
(lp1591
tp1592
a(L3020187L
L0L
(lp1593
(lp1594
tp1595
a(L94425498L
L3785322319L
(lp1596
(lp1597
Vabort
p1598
atp1599
a(L1999536000L
L1443213481L
(lp1600
(lp1601
tp1602
a(L3360570486L
L0L
(lp1603
(lp1604
tp1605
a(L2402105077L
L1443213481L
(lp1606
(lp1607
tp1608
a(L3297501927L
L1443213481L
(lp1609
(lp1610
tp1611
a(L4278159418L
L0L
(lp1612
(lp1613
tp1614
a(L93674324L
L0L
(lp1615
(lp1616
tp1617
a(L3020204L
L0L
(lp1618
(lp1619
tp1620
a(L2956541743L
L1443213481L
(lp1621
(lp1622
tp1623
a(L3020187L
L0L
(lp1624
(lp1625
tp1626
a(L106L
L0L
(lp1627
(lp1628
tp1629
a(L1473987957L
L1443213481L
(lp1630
(lp1631
tp1632
a(L927955509L
L1443213481L
(lp1633
(lp1634
tp1635
a(L3740367810L
L1443213481L
(lp1636
(lp1637
tp1638
atp1639
sI1074236764
(Vefuse_hal_flash_encryption_enabled
p1640
(lp1641
(L221474917L
L1443213481L
(lp1642
(lp1643
tp1644
a(L2910371777L
L0L
(lp1645
(lp1646
tp1647
a(L3360570486L
L0L
(lp1648
(lp1649
tp1650
a(L3016870L
L0L
(lp1651
(lp1652
tp1653
a(L3745038218L
L0L
(lp1654
(lp1655
tp1656
a(L957607403L
L0L
(lp1657
(lp1658
tp1659
atp1660
sI1074267732
(Vesp_bootloader_get_description
p1661
(lp1662
(L2248573785L
L2195759072L
(lp1663
(lp1664
tp1665
atp1666
sI1074269780
(Vbootloader_check_bootloader_validity
p1667
(lp1668
(L2945382592L
L1069700966L
(lp1669
(lp1670
Vefuse_hal_chip_revision
p1671
aVesp_log_early_timestamp
p1672
aVbootloader_common_check_chip_validity
p1673
atp1674
atp1675
sI1074234712
(Vbootloader_common_get_chip_ver_pkg
p1676
(lp1677
(L3197874814L
L1443213481L
(lp1678
(lp1679
tp1680
atp1681
sI1074245976
(Vrtc_clk_cpu_freq_to_xtal
p1682
(lp1683
(L767415990L
L3785322319L
(lp1684
(lp1685
Vesp_rom_set_cpu_ticks_per_us
p1686
atp1687
a(L94425498L
L3785322319L
(lp1688
(lp1689
Vabort
p1690
atp1691
a(L749912951L
L671729222L
(lp1692
(lp1693
Vrtc_clk_apb_freq_update
p1694
atp1695
a(L2258867230L
L0L
(lp1696
(lp1697
tp1698
a(L1803595874L
L2195759072L
(lp1699
(lp1700
tp1701
atp1702
sI1074244704
(Vmmu_hal_unmap_all
p1703
(lp1704
(L3970138582L
L1443213481L
(lp1705
(lp1706
tp1707
a(L2010554219L
L0L
(lp1708
(lp1709
tp1710
a(L147213506L
L1443213481L
(lp1711
(lp1712
tp1713
a(L3212334523L
L0L
(lp1714
(lp1715
tp1716
a(L2010554219L
L0L
(lp1717
(lp1718
tp1719
a(L3360570486L
L0L
(lp1720
(lp1721
tp1722
atp1723
sI1074240876
(Vbootloader_console_deinit
p1724
(lp1725
(L1858531217L
L1443213481L
(lp1726
(lp1727
tp1728
atp1729
sI1074238316
(Vbootloader_random_disable
p1730
(lp1731
(L482324986L
L2935979744L
(lp1732
(lp1733
tp1734
atp1735
sI1074237032
(Vbootloader_common_ota_select_valid
p1736
(lp1737
(L1563399710L
L3785322319L
(lp1738
(lp1739
Vbootloader_common_ota_select_invalid
p1740
atp1741
a(L3814720849L
L3785322319L
(lp1742
(lp1743
Vbootloader_common_ota_select_crc
p1744
atp1745
a(L3360570486L
L0L
(lp1746
(lp1747
tp1748
atp1749
sI1074241384
(Vverify_load_addresses
p1750
(lp1751
(L2764487219L
L0L
(lp1752
(lp1753
tp1754
a(L106L
L0L
(lp1755
(lp1756
tp1757
a(L97642L
L0L
(lp1758
(lp1759
tp1760
a(L1682572953L
L4032149094L
(lp1761
(lp1762
V__assert_func
p1763
atp1764
a(L371731316L
L2195759072L
(lp1765
(lp1766
tp1767
a(L106L
L0L
(lp1768
(lp1769
tp1770
a(L3747671351L
L2195759072L
(lp1771
(lp1772
tp1773
a(L106L
L0L
(lp1774
(lp1775
tp1776
a(L159211233L
L4171435875L
(lp1777
(lp1778
Vbootloader_util_regions_overlap
p1779
atp1780
a(L3369736729L
L581251951L
(lp1781
(lp1782
Vbootloader_util_regions_overlap
p1783
atp1784
a(L3028481L
L0L
(lp1785
(lp1786
tp1787
a(L129067213L
L242900614L
(lp1788
(lp1789
Vbootloader_util_regions_overlap
p1790
atp1791
a(L51970127L
L2534110409L
(lp1792
(lp1793
tp1794
a(L3212477138L
L1443213481L
(lp1795
(lp1796
tp1797
a(L1032381749L
L0L
(lp1798
(lp1799
tp1800
a(L2837304413L
L0L
(lp1801
(lp1802
tp1803
a(L677569396L
L3785322319L
(lp1804
(lp1805
Vverify_load_addresses
p1806
atp1807
a(L1351513776L
L0L
(lp1808
(lp1809
tp1810
a(L956755582L
L0L
(lp1811
(lp1812
tp1813
a(L1550159667L
L1443213481L
(lp1814
(lp1815
tp1816
a(L2297907636L
L2195759072L
(lp1817
(lp1818
tp1819
a(L106L
L0L
(lp1820
(lp1821
tp1822
a(L1378880375L
L2195759072L
(lp1823
(lp1824
tp1825
a(L106L
L0L
(lp1826
(lp1827
tp1828
a(L1933245593L
L581251951L
(lp1829
(lp1830
Vbootloader_util_regions_overlap
p1831
atp1832
a(L3028481L
L0L
(lp1833
(lp1834
tp1835
a(L2219806806L
L581251951L
(lp1836
(lp1837
Vbootloader_util_regions_overlap
p1838
atp1839
a(L3186102034L
L1690040256L
(lp1840
(lp1841
tp1842
a(L1284972329L
L1443213481L
(lp1843
(lp1844
tp1845
a(L3236457224L
L1443213481L
(lp1846
(lp1847
tp1848
a(L2743341656L
L0L
(lp1849
(lp1850
tp1851
a(L182882711L
L0L
(lp1852
(lp1853
tp1854
a(L2268367078L
L2195759072L
(lp1855
(lp1856
tp1857
a(L297163306L
L0L
(lp1858
(lp1859
tp1860
a(L1900059593L
L0L
(lp1861
(lp1862
tp1863
a(L376010266L
L2534110409L
(lp1864
(lp1865
tp1866
a(L1319531632L
L1443213481L
(lp1867
(lp1868
tp1869
a(L3929371936L
L0L
(lp1870
(lp1871
tp1872
a(L147213506L
L1443213481L
(lp1873
(lp1874
tp1875
a(L4072848040L
L0L
(lp1876
(lp1877
tp1878
a(L106L
L0L
(lp1879
(lp1880
tp1881
a(L268651496L
L1443213481L
(lp1882
(lp1883
tp1884
a(L147213506L
L1443213481L
(lp1885
(lp1886
tp1887
a(L3020204L
L0L
(lp1888
(lp1889
tp1890
a(L885671544L
L2275292552L
(lp1891
(lp1892
Vesp_log_early_timestamp
p1893
atp1894
a(L1303560396L
L0L
(lp1895
(lp1896
tp1897
a(L268651496L
L1443213481L
(lp1898
(lp1899
tp1900
a(L1303560427L
L0L
(lp1901
(lp1902
tp1903
atp1904
sI1074270072
(Vbootloader_console_init
p1905
(lp1906
(L3806010175L
L988378406L
(lp1907
(lp1908
Vesp_rom_uart_tx_wait_idle
p1909
aVrtc_clk_apb_freq_get
p1910
aVesp_rom_uart_set_clock_baudrate
p1911
atp1912
atp1913
sI1074241140
(Vprocess_image_header
p1914
(lp1915
(L3301900732L
L2218577417L
(lp1916
(lp1917
Vmemset
p1918
aVbootloader_flash_read
p1919
atp1920
a(L3020204L
L0L
(lp1921
(lp1922
tp1923
a(L4205021202L
L0L
(lp1924
(lp1925
tp1926
a(L321261932L
L0L
(lp1927
(lp1928
tp1929
a(L1161397362L
L3785322319L
(lp1930
(lp1931
Vbootloader_sha256_start
p1932
atp1933
a(L2062774299L
L3785322319L
(lp1934
(lp1935
Vbootloader_sha256_data
p1936
atp1937
a(L1291118193L
L0L
(lp1938
(lp1939
tp1940
a(L3028481L
L0L
(lp1941
(lp1942
tp1943
a(L559062533L
L3187408090L
(lp1944
(lp1945
Vesp_log_early_timestamp
p1946
atp1947
a(L147213506L
L1443213481L
(lp1948
(lp1949
tp1950
a(L2983970029L
L0L
(lp1951
(lp1952
tp1953
a(L4235213884L
L3785322319L
(lp1954
(lp1955
Vbootloader_common_check_chip_validity
p1956
atp1957
a(L4144303915L
L0L
(lp1958
(lp1959
tp1960
a(L3028481L
L0L
(lp1961
(lp1962
tp1963
a(L3714328738L
L3187408090L
(lp1964
(lp1965
Vesp_log_early_timestamp
p1966
atp1967
a(L2852701393L
L0L
(lp1968
(lp1969
tp1970
a(L2122516551L
L0L
(lp1971
(lp1972
tp1973
a(L3064492592L
L0L
(lp1974
(lp1975
tp1976
atp1977
sI1074246772
(Vrtc_clk_apb_freq_get
p1978
(lp1979
(L189810653L
L1679261929L
(lp1980
(lp1981
tp1982
atp1983
sI1074270332
(Vrtc_clk_init
p1984
(lp1985
(L1100006719L
L1443213481L
(lp1986
(lp1987
tp1988
a(L42671777L
L3785322319L
(lp1989
(lp1990
Vrtc_clk_cpu_freq_to_xtal
p1991
atp1992
a(L739905763L
L1743007695L
(lp1993
(lp1994
Vrtc_clk_xtal_freq_get
p1995
atp1996
a(L3028481L
L0L
(lp1997
(lp1998
tp1999
a(L4284274517L
L3785322319L
(lp2000
(lp2001
Vrtc_clk_xtal_freq_estimate
p2002
atp2003
a(L2576622952L
L3187408090L
(lp2004
(lp2005
Vesp_log_early_timestamp
p2006
atp2007
a(L1822030105L
L3065544262L
(lp2008
(lp2009
Vesp_rom_uart_tx_wait_idle
p2010
aVrtc_clk_xtal_freq_update
p2011
aVrtc_clk_apb_freq_update
p2012
aVrtc_clk_cpu_freq_get_config
p2013
aVrtc_clk_cpu_freq_mhz_to_config
p2014
atp2015
a(L521302419L
L2704288053L
(lp2016
(lp2017
Vesp_log_early_timestamp
p2018
aVabort
p2019
atp2020
a(L2902417580L
L0L
(lp2021
(lp2022
tp2023
a(L1899970065L
L0L
(lp2024
(lp2025
tp2026
a(L377687546L
L3785322319L
(lp2027
(lp2028
Vrtc_clk_xtal_freq_estimate
p2029
atp2030
a(L2163742247L
L3187408090L
(lp2031
(lp2032
Vesp_log_early_timestamp
p2033
atp2034
a(L299116989L
L2426646996L
(lp2035
(lp2036
Vrtc_clk_cpu_freq_set_config
p2037
aV__udivdi3
p2038
atp2039
a(L912310138L
L3785322319L
(lp2040
(lp2041
Vrtc_clk_32k_enable
p2042
atp2043
a(L3191820416L
L1832448559L
(lp2044
(lp2045
Vrtc_clk_8m_enable
p2046
aVrtc_clk_fast_src_set
p2047
aVrtc_clk_slow_src_set
p2048
atp2049
a(L1232958848L
L0L
(lp2050
(lp2051
tp2052
atp2053
sI1074235248
(Vbootloader_execute_flash_command
p2054
(lp2055
(L2481595632L
L3785322319L
(lp2056
(lp2057
Vbootloader_flash_execute_command_common
p2058
atp2059
atp2060
sI1074247280
(Vrtc_clk_cal_ratio
p2061
(lp2062
(L3870710856L
L195123093L
(lp2063
(lp2064
Vrtc_clk_cal_internal
p2065
aV__udivdi3
p2066
atp2067
atp2068
sI1074240892
(V__assert_func
p2069
(lp2070
(L3115292802L
L2195759072L
(lp2071
(lp2072
tp2073
a(L106L
L0L
(lp2074
(lp2075
tp2076
atp2077
sI1074238844
(Vtry_load_partition
p2078
(lp2079
(L1263750142L
L0L
(lp2080
(lp2081
tp2082
a(L2258688482L
L0L
(lp2083
(lp2084
tp2085
a(L3360570486L
L0L
(lp2086
(lp2087
tp2088
a(L530241438L
L3785322319L
(lp2089
(lp2090
Vbootloader_load_image
p2091
atp2092
a(L4168266278L
L3187408090L
(lp2093
(lp2094
Vesp_log_early_timestamp
p2095
atp2096
atp2097
sI1074237308
(Vbootloader_common_get_active_otadata
p2098
(lp2099
(L3317503532L
L0L
(lp2100
(lp2101
tp2102
a(L2503049265L
L1832448559L
(lp2103
(lp2104
Vbootloader_common_ota_select_valid
p2105
aVbootloader_common_ota_select_valid
p2106
aVbootloader_common_select_otadata
p2107
atp2108
a(L735741265L
L0L
(lp2109
(lp2110
tp2111
atp2112
sI1074234744
(Vesp_flash_encryption_enabled
p2113
(lp2114
(L376617603L
L3785322319L
(lp2115
(lp2116
Vefuse_hal_flash_encryption_enabled
p2117
atp2118
atp2119
sI1074245496
(Vrtc_clk_slow_src_get
p2120
(lp2121
(L1566794270L
L1443213481L
(lp2122
(lp2123
tp2124
a(L3020187L
L0L
(lp2125
(lp2126
tp2127
a(L2902417580L
L0L
(lp2128
(lp2129
tp2130
a(L2258688485L
L0L
(lp2131
(lp2132
tp2133
a(L3360570486L
L0L
(lp2134
(lp2135
tp2136
atp2137
sI1074239876
(Vbootloader_utility_get_selected_boot_partition
p2138
(lp2139
(L2938832293L
L0L
(lp2140
(lp2141
tp2142
a(L2250662613L
L1443213481L
(lp2143
(lp2144
tp2145
a(L3987062097L
L2147981551L
(lp2146
(lp2147
Vesp_log_early_timestamp
p2148
atp2149
a(L558289164L
L1443213481L
(lp2150
(lp2151
tp2152
a(L3360570486L
L0L
(lp2153
(lp2154
tp2155
a(L3118387733L
L3785322319L
(lp2156
(lp2157
Vbootloader_mmap
p2158
atp2159
a(L3080008394L
L2147981551L
(lp2160
(lp2161
Vesp_log_early_timestamp
p2162
atp2163
a(L937961821L
L2410515468L
(lp2164
(lp2165
Vmemcpy
p2166
aVmemcpy
p2167
aVbootloader_munmap
p2168
aVbootloader_common_ota_select_invalid
p2169
atp2170
a(L2911028409L
L0L
(lp2171
(lp2172
tp2173
a(L726754926L
L3785322319L
(lp2174
(lp2175
Vbootloader_common_get_active_otadata
p2176
atp2177
a(L106L
L0L
(lp2178
(lp2179
tp2180
a(L4179097382L
L0L
(lp2181
(lp2182
tp2183
a(L788494392L
L3785322319L
(lp2184
(lp2185
Vbootloader_common_ota_select_invalid
p2186
atp2187
a(L638952356L
L1443213481L
(lp2188
(lp2189
tp2190
a(L1522345576L
L3833084538L
(lp2191
(lp2192
Vesp_log_early_timestamp
p2193
atp2194
a(L4207910112L
L1443213481L
(lp2195
(lp2196
tp2197
a(L1641201884L
L0L
(lp2198
(lp2199
tp2200
a(L3196944801L
L2147981551L
(lp2201
(lp2202
Vesp_log_early_timestamp
p2203
atp2204
a(L2302032704L
L0L
(lp2205
(lp2206
tp2207
a(L1173788779L
L3785322319L
(lp2208
(lp2209
Vbootloader_common_ota_select_crc
p2210
atp2211
a(L178397698L
L1443213481L
(lp2212
(lp2213
tp2214
a(L1324800084L
L3785322319L
(lp2215
(lp2216
Vbootloader_common_ota_select_crc
p2217
atp2218
a(L1299866312L
L0L
(lp2219
(lp2220
tp2221
a(L2704362655L
L1443213481L
(lp2222
(lp2223
tp2224
a(L344024800L
L3833084538L
(lp2225
(lp2226
Vesp_log_early_timestamp
p2227
atp2228
a(L1194215008L
L3833084538L
(lp2229
(lp2230
Vesp_log_early_timestamp
p2231
atp2232
atp2233
sI1074236804
(Vefuse_hal_get_major_chip_version
p2234
(lp2235
(L1572156932L
L2195759072L
(lp2236
(lp2237
tp2238
a(L894792960L
L0L
(lp2239
(lp2240
tp2241
a(L724635033L
L0L
(lp2242
(lp2243
tp2244
a(L3360570486L
L0L
(lp2245
(lp2246
tp2247
atp2248
sI1074234756
(Vbootloader_flash_execute_command_common
p2249
(lp2250
(L1988465817L
L0L
(lp2251
(lp2252
tp2253
a(L2946944720L
L2195759072L
(lp2254
(lp2255
tp2256
a(L2213948952L
L242900614L
(lp2257
(lp2258
V__assert_func
p2259
atp2260
a(L3021749L
L0L
(lp2261
(lp2262
tp2263
a(L1160973241L
L2195759072L
(lp2264
(lp2265
tp2266
a(L2792673601L
L1679261929L
(lp2267
(lp2268
tp2269
a(L3792188146L
L0L
(lp2270
(lp2271
tp2272
a(L4024113366L
L0L
(lp2273
(lp2274
tp2275
a(L3275299125L
L1443213481L
(lp2276
(lp2277
tp2278
a(L2232084959L
L2534110409L
(lp2279
(lp2280
tp2281
a(L1099389923L
L0L
(lp2282
(lp2283
tp2284
a(L857553440L
L2195759072L
(lp2285
(lp2286
tp2287
a(L3877681344L
L0L
(lp2288
(lp2289
tp2290
a(L73134175L
L1443213481L
(lp2291
(lp2292
tp2293
a(L1270255739L
L0L
(lp2294
(lp2295
tp2296
a(L3691039583L
L0L
(lp2297
(lp2298
tp2299
a(L3411317116L
L0L
(lp2300
(lp2301
tp2302
a(L3360570486L
L0L
(lp2303
(lp2304
tp2305
atp2306
sI1074245764
(Vrtc_clk_cpu_freq_get_config
p2307
(lp2308
(L4245581454L
L1443213481L
(lp2309
(lp2310
tp2311
a(L3020187L
L0L
(lp2312
(lp2313
tp2314
a(L3020187L
L0L
(lp2315
(lp2316
tp2317
a(L2734221335L
L242900614L
(lp2318
(lp2319
Vrtc_clk_xtal_freq_get
p2320
atp2321
a(L3789795478L
L0L
(lp2322
(lp2323
tp2324
a(L672805395L
L2704288053L
(lp2325
(lp2326
Vesp_log_early_timestamp
p2327
aVabort
p2328
atp2329
a(L3849169076L
L1443213481L
(lp2330
(lp2331
tp2332
a(L3020187L
L0L
(lp2333
(lp2334
tp2335
a(L3028481L
L0L
(lp2336
(lp2337
tp2338
a(L38508693L
L0L
(lp2339
(lp2340
tp2341
a(L187152368L
L0L
(lp2342
(lp2343
tp2344
a(L1161083655L
L0L
(lp2345
(lp2346
tp2347
a(L1395485899L
L0L
(lp2348
(lp2349
tp2350
a(L2070600034L
L0L
(lp2351
(lp2352
tp2353
atp2354
sI1074237068
(Vbootloader_common_check_chip_validity
p2355
(lp2356
(L2080115690L
L0L
(lp2357
(lp2358
tp2359
a(L3255759481L
L3187408090L
(lp2360
(lp2361
Vesp_log_early_timestamp
p2362
atp2363
a(L1299867982L
L0L
(lp2364
(lp2365
tp2366
a(L3360570486L
L0L
(lp2367
(lp2368
tp2369
a(L521940037L
L3785322319L
(lp2370
(lp2371
Vefuse_hal_chip_revision
p2372
atp2373
a(L332291457L
L1443213481L
(lp2374
(lp2375
tp2376
a(L780168284L
L362179215L
(lp2377
(lp2378
Vesp_log_early_timestamp
p2379
atp2380
a(L3028464L
L0L
(lp2381
(lp2382
tp2383
a(L573448730L
L0L
(lp2384
(lp2385
tp2386
a(L106L
L0L
(lp2387
(lp2388
tp2389
a(L3027019L
L0L
(lp2390
(lp2391
tp2392
a(L106L
L0L
(lp2393
(lp2394
tp2395
a(L3212356251L
L3785322319L
(lp2396
(lp2397
Vefuse_hal_get_disable_wafer_version_major
p2398
atp2399
a(L2465410698L
L362179215L
(lp2400
(lp2401
Vesp_log_early_timestamp
p2402
atp2403
atp2404
sI1074269848
(Vbootloader_config_wdt
p2405
(lp2406
(L3447475412L
L603716358L
(lp2407
(lp2408
Vwdt_hal_write_protect_disable
p2409
aVwdt_hal_set_flashboot_en
p2410
aVwdt_hal_write_protect_enable
p2411
aVwdt_hal_init
p2412
aVrtc_clk_slow_freq_get_hz
p2413
aVwdt_hal_write_protect_disable
p2414
aV__udivdi3
p2415
aVwdt_hal_config_stage
p2416
aVwdt_hal_enable
p2417
aVwdt_hal_write_protect_enable
p2418
aVwdt_hal_write_protect_disable
p2419
aVwdt_hal_set_flashboot_en
p2420
aVwdt_hal_write_protect_enable
p2421
atp2422
atp2423
sI1074240916
(Vabort
p2424
(lp2425
(L2564459292L
L1690040256L
(lp2426
(lp2427
tp2428
a(L409471316L
L0L
(lp2429
(lp2430
tp2431
a(L106L
L0L
(lp2432
(lp2433
tp2434
atp2435
sI1074245524
(Vrtc_clk_slow_freq_get_hz
p2436
(lp2437
(L1826267122L
L3785322319L
(lp2438
(lp2439
Vrtc_clk_slow_src_get
p2440
atp2441
a(L1872507229L
L1443213481L
(lp2442
(lp2443
tp2444
a(L2221201615L
L1443213481L
(lp2445
(lp2446
tp2447
a(L3360570486L
L0L
(lp2448
(lp2449
tp2450
atp2451
sI1074270108
(Vesp_cpu_configure_region_protection
p2452
(lp2453
(L3233924472L
L581251951L
(lp2454
(lp2455
Vmemcpy
p2456
atp2457
a(L180431425L
L3785322319L
(lp2458
(lp2459
Vmpu_hal_set_region_access
p2460
atp2461
a(L2537388152L
L3785322319L
(lp2462
(lp2463
Vmpu_hal_set_region_access
p2464
atp2465
atp2466
sI1074244752
(Vefuse_hal_get_rated_freq_mhz
p2467
(lp2468
(L1158870592L
L1443213481L
(lp2469
(lp2470
tp2471
a(L338960367L
L0L
(lp2472
(lp2473
tp2474
a(L3360570486L
L0L
(lp2475
(lp2476
tp2477
atp2478
sI1074235280
(Vbootloader_flash_unlock
p2479
(lp2480
(L1368360454L
L242900614L
(lp2481
(lp2482
Vesp_rom_spiflash_wait_idle
p2483
atp2484
a(L1574074940L
L0L
(lp2485
(lp2486
tp2487
a(L1667462067L
L3785322319L
(lp2488
(lp2489
Vbootloader_execute_flash_command
p2490
atp2491
a(L106L
L0L
(lp2492
(lp2493
tp2494
a(L1013678540L
L0L
(lp2495
(lp2496
tp2497
a(L2529045083L
L0L
(lp2498
(lp2499
tp2500
a(L990750093L
L1832448559L
(lp2501
(lp2502
Vesp_rom_spiflash_wait_idle
p2503
aVbootloader_execute_flash_command
p2504
aVbootloader_execute_flash_command
p2505
atp2506
a(L993671302L
L1832448559L
(lp2507
(lp2508
Vesp_rom_spiflash_wait_idle
p2509
aVbootloader_execute_flash_command
p2510
aVbootloader_execute_flash_command
p2511
atp2512
a(L1209048744L
L1880226080L
(lp2513
(lp2514
Vesp_rom_spiflash_wait_idle
p2515
aVbootloader_execute_flash_command
p2516
atp2517
a(L3162775668L
L0L
(lp2518
(lp2519
tp2520
a(L2435612105L
L0L
(lp2521
(lp2522
tp2523
a(L3664359624L
L0L
(lp2524
(lp2525
tp2526
a(L2074930120L
L1880226080L
(lp2527
(lp2528
Vbootloader_execute_flash_command
p2529
aVbootloader_execute_flash_command
p2530
atp2531
a(L2125014318L
L0L
(lp2532
(lp2533
tp2534
a(L568821667L
L0L
(lp2535
(lp2536
tp2537
a(L1711531685L
L1880226080L
(lp2538
(lp2539
Vbootloader_execute_flash_command
p2540
aVbootloader_execute_flash_command
p2541
atp2542
a(L3658700047L
L0L
(lp2543
(lp2544
tp2545
a(L3269997774L
L0L
(lp2546
(lp2547
tp2548
a(L106L
L0L
(lp2549
(lp2550
tp2551
a(L2993202392L
L0L
(lp2552
(lp2553
tp2554
atp2555
sI1074236560
(Vesp_rom_set_cpu_ticks_per_us
p2556
(lp2557
(L396058732L
L2195759072L
(lp2558
(lp2559
tp2560
atp2561
sI1074247312
(Vrtc_clk_wait_for_slow_cycle
p2562
(lp2563
(L2844697221L
L2624587680L
(lp2564
(lp2565
tp2566
a(L287687718L
L0L
(lp2567
(lp2568
tp2569
a(L3360570486L
L0L
(lp2570
(lp2571
tp2572
a(L3843203427L
L1443213481L
(lp2573
(lp2574
tp2575
a(L1300789833L
L0L
(lp2576
(lp2577
tp2578
a(L1259765481L
L0L
(lp2579
(lp2580
tp2581
a(L17340776L
L1443213481L
(lp2582
(lp2583
tp2584
a(L329680227L
L3187408090L
(lp2585
(lp2586
Vesp_log_early_timestamp
p2587
atp2588
atp2589
sI1074244504
(Vwdt_hal_write_protect_disable
p2590
(lp2591
(L3085072089L
L1443213481L
(lp2592
(lp2593
tp2594
a(L4195472003L
L0L
(lp2595
(lp2596
tp2597
a(L3360570486L
L0L
(lp2598
(lp2599
tp2600
a(L1210571996L
L0L
(lp2601
(lp2602
tp2603
atp2604
sI1074241944
(Vshould_load
p2605
(lp2606
(L4190720747L
L2534110409L
(lp2607
(lp2608
tp2609
a(L1182990556L
L0L
(lp2610
(lp2611
tp2612
a(L1744532171L
L1443213481L
(lp2613
(lp2614
tp2615
a(L2306467100L
L0L
(lp2616
(lp2617
tp2618
a(L4034276159L
L1443213481L
(lp2619
(lp2620
tp2621
a(L2258897019L
L0L
(lp2622
(lp2623
tp2624
a(L3781799363L
L0L
(lp2625
(lp2626
tp2627
a(L3028464L
L0L
(lp2628
(lp2629
tp2630
a(L166133047L
L2195759072L
(lp2631
(lp2632
tp2633
a(L4277114872L
L0L
(lp2634
(lp2635
tp2636
a(L2824381917L
L0L
(lp2637
(lp2638
tp2639
a(L1243412227L
L0L
(lp2640
(lp2641
tp2642
a(L2011157548L
L0L
(lp2643
(lp2644
tp2645
a(L3126521138L
L0L
(lp2646
(lp2647
tp2648
a(L1305407438L
L0L
(lp2649
(lp2650
tp2651
a(L1305407469L
L0L
(lp2652
(lp2653
tp2654
atp2655
sI1074247576
(Vesp_rom_spiflash_wait_idle
p2656
(lp2657
(L1698121947L
L1443213481L
(lp2658
(lp2659
tp2660
a(L2023766174L
L0L
(lp2661
(lp2662
tp2663
a(L147213506L
L1443213481L
(lp2664
(lp2665
tp2666
a(L3086959262L
L0L
(lp2667
(lp2668
tp2669
a(L4161019926L
L3785322319L
(lp2670
(lp2671
Vesp_rom_spiflash_read_status
p2672
atp2673
atp2674
sI1074237348
(Vbootloader_common_ota_select_invalid
p2675
(lp2676
(L4027567199L
L0L
(lp2677
(lp2678
tp2679
a(L3397985842L
L0L
(lp2680
(lp2681
tp2682
a(L2258867228L
L0L
(lp2683
(lp2684
tp2685
a(L3785235668L
L0L
(lp2686
(lp2687
tp2688
atp2689
sI1074236576
(Vesp_rom_uart_tx_wait_idle
p2690
(lp2691
(L3110839460L
L2534110409L
(lp2692
(lp2693
tp2694
a(L1301079727L
L0L
(lp2695
(lp2696
tp2697
a(L597952197L
L0L
(lp2698
(lp2699
tp2700
a(L1971823332L
L0L
(lp2701
(lp2702
tp2703
a(L3055926844L
L0L
(lp2704
(lp2705
tp2706
a(L3360570486L
L0L
(lp2707
(lp2708
tp2709
a(L3694491048L
L0L
(lp2710
(lp2711
tp2712
a(L106L
L0L
(lp2713
(lp2714
tp2715
atp2716
sI1074239392
(Vset_actual_ota_seq
p2717
(lp2718
(L4094723830L
L0L
(lp2719
(lp2720
tp2721
a(L3504298995L
L2195759072L
(lp2722
(lp2723
tp2724
a(L3856681007L
L961634322L
(lp2725
(lp2726
Vmemset
p2727
aVbootloader_common_ota_select_crc
p2728
aVesp_flash_encryption_enabled
p2729
aVbootloader_flash_erase_sector
p2730
atp2731
a(L2768623893L
L3785322319L
(lp2732
(lp2733
Vbootloader_flash_write
p2734
atp2735
a(L3693339703L
L2147981551L
(lp2736
(lp2737
Vesp_log_early_timestamp
p2738
atp2739
a(L3903819434L
L2147981551L
(lp2740
(lp2741
Vesp_log_early_timestamp
p2742
atp2743
a(L3360570486L
L0L
(lp2744
(lp2745
tp2746
atp2747
sI1074246816
(Vrtc_clk_cal_internal
p2748
(lp2749
(L4103044880L
L1443213481L
(lp2750
(lp2751
tp2752
a(L3906046821L
L4032149094L
(lp2753
(lp2754
V__assert_func
p2755
atp2756
a(L3821006588L
L1443213481L
(lp2757
(lp2758
tp2759
a(L1673513644L
L0L
(lp2760
(lp2761
tp2762
a(L2719210992L
L4021370767L
(lp2763
(lp2764
Vrtc_clk_slow_src_get
p2765
atp2766
a(L3008910671L
L0L
(lp2767
(lp2768
tp2769
a(L97689L
L0L
(lp2770
(lp2771
tp2772
a(L1872507229L
L1443213481L
(lp2773
(lp2774
tp2775
a(L3028464L
L0L
(lp2776
(lp2777
tp2778
a(L3028481L
L0L
(lp2779
(lp2780
tp2781
a(L147213506L
L1443213481L
(lp2782
(lp2783
tp2784
a(L3455571058L
L1374507264L
(lp2785
(lp2786
V__udivdi3
p2787
aVrtc_clk_xtal_freq_get
p2788
atp2789
a(L2780079961L
L0L
(lp2790
(lp2791
tp2792
a(L4208562267L
L1443213481L
(lp2793
(lp2794
tp2795
a(L4114459891L
L3187408090L
(lp2796
(lp2797
Vesp_log_early_timestamp
p2798
atp2799
a(L2258688482L
L0L
(lp2800
(lp2801
tp2802
a(L3360570486L
L0L
(lp2803
(lp2804
tp2805
a(L3553505594L
L0L
(lp2806
(lp2807
tp2808
a(L403361192L
L0L
(lp2809
(lp2810
tp2811
a(L3243404432L
L3785322319L
(lp2812
(lp2813
Vrtc_clk_8m_enable
p2814
atp2815
a(L390546255L
L2195759072L
(lp2816
(lp2817
tp2818
a(L3586367509L
L1443213481L
(lp2819
(lp2820
tp2821
a(L2910371777L
L0L
(lp2822
(lp2823
tp2824
a(L2902417580L
L0L
(lp2825
(lp2826
tp2827
a(L3082259486L
L1443213481L
(lp2828
(lp2829
tp2830
a(L3020204L
L0L
(lp2831
(lp2832
tp2833
a(L603598685L
L1443213481L
(lp2834
(lp2835
tp2836
a(L3429540926L
L0L
(lp2837
(lp2838
tp2839
a(L3028464L
L0L
(lp2840
(lp2841
tp2842
a(L615477255L
L242900614L
(lp2843
(lp2844
Vrtc_clk_8m_enable
p2845
atp2846
atp2847
sI1074238892
(Vcache_ll_l1_enable_bus
p2848
(lp2849
(L318252209L
L1443213481L
(lp2850
(lp2851
tp2852
atp2853
sI1074240680
(Vbootloader_sha256_finish
p2854
(lp2855
(L4066096136L
L0L
(lp2856
(lp2857
tp2858
a(L1697654722L
L2195759072L
(lp2859
(lp2860
tp2861
a(L2213948952L
L242900614L
(lp2862
(lp2863
V__assert_func
p2864
atp2865
a(L3020204L
L0L
(lp2866
(lp2867
tp2868
a(L2888288470L
L2534110409L
(lp2869
(lp2870
tp2871
a(L2534656226L
L0L
(lp2872
(lp2873
tp2874
a(L2740629735L
L4171435875L
(lp2875
(lp2876
Vbootloader_sha256_data
p2877
atp2878
a(L2946948570L
L2195759072L
(lp2879
(lp2880
tp2881
a(L354914383L
L2790500905L
(lp2882
(lp2883
V__bswapsi2
p2884
aVbootloader_sha256_data
p2885
atp2886
a(L2946948756L
L2195759072L
(lp2887
(lp2888
tp2889
a(L657425439L
L0L
(lp2890
(lp2891
tp2892
a(L4173600236L
L1443213481L
(lp2893
(lp2894
tp2895
a(L657425439L
L0L
(lp2896
(lp2897
tp2898
a(L2046284480L
L2195759072L
(lp2899
(lp2900
tp2901
a(L3616504601L
L4171435875L
(lp2902
(lp2903
V__bswapsi2
p2904
atp2905
a(L3347778L
L0L
(lp2906
(lp2907
tp2908
a(L3360570486L
L0L
(lp2909
(lp2910
tp2911
atp2912
sI1074238632
(Vbootloader_clock_get_rated_freq_mhz
p2913
(lp2914
(L376617603L
L3785322319L
(lp2915
(lp2916
Vefuse_hal_get_rated_freq_mhz
p2917
atp2918
atp2919
sI1074238644
(Vlog_invalid_app_partition
p2920
(lp2921
(L2157385331L
L2195759072L
(lp2922
(lp2923
tp2924
a(L3028464L
L0L
(lp2925
(lp2926
tp2927
a(L1760520779L
L3833084538L
(lp2928
(lp2929
Vesp_log_early_timestamp
p2930
atp2931
a(L4207910112L
L1443213481L
(lp2932
(lp2933
tp2934
a(L3360570486L
L0L
(lp2935
(lp2936
tp2937
a(L3212513603L
L3833084538L
(lp2938
(lp2939
Vesp_log_early_timestamp
p2940
atp2941
a(L431938678L
L2147981551L
(lp2942
(lp2943
Vesp_log_early_timestamp
p2944
atp2945
atp2946
sI1074244788
(Vrtc_clk_32k_enable_common
p2947
(lp2948
(L2821256590L
L2195759072L
(lp2949
(lp2950
tp2951
a(L97422L
L0L
(lp2952
(lp2953
tp2954
a(L2218417248L
L0L
(lp2955
(lp2956
tp2957
a(L339634797L
L1443213481L
(lp2958
(lp2959
tp2960
a(L51458120L
L0L
(lp2961
(lp2962
tp2963
atp2964
sI1074240176
(Vbootloader_reset
p2965
(lp2966
(L479276581L
L2147981551L
(lp2967
(lp2968
Vbootloader_console_deinit
p2969
atp2970
a(L106L
L0L
(lp2971
(lp2972
tp2973
atp2974
sI1074245552
(Vrtc_clk_fast_src_set
p2975
(lp2976
(L1089140614L
L1443213481L
(lp2977
(lp2978
tp2979
a(L3020187L
L0L
(lp2980
(lp2981
tp2982
a(L3827921190L
L3785322319L
(lp2983
(lp2984
Vabort
p2985
atp2986
a(L2578095160L
L1443213481L
(lp2987
(lp2988
tp2989
a(L4159388630L
L1443213481L
(lp2990
(lp2991
tp2992
a(L300459962L
L0L
(lp2993
(lp2994
tp2995
atp2996
sI1074235580
(Vbootloader_flash_read_sfdp
p2997
(lp2998
(L711701400L
L0L
(lp2999
(lp3000
tp3001
a(L17919673L
L4032149094L
(lp3002
(lp3003
V__assert_func
p3004
atp3005
a(L3704332455L
L3785322319L
(lp3006
(lp3007
Vbootloader_flash_execute_command_common
p3008
atp3009
atp3010
sI1074235832
(Vbootloader_flash_cs_timing_config
p3011
(lp3012
(L1222249594L
L1690040256L
(lp3013
(lp3014
tp3015
atp3016
sI1074240440
(Vindex_to_partition
p3017
(lp3018
(L4066096119L
L0L
(lp3019
(lp3020
tp3021
a(L1101255660L
L0L
(lp3022
(lp3023
tp3024
a(L1955702725L
L0L
(lp3025
(lp3026
tp3027
a(L3698927993L
L0L
(lp3028
(lp3029
tp3030
a(L2808906342L
L0L
(lp3031
(lp3032
tp3033
a(L4211744375L
L0L
(lp3034
(lp3035
tp3036
a(L3097778015L
L0L
(lp3037
(lp3038
tp3039
a(L1816235430L
L0L
(lp3040
(lp3041
tp3042
a(L2179185678L
L0L
(lp3043
(lp3044
tp3045
a(L3369319173L
L0L
(lp3046
(lp3047
tp3048
atp3049
sI1074244536
(Vwdt_hal_set_flashboot_en
p3050
(lp3051
(L2375320464L
L0L
(lp3052
(lp3053
tp3054
a(L3915867581L
L0L
(lp3055
(lp3056
tp3057
a(L3360570486L
L0L
(lp3058
(lp3059
tp3060
a(L3823116953L
L1443213481L
(lp3061
(lp3062
tp3063
atp3064
sI1074240964
(Vbootloader_ana_clock_glitch_reset_config
p3065
(lp3066
(L2100504542L
L0L
(lp3067
(lp3068
tp3069
atp3070
sI1074270156
(Vrtc_clk_xtal_freq_estimate
p3071
(lp3072
(L1823831978L
L1880226080L
(lp3073
(lp3074
Vrtc_clk_8m_enabled
p3075
aVrtc_clk_8md256_enabled
p3076
atp3077
a(L2449794434L
L3785322319L
(lp3078
(lp3079
Vrtc_clk_8m_enable
p3080
atp3081
a(L3726876033L
L2704288053L
(lp3082
(lp3083
Vrtc_clk_cal_ratio
p3084
aV__udivdi3
p3085
atp3086
a(L3934977694L
L0L
(lp3087
(lp3088
tp3089
a(L3955289886L
L0L
(lp3090
(lp3091
tp3092
a(L2553207239L
L3187408090L
(lp3093
(lp3094
Vesp_log_early_timestamp
p3095
atp3096
a(L2307427870L
L0L
(lp3097
(lp3098
tp3099
a(L1281346514L
L3785322319L
(lp3100
(lp3101
Vrtc_clk_8m_enable
p3102
atp3103
a(L3909119106L
L0L
(lp3104
(lp3105
tp3106
a(L2298857999L
L3187408090L
(lp3107
(lp3108
Vesp_log_early_timestamp
p3109
atp3110
a(L3304487880L
L0L
(lp3111
(lp3112
tp3113
a(L1641150486L
L0L
(lp3114
(lp3115
tp3116
a(L2026357443L
L3187408090L
(lp3117
(lp3118
Vesp_log_early_timestamp
p3119
atp3120
atp3121
sI1074237376
(Vbootloader_common_select_otadata
p3122
(lp3123
(L4071767857L
L0L
(lp3124
(lp3125
tp3126
a(L1999329187L
L0L
(lp3127
(lp3128
tp3129
a(L3846398843L
L0L
(lp3130
(lp3131
tp3132
a(L2501968171L
L0L
(lp3133
(lp3134
tp3135
a(L3360570486L
L0L
(lp3136
(lp3137
tp3138
a(L2045232488L
L0L
(lp3139
(lp3140
tp3141
a(L1243525916L
L0L
(lp3142
(lp3143
tp3144
a(L3094144427L
L0L
(lp3145
(lp3146
tp3147
a(L2399509845L
L0L
(lp3148
(lp3149
tp3150
a(L1641201884L
L0L
(lp3151
(lp3152
tp3153
atp3154
sI1074247872
(Vesp_rom_spiflash_erase_sector
p3155
(lp3156
(L3892694408L
L1679261929L
(lp3157
(lp3158
tp3159
a(L2258688483L
L0L
(lp3160
(lp3161
tp3162
a(L3360570486L
L0L
(lp3163
(lp3164
tp3165
a(L3212356251L
L3785322319L
(lp3166
(lp3167
Vesp_rom_spiflash_enable_write
p3168
atp3169
a(L184152988L
L0L
(lp3170
(lp3171
tp3172
a(L1036552696L
L362179215L
(lp3173
(lp3174
Vesp_rom_spiflash_wait_idle
p3175
atp3176
a(L3333707777L
L0L
(lp3177
(lp3178
tp3179
a(L3582858798L
L3785322319L
(lp3180
(lp3181
Vesp_rom_spiflash_wait_idle
p3182
atp3183
atp3184
sI1074267840
(Vbootloader_before_init
p3185
(lp3186
(L3553688373L
L3187408090L
(lp3187
(lp3188
Vesp_log_early_timestamp
p3189
atp3190
atp3191
sI1074240972
(Vprocess_checksum
p3192
(lp3193
(L166193219L
L242900614L
(lp3194
(lp3195
Vmemset
p3196
atp3197
a(L3028481L
L0L
(lp3198
(lp3199
tp3200
a(L186886970L
L0L
(lp3201
(lp3202
tp3203
a(L2902417580L
L0L
(lp3204
(lp3205
tp3206
a(L3028481L
L0L
(lp3207
(lp3208
tp3209
a(L169792351L
L3187408090L
(lp3210
(lp3211
Vesp_log_early_timestamp
p3212
atp3213
a(L268651496L
L1443213481L
(lp3214
(lp3215
tp3216
a(L3236648107L
L3785322319L
(lp3217
(lp3218
Vbootloader_flash_read
p3219
atp3220
a(L735741265L
L0L
(lp3221
(lp3222
tp3223
a(L3020204L
L0L
(lp3224
(lp3225
tp3226
a(L2480703612L
L3785322319L
(lp3227
(lp3228
Vbootloader_sha256_data
p3229
atp3230
a(L3436105237L
L0L
(lp3231
(lp3232
tp3233
a(L106L
L0L
(lp3234
(lp3235
tp3236
atp3237
sI1074236872
(Vefuse_hal_get_minor_chip_version
p3238
(lp3239
(L2292056065L
L1443213481L
(lp3240
(lp3241
tp3242
atp3243
sI1074240200
(Vbootloader_utility_load_boot_image
p3244
(lp3245
(L421993435L
L242900614L
(lp3246
(lp3247
Vmemset
p3248
atp3249
a(L2177418995L
L3785322319L
(lp3250
(lp3251
Vtry_load_partition
p3252
atp3253
a(L1305243774L
L3785322319L
(lp3254
(lp3255
Vload_image
p3256
atp3257
a(L4114459891L
L3187408090L
(lp3258
(lp3259
Vesp_log_early_timestamp
p3260
atp3261
a(L3827921190L
L3785322319L
(lp3262
(lp3263
Vbootloader_reset
p3264
atp3265
a(L1953693036L
L3785322319L
(lp3266
(lp3267
Vindex_to_partition
p3268
atp3269
a(L1204373741L
L3785322319L
(lp3270
(lp3271
Vtry_load_partition
p3272
atp3273
a(L1899865696L
L0L
(lp3274
(lp3275
tp3276
a(L2695355117L
L3785322319L
(lp3277
(lp3278
Vset_actual_ota_seq
p3279
atp3280
a(L1868897605L
L3785322319L
(lp3281
(lp3282
Vlog_invalid_app_partition
p3283
atp3284
a(L831650730L
L0L
(lp3285
(lp3286
tp3287
a(L3021737L
L0L
(lp3288
(lp3289
tp3290
a(L695456438L
L0L
(lp3291
(lp3292
tp3293
a(L315114854L
L3833084538L
(lp3294
(lp3295
Vtry_load_partition
p3296
atp3297
a(L89447667L
L2147981551L
(lp3298
(lp3299
Vesp_log_early_timestamp
p3300
atp3301
a(L2347390157L
L3785322319L
(lp3302
(lp3303
Vindex_to_partition
p3304
atp3305
a(L1204373741L
L3785322319L
(lp3306
(lp3307
Vtry_load_partition
p3308
atp3309
a(L3061261803L
L0L
(lp3310
(lp3311
tp3312
a(L3582858798L
L3785322319L
(lp3313
(lp3314
Vlog_invalid_app_partition
p3315
atp3316
a(L3581752791L
L2704288053L
(lp3317
(lp3318
Vesp_log_early_timestamp
p3319
aVmemset
p3320
atp3321
atp3322
sI1074246088
(Vrtc_clk_cpu_freq_set_config
p3323
(lp3324
(L1040494747L
L3833084538L
(lp3325
(lp3326
Vrtc_clk_xtal_freq_get
p3327
atp3328
a(L2308773007L
L0L
(lp3329
(lp3330
tp3331
a(L3253451229L
L1880226080L
(lp3332
(lp3333
Vrtc_clk_cpu_freq_to_xtal
p3334
aVrtc_clk_wait_for_slow_cycle
p3335
atp3336
a(L2243645672L
L0L
(lp3337
(lp3338
tp3339
a(L4002786498L
L0L
(lp3340
(lp3341
tp3342
a(L2736411858L
L3785322319L
(lp3343
(lp3344
Vrtc_clk_cpu_freq_to_xtal
p3345
atp3346
a(L3360570486L
L0L
(lp3347
(lp3348
tp3349
a(L2755207760L
L1832448559L
(lp3350
(lp3351
Vrtc_clk_cpu_freq_to_xtal
p3352
aVrtc_clk_wait_for_slow_cycle
p3353
aVrtc_clk_bbpll_disable
p3354
atp3355
a(L3020187L
L0L
(lp3356
(lp3357
tp3358
a(L106L
L0L
(lp3359
(lp3360
tp3361
a(L2730236852L
L1156451872L
(lp3362
(lp3363
Vrtc_clk_wait_for_slow_cycle
p3364
aVrtc_clk_xtal_freq_get
p3365
atp3366
a(L106L
L0L
(lp3367
(lp3368
tp3369
a(L3776069396L
L1443213481L
(lp3370
(lp3371
tp3372
a(L83268611L
L0L
(lp3373
(lp3374
tp3375
a(L106L
L0L
(lp3376
(lp3377
tp3378
a(L82345090L
L0L
(lp3379
(lp3380
tp3381
a(L106L
L0L
(lp3382
(lp3383
tp3384
a(L2258718273L
L0L
(lp3385
(lp3386
tp3387
a(L3298883534L
L0L
(lp3388
(lp3389
tp3390
a(L3519990574L
L1443213481L
(lp3391
(lp3392
tp3393
a(L2508198718L
L1743007695L
(lp3394
(lp3395
Vrtc_clk_cpu_freq_to_pll_mhz
p3396
atp3397
a(L935233121L
L2534110409L
(lp3398
(lp3399
tp3400
a(L83268344L
L0L
(lp3401
(lp3402
tp3403
a(L82344823L
L0L
(lp3404
(lp3405
tp3406
a(L1569180676L
L0L
(lp3407
(lp3408
tp3409
a(L2258837488L
L0L
(lp3410
(lp3411
tp3412
a(L4233337962L
L1443213481L
(lp3413
(lp3414
tp3415
a(L1482311963L
L0L
(lp3416
(lp3417
tp3418
a(L133411965L
L0L
(lp3419
(lp3420
tp3421
a(L3673491036L
L0L
(lp3422
(lp3423
tp3424
a(L4197990447L
L0L
(lp3425
(lp3426
tp3427
a(L903154985L
L0L
(lp3428
(lp3429
tp3430
a(L3020187L
L0L
(lp3431
(lp3432
tp3433
a(L106L
L0L
(lp3434
(lp3435
tp3436
a(L1317698645L
L93324751L
(lp3437
(lp3438
Vesp_rom_set_cpu_ticks_per_us
p3439
atp3440
atp3441
sI1074247624
(Vesp_rom_spiflash_enable_write
p3442
(lp3443
(L2885777558L
L1303911398L
(lp3444
(lp3445
Vesp_rom_spiflash_wait_idle
p3446
atp3447
a(L3333707777L
L0L
(lp3448
(lp3449
tp3450
a(L2258688484L
L0L
(lp3451
(lp3452
tp3453
a(L99543895L
L0L
(lp3454
(lp3455
tp3456
a(L2993202392L
L0L
(lp3457
(lp3458
tp3459
a(L1265538927L
L242900614L
(lp3460
(lp3461
Vesp_rom_spiflash_read_status
p3462
atp3463
atp3464
sI1074267864
(Vbootloader_after_init
p3465
(lp3466
(L3553688373L
L3187408090L
(lp3467
(lp3468
Vesp_log_early_timestamp
p3469
atp3470
atp3471
sI1074245332
(Vrtc_clk_8m_enabled
p3472
(lp3473
(L563532105L
L1443213481L
(lp3474
(lp3475
tp3476
atp3477
sI1074238160
(Vbootloader_enable_wp
p3478
(lp3479
(L1117825804L
L3785322319L
(lp3480
(lp3481
Vbootloader_execute_flash_command
p3482
atp3483
atp3484
sI1074268112
(Vbootloader_init
p3485
(lp3486
(L2778985116L
L362179215L
(lp3487
(lp3488
Vbootloader_init_mem
p3489
atp3490
a(L2588916198L
L2195759072L
(lp3491
(lp3492
tp3493
a(L2569579240L
L242900614L
(lp3494
(lp3495
V__assert_func
p3496
atp3497
a(L2041988382L
L2534110409L
(lp3498
(lp3499
tp3500
a(L2946990947L
L2195759072L
(lp3501
(lp3502
tp3503
a(L3813782018L
L0L
(lp3504
(lp3505
tp3506
a(L2946991009L
L2195759072L
(lp3507
(lp3508
tp3509
a(L3027019L
L0L
(lp3510
(lp3511
tp3512
a(L2946991040L
L2195759072L
(lp3513
(lp3514
tp3515
a(L4055793689L
L1832448559L
(lp3516
(lp3517
Vbootloader_clear_bss_section
p3518
aVbootloader_common_vddsdio_configure
p3519
aVbootloader_clock_get_rated_freq_mhz
p3520
atp3521
a(L106L
L0L
(lp3522
(lp3523
tp3524
a(L1943573098L
L2769615034L
(lp3525
(lp3526
Vbootloader_clock_configure
p3527
aVbootloader_console_init
p3528
aVbootloader_print_banner
p3529
aVbootloader_flash_update_id
p3530
aVbootloader_flash_xmc_startup
p3531
atp3532
a(L3014296803L
L3187408090L
(lp3533
(lp3534
Vesp_log_early_timestamp
p3535
atp3536
a(L4245842452L
L3187408090L
(lp3537
(lp3538
Vesp_log_early_timestamp
p3539
atp3540
a(L3360570486L
L0L
(lp3541
(lp3542
tp3543
a(L2444883382L
L3785322319L
(lp3544
(lp3545
Vbootloader_read_bootloader_header
p3546
atp3547
a(L2444883382L
L3785322319L
(lp3548
(lp3549
Vbootloader_check_bootloader_validity
p3550
atp3551
a(L2444883382L
L3785322319L
(lp3552
(lp3553
Vbootloader_init_spi_flash
p3554
atp3555
a(L1947007263L
L2195759072L
(lp3556
(lp3557
tp3558
a(L254817508L
L0L
(lp3559
(lp3560
tp3561
a(L93892250L
L0L
(lp3562
(lp3563
tp3564
a(L2915015718L
L0L
(lp3565
(lp3566
tp3567
a(L1460895057L
L2218577417L
(lp3568
(lp3569
Vbootloader_config_wdt
p3570
aVbootloader_enable_random
p3571
atp3572
a(L1895147938L
L0L
(lp3573
(lp3574
tp3575
a(L2680457259L
L0L
(lp3576
(lp3577
tp3578
a(L3027019L
L0L
(lp3579
(lp3580
tp3581
a(L97315L
L0L
(lp3582
(lp3583
tp3584
a(L3014296803L
L3187408090L
(lp3585
(lp3586
Vesp_log_early_timestamp
p3587
atp3588
a(L1766563386L
L3187408090L
(lp3589
(lp3590
Vesp_log_early_timestamp
p3591
atp3592
a(L3164960223L
L0L
(lp3593
(lp3594
tp3595
a(L1895147938L
L0L
(lp3596
(lp3597
tp3598
a(L156585483L
L1880226080L
(lp3599
(lp3600
Vwdt_reset_info_dump
p3601
aVwdt_reset_info_dump
p3602
atp3603
atp3604
sI1074268624
(Vbootloader_common_vddsdio_configure
p3605
(lp3606
(L1829974089L
L3785322319L
(lp3607
(lp3608
Vrtc_vddsdio_get_config
p3609
atp3610
a(L351649043L
L3833084538L
(lp3611
(lp3612
Vrtc_vddsdio_set_config
p3613
atp3614
a(L3360570486L
L0L
(lp3615
(lp3616
tp3617
atp3618
sI1074270928
(Vrtc_vddsdio_set_config
p3619
(lp3620
(L3557742407L
L1443213481L
(lp3621
(lp3622
tp3623
atp3624
sI1074243292
(Vbootloader_load_image
p3625
(lp3626
(L1155870502L
L3785322319L
(lp3627
(lp3628
Vimage_load
p3629
atp3630
atp3631
sI1074245084
(Vrtc_clk_bbpll_disable
p3632
(lp3633
(L3512291683L
L1690040256L
(lp3634
(lp3635
tp3636
a(L2472207241L
L0L
(lp3637
(lp3638
tp3639
a(L3360570486L
L0L
(lp3640
(lp3641
tp3642
atp3643
sI1074236888
(Vesp_dport_access_reg_read
p3644
(lp3645
(L1099794772L
L0L
(lp3646
(lp3647
tp3648
atp3649
sI1074236900
(Vis_xmc_chip_strict
p3650
(lp3651
(L1286841609L
L0L
(lp3652
(lp3653
tp3654
a(L2234016759L
L0L
(lp3655
(lp3656
tp3657
a(L1069027148L
L0L
(lp3658
(lp3659
tp3660
a(L3021749L
L0L
(lp3661
(lp3662
tp3663
a(L1900148749L
L0L
(lp3664
(lp3665
tp3666
a(L1936875721L
L0L
(lp3667
(lp3668
tp3669
a(L3356166509L
L0L
(lp3670
(lp3671
tp3672
a(L1937769451L
L0L
(lp3673
(lp3674
tp3675
a(L2137658907L
L0L
(lp3676
(lp3677
tp3678
a(L4265949734L
L0L
(lp3679
(lp3680
tp3681
a(L3360570486L
L0L
(lp3682
(lp3683
tp3684
atp3685
sI1074238180
(Vbootloader_flash_get_spi_mode
p3686
(lp3687
(L1418320346L
L1443213481L
(lp3688
(lp3689
tp3690
a(L2046153171L
L0L
(lp3691
(lp3692
tp3693
a(L893866618L
L0L
(lp3694
(lp3695
tp3696
a(L894790139L
L0L
(lp3697
(lp3698
tp3699
a(L822032846L
L0L
(lp3700
(lp3701
tp3702
a(L3360570486L
L0L
(lp3703
(lp3704
tp3705
atp3706
sI1074238944
(Vcache_ll_l1_enable_bus
p3707
(lp3708
(L318252209L
L1443213481L
(lp3709
(lp3710
tp3711
atp3712
sI1074269408
(Vbootloader_flash_update_id
p3713
(lp3714
(L296988142L
L3833084538L
(lp3715
(lp3716
Vbootloader_read_flash_id
p3717
atp3718
atp3719
sI1074243308
(Vesp_partition_table_verify
p3720
(lp3721
(L44179228L
L1443213481L
(lp3722
(lp3723
tp3724
a(L3031150553L
L1443213481L
(lp3725
(lp3726
tp3727
a(L1184829782L
L0L
(lp3728
(lp3729
tp3730
a(L3020204L
L0L
(lp3731
(lp3732
tp3733
a(L26389654L
L3187408090L
(lp3734
(lp3735
Vesp_log_early_timestamp
p3736
atp3737
a(L1235012963L
L0L
(lp3738
(lp3739
tp3740
a(L3190337587L
L0L
(lp3741
(lp3742
tp3743
a(L2069928857L
L0L
(lp3744
(lp3745
tp3746
a(L2902417580L
L0L
(lp3747
(lp3748
tp3749
a(L2543114737L
L2147981551L
(lp3750
(lp3751
Vesp_log_early_timestamp
p3752
atp3753
a(L1715222413L
L1443213481L
(lp3754
(lp3755
tp3756
a(L3020204L
L0L
(lp3757
(lp3758
tp3759
a(L3020204L
L0L
(lp3760
(lp3761
tp3762
a(L1328961945L
L2147981551L
(lp3763
(lp3764
Vesp_log_early_timestamp
p3765
atp3766
a(L4207910112L
L1443213481L
(lp3767
(lp3768
tp3769
a(L1235012932L
L0L
(lp3770
(lp3771
tp3772
a(L458256366L
L4021370767L
(lp3773
(lp3774
Vmemcmp
p3775
atp3776
a(L3020204L
L0L
(lp3777
(lp3778
tp3779
a(L2543114737L
L2147981551L
(lp3780
(lp3781
Vesp_log_early_timestamp
p3782
atp3783
a(L1305407469L
L0L
(lp3784
(lp3785
tp3786
a(L1167861556L
L0L
(lp3787
(lp3788
tp3789
a(L818997085L
L0L
(lp3790
(lp3791
tp3792
a(L3360570486L
L0L
(lp3793
(lp3794
tp3795
a(L3020204L
L0L
(lp3796
(lp3797
tp3798
a(L3999534504L
L3187408090L
(lp3799
(lp3800
Vesp_log_early_timestamp
p3801
atp3802
atp3803
sI1074245356
(Vrtc_clk_8md256_enabled
p3804
(lp3805
(L4014027530L
L1443213481L
(lp3806
(lp3807
tp3808
atp3809
sI1074248172
(Vesp_rom_spiflash_write_encrypted
p3810
(lp3811
(L1944247967L
L0L
(lp3812
(lp3813
tp3814
a(L3825342292L
L1443213481L
(lp3815
(lp3816
tp3817
a(L97689L
L0L
(lp3818
(lp3819
tp3820
a(L3061232074L
L0L
(lp3821
(lp3822
tp3823
a(L1562911102L
L1443213481L
(lp3824
(lp3825
tp3826
a(L1309309703L
L3785322319L
(lp3827
(lp3828
Vesp_rom_spiflash_write
p3829
atp3830
a(L2269233063L
L1443213481L
(lp3831
(lp3832
tp3833
a(L735741265L
L0L
(lp3834
(lp3835
tp3836
atp3837
sI1074268920
(Vbootloader_random_enable
p3838
(lp3839
(L2397175084L
L664430240L
(lp3840
(lp3841
tp3842
atp3843
sI1074236660
(Vesp_rom_uart_set_clock_baudrate
p3844
(lp3845
(L1471953879L
L1443213481L
(lp3846
(lp3847
tp3848
a(L1872515506L
L1443213481L
(lp3849
(lp3850
tp3851
a(L147213506L
L1443213481L
(lp3852
(lp3853
tp3854
a(L3104172142L
L1443213481L
(lp3855
(lp3856
tp3857
atp3858
sI1074235632
(Vbootloader_read_flash_id
p3859
(lp3860
(L549578328L
L3785322319L
(lp3861
(lp3862
Vbootloader_execute_flash_command
p3863
atp3864
atp3865
sI1074245616
(Vrtc_clk_fast_src_get
p3866
(lp3867
(L2217920473L
L1443213481L
(lp3868
(lp3869
tp3870
atp3871
sI1074267888
(Vwdt_reset_info_dump
p3872
(lp3873
(L4037458708L
L0L
(lp3874
(lp3875
tp3876
a(L2865144428L
L4200222560L
(lp3877
(lp3878
tp3879
a(L217258670L
L0L
(lp3880
(lp3881
tp3882
a(L1103285333L
L0L
(lp3883
(lp3884
tp3885
a(L3750088731L
L2147981551L
(lp3886
(lp3887
Vesp_log_early_timestamp
p3888
atp3889
a(L3245125974L
L1443213481L
(lp3890
(lp3891
tp3892
a(L2920131454L
L4200222560L
(lp3893
(lp3894
tp3895
a(L3355528239L
L2147981551L
(lp3896
(lp3897
Vesp_log_early_timestamp
p3898
atp3899
atp3900
sI1074268912
(Vbootloader_init_mem
p3901
(lp3902
(L1287383080L
L3785322319L
(lp3903
(lp3904
Vesp_cpu_configure_region_protection
p3905
atp3906
atp3907
sI1074269424
(Vbootloader_init_spi_flash
p3908
(lp3909
(L1876290435L
L1994585993L
(lp3910
(lp3911
Vbootloader_flash_gpio_config
p3912
aVbootloader_flash_dummy_config
p3913
aVbootloader_flash_cs_timing_config
p3914
aVbootloader_flash_unlock
p3915
atp3916
a(L499308289L
L1443213481L
(lp3917
(lp3918
tp3919
a(L1872507246L
L1443213481L
(lp3920
(lp3921
tp3922
a(L147213506L
L1443213481L
(lp3923
(lp3924
tp3925
a(L83726857L
L2426646996L
(lp3926
(lp3927
Vesp_log_early_timestamp
p3928
aVbootloader_flash_get_spi_mode
p3929
atp3930
a(L93674324L
L0L
(lp3931
(lp3932
tp3933
a(L4183135214L
L1443213481L
(lp3934
(lp3935
tp3936
a(L147213506L
L1443213481L
(lp3937
(lp3938
tp3939
a(L3875746660L
L362179215L
(lp3940
(lp3941
Vesp_log_early_timestamp
p3942
atp3943
a(L93674324L
L0L
(lp3944
(lp3945
tp3946
a(L4183135214L
L1443213481L
(lp3947
(lp3948
tp3949
a(L1872507229L
L1443213481L
(lp3950
(lp3951
tp3952
a(L268651496L
L1443213481L
(lp3953
(lp3954
tp3955
a(L1872507229L
L1443213481L
(lp3956
(lp3957
tp3958
a(L1872507229L
L1443213481L
(lp3959
(lp3960
tp3961
a(L268651496L
L1443213481L
(lp3962
(lp3963
tp3964
a(L1872515506L
L1443213481L
(lp3965
(lp3966
tp3967
a(L1005860105L
L3187408090L
(lp3968
(lp3969
Vesp_log_early_timestamp
p3970
atp3971
a(L93674324L
L0L
(lp3972
(lp3973
tp3974
a(L3422553167L
L0L
(lp3975
(lp3976
tp3977
a(L1707909459L
L0L
(lp3978
(lp3979
tp3980
a(L4101522284L
L0L
(lp3981
(lp3982
tp3983
a(L3944678822L
L2082837423L
(lp3984
(lp3985
Vbootloader_enable_wp
p3986
atp3987
a(L3907331784L
L0L
(lp3988
(lp3989
tp3990
atp3991
sI1074237692
(Vbootloader_munmap
p3992
(lp3993
(L4096859803L
L2195759072L
(lp3994
(lp3995
tp3996
a(L4150885370L
L2624587680L
(lp3997
(lp3998
tp3999
a(L3360570486L
L0L
(lp4000
(lp4001
tp4002
atp4003
sI1074236412
(Vbootloader_flash_dummy_config
p4004
(lp4005
(L2633298977L
L1443213481L
(lp4006
(lp4007
tp4008
a(L2761717557L
L0L
(lp4009
(lp4010
tp4011
a(L1849044936L
L0L
(lp4012
(lp4013
tp4014
a(L2198646520L
L2195759072L
(lp4015
(lp4016
tp4017
a(L1857500547L
L1443213481L
(lp4018
(lp4019
tp4020
a(L3020204L
L0L
(lp4021
(lp4022
tp4023
a(L1610443405L
L0L
(lp4024
(lp4025
tp4026
a(L4032120524L
L0L
(lp4027
(lp4028
tp4029
a(L2336993863L
L0L
(lp4030
(lp4031
tp4032
a(L1298875775L
L0L
(lp4033
(lp4034
tp4035
a(L3880393601L
L0L
(lp4036
(lp4037
tp4038
a(L2272848587L
L1443213481L
(lp4039
(lp4040
tp4041
a(L1610443436L
L0L
(lp4042
(lp4043
tp4044
atp4045
sI1074242812
(Vimage_load
p4046
(lp4047
(L3048705773L
L0L
(lp4048
(lp4049
tp4050
a(L3463713141L
L0L
(lp4051
(lp4052
tp4053
a(L3309803581L
L0L
(lp4054
(lp4055
tp4056
a(L256049682L
L0L
(lp4057
(lp4058
tp4059
a(L1935188817L
L0L
(lp4060
(lp4061
tp4062
a(L3028481L
L0L
(lp4063
(lp4064
tp4065
a(L3021749L
L0L
(lp4066
(lp4067
tp4068
a(L106L
L0L
(lp4069
(lp4070
tp4071
a(L585264737L
L0L
(lp4072
(lp4073
tp4074
a(L1145291904L
L3785322319L
(lp4075
(lp4076
Vprocess_image_header
p4077
atp4078
a(L823859500L
L0L
(lp4079
(lp4080
tp4081
a(L3061291474L
L0L
(lp4082
(lp4083
tp4084
a(L4106474008L
L3785322319L
(lp4085
(lp4086
Vprocess_segments
p4087
atp4088
a(L3868840998L
L0L
(lp4089
(lp4090
tp4091
a(L2962085561L
L1443213481L
(lp4092
(lp4093
tp4094
a(L1827898452L
L3785322319L
(lp4095
(lp4096
Vprocess_checksum
p4097
atp4098
a(L2214715179L
L3785322319L
(lp4099
(lp4100
Vprocess_appended_hash_and_sig
p4101
atp4102
a(L3028481L
L0L
(lp4103
(lp4104
tp4105
a(L2902417580L
L0L
(lp4106
(lp4107
tp4108
a(L3285560995L
L3785322319L
(lp4109
(lp4110
Vbootloader_sha256_finish
p4111
atp4112
a(L3946560000L
L0L
(lp4113
(lp4114
tp4115
a(L93674324L
L0L
(lp4116
(lp4117
tp4118
a(L2674734805L
L2195759072L
(lp4119
(lp4120
tp4121
a(L1168805591L
L1443213481L
(lp4122
(lp4123
tp4124
a(L1179424413L
L0L
(lp4125
(lp4126
tp4127
a(L3928150917L
L0L
(lp4128
(lp4129
tp4130
a(L106L
L0L
(lp4131
(lp4132
tp4133
a(L3871473710L
L0L
(lp4134
(lp4135
tp4136
a(L3884726427L
L0L
(lp4137
(lp4138
tp4139
a(L106L
L0L
(lp4140
(lp4141
tp4142
a(L3020187L
L0L
(lp4143
(lp4144
tp4145
a(L1337906930L
L3187408090L
(lp4146
(lp4147
Vesp_log_early_timestamp
p4148
atp4149
a(L2868044067L
L0L
(lp4150
(lp4151
tp4152
a(L1179764900L
L0L
(lp4153
(lp4154
tp4155
a(L2332746046L
L3785322319L
(lp4156
(lp4157
Vbootloader_sha256_finish
p4158
atp4159
a(L3721568057L
L242900614L
(lp4160
(lp4161
Vmemset
p4162
atp4163
a(L3020204L
L0L
(lp4164
(lp4165
tp4166
a(L3039742375L
L1443213481L
(lp4167
(lp4168
tp4169
a(L106L
L0L
(lp4170
(lp4171
tp4172
a(L3307179591L
L2839326997L
(lp4173
(lp4174
Vmemset
p4175
aVbootloader_sha256_finish
p4176
aVbootloader_debug_buffer
p4177
aVmemcmp
p4178
atp4179
a(L3433271982L
L2266857161L
(lp4180
(lp4181
Vesp_log_early_timestamp
p4182
aVbootloader_debug_buffer
p4183
atp4184
a(L3741653406L
L3785322319L
(lp4185
(lp4186
Vshould_load
p4187
atp4188
a(L2764257181L
L0L
(lp4189
(lp4190
tp4191
a(L3338774213L
L0L
(lp4192
(lp4193
tp4194
a(L193456747L
L1443213481L
(lp4195
(lp4196
tp4197
a(L3349572949L
L0L
(lp4198
(lp4199
tp4200
a(L2192292519L
L0L
(lp4201
(lp4202
tp4203
a(L106L
L0L
(lp4204
(lp4205
tp4206
a(L1702191967L
L1443213481L
(lp4207
(lp4208
tp4209
a(L1299866312L
L0L
(lp4210
(lp4211
tp4212
a(L3010020263L
L0L
(lp4213
(lp4214
tp4215
atp4216
sI1074244604
(Vwdt_hal_write_protect_enable
p4217
(lp4218
(L387778158L
L0L
(lp4219
(lp4220
tp4221
a(L4195472003L
L0L
(lp4222
(lp4223
tp4224
a(L3360570486L
L0L
(lp4225
(lp4226
tp4227
a(L802523425L
L0L
(lp4228
(lp4229
tp4230
atp4231
sI1074243576
(Vwdt_hal_init
p4232
(lp4233
(L1845705415L
L242900614L
(lp4234
(lp4235
Vmemset
p4236
atp4237
a(L106L
L0L
(lp4238
(lp4239
tp4240
a(L147213506L
L1443213481L
(lp4241
(lp4242
tp4243
a(L3076988543L
L0L
(lp4244
(lp4245
tp4246
a(L746843176L
L3294285696L
(lp4247
(lp4248
tp4249
a(L3028464L
L0L
(lp4250
(lp4251
tp4252
a(L268651496L
L1443213481L
(lp4253
(lp4254
tp4255
a(L213928354L
L1443213481L
(lp4256
(lp4257
tp4258
a(L1646580088L
L3294285696L
(lp4259
(lp4260
tp4261
a(L3360570486L
L0L
(lp4262
(lp4263
tp4264
atp4265
sI1074240504
(Vbootloader_debug_buffer
p4266
(lp4267
(L2100504542L
L0L
(lp4268
(lp4269
tp4270
atp4271
ssS'functionsdups'
p4272
g11
((lp4273
tp4274
Rp4275
sS'immediatedups'
p4276
g11
((lp4277
tp4278
Rp4279
sS'functiondups'
p4280
g11
((lp4281
tp4282
Rp4283
sS'fuzzy'
p4284
(dp4285
L366261972L
I1074270332
sL2376760616L
I1074243308
sL1898962604L
I1074238728
sL3223682214L
I1074248172
sL4033782891L
I1074244536
sL1651792242L
I1074247624
sL1500945776L
I1074268112
sL800708016L
I1074239512
sL2092869556L
I1074247872
sL1772626723L
I1074235832
sL2539816556L
I1074236660
sL3032120501L
I1074245764
sL2471313117L
I1074240680
sL2641888616L
I1074246816
sL381028389L
I1074240892
sL3711025829L
I1074240200
sL3500016395L
I1074242072
sL1962232032L
I1074245632
sL797548049L
I1074240512
sL3374853808L
I1074269712
sL2859057779L
I1074269408
sL2835607711L
I1074270072
sL2095240828L
I1074234756
sL1348852091L
I1074248260
sL2182127758L
I1074270156
sL3221945515L
I1074245904
sL1485246373L
I1074240972
sL2443570055L
I1074267740
sL3525303483L
I1074245496
sL1247030641L
I1074268920
sL214341344L
I1074244704
sL1729011238L
I1074241944
sL1959102959L
I1074237484
sL4242478965L
I1074238236
sL2216531249L
I1074245524
sL579471141L
I1074269976
sL1096063205L
I1074236804
sL2906154889L
I1074247576
sL1065525808L
I1074236900
sL2849727465L
I1074238996
sL1821770661L
I1074237692
sL332090111L
I1074236576
sL282843886L
I1074237744
sL3703425408L
I1074245204
sL2038713658L
I1074246772
sL2688270468L
I1074269780
sL2708185770L
I1074241328
sL3890904617L
I1074245976
sL3530961461L
I1074270776
sL1605229163L
I1074239876
sL1210592366L
I1074245380
sL1332800441L
I1074237308
sL209111356L
I1074245552
sL3183721996L
I1074235280
sL3558783183L
I1074238020
sL1377360842L
I1074244788
sL2726707668L
I1074268624
sL3300368739L
I1074267888
sL1161792488L
I1074241140
sL4091350277L
I1074247680
sL2871786995L
I1074269848
sL3578810761L
I1074235580
sL2018002450L
I1074235680
sL531949167L
I1074237068
sL1060788199L
I1074245672
sL1444874434L
I1074270004
sL994994961L
I1074238644
sL2663898648L
I1074269736
sL1155028103L
I1074270108
sL627477382L
I1074235944
sL814911857L
I1074240532
sL3280013925L
I1074238316
sL1862804207L
I1074244188
sL2806886186L
I1074268680
sL1815510750L
I1074244924
sL963803290L
I1074246088
sL3715950101L
I1074244504
sL3420458249L
I1074247480
sL3274368577L
I1074238844
sL3246158480L
I1074239392
sL1872673135L
I1074240176
sL1214705044L
I1074236412
sL4155364446L
I1074237032
sL230862646L
I1074237452
sL2452281182L
I1074247312
sL1564551092L
I1074241856
sL1122585247L
I1074243576
sL3659714901L
I1074241384
sL2752268667L
I1074244752
sL3428612389L
I1074247280
sL1950296771L
I1074248008
sL1396037064L
I1074245144
sL1014311563L
I1074242812
sL1596982735L
I1074269424
ssb.