ccopy_reg
_reconstructor
p0
(crizzo
RizzoSignature
p1
c__builtin__
object
p2
Ntp3
Rp4
(dp5
S'formal'
p6
(dp7
L4293844463L
I1074237072
sL2005196428L
I1074245832
sL1741170115L
I1074238176
sL2087186284L
I1074236428
sL1913647619L
I1074269952
sL3058924610L
I1074237028
sL3984280162L
I1074244812
sL2628804010L
I1074270876
sL4213015302L
I1074243584
sL461860251L
I1074247620
sL286550283L
I1074270020
sL552298442L
I1074235296
sL3976424482L
I1074234728
sL2767810776L
I1074238196
sL2771134728L
I1074240492
sL2326361228L
I1074269372
sL2702580795L
I1074237552
sL2610420647L
I1074269796
sL2896295319L
I1074236916
sL25479346L
I1074240972
sL438696979L
I1074269924
sL2483705907L
I1074239568
sL1123431371L
I1074239704
sL1331791455L
I1074245924
sL1674148343L
I1074245980
sL1786019146L
I1074247988
sL4023292303L
I1074237628
sL3256726111L
I1074248316
sL658646528L
I1074268064
sL2485902447L
I1074236756
sL723138898L
I1074238356
sL424336643L
I1074269660
sL366218909L
I1074270056
sL368505532L
I1074246256
sL848906711L
I1074248480
sL353716291L
I1074245012
sL1585823442L
I1074244912
sL1622896354L
I1074244940
sL3092620558L
I1074235696
sL2521269785L
I1074236996
sL730944497L
I1074240068
sL2189223198L
I1074240732
sL3580313603L
I1074242236
sL2493713350L
I1074245688
sL183144L
I1074239072
sL2930276314L
I1074235848
sL4161584248L
I1074268572
sL4175577751L
I1074245060
sL2723725103L
I1074241168
sL1633709340L
I1074245664
sL2813809866L
I1074236780
sL2366387314L
I1074270724
sL1330922710L
I1074247124
sL2612952636L
I1074267728
sL1731035566L
I1074236592
sL676927194L
I1074268860
sL244922653L
I1074243104
sL2691843063L
I1074246284
sL3307282855L
I1074238336
sL127813144L
I1074243884
sL2834351222L
I1074245232
sL3065846068L
I1074235596
sL2195669076L
I1074245640
sL357647324L
I1074268868
sL3361686224L
I1074268628
sL3042952135L
I1074267720
sL670505576L
I1074240368
sL3721992006L
I1074241184
sL1160735408L
I1074242364
sL1662035087L
I1074267840
sL4038945309L
I1074235648
sL3041505513L
I1074237660
sL1435968304L
I1074245096
sL4178015136L
I1074247788
sL1992104215L
I1074236888
sL1112935418L
I1074234772
sL4020657674L
I1074246396
sL2931540503L
I1074247932
sL1382567621L
I1074238412
sL105563623L
I1074240804
sL2997001746L
I1074237392
sL720504384L
I1074237452
sL59949349L
I1074241432
sL1087228788L
I1074239172
sL76756778L
I1074241264
sL556795273L
I1074269728
sL2819127986L
I1074237116
sL3195929028L
I1074240468
sL3024810484L
I1074270280
sL1481764497L
I1074237096
sL1877634603L
I1074270948
sL2687718384L
I1074243616
sL2789355142L
I1074244496
sL1098683832L
I1074245452
sL3015462521L
I1074238820
sL3066643969L
I1074247588
sL886840080L
I1074237152
sL2062758462L
I1074236820
sL1347401601L
I1074240824
sL2248158928L
I1074238492
sL660825523L
I1074245512
sL3362774716L
I1074236676
sL3338519854L
I1074246212
sL1347623814L
I1074237468
sL2195659785L
I1074245860
sL540472814L
I1074248180
sL2263182908L
I1074238404
sL965583188L
I1074246072
sL114336524L
I1074269684
sL282668036L
I1074244844
sL963291061L
I1074248568
sL3630163135L
I1074236904
sL188664287L
I1074235264
sL2743385701L
I1074269356
sL2404540336L
I1074245804
sL2485146564L
I1074241208
sL692536993L
I1074237524
sL3284292650L
I1074237432
sL822000404L
I1074245940
sL921639684L
I1074235960
sL235684320L
I1074237920
sL3364903294L
I1074247884
sL675504051L
I1074236576
sL1817360290L
I1074241676
sL1621098576L
I1074243600
sL917018201L
I1074236988
sL237904351L
I1074241620
sL2758712477L
I1074242148
sL309068699L
I1074245392
sL1140246287L
I1074247080
sL2570362575L
I1074238904
sL3958998789L
I1074237868
sL4029637072L
I1074270104
ssS'immediates'
p8
(dp9
sS'formaldups'
p10
c__builtin__
set
p11
((lp12
tp13
Rp14
sS'stringdups'
p15
g11
((lp16
tp17
Rp18
sS'fuzzydups'
p19
g11
((lp20
tp21
Rp22
sS'strings'
p23
(dp24
sS'functions'
p25
(dp26
I1074236676
(Vesp_rom_uart_set_clock_baudrate
p27
(lp28
(L1471953879L
L1443213481L
(lp29
(lp30
tp31
a(L1872515506L
L1443213481L
(lp32
(lp33
tp34
a(L147213506L
L1443213481L
(lp35
(lp36
tp37
a(L3104172142L
L1443213481L
(lp38
(lp39
tp40
atp41
sI1074235648
(Vbootloader_read_flash_id
p42
(lp43
(L549578328L
L3785322319L
(lp44
(lp45
Vbootloader_execute_flash_command
p46
atp47
atp48
sI1074243584
(Vbootloader_load_image
p49
(lp50
(L1155870502L
L3785322319L
(lp51
(lp52
Vimage_load
p53
atp54
atp55
sI1074267136
(V_init
p56
(lp57
(L3493042598L
L0L
(lp58
(lp59
tp60
atp61
sI1074269952
(Vbootloader_print_banner
p62
(lp63
(L3569996224L
L1385564105L
(lp64
(lp65
Vesp_bootloader_get_description
p66
aVesp_log_early_timestamp
p67
aVesp_log_early_timestamp
p68
aVesp_log_early_timestamp
p69
atp70
atp71
sI1074236428
(Vbootloader_flash_dummy_config
p72
(lp73
(L2633298977L
L1443213481L
(lp74
(lp75
tp76
a(L2761717557L
L0L
(lp77
(lp78
tp79
a(L1849044936L
L0L
(lp80
(lp81
tp82
a(L2198646520L
L2195759072L
(lp83
(lp84
tp85
a(L1857500547L
L1443213481L
(lp86
(lp87
tp88
a(L3020204L
L0L
(lp89
(lp90
tp91
a(L1610443405L
L0L
(lp92
(lp93
tp94
a(L4032120524L
L0L
(lp95
(lp96
tp97
a(L2336993863L
L0L
(lp98
(lp99
tp100
a(L1298875775L
L0L
(lp101
(lp102
tp103
a(L3880393601L
L0L
(lp104
(lp105
tp106
a(L2272848587L
L1443213481L
(lp107
(lp108
tp109
a(L1610443436L
L0L
(lp110
(lp111
tp112
atp113
sI1074237452
(Vbootloader_common_get_rtc_retain_mem_partition
p114
(lp115
(L3440563016L
L3833084538L
(lp116
(lp117
Vis_retain_mem_valid
p118
atp119
atp120
sI1074270724
(Vrtc_vddsdio_get_config
p121
(lp122
(L3097658956L
L1443213481L
(lp123
(lp124
tp125
a(L1750635626L
L0L
(lp126
(lp127
tp128
a(L3193418487L
L0L
(lp129
(lp130
tp131
a(L3511111289L
L1443213481L
(lp132
(lp133
tp134
a(L115635292L
L0L
(lp135
(lp136
tp137
a(L896053863L
L0L
(lp138
(lp139
tp140
a(L1306330959L
L0L
(lp141
(lp142
tp143
a(L1783408782L
L1443213481L
(lp144
(lp145
tp146
atp147
sI1074245640
(Vrtc_clk_8m_enabled
p148
(lp149
(L563532105L
L1443213481L
(lp150
(lp151
tp152
atp153
sI1074243600
(Vbootloader_load_image_no_verify
p154
(lp155
(L3412781509L
L3785322319L
(lp156
(lp157
Vimage_load
p158
atp159
atp160
sI1074245392
(Vrtc_clk_bbpll_disable
p161
(lp162
(L3512291683L
L1690040256L
(lp163
(lp164
tp165
a(L2472207241L
L0L
(lp166
(lp167
tp168
a(L3360570486L
L0L
(lp169
(lp170
tp171
atp172
sI1074237468
(Vbootloader_common_update_rtc_retain_mem
p173
(lp174
(L2958000229L
L0L
(lp175
(lp176
tp177
a(L3212356251L
L3785322319L
(lp178
(lp179
Vis_retain_mem_valid
p180
atp181
a(L94425498L
L3785322319L
(lp182
(lp183
Vbootloader_common_reset_rtc_retain_mem
p184
atp185
a(L2376360173L
L1443213481L
(lp186
(lp187
tp188
a(L4141035440L
L0L
(lp189
(lp190
tp191
a(L2902417580L
L0L
(lp192
(lp193
tp194
a(L395718978L
L1443213481L
(lp195
(lp196
tp197
a(L3738038928L
L3785322319L
(lp198
(lp199
Vupdate_rtc_retain_mem_crc
p200
atp201
atp202
sI1074238492
(Vbootloader_random_disable
p203
(lp204
(L482324986L
L2935979744L
(lp205
(lp206
tp207
atp208
sI1074240796
(Vbootloader_debug_buffer
p209
(lp210
(L2100504542L
L0L
(lp211
(lp212
tp213
atp214
sI1074240804
(Vbootloader_sha256_start
p215
(lp216
(L1737386262L
L2534110409L
(lp217
(lp218
tp219
atp220
sI1074245924
(Vrtc_clk_fast_src_get
p221
(lp222
(L2217920473L
L1443213481L
(lp223
(lp224
tp225
atp226
sI1074243104
(Vimage_load
p227
(lp228
(L3048705773L
L0L
(lp229
(lp230
tp231
a(L3463713141L
L0L
(lp232
(lp233
tp234
a(L3309803581L
L0L
(lp235
(lp236
tp237
a(L256049682L
L0L
(lp238
(lp239
tp240
a(L1935188817L
L0L
(lp241
(lp242
tp243
a(L3028481L
L0L
(lp244
(lp245
tp246
a(L3021749L
L0L
(lp247
(lp248
tp249
a(L106L
L0L
(lp250
(lp251
tp252
a(L585264737L
L0L
(lp253
(lp254
tp255
a(L1145291904L
L3785322319L
(lp256
(lp257
Vprocess_image_header
p258
atp259
a(L823859500L
L0L
(lp260
(lp261
tp262
a(L3061291474L
L0L
(lp263
(lp264
tp265
a(L4106474008L
L3785322319L
(lp266
(lp267
Vprocess_segments
p268
atp269
a(L3868840998L
L0L
(lp270
(lp271
tp272
a(L2962085561L
L1443213481L
(lp273
(lp274
tp275
a(L1827898452L
L3785322319L
(lp276
(lp277
Vprocess_checksum
p278
atp279
a(L2214715179L
L3785322319L
(lp280
(lp281
Vprocess_appended_hash_and_sig
p282
atp283
a(L3028481L
L0L
(lp284
(lp285
tp286
a(L2902417580L
L0L
(lp287
(lp288
tp289
a(L3285560995L
L3785322319L
(lp290
(lp291
Vbootloader_sha256_finish
p292
atp293
a(L3946560000L
L0L
(lp294
(lp295
tp296
a(L93674324L
L0L
(lp297
(lp298
tp299
a(L2674734805L
L2195759072L
(lp300
(lp301
tp302
a(L1168805591L
L1443213481L
(lp303
(lp304
tp305
a(L1179424413L
L0L
(lp306
(lp307
tp308
a(L3928150917L
L0L
(lp309
(lp310
tp311
a(L106L
L0L
(lp312
(lp313
tp314
a(L3871473710L
L0L
(lp315
(lp316
tp317
a(L3884726427L
L0L
(lp318
(lp319
tp320
a(L106L
L0L
(lp321
(lp322
tp323
a(L3020187L
L0L
(lp324
(lp325
tp326
a(L1337906930L
L3187408090L
(lp327
(lp328
Vesp_log_early_timestamp
p329
atp330
a(L2868044067L
L0L
(lp331
(lp332
tp333
a(L1179764900L
L0L
(lp334
(lp335
tp336
a(L2332746046L
L3785322319L
(lp337
(lp338
Vbootloader_sha256_finish
p339
atp340
a(L3721568057L
L242900614L
(lp341
(lp342
Vmemset
p343
atp344
a(L3020204L
L0L
(lp345
(lp346
tp347
a(L3039742375L
L1443213481L
(lp348
(lp349
tp350
a(L106L
L0L
(lp351
(lp352
tp353
a(L3307179591L
L2839326997L
(lp354
(lp355
Vmemset
p356
aVbootloader_sha256_finish
p357
aVbootloader_debug_buffer
p358
aVmemcmp
p359
atp360
a(L3433271982L
L2266857161L
(lp361
(lp362
Vesp_log_early_timestamp
p363
aVbootloader_debug_buffer
p364
atp365
a(L3741653406L
L3785322319L
(lp366
(lp367
Vshould_load
p368
atp369
a(L2764257181L
L0L
(lp370
(lp371
tp372
a(L3338774213L
L0L
(lp373
(lp374
tp375
a(L193456747L
L1443213481L
(lp376
(lp377
tp378
a(L3349572949L
L0L
(lp379
(lp380
tp381
a(L2192292519L
L0L
(lp382
(lp383
tp384
a(L106L
L0L
(lp385
(lp386
tp387
a(L1702191967L
L1443213481L
(lp388
(lp389
tp390
a(L1299866312L
L0L
(lp391
(lp392
tp393
a(L3010020263L
L0L
(lp394
(lp395
tp396
atp397
sI1074243616
(Vesp_partition_table_verify
p398
(lp399
(L44179228L
L1443213481L
(lp400
(lp401
tp402
a(L3031150553L
L1443213481L
(lp403
(lp404
tp405
a(L1184829782L
L0L
(lp406
(lp407
tp408
a(L3020204L
L0L
(lp409
(lp410
tp411
a(L26389654L
L3187408090L
(lp412
(lp413
Vesp_log_early_timestamp
p414
atp415
a(L1235012963L
L0L
(lp416
(lp417
tp418
a(L3190337587L
L0L
(lp419
(lp420
tp421
a(L2069928857L
L0L
(lp422
(lp423
tp424
a(L2902417580L
L0L
(lp425
(lp426
tp427
a(L2543114737L
L2147981551L
(lp428
(lp429
Vesp_log_early_timestamp
p430
atp431
a(L1715222413L
L1443213481L
(lp432
(lp433
tp434
a(L3020204L
L0L
(lp435
(lp436
tp437
a(L3020204L
L0L
(lp438
(lp439
tp440
a(L1328961945L
L2147981551L
(lp441
(lp442
Vesp_log_early_timestamp
p443
atp444
a(L4207910112L
L1443213481L
(lp445
(lp446
tp447
a(L1235012932L
L0L
(lp448
(lp449
tp450
a(L458256366L
L4021370767L
(lp451
(lp452
Vmemcmp
p453
atp454
a(L3020204L
L0L
(lp455
(lp456
tp457
a(L2543114737L
L2147981551L
(lp458
(lp459
Vesp_log_early_timestamp
p460
atp461
a(L1305407469L
L0L
(lp462
(lp463
tp464
a(L1167861556L
L0L
(lp465
(lp466
tp467
a(L818997085L
L0L
(lp468
(lp469
tp470
a(L3360570486L
L0L
(lp471
(lp472
tp473
a(L3020204L
L0L
(lp474
(lp475
tp476
a(L3999534504L
L3187408090L
(lp477
(lp478
Vesp_log_early_timestamp
p479
atp480
atp481
sI1074245664
(Vrtc_clk_8md256_enabled
p482
(lp483
(L4014027530L
L1443213481L
(lp484
(lp485
tp486
atp487
sI1074248480
(Vesp_rom_spiflash_write_encrypted
p488
(lp489
(L1944247967L
L0L
(lp490
(lp491
tp492
a(L3825342292L
L1443213481L
(lp493
(lp494
tp495
a(L97689L
L0L
(lp496
(lp497
tp498
a(L3061232074L
L0L
(lp499
(lp500
tp501
a(L1562911102L
L1443213481L
(lp502
(lp503
tp504
a(L1309309703L
L3785322319L
(lp505
(lp506
Vesp_rom_spiflash_write
p507
atp508
a(L2269233063L
L1443213481L
(lp509
(lp510
tp511
a(L735741265L
L0L
(lp512
(lp513
tp514
atp515
sI1074269728
(Vbootloader_check_bootloader_validity
p516
(lp517
(L2945382592L
L1069700966L
(lp518
(lp519
Vefuse_hal_chip_revision
p520
aVesp_log_early_timestamp
p521
aVbootloader_common_check_chip_validity
p522
atp523
atp524
sI1074243884
(Vwdt_hal_init
p525
(lp526
(L1845705415L
L242900614L
(lp527
(lp528
Vmemset
p529
atp530
a(L106L
L0L
(lp531
(lp532
tp533
a(L147213506L
L1443213481L
(lp534
(lp535
tp536
a(L3076988543L
L0L
(lp537
(lp538
tp539
a(L746843176L
L3294285696L
(lp540
(lp541
tp542
a(L3028464L
L0L
(lp543
(lp544
tp545
a(L268651496L
L1443213481L
(lp546
(lp547
tp548
a(L213928354L
L1443213481L
(lp549
(lp550
tp551
a(L1646580088L
L3294285696L
(lp552
(lp553
tp554
a(L3360570486L
L0L
(lp555
(lp556
tp557
atp558
sI1074239020
(Vcache_ll_l1_enable_bus
p559
(lp560
(L318252209L
L1443213481L
(lp561
(lp562
tp563
atp564
sI1074245940
(Vrtc_clk_xtal_freq_get
p565
(lp566
(L3313072792L
L1443213481L
(lp567
(lp568
tp569
a(L2847936993L
L0L
(lp570
(lp571
tp572
a(L2252934062L
L1443213481L
(lp573
(lp574
tp575
a(L3360570486L
L0L
(lp576
(lp577
tp578
atp579
sI1074247988
(Vesp_rom_spiflash_program_page_internal
p580
(lp581
(L2569069283L
L0L
(lp582
(lp583
tp584
a(L2258688483L
L0L
(lp585
(lp586
tp587
a(L3360570486L
L0L
(lp588
(lp589
tp590
a(L2295540031L
L1443213481L
(lp591
(lp592
tp593
a(L4235661475L
L3785322319L
(lp594
(lp595
Vesp_rom_spiflash_wait_idle
p596
atp597
a(L1299866312L
L0L
(lp598
(lp599
tp600
a(L3212356251L
L3785322319L
(lp601
(lp602
Vesp_rom_spiflash_enable_write
p603
atp604
a(L1834262847L
L2195759072L
(lp605
(lp606
tp607
a(L633937013L
L1443213481L
(lp608
(lp609
tp610
a(L2953702749L
L0L
(lp611
(lp612
tp613
a(L2989032L
L0L
(lp614
(lp615
tp616
a(L1965622133L
L0L
(lp617
(lp618
tp619
a(L809386272L
L2195759072L
(lp620
(lp621
tp622
a(L1958113242L
L0L
(lp623
(lp624
tp625
a(L106L
L0L
(lp626
(lp627
tp628
a(L3112950080L
L0L
(lp629
(lp630
tp631
a(L1868606439L
L0L
(lp632
(lp633
tp634
a(L147213506L
L1443213481L
(lp635
(lp636
tp637
a(L1933954923L
L0L
(lp638
(lp639
tp640
a(L1147866918L
L0L
(lp641
(lp642
tp643
a(L3871602522L
L0L
(lp644
(lp645
tp646
atp647
sI1074235696
(Vbootloader_flash_xmc_startup
p648
(lp649
(L3433652179L
L242900614L
(lp650
(lp651
Vis_xmc_chip_strict
p652
atp653
a(L2258688482L
L0L
(lp654
(lp655
tp656
a(L3360570486L
L0L
(lp657
(lp658
tp659
a(L2860324232L
L3785322319L
(lp660
(lp661
Vbootloader_flash_read_sfdp
p662
atp663
a(L933155447L
L3609046414L
(lp664
(lp665
Vesp_log_early_timestamp
p666
aVbootloader_execute_flash_command
p667
aVbootloader_execute_flash_command
p668
aVbootloader_execute_flash_command
p669
aVbootloader_execute_flash_command
p670
aVbootloader_read_flash_id
p671
aVis_xmc_chip_strict
p672
atp673
a(L1000132677L
L3187408090L
(lp674
(lp675
Vesp_log_early_timestamp
p676
atp677
atp678
sI1074244912
(Vwdt_hal_write_protect_enable
p679
(lp680
(L387778158L
L0L
(lp681
(lp682
tp683
a(L4195472003L
L0L
(lp684
(lp685
tp686
a(L3360570486L
L0L
(lp687
(lp688
tp689
a(L802523425L
L0L
(lp690
(lp691
tp692
atp693
sI1074236988
(Vefuse_hal_get_disable_wafer_version_major
p694
(lp695
(L4194175088L
L0L
(lp696
(lp697
tp698
atp699
sI1074242364
(Vprocess_segments
p700
(lp701
(L1326203493L
L0L
(lp702
(lp703
tp704
a(L1640778736L
L0L
(lp705
(lp706
tp707
a(L3782401745L
L0L
(lp708
(lp709
tp710
a(L106L
L0L
(lp711
(lp712
tp713
a(L3028481L
L0L
(lp714
(lp715
tp716
a(L3014296803L
L3187408090L
(lp717
(lp718
Vesp_log_early_timestamp
p719
atp720
a(L761135359L
L3785322319L
(lp721
(lp722
Vbootloader_flash_read
p723
atp724
a(L3856957476L
L3187408090L
(lp725
(lp726
Vesp_log_early_timestamp
p727
atp728
a(L3871473710L
L0L
(lp729
(lp730
tp731
a(L219417435L
L0L
(lp732
(lp733
tp734
a(L616767314L
L3785322319L
(lp735
(lp736
Vbootloader_sha256_data
p737
atp738
a(L1599301852L
L1443213481L
(lp739
(lp740
tp741
a(L2258837437L
L0L
(lp742
(lp743
tp744
a(L1764156528L
L0L
(lp745
(lp746
tp747
a(L3028481L
L0L
(lp748
(lp749
tp750
a(L2231662647L
L3187408090L
(lp751
(lp752
Vesp_log_early_timestamp
p753
atp754
a(L268651496L
L1443213481L
(lp755
(lp756
tp757
a(L652851030L
L2195759072L
(lp758
(lp759
tp760
a(L3802069243L
L0L
(lp761
(lp762
tp763
a(L3696234693L
L1443213481L
(lp764
(lp765
tp766
a(L2258867228L
L0L
(lp767
(lp768
tp769
a(L2277415887L
L0L
(lp770
(lp771
tp772
a(L3177376558L
L0L
(lp773
(lp774
tp775
a(L3028481L
L0L
(lp776
(lp777
tp778
a(L3861001733L
L3187408090L
(lp779
(lp780
Vesp_log_early_timestamp
p781
atp782
a(L2640606608L
L0L
(lp783
(lp784
tp785
a(L3028481L
L0L
(lp786
(lp787
tp788
a(L3892729576L
L3833084538L
(lp789
(lp790
Vesp_log_early_timestamp
p791
atp792
a(L4033680444L
L404278070L
(lp793
(lp794
tp795
a(L2902417580L
L0L
(lp796
(lp797
tp798
a(L2902417580L
L0L
(lp799
(lp800
tp801
a(L1229952296L
L3785322319L
(lp802
(lp803
Vverify_load_addresses
p804
atp805
a(L3783935185L
L3785322319L
(lp806
(lp807
Vbootloader_mmap_get_free_pages
p808
atp809
a(L3028481L
L0L
(lp810
(lp811
tp812
a(L224879076L
L0L
(lp813
(lp814
tp815
a(L142590671L
L0L
(lp816
(lp817
tp818
a(L3028481L
L0L
(lp819
(lp820
tp821
a(L94425498L
L3785322319L
(lp822
(lp823
Vesp_log_early_timestamp
p824
atp825
a(L1961289970L
L1443213481L
(lp826
(lp827
tp828
a(L4085121624L
L3785322319L
(lp829
(lp830
Vshould_load
p831
atp832
a(L3028481L
L0L
(lp833
(lp834
tp835
a(L1038006420L
L3833084538L
(lp836
(lp837
Vesp_log_early_timestamp
p838
atp839
a(L106L
L0L
(lp840
(lp841
tp842
a(L3815630522L
L0L
(lp843
(lp844
tp845
a(L1646054028L
L3833084538L
(lp846
(lp847
Vesp_log_early_timestamp
p848
atp849
a(L2629678223L
L0L
(lp850
(lp851
tp852
a(L2684012095L
L0L
(lp853
(lp854
tp855
a(L3357777304L
L3785322319L
(lp856
(lp857
Vbootloader_mmap
p858
atp859
a(L3911420474L
L3187408090L
(lp860
(lp861
Vesp_log_early_timestamp
p862
atp863
a(L1698460186L
L0L
(lp864
(lp865
tp866
a(L3264682310L
L1443213481L
(lp867
(lp868
tp869
a(L4016429890L
L242900614L
(lp870
(lp871
Vmemcpy
p872
atp873
a(L1595421496L
L3785322319L
(lp874
(lp875
Vbootloader_munmap
p876
atp877
a(L2757579158L
L0L
(lp878
(lp879
tp880
a(L605525844L
L242900614L
(lp881
(lp882
Vbootloader_fill_random
p883
atp884
a(L3616854679L
L1443213481L
(lp885
(lp886
tp887
a(L3616854679L
L1443213481L
(lp888
(lp889
tp890
a(L3450268858L
L0L
(lp891
(lp892
tp893
a(L3021749L
L0L
(lp894
(lp895
tp896
a(L322434465L
L0L
(lp897
(lp898
tp899
a(L2494883302L
L0L
(lp900
(lp901
tp902
a(L2902417580L
L0L
(lp903
(lp904
tp905
a(L2213415704L
L1443213481L
(lp906
(lp907
tp908
a(L193456747L
L1443213481L
(lp909
(lp910
tp911
a(L1426980959L
L0L
(lp912
(lp913
tp914
a(L1841482652L
L0L
(lp915
(lp916
tp917
a(L653501462L
L0L
(lp918
(lp919
tp920
a(L3310548426L
L3785322319L
(lp921
(lp922
Vbootloader_sha256_data
p923
atp924
a(L90548756L
L0L
(lp925
(lp926
tp927
a(L1702191967L
L1443213481L
(lp928
(lp929
tp930
a(L2364005371L
L0L
(lp931
(lp932
tp933
atp934
sI1074240824
(Vbootloader_sha256_data
p935
(lp936
(L4066096136L
L0L
(lp937
(lp938
tp939
a(L1697654611L
L2195759072L
(lp940
(lp941
tp942
a(L2213948952L
L242900614L
(lp943
(lp944
V__assert_func
p945
atp946
a(L498498478L
L0L
(lp947
(lp948
tp949
a(L3590389832L
L1443213481L
(lp950
(lp951
tp952
a(L2910371777L
L0L
(lp953
(lp954
tp955
a(L3360570486L
L0L
(lp956
(lp957
tp958
a(L1087685526L
L2195759072L
(lp959
(lp960
tp961
a(L426633611L
L1443213481L
(lp962
(lp963
tp964
a(L2584057186L
L1443213481L
(lp965
(lp966
tp967
a(L3342433287L
L1443213481L
(lp968
(lp969
tp970
a(L2526675390L
L242900614L
(lp971
(lp972
V__bswapsi2
p973
atp974
a(L942815853L
L2195759072L
(lp975
(lp976
tp977
a(L1872507229L
L1443213481L
(lp978
(lp979
tp980
a(L147213506L
L1443213481L
(lp981
(lp982
tp983
a(L3745004802L
L0L
(lp984
(lp985
tp986
atp987
sI1074235960
(Vbootloader_flash_gpio_config
p988
(lp989
(L3362256192L
L3785322319L
(lp990
(lp991
Vbootloader_common_get_chip_ver_pkg
p992
atp993
a(L106L
L0L
(lp994
(lp995
tp996
a(L1998579353L
L0L
(lp997
(lp998
tp999
a(L106L
L0L
(lp1000
(lp1001
tp1002
a(L1839763068L
L1443213481L
(lp1003
(lp1004
tp1005
a(L2440320488L
L1396946377L
(lp1006
(lp1007
tp1008
a(L106L
L0L
(lp1009
(lp1010
tp1011
a(L4003626558L
L0L
(lp1012
(lp1013
tp1014
a(L2164907201L
L2534110409L
(lp1015
(lp1016
tp1017
a(L3360570486L
L0L
(lp1018
(lp1019
tp1020
atp1021
sI1074245688
(Vrtc_clk_slow_src_set
p1022
(lp1023
(L585347011L
L2195759072L
(lp1024
(lp1025
tp1026
a(L3020187L
L0L
(lp1027
(lp1028
tp1029
a(L3028481L
L0L
(lp1030
(lp1031
tp1032
a(L487821223L
L0L
(lp1033
(lp1034
tp1035
a(L4271877108L
L1443213481L
(lp1036
(lp1037
tp1038
a(L1851908495L
L0L
(lp1039
(lp1040
tp1041
a(L1099319264L
L1443213481L
(lp1042
(lp1043
tp1044
a(L3138544334L
L0L
(lp1045
(lp1046
tp1047
a(L94425498L
L3785322319L
(lp1048
(lp1049
Vabort
p1050
atp1051
atp1052
sI1074267720
(Vesp_bootloader_get_description
p1053
(lp1054
(L2248573785L
L2195759072L
(lp1055
(lp1056
tp1057
atp1058
sI1074270280
(Vrtc_clk_init
p1059
(lp1060
(L1100006719L
L1443213481L
(lp1061
(lp1062
tp1063
a(L42671777L
L3785322319L
(lp1064
(lp1065
Vrtc_clk_cpu_freq_to_xtal
p1066
atp1067
a(L739905763L
L1743007695L
(lp1068
(lp1069
Vrtc_clk_xtal_freq_get
p1070
atp1071
a(L3028481L
L0L
(lp1072
(lp1073
tp1074
a(L4284274517L
L3785322319L
(lp1075
(lp1076
Vrtc_clk_xtal_freq_estimate
p1077
atp1078
a(L2576622952L
L3187408090L
(lp1079
(lp1080
Vesp_log_early_timestamp
p1081
atp1082
a(L1822030105L
L3065544262L
(lp1083
(lp1084
Vesp_rom_uart_tx_wait_idle
p1085
aVrtc_clk_xtal_freq_update
p1086
aVrtc_clk_apb_freq_update
p1087
aVrtc_clk_cpu_freq_get_config
p1088
aVrtc_clk_cpu_freq_mhz_to_config
p1089
atp1090
a(L521302419L
L2704288053L
(lp1091
(lp1092
Vesp_log_early_timestamp
p1093
aVabort
p1094
atp1095
a(L2902417580L
L0L
(lp1096
(lp1097
tp1098
a(L1899970065L
L0L
(lp1099
(lp1100
tp1101
a(L377687546L
L3785322319L
(lp1102
(lp1103
Vrtc_clk_xtal_freq_estimate
p1104
atp1105
a(L2163742247L
L3187408090L
(lp1106
(lp1107
Vesp_log_early_timestamp
p1108
atp1109
a(L299116989L
L2426646996L
(lp1110
(lp1111
Vrtc_clk_cpu_freq_set_config
p1112
aV__udivdi3
p1113
atp1114
a(L912310138L
L3785322319L
(lp1115
(lp1116
Vrtc_clk_32k_enable
p1117
atp1118
a(L3191820416L
L1832448559L
(lp1119
(lp1120
Vrtc_clk_8m_enable
p1121
aVrtc_clk_fast_src_set
p1122
aVrtc_clk_slow_src_set
p1123
atp1124
a(L1232958848L
L0L
(lp1125
(lp1126
tp1127
atp1128
sI1074240068
(Vbootloader_utility_get_selected_boot_partition
p1129
(lp1130
(L2938832293L
L0L
(lp1131
(lp1132
tp1133
a(L2250662613L
L1443213481L
(lp1134
(lp1135
tp1136
a(L3987062097L
L2147981551L
(lp1137
(lp1138
Vesp_log_early_timestamp
p1139
atp1140
a(L558289164L
L1443213481L
(lp1141
(lp1142
tp1143
a(L3360570486L
L0L
(lp1144
(lp1145
tp1146
a(L3118387733L
L3785322319L
(lp1147
(lp1148
Vbootloader_mmap
p1149
atp1150
a(L3080008394L
L2147981551L
(lp1151
(lp1152
Vesp_log_early_timestamp
p1153
atp1154
a(L937961821L
L2410515468L
(lp1155
(lp1156
Vmemcpy
p1157
aVmemcpy
p1158
aVbootloader_munmap
p1159
aVbootloader_common_ota_select_invalid
p1160
atp1161
a(L2911028409L
L0L
(lp1162
(lp1163
tp1164
a(L726754926L
L3785322319L
(lp1165
(lp1166
Vbootloader_common_get_active_otadata
p1167
atp1168
a(L106L
L0L
(lp1169
(lp1170
tp1171
a(L4179097382L
L0L
(lp1172
(lp1173
tp1174
a(L788494392L
L3785322319L
(lp1175
(lp1176
Vbootloader_common_ota_select_invalid
p1177
atp1178
a(L638952356L
L1443213481L
(lp1179
(lp1180
tp1181
a(L1522345576L
L3833084538L
(lp1182
(lp1183
Vesp_log_early_timestamp
p1184
atp1185
a(L4207910112L
L1443213481L
(lp1186
(lp1187
tp1188
a(L1641201884L
L0L
(lp1189
(lp1190
tp1191
a(L3196944801L
L2147981551L
(lp1192
(lp1193
Vesp_log_early_timestamp
p1194
atp1195
a(L2302032704L
L0L
(lp1196
(lp1197
tp1198
a(L1173788779L
L3785322319L
(lp1199
(lp1200
Vbootloader_common_ota_select_crc
p1201
atp1202
a(L178397698L
L1443213481L
(lp1203
(lp1204
tp1205
a(L1324800084L
L3785322319L
(lp1206
(lp1207
Vbootloader_common_ota_select_crc
p1208
atp1209
a(L1299866312L
L0L
(lp1210
(lp1211
tp1212
a(L2704362655L
L1443213481L
(lp1213
(lp1214
tp1215
a(L344024800L
L3833084538L
(lp1216
(lp1217
Vesp_log_early_timestamp
p1218
atp1219
a(L1194215008L
L3833084538L
(lp1220
(lp1221
Vesp_log_early_timestamp
p1222
atp1223
atp1224
sI1074236996
(Vesp_log_early_timestamp
p1225
(lp1226
(L4015029253L
L1443213481L
(lp1227
(lp1228
tp1229
atp1230
sI1074246212
(Vrtc_clk_xtal_freq_update
p1231
(lp1232
(L3023525581L
L2195759072L
(lp1233
(lp1234
tp1235
a(L3509357017L
L0L
(lp1236
(lp1237
tp1238
a(L2266180931L
L0L
(lp1239
(lp1240
tp1241
atp1242
sI1074244940
(Vwdt_hal_enable
p1243
(lp1244
(L2299130915L
L0L
(lp1245
(lp1246
tp1247
a(L165794138L
L0L
(lp1248
(lp1249
tp1250
a(L3360570486L
L0L
(lp1251
(lp1252
tp1253
a(L2847657174L
L0L
(lp1254
(lp1255
tp1256
atp1257
sI1074245452
(Vrtc_clk_32k_enable
p1258
(lp1259
(L753387299L
L0L
(lp1260
(lp1261
tp1262
a(L3776007933L
L3785322319L
(lp1263
(lp1264
Vrtc_clk_32k_enable_common
p1265
atp1266
a(L3496950L
L0L
(lp1267
(lp1268
tp1269
a(L707626330L
L2534110409L
(lp1270
(lp1271
tp1272
atp1273
sI1074270020
(Vbootloader_console_init
p1274
(lp1275
(L3806010175L
L988378406L
(lp1276
(lp1277
Vesp_rom_uart_tx_wait_idle
p1278
aVrtc_clk_apb_freq_get
p1279
aVesp_rom_uart_set_clock_baudrate
p1280
atp1281
atp1282
sI1074236756
(Vefuse_hal_chip_revision
p1283
(lp1284
(L2719302832L
L1880226080L
(lp1285
(lp1286
Vefuse_hal_get_major_chip_version
p1287
aVefuse_hal_get_minor_chip_version
p1288
atp1289
atp1290
sI1074237524
(Vbootloader_common_ota_select_invalid
p1291
(lp1292
(L4027567199L
L0L
(lp1293
(lp1294
tp1295
a(L3397985842L
L0L
(lp1296
(lp1297
tp1298
a(L2258867228L
L0L
(lp1299
(lp1300
tp1301
a(L3785235668L
L0L
(lp1302
(lp1303
tp1304
atp1305
sI1074241620
(Vbootloader_util_regions_overlap
p1306
(lp1307
(L2762640130L
L0L
(lp1308
(lp1309
tp1310
a(L1697654632L
L2195759072L
(lp1311
(lp1312
tp1313
a(L2213948952L
L242900614L
(lp1314
(lp1315
V__assert_func
p1316
atp1317
a(L97642L
L0L
(lp1318
(lp1319
tp1320
a(L1087686177L
L2195759072L
(lp1321
(lp1322
tp1323
a(L366123053L
L0L
(lp1324
(lp1325
tp1326
a(L2258867228L
L0L
(lp1327
(lp1328
tp1329
a(L1253626734L
L0L
(lp1330
(lp1331
tp1332
a(L2258897019L
L0L
(lp1333
(lp1334
tp1335
a(L3109269495L
L0L
(lp1336
(lp1337
tp1338
atp1339
sI1074239568
(Vset_actual_ota_seq
p1340
(lp1341
(L4094723830L
L0L
(lp1342
(lp1343
tp1344
a(L3504298995L
L2195759072L
(lp1345
(lp1346
tp1347
a(L1236604048L
L2474967913L
(lp1348
(lp1349
Vmemset
p1350
aVbootloader_common_ota_select_crc
p1351
aVesp_flash_encryption_enabled
p1352
aVbootloader_flash_erase_sector
p1353
atp1354
a(L300669811L
L3785322319L
(lp1355
(lp1356
Vbootloader_flash_write
p1357
atp1358
a(L3166192197L
L3187408090L
(lp1359
(lp1360
Vesp_log_early_timestamp
p1361
atp1362
a(L2489520564L
L3187408090L
(lp1363
(lp1364
Vesp_log_early_timestamp
p1365
atp1366
a(L889933560L
L1880226080L
(lp1367
(lp1368
Vindex_to_partition
p1369
aVbootloader_common_update_rtc_retain_mem
p1370
atp1371
atp1372
sI1074267728
(Vcall_start_cpu0
p1373
(lp1374
(L342432055L
L1443213481L
(lp1375
(lp1376
tp1377
a(L4207910112L
L1443213481L
(lp1378
(lp1379
tp1380
a(L3212347974L
L3785322319L
(lp1381
(lp1382
Vbootloader_init
p1383
atp1384
a(L94425498L
L3785322319L
(lp1385
(lp1386
Vbootloader_reset
p1387
atp1388
a(L1872507246L
L1443213481L
(lp1389
(lp1390
tp1391
a(L4207910112L
L1443213481L
(lp1392
(lp1393
tp1394
a(L3453696961L
L2871875098L
(lp1395
(lp1396
Vbootloader_utility_load_boot_image_from_deep_sleep
p1397
aVmemset
p1398
aVbootloader_utility_load_partition_table
p1399
atp1400
a(L3014296803L
L3187408090L
(lp1401
(lp1402
Vesp_log_early_timestamp
p1403
atp1404
a(L736289835L
L3785322319L
(lp1405
(lp1406
Vbootloader_utility_get_selected_boot_partition
p1407
atp1408
a(L289035773L
L242900614L
(lp1409
(lp1410
Vbootloader_utility_load_boot_image
p1411
atp1412
atp1413
sI1074245980
(Vrtc_clk_cpu_freq_mhz_to_config
p1414
(lp1415
(L908718885L
L3785322319L
(lp1416
(lp1417
Vrtc_clk_xtal_freq_get
p1418
atp1419
a(L60460069L
L0L
(lp1420
(lp1421
tp1422
a(L3802072124L
L0L
(lp1423
(lp1424
tp1425
a(L3159006042L
L0L
(lp1426
(lp1427
tp1428
a(L3360570486L
L0L
(lp1429
(lp1430
tp1431
a(L895147205L
L0L
(lp1432
(lp1433
tp1434
a(L3970036657L
L0L
(lp1435
(lp1436
tp1437
a(L2731353429L
L0L
(lp1438
(lp1439
tp1440
a(L1555485793L
L0L
(lp1441
(lp1442
tp1443
a(L2258897023L
L0L
(lp1444
(lp1445
tp1446
a(L1947499251L
L0L
(lp1447
(lp1448
tp1449
a(L1306331021L
L0L
(lp1450
(lp1451
tp1452
atp1453
sI1074238808
(Vbootloader_clock_get_rated_freq_mhz
p1454
(lp1455
(L376617603L
L3785322319L
(lp1456
(lp1457
Vefuse_hal_get_rated_freq_mhz
p1458
atp1459
atp1460
sI1074270056
(Vesp_cpu_configure_region_protection
p1461
(lp1462
(L3233924472L
L581251951L
(lp1463
(lp1464
Vmemcpy
p1465
atp1466
a(L180431425L
L3785322319L
(lp1467
(lp1468
Vmpu_hal_set_region_access
p1469
atp1470
a(L2537388152L
L3785322319L
(lp1471
(lp1472
Vmpu_hal_set_region_access
p1473
atp1474
atp1475
sI1074242148
(Vprocess_appended_hash_and_sig
p1476
(lp1477
(L1668084157L
L0L
(lp1478
(lp1479
tp1480
a(L2910371777L
L0L
(lp1481
(lp1482
tp1483
a(L4285188111L
L0L
(lp1484
(lp1485
tp1486
a(L1151175705L
L0L
(lp1487
(lp1488
tp1489
a(L97689L
L0L
(lp1490
(lp1491
tp1492
a(L2250231589L
L3187408090L
(lp1493
(lp1494
Vesp_log_early_timestamp
p1495
atp1496
a(L268651496L
L1443213481L
(lp1497
(lp1498
tp1499
a(L1464893571L
L3785322319L
(lp1500
(lp1501
Vbootloader_flash_read
p1502
atp1503
a(L735741265L
L0L
(lp1504
(lp1505
tp1506
atp1507
sI1074238820
(Vlog_invalid_app_partition
p1508
(lp1509
(L2157385331L
L2195759072L
(lp1510
(lp1511
tp1512
a(L3028464L
L0L
(lp1513
(lp1514
tp1515
a(L1760520779L
L3833084538L
(lp1516
(lp1517
Vesp_log_early_timestamp
p1518
atp1519
a(L4207910112L
L1443213481L
(lp1520
(lp1521
tp1522
a(L3360570486L
L0L
(lp1523
(lp1524
tp1525
a(L3212513603L
L3833084538L
(lp1526
(lp1527
Vesp_log_early_timestamp
p1528
atp1529
a(L431938678L
L2147981551L
(lp1530
(lp1531
Vesp_log_early_timestamp
p1532
atp1533
atp1534
sI1074237028
(Vis_retain_mem_valid
p1535
(lp1536
(L2820478025L
L2195759072L
(lp1537
(lp1538
tp1539
atp1540
sI1074239072
(Vtry_load_partition
p1541
(lp1542
(L1263750142L
L0L
(lp1543
(lp1544
tp1545
a(L2258688482L
L0L
(lp1546
(lp1547
tp1548
a(L3360570486L
L0L
(lp1549
(lp1550
tp1551
a(L530241438L
L3785322319L
(lp1552
(lp1553
Vbootloader_load_image
p1554
atp1555
a(L4168266278L
L3187408090L
(lp1556
(lp1557
Vesp_log_early_timestamp
p1558
atp1559
atp1560
sI1074236780
(Vefuse_hal_flash_encryption_enabled
p1561
(lp1562
(L221474917L
L1443213481L
(lp1563
(lp1564
tp1565
a(L2910371777L
L0L
(lp1566
(lp1567
tp1568
a(L3360570486L
L0L
(lp1569
(lp1570
tp1571
a(L3016870L
L0L
(lp1572
(lp1573
tp1574
a(L3745038218L
L0L
(lp1575
(lp1576
tp1577
a(L957607403L
L0L
(lp1578
(lp1579
tp1580
atp1581
sI1074247788
(Vesp_rom_spiflash_read_status
p1582
(lp1583
(L3588638125L
L1443213481L
(lp1584
(lp1585
tp1586
a(L4250092034L
L2534110409L
(lp1587
(lp1588
tp1589
a(L4159619641L
L0L
(lp1590
(lp1591
tp1592
a(L2392720019L
L0L
(lp1593
(lp1594
tp1595
a(L2258688487L
L0L
(lp1596
(lp1597
tp1598
a(L4159619145L
L0L
(lp1599
(lp1600
tp1601
a(L3241763332L
L1443213481L
(lp1602
(lp1603
tp1604
a(L3117156279L
L0L
(lp1605
(lp1606
tp1607
a(L2123059967L
L0L
(lp1608
(lp1609
tp1610
a(L582177370L
L0L
(lp1611
(lp1612
tp1613
atp1614
sI1074269796
(Vbootloader_config_wdt
p1615
(lp1616
(L3447475412L
L603716358L
(lp1617
(lp1618
Vwdt_hal_write_protect_disable
p1619
aVwdt_hal_set_flashboot_en
p1620
aVwdt_hal_write_protect_enable
p1621
aVwdt_hal_init
p1622
aVrtc_clk_slow_freq_get_hz
p1623
aVwdt_hal_write_protect_disable
p1624
aV__udivdi3
p1625
aVwdt_hal_config_stage
p1626
aVwdt_hal_enable
p1627
aVwdt_hal_write_protect_enable
p1628
aVwdt_hal_write_protect_disable
p1629
aVwdt_hal_set_flashboot_en
p1630
aVwdt_hal_write_protect_enable
p1631
atp1632
atp1633
sI1074234728
(Vbootloader_common_get_chip_ver_pkg
p1634
(lp1635
(L3197874814L
L1443213481L
(lp1636
(lp1637
tp1638
atp1639
sI1074249320
(V_fini
p1640
(lp1641
(L3493042598L
L0L
(lp1642
(lp1643
tp1644
atp1645
sI1074240368
(Vbootloader_utility_load_boot_image_from_deep_sleep
p1646
(lp1647
(L1370794446L
L1443213481L
(lp1648
(lp1649
tp1650
a(L776220236L
L548448364L
(lp1651
(lp1652
Vbootloader_common_get_rtc_retain_mem_partition
p1653
atp1654
a(L807480887L
L3785322319L
(lp1655
(lp1656
Vbootloader_load_image_no_verify
p1657
atp1658
a(L2339377961L
L46646223L
(lp1659
(lp1660
Vesp_log_early_timestamp
p1661
aVbootloader_common_update_rtc_retain_mem
p1662
aVload_image
p1663
atp1664
a(L753783728L
L403192672L
(lp1665
(lp1666
Vesp_log_early_timestamp
p1667
aVesp_log_early_timestamp
p1668
atp1669
a(L3360570486L
L0L
(lp1670
(lp1671
tp1672
atp1673
sI1074237552
(Vbootloader_common_select_otadata
p1674
(lp1675
(L4071767857L
L0L
(lp1676
(lp1677
tp1678
a(L1999329187L
L0L
(lp1679
(lp1680
tp1681
a(L3846398843L
L0L
(lp1682
(lp1683
tp1684
a(L2501968171L
L0L
(lp1685
(lp1686
tp1687
a(L3360570486L
L0L
(lp1688
(lp1689
tp1690
a(L2045232488L
L0L
(lp1691
(lp1692
tp1693
a(L1243525916L
L0L
(lp1694
(lp1695
tp1696
a(L3094144427L
L0L
(lp1697
(lp1698
tp1699
a(L2399509845L
L0L
(lp1700
(lp1701
tp1702
a(L1641201884L
L0L
(lp1703
(lp1704
tp1705
atp1706
sI1074245232
(Vrtc_clk_cpu_freq_to_pll_mhz
p1707
(lp1708
(L3231135830L
L0L
(lp1709
(lp1710
tp1711
a(L2102627717L
L2195759072L
(lp1712
(lp1713
tp1714
a(L2982280123L
L3380333161L
(lp1715
(lp1716
Vesp_rom_set_cpu_ticks_per_us
p1717
aVrtc_clk_wait_for_slow_cycle
p1718
atp1719
a(L708686908L
L1443213481L
(lp1720
(lp1721
tp1722
a(L3284807114L
L0L
(lp1723
(lp1724
tp1725
a(L94425498L
L3785322319L
(lp1726
(lp1727
Vabort
p1728
atp1729
a(L2258897019L
L0L
(lp1730
(lp1731
tp1732
a(L1113742378L
L0L
(lp1733
(lp1734
tp1735
a(L1306330990L
L0L
(lp1736
(lp1737
tp1738
atp1739
sI1074246256
(Vrtc_clk_apb_freq_update
p1740
(lp1741
(L3982322780L
L1443213481L
(lp1742
(lp1743
tp1744
atp1745
sI1074248316
(Vesp_rom_spiflash_write
p1746
(lp1747
(L924384987L
L1679261929L
(lp1748
(lp1749
tp1750
a(L2258688483L
L0L
(lp1751
(lp1752
tp1753
a(L3360570486L
L0L
(lp1754
(lp1755
tp1756
a(L3368132847L
L0L
(lp1757
(lp1758
tp1759
a(L3106685981L
L0L
(lp1760
(lp1761
tp1762
a(L3488660639L
L3785322319L
(lp1763
(lp1764
Vesp_rom_spiflash_program_page_internal
p1765
atp1766
a(L3543402353L
L3785322319L
(lp1767
(lp1768
Vesp_rom_spiflash_program_page_internal
p1769
atp1770
a(L4222526342L
L0L
(lp1771
(lp1772
tp1773
a(L2004208511L
L0L
(lp1774
(lp1775
tp1776
a(L564470656L
L0L
(lp1777
(lp1778
tp1779
a(L441922648L
L3785322319L
(lp1780
(lp1781
Vesp_rom_spiflash_program_page_internal
p1782
atp1783
a(L2302069176L
L0L
(lp1784
(lp1785
tp1786
atp1787
sI1074248568
(Vesp_rom_spiflash_read
p1788
(lp1789
(L1499485309L
L1690040256L
(lp1790
(lp1791
tp1792
a(L3114780042L
L1679261929L
(lp1793
(lp1794
tp1795
a(L2860271684L
L0L
(lp1796
(lp1797
tp1798
a(L1872504408L
L1443213481L
(lp1799
(lp1800
tp1801
a(L106L
L0L
(lp1802
(lp1803
tp1804
a(L633884026L
L0L
(lp1805
(lp1806
tp1807
a(L106L
L0L
(lp1808
(lp1809
tp1810
a(L1100272902L
L1443213481L
(lp1811
(lp1812
tp1813
a(L1372101025L
L1690040256L
(lp1814
(lp1815
tp1816
a(L974197278L
L2195759072L
(lp1817
(lp1818
tp1819
a(L336550648L
L0L
(lp1820
(lp1821
tp1822
a(L3167414617L
L1443213481L
(lp1823
(lp1824
tp1825
a(L106L
L0L
(lp1826
(lp1827
tp1828
a(L3138763340L
L362179215L
(lp1829
(lp1830
Vesp_rom_spiflash_wait_idle
p1831
atp1832
a(L3021737L
L0L
(lp1833
(lp1834
tp1835
a(L106L
L0L
(lp1836
(lp1837
tp1838
a(L1868280504L
L0L
(lp1839
(lp1840
tp1841
a(L106L
L0L
(lp1842
(lp1843
tp1844
a(L750281353L
L0L
(lp1845
(lp1846
tp1847
a(L3897437082L
L0L
(lp1848
(lp1849
tp1850
a(L4122060822L
L0L
(lp1851
(lp1852
tp1853
a(L483218220L
L1443213481L
(lp1854
(lp1855
tp1856
a(L2989032L
L0L
(lp1857
(lp1858
tp1859
a(L3819849625L
L0L
(lp1860
(lp1861
tp1862
a(L1082031446L
L2195759072L
(lp1863
(lp1864
tp1865
a(L1872504408L
L1443213481L
(lp1866
(lp1867
tp1868
a(L147213506L
L1443213481L
(lp1869
(lp1870
tp1871
a(L2062799182L
L2534110409L
(lp1872
(lp1873
tp1874
a(L2921907736L
L0L
(lp1875
(lp1876
tp1877
a(L3677617742L
L1443213481L
(lp1878
(lp1879
tp1880
a(L2483025066L
L1679261929L
(lp1881
(lp1882
tp1883
a(L2136664087L
L1443213481L
(lp1884
(lp1885
tp1886
a(L3000478599L
L2195759072L
(lp1887
(lp1888
tp1889
a(L3333707777L
L0L
(lp1890
(lp1891
tp1892
a(L3251955268L
L0L
(lp1893
(lp1894
tp1895
a(L3418540920L
L0L
(lp1896
(lp1897
tp1898
a(L4183823801L
L1443213481L
(lp1899
(lp1900
tp1901
a(L97689L
L0L
(lp1902
(lp1903
tp1904
a(L2258897019L
L0L
(lp1905
(lp1906
tp1907
a(L4014024819L
L0L
(lp1908
(lp1909
tp1910
a(L3621567083L
L0L
(lp1911
(lp1912
tp1913
atp1914
sI1074238336
(Vbootloader_enable_wp
p1915
(lp1916
(L1117825804L
L3785322319L
(lp1917
(lp1918
Vbootloader_execute_flash_command
p1919
atp1920
atp1921
sI1074235264
(Vbootloader_execute_flash_command
p1922
(lp1923
(L2481595632L
L3785322319L
(lp1924
(lp1925
Vbootloader_flash_execute_command_common
p1926
atp1927
atp1928
sI1074241676
(Vverify_load_addresses
p1929
(lp1930
(L2764487219L
L0L
(lp1931
(lp1932
tp1933
a(L106L
L0L
(lp1934
(lp1935
tp1936
a(L97642L
L0L
(lp1937
(lp1938
tp1939
a(L1682572953L
L4032149094L
(lp1940
(lp1941
V__assert_func
p1942
atp1943
a(L371731316L
L2195759072L
(lp1944
(lp1945
tp1946
a(L106L
L0L
(lp1947
(lp1948
tp1949
a(L3747671351L
L2195759072L
(lp1950
(lp1951
tp1952
a(L106L
L0L
(lp1953
(lp1954
tp1955
a(L159211233L
L4171435875L
(lp1956
(lp1957
Vbootloader_util_regions_overlap
p1958
atp1959
a(L3369736729L
L581251951L
(lp1960
(lp1961
Vbootloader_util_regions_overlap
p1962
atp1963
a(L3028481L
L0L
(lp1964
(lp1965
tp1966
a(L129067213L
L242900614L
(lp1967
(lp1968
Vbootloader_util_regions_overlap
p1969
atp1970
a(L51970127L
L2534110409L
(lp1971
(lp1972
tp1973
a(L3212477138L
L1443213481L
(lp1974
(lp1975
tp1976
a(L1032381749L
L0L
(lp1977
(lp1978
tp1979
a(L2837304413L
L0L
(lp1980
(lp1981
tp1982
a(L677569396L
L3785322319L
(lp1983
(lp1984
Vverify_load_addresses
p1985
atp1986
a(L1351513776L
L0L
(lp1987
(lp1988
tp1989
a(L956755582L
L0L
(lp1990
(lp1991
tp1992
a(L1550159667L
L1443213481L
(lp1993
(lp1994
tp1995
a(L2297907636L
L2195759072L
(lp1996
(lp1997
tp1998
a(L106L
L0L
(lp1999
(lp2000
tp2001
a(L1378880375L
L2195759072L
(lp2002
(lp2003
tp2004
a(L106L
L0L
(lp2005
(lp2006
tp2007
a(L1933245593L
L581251951L
(lp2008
(lp2009
Vbootloader_util_regions_overlap
p2010
atp2011
a(L3028481L
L0L
(lp2012
(lp2013
tp2014
a(L2219806806L
L581251951L
(lp2015
(lp2016
Vbootloader_util_regions_overlap
p2017
atp2018
a(L3186102034L
L1690040256L
(lp2019
(lp2020
tp2021
a(L1284972329L
L1443213481L
(lp2022
(lp2023
tp2024
a(L3236457224L
L1443213481L
(lp2025
(lp2026
tp2027
a(L2743341656L
L0L
(lp2028
(lp2029
tp2030
a(L182882711L
L0L
(lp2031
(lp2032
tp2033
a(L2268367078L
L2195759072L
(lp2034
(lp2035
tp2036
a(L297163306L
L0L
(lp2037
(lp2038
tp2039
a(L1900059593L
L0L
(lp2040
(lp2041
tp2042
a(L376010266L
L2534110409L
(lp2043
(lp2044
tp2045
a(L1319531632L
L1443213481L
(lp2046
(lp2047
tp2048
a(L3929371936L
L0L
(lp2049
(lp2050
tp2051
a(L147213506L
L1443213481L
(lp2052
(lp2053
tp2054
a(L4072848040L
L0L
(lp2055
(lp2056
tp2057
a(L106L
L0L
(lp2058
(lp2059
tp2060
a(L268651496L
L1443213481L
(lp2061
(lp2062
tp2063
a(L147213506L
L1443213481L
(lp2064
(lp2065
tp2066
a(L3020204L
L0L
(lp2067
(lp2068
tp2069
a(L885671544L
L2275292552L
(lp2070
(lp2071
Vesp_log_early_timestamp
p2072
atp2073
a(L1303560396L
L0L
(lp2074
(lp2075
tp2076
a(L268651496L
L1443213481L
(lp2077
(lp2078
tp2079
a(L1303560427L
L0L
(lp2080
(lp2081
tp2082
atp2083
sI1074246284
(Vrtc_clk_cpu_freq_to_xtal
p2084
(lp2085
(L767415990L
L3785322319L
(lp2086
(lp2087
Vesp_rom_set_cpu_ticks_per_us
p2088
atp2089
a(L94425498L
L3785322319L
(lp2090
(lp2091
Vabort
p2092
atp2093
a(L749912951L
L671729222L
(lp2094
(lp2095
Vrtc_clk_apb_freq_update
p2096
atp2097
a(L2258867230L
L0L
(lp2098
(lp2099
tp2100
a(L1803595874L
L2195759072L
(lp2101
(lp2102
tp2103
atp2104
sI1074245512
(Vrtc_clk_8m_enable
p2105
(lp2106
(L2359152383L
L2195759072L
(lp2107
(lp2108
tp2109
a(L2145669267L
L1443213481L
(lp2110
(lp2111
tp2112
a(L2151320156L
L0L
(lp2113
(lp2114
tp2115
a(L1262936142L
L1443213481L
(lp2116
(lp2117
tp2118
a(L3360570486L
L0L
(lp2119
(lp2120
tp2121
a(L1318267208L
L0L
(lp2122
(lp2123
tp2124
a(L1085208965L
L1443213481L
(lp2125
(lp2126
tp2127
atp2128
sI1074234760
(Vesp_flash_encryption_enabled
p2129
(lp2130
(L376617603L
L3785322319L
(lp2131
(lp2132
Vefuse_hal_flash_encryption_enabled
p2133
atp2134
atp2135
sI1074270104
(Vrtc_clk_xtal_freq_estimate
p2136
(lp2137
(L1823831978L
L1880226080L
(lp2138
(lp2139
Vrtc_clk_8m_enabled
p2140
aVrtc_clk_8md256_enabled
p2141
atp2142
a(L2449794434L
L3785322319L
(lp2143
(lp2144
Vrtc_clk_8m_enable
p2145
atp2146
a(L3726876033L
L2704288053L
(lp2147
(lp2148
Vrtc_clk_cal_ratio
p2149
aV__udivdi3
p2150
atp2151
a(L3934977694L
L0L
(lp2152
(lp2153
tp2154
a(L3955289886L
L0L
(lp2155
(lp2156
tp2157
a(L2553207239L
L3187408090L
(lp2158
(lp2159
Vesp_log_early_timestamp
p2160
atp2161
a(L2307427870L
L0L
(lp2162
(lp2163
tp2164
a(L1281346514L
L3785322319L
(lp2165
(lp2166
Vrtc_clk_8m_enable
p2167
atp2168
a(L3909119106L
L0L
(lp2169
(lp2170
tp2171
a(L2298857999L
L3187408090L
(lp2172
(lp2173
Vesp_log_early_timestamp
p2174
atp2175
a(L3304487880L
L0L
(lp2176
(lp2177
tp2178
a(L1641150486L
L0L
(lp2179
(lp2180
tp2181
a(L2026357443L
L3187408090L
(lp2182
(lp2183
Vesp_log_early_timestamp
p2184
atp2185
atp2186
sI1074234772
(Vbootloader_flash_execute_command_common
p2187
(lp2188
(L1988465817L
L0L
(lp2189
(lp2190
tp2191
a(L2946944720L
L2195759072L
(lp2192
(lp2193
tp2194
a(L2213948952L
L242900614L
(lp2195
(lp2196
V__assert_func
p2197
atp2198
a(L3021749L
L0L
(lp2199
(lp2200
tp2201
a(L1160973241L
L2195759072L
(lp2202
(lp2203
tp2204
a(L2792673601L
L1679261929L
(lp2205
(lp2206
tp2207
a(L3792188146L
L0L
(lp2208
(lp2209
tp2210
a(L4024113366L
L0L
(lp2211
(lp2212
tp2213
a(L3275299125L
L1443213481L
(lp2214
(lp2215
tp2216
a(L2232084959L
L2534110409L
(lp2217
(lp2218
tp2219
a(L1099389923L
L0L
(lp2220
(lp2221
tp2222
a(L857553440L
L2195759072L
(lp2223
(lp2224
tp2225
a(L3877681344L
L0L
(lp2226
(lp2227
tp2228
a(L73134175L
L1443213481L
(lp2229
(lp2230
tp2231
a(L1270255739L
L0L
(lp2232
(lp2233
tp2234
a(L3691039583L
L0L
(lp2235
(lp2236
tp2237
a(L3411317116L
L0L
(lp2238
(lp2239
tp2240
a(L3360570486L
L0L
(lp2241
(lp2242
tp2243
atp2244
sI1074236820
(Vefuse_hal_get_major_chip_version
p2245
(lp2246
(L1572156932L
L2195759072L
(lp2247
(lp2248
tp2249
a(L894792960L
L0L
(lp2250
(lp2251
tp2252
a(L724635033L
L0L
(lp2253
(lp2254
tp2255
a(L3360570486L
L0L
(lp2256
(lp2257
tp2258
atp2259
sI1074238356
(Vbootloader_flash_get_spi_mode
p2260
(lp2261
(L1418320346L
L1443213481L
(lp2262
(lp2263
tp2264
a(L2046153171L
L0L
(lp2265
(lp2266
tp2267
a(L893866618L
L0L
(lp2268
(lp2269
tp2270
a(L894790139L
L0L
(lp2271
(lp2272
tp2273
a(L822032846L
L0L
(lp2274
(lp2275
tp2276
a(L3360570486L
L0L
(lp2277
(lp2278
tp2279
atp2280
sI1074245012
(Vmmu_hal_unmap_all
p2281
(lp2282
(L3970138582L
L1443213481L
(lp2283
(lp2284
tp2285
a(L2010554219L
L0L
(lp2286
(lp2287
tp2288
a(L147213506L
L1443213481L
(lp2289
(lp2290
tp2291
a(L3212334523L
L0L
(lp2292
(lp2293
tp2294
a(L2010554219L
L0L
(lp2295
(lp2296
tp2297
a(L3360570486L
L0L
(lp2298
(lp2299
tp2300
atp2301
sI1074268572
(Vbootloader_common_vddsdio_configure
p2302
(lp2303
(L1829974089L
L3785322319L
(lp2304
(lp2305
Vrtc_vddsdio_get_config
p2306
atp2307
a(L351649043L
L3833084538L
(lp2308
(lp2309
Vrtc_vddsdio_set_config
p2310
atp2311
a(L3360570486L
L0L
(lp2312
(lp2313
tp2314
atp2315
sI1074270876
(Vrtc_vddsdio_set_config
p2316
(lp2317
(L3557742407L
L1443213481L
(lp2318
(lp2319
tp2320
atp2321
sI1074244496
(Vwdt_hal_config_stage
p2322
(lp2323
(L331558507L
L0L
(lp2324
(lp2325
tp2326
a(L4279082939L
L0L
(lp2327
(lp2328
tp2329
a(L93674324L
L0L
(lp2330
(lp2331
tp2332
a(L2902417580L
L0L
(lp2333
(lp2334
tp2335
a(L1506709436L
L1443213481L
(lp2336
(lp2337
tp2338
a(L3020187L
L0L
(lp2339
(lp2340
tp2341
a(L94425498L
L3785322319L
(lp2342
(lp2343
Vabort
p2344
atp2345
a(L1999536000L
L1443213481L
(lp2346
(lp2347
tp2348
a(L3360570486L
L0L
(lp2349
(lp2350
tp2351
a(L2402105077L
L1443213481L
(lp2352
(lp2353
tp2354
a(L3297501927L
L1443213481L
(lp2355
(lp2356
tp2357
a(L4278159418L
L0L
(lp2358
(lp2359
tp2360
a(L93674324L
L0L
(lp2361
(lp2362
tp2363
a(L3020204L
L0L
(lp2364
(lp2365
tp2366
a(L2956541743L
L1443213481L
(lp2367
(lp2368
tp2369
a(L3020187L
L0L
(lp2370
(lp2371
tp2372
a(L106L
L0L
(lp2373
(lp2374
tp2375
a(L1473987957L
L1443213481L
(lp2376
(lp2377
tp2378
a(L927955509L
L1443213481L
(lp2379
(lp2380
tp2381
a(L3740367810L
L1443213481L
(lp2382
(lp2383
tp2384
atp2385
sI1074241168
(Vbootloader_console_deinit
p2386
(lp2387
(L1858531217L
L1443213481L
(lp2388
(lp2389
tp2390
atp2391
sI1074239120
(Vcache_ll_l1_enable_bus
p2392
(lp2393
(L318252209L
L1443213481L
(lp2394
(lp2395
tp2396
atp2397
sI1074237072
(Vupdate_rtc_retain_mem_crc
p2398
(lp2399
(L1614145834L
L2195759072L
(lp2400
(lp2401
tp2402
atp2403
sI1074241432
(Vprocess_image_header
p2404
(lp2405
(L3301900732L
L2218577417L
(lp2406
(lp2407
Vmemset
p2408
aVbootloader_flash_read
p2409
atp2410
a(L3020204L
L0L
(lp2411
(lp2412
tp2413
a(L4205021202L
L0L
(lp2414
(lp2415
tp2416
a(L321261932L
L0L
(lp2417
(lp2418
tp2419
a(L1161397362L
L3785322319L
(lp2420
(lp2421
Vbootloader_sha256_start
p2422
atp2423
a(L2062774299L
L3785322319L
(lp2424
(lp2425
Vbootloader_sha256_data
p2426
atp2427
a(L1291118193L
L0L
(lp2428
(lp2429
tp2430
a(L3028481L
L0L
(lp2431
(lp2432
tp2433
a(L559062533L
L3187408090L
(lp2434
(lp2435
Vesp_log_early_timestamp
p2436
atp2437
a(L147213506L
L1443213481L
(lp2438
(lp2439
tp2440
a(L2983970029L
L0L
(lp2441
(lp2442
tp2443
a(L4235213884L
L3785322319L
(lp2444
(lp2445
Vbootloader_common_check_chip_validity
p2446
atp2447
a(L4144303915L
L0L
(lp2448
(lp2449
tp2450
a(L3028481L
L0L
(lp2451
(lp2452
tp2453
a(L3714328738L
L3187408090L
(lp2454
(lp2455
Vesp_log_early_timestamp
p2456
atp2457
a(L2852701393L
L0L
(lp2458
(lp2459
tp2460
a(L2122516551L
L0L
(lp2461
(lp2462
tp2463
a(L3064492592L
L0L
(lp2464
(lp2465
tp2466
atp2467
sI1074247588
(Vrtc_clk_cal_ratio
p2468
(lp2469
(L3870710856L
L195123093L
(lp2470
(lp2471
Vrtc_clk_cal_internal
p2472
aV__udivdi3
p2473
atp2474
atp2475
sI1074269356
(Vbootloader_flash_update_id
p2476
(lp2477
(L296988142L
L3833084538L
(lp2478
(lp2479
Vbootloader_read_flash_id
p2480
atp2481
atp2482
sI1074241184
(V__assert_func
p2483
(lp2484
(L3115292802L
L2195759072L
(lp2485
(lp2486
tp2487
a(L106L
L0L
(lp2488
(lp2489
tp2490
atp2491
sI1074235296
(Vbootloader_flash_unlock
p2492
(lp2493
(L1368360454L
L242900614L
(lp2494
(lp2495
Vesp_rom_spiflash_wait_idle
p2496
atp2497
a(L1574074940L
L0L
(lp2498
(lp2499
tp2500
a(L1667462067L
L3785322319L
(lp2501
(lp2502
Vbootloader_execute_flash_command
p2503
atp2504
a(L106L
L0L
(lp2505
(lp2506
tp2507
a(L1013678540L
L0L
(lp2508
(lp2509
tp2510
a(L2529045083L
L0L
(lp2511
(lp2512
tp2513
a(L990750093L
L1832448559L
(lp2514
(lp2515
Vesp_rom_spiflash_wait_idle
p2516
aVbootloader_execute_flash_command
p2517
aVbootloader_execute_flash_command
p2518
atp2519
a(L993671302L
L1832448559L
(lp2520
(lp2521
Vesp_rom_spiflash_wait_idle
p2522
aVbootloader_execute_flash_command
p2523
aVbootloader_execute_flash_command
p2524
atp2525
a(L1209048744L
L1880226080L
(lp2526
(lp2527
Vesp_rom_spiflash_wait_idle
p2528
aVbootloader_execute_flash_command
p2529
atp2530
a(L3162775668L
L0L
(lp2531
(lp2532
tp2533
a(L2435612105L
L0L
(lp2534
(lp2535
tp2536
a(L3664359624L
L0L
(lp2537
(lp2538
tp2539
a(L2074930120L
L1880226080L
(lp2540
(lp2541
Vbootloader_execute_flash_command
p2542
aVbootloader_execute_flash_command
p2543
atp2544
a(L2125014318L
L0L
(lp2545
(lp2546
tp2547
a(L568821667L
L0L
(lp2548
(lp2549
tp2550
a(L1711531685L
L1880226080L
(lp2551
(lp2552
Vbootloader_execute_flash_command
p2553
aVbootloader_execute_flash_command
p2554
atp2555
a(L3658700047L
L0L
(lp2556
(lp2557
tp2558
a(L3269997774L
L0L
(lp2559
(lp2560
tp2561
a(L106L
L0L
(lp2562
(lp2563
tp2564
a(L2993202392L
L0L
(lp2565
(lp2566
tp2567
atp2568
sI1074236576
(Vesp_rom_set_cpu_ticks_per_us
p2569
(lp2570
(L396058732L
L2195759072L
(lp2571
(lp2572
tp2573
atp2574
sI1074268064
(Vbootloader_init
p2575
(lp2576
(L2778985116L
L362179215L
(lp2577
(lp2578
Vbootloader_init_mem
p2579
atp2580
a(L2588916198L
L2195759072L
(lp2581
(lp2582
tp2583
a(L2569579240L
L242900614L
(lp2584
(lp2585
V__assert_func
p2586
atp2587
a(L2041988382L
L2534110409L
(lp2588
(lp2589
tp2590
a(L2946990947L
L2195759072L
(lp2591
(lp2592
tp2593
a(L3813782018L
L0L
(lp2594
(lp2595
tp2596
a(L2946991009L
L2195759072L
(lp2597
(lp2598
tp2599
a(L3027019L
L0L
(lp2600
(lp2601
tp2602
a(L2946991040L
L2195759072L
(lp2603
(lp2604
tp2605
a(L3436439188L
L1832448559L
(lp2606
(lp2607
Vbootloader_clear_bss_section
p2608
aVbootloader_common_vddsdio_configure
p2609
aVbootloader_clock_get_rated_freq_mhz
p2610
atp2611
a(L106L
L0L
(lp2612
(lp2613
tp2614
a(L788547690L
L2769615034L
(lp2615
(lp2616
Vbootloader_clock_configure
p2617
aVbootloader_console_init
p2618
aVbootloader_print_banner
p2619
aVbootloader_flash_update_id
p2620
aVbootloader_flash_xmc_startup
p2621
atp2622
a(L3014296803L
L3187408090L
(lp2623
(lp2624
Vesp_log_early_timestamp
p2625
atp2626
a(L3165444564L
L3187408090L
(lp2627
(lp2628
Vesp_log_early_timestamp
p2629
atp2630
a(L3360570486L
L0L
(lp2631
(lp2632
tp2633
a(L2444883382L
L3785322319L
(lp2634
(lp2635
Vbootloader_read_bootloader_header
p2636
atp2637
a(L2444883382L
L3785322319L
(lp2638
(lp2639
Vbootloader_check_bootloader_validity
p2640
atp2641
a(L2444883382L
L3785322319L
(lp2642
(lp2643
Vbootloader_init_spi_flash
p2644
atp2645
a(L1947007263L
L2195759072L
(lp2646
(lp2647
tp2648
a(L254817508L
L0L
(lp2649
(lp2650
tp2651
a(L93892250L
L0L
(lp2652
(lp2653
tp2654
a(L2915015718L
L0L
(lp2655
(lp2656
tp2657
a(L1460895057L
L2218577417L
(lp2658
(lp2659
Vbootloader_config_wdt
p2660
aVbootloader_enable_random
p2661
atp2662
a(L1895147938L
L0L
(lp2663
(lp2664
tp2665
a(L2680457259L
L0L
(lp2666
(lp2667
tp2668
a(L3027019L
L0L
(lp2669
(lp2670
tp2671
a(L97315L
L0L
(lp2672
(lp2673
tp2674
a(L3014296803L
L3187408090L
(lp2675
(lp2676
Vesp_log_early_timestamp
p2677
atp2678
a(L1766563386L
L3187408090L
(lp2679
(lp2680
Vesp_log_early_timestamp
p2681
atp2682
a(L3164960223L
L0L
(lp2683
(lp2684
tp2685
a(L1895147938L
L0L
(lp2686
(lp2687
tp2688
a(L156585483L
L1880226080L
(lp2689
(lp2690
Vwdt_reset_info_dump
p2691
aVwdt_reset_info_dump
p2692
atp2693
atp2694
sI1074237868
(Vbootloader_munmap
p2695
(lp2696
(L4096859803L
L2195759072L
(lp2697
(lp2698
tp2699
a(L4150885370L
L2624587680L
(lp2700
(lp2701
tp2702
a(L3360570486L
L0L
(lp2703
(lp2704
tp2705
atp2706
sI1074245804
(Vrtc_clk_slow_src_get
p2707
(lp2708
(L1566794270L
L1443213481L
(lp2709
(lp2710
tp2711
a(L3020187L
L0L
(lp2712
(lp2713
tp2714
a(L2902417580L
L0L
(lp2715
(lp2716
tp2717
a(L2258688485L
L0L
(lp2718
(lp2719
tp2720
a(L3360570486L
L0L
(lp2721
(lp2722
tp2723
atp2724
sI1074237096
(Vbootloader_common_ota_select_crc
p2725
(lp2726
(L2925798959L
L1443213481L
(lp2727
(lp2728
tp2729
atp2730
sI1074247080
(Vrtc_clk_apb_freq_get
p2731
(lp2732
(L189810653L
L1679261929L
(lp2733
(lp2734
tp2735
atp2736
sI1074268860
(Vbootloader_init_mem
p2737
(lp2738
(L1287383080L
L3785322319L
(lp2739
(lp2740
Vesp_cpu_configure_region_protection
p2741
atp2742
atp2743
sI1074269372
(Vbootloader_init_spi_flash
p2744
(lp2745
(L1876290435L
L1994585993L
(lp2746
(lp2747
Vbootloader_flash_gpio_config
p2748
aVbootloader_flash_dummy_config
p2749
aVbootloader_flash_cs_timing_config
p2750
aVbootloader_flash_unlock
p2751
atp2752
a(L499308289L
L1443213481L
(lp2753
(lp2754
tp2755
a(L1872507246L
L1443213481L
(lp2756
(lp2757
tp2758
a(L147213506L
L1443213481L
(lp2759
(lp2760
tp2761
a(L83726857L
L2426646996L
(lp2762
(lp2763
Vesp_log_early_timestamp
p2764
aVbootloader_flash_get_spi_mode
p2765
atp2766
a(L93674324L
L0L
(lp2767
(lp2768
tp2769
a(L4183135214L
L1443213481L
(lp2770
(lp2771
tp2772
a(L147213506L
L1443213481L
(lp2773
(lp2774
tp2775
a(L3875746660L
L362179215L
(lp2776
(lp2777
Vesp_log_early_timestamp
p2778
atp2779
a(L93674324L
L0L
(lp2780
(lp2781
tp2782
a(L4183135214L
L1443213481L
(lp2783
(lp2784
tp2785
a(L1872507229L
L1443213481L
(lp2786
(lp2787
tp2788
a(L268651496L
L1443213481L
(lp2789
(lp2790
tp2791
a(L1872507229L
L1443213481L
(lp2792
(lp2793
tp2794
a(L1872507229L
L1443213481L
(lp2795
(lp2796
tp2797
a(L268651496L
L1443213481L
(lp2798
(lp2799
tp2800
a(L1872515506L
L1443213481L
(lp2801
(lp2802
tp2803
a(L1005860105L
L3187408090L
(lp2804
(lp2805
Vesp_log_early_timestamp
p2806
atp2807
a(L93674324L
L0L
(lp2808
(lp2809
tp2810
a(L3422553167L
L0L
(lp2811
(lp2812
tp2813
a(L1707909459L
L0L
(lp2814
(lp2815
tp2816
a(L4101522284L
L0L
(lp2817
(lp2818
tp2819
a(L3944678822L
L2082837423L
(lp2820
(lp2821
Vbootloader_enable_wp
p2822
atp2823
a(L3907331784L
L0L
(lp2824
(lp2825
tp2826
atp2827
sI1074236592
(Vesp_rom_uart_tx_wait_idle
p2828
(lp2829
(L3110839460L
L2534110409L
(lp2830
(lp2831
tp2832
a(L1301079727L
L0L
(lp2833
(lp2834
tp2835
a(L597952197L
L0L
(lp2836
(lp2837
tp2838
a(L1971823332L
L0L
(lp2839
(lp2840
tp2841
a(L3055926844L
L0L
(lp2842
(lp2843
tp2844
a(L3360570486L
L0L
(lp2845
(lp2846
tp2847
a(L3694491048L
L0L
(lp2848
(lp2849
tp2850
a(L106L
L0L
(lp2851
(lp2852
tp2853
atp2854
sI1074242236
(Vshould_load
p2855
(lp2856
(L4190720747L
L2534110409L
(lp2857
(lp2858
tp2859
a(L1182990556L
L0L
(lp2860
(lp2861
tp2862
a(L1744532171L
L1443213481L
(lp2863
(lp2864
tp2865
a(L2306467100L
L0L
(lp2866
(lp2867
tp2868
a(L4034276159L
L1443213481L
(lp2869
(lp2870
tp2871
a(L2258897019L
L0L
(lp2872
(lp2873
tp2874
a(L3781799363L
L0L
(lp2875
(lp2876
tp2877
a(L3028464L
L0L
(lp2878
(lp2879
tp2880
a(L166133047L
L2195759072L
(lp2881
(lp2882
tp2883
a(L4277114872L
L0L
(lp2884
(lp2885
tp2886
a(L2824381917L
L0L
(lp2887
(lp2888
tp2889
a(L1243412227L
L0L
(lp2890
(lp2891
tp2892
a(L2011157548L
L0L
(lp2893
(lp2894
tp2895
a(L3126521138L
L0L
(lp2896
(lp2897
tp2898
a(L1305407438L
L0L
(lp2899
(lp2900
tp2901
a(L1305407469L
L0L
(lp2902
(lp2903
tp2904
atp2905
sI1074237628
(Vspi_to_esp_err
p2906
(lp2907
(L2749733621L
L1443213481L
(lp2908
(lp2909
tp2910
a(L1872507229L
L1443213481L
(lp2911
(lp2912
tp2913
a(L3952441574L
L0L
(lp2914
(lp2915
tp2916
a(L3126521138L
L0L
(lp2917
(lp2918
tp2919
atp2920
sI1074237116
(Vbootloader_common_ota_select_valid
p2921
(lp2922
(L1563399710L
L3785322319L
(lp2923
(lp2924
Vbootloader_common_ota_select_invalid
p2925
atp2926
a(L3814720849L
L3785322319L
(lp2927
(lp2928
Vbootloader_common_ota_select_crc
p2929
atp2930
a(L3360570486L
L0L
(lp2931
(lp2932
tp2933
atp2934
sI1074241208
(Vabort
p2935
(lp2936
(L2564459292L
L1690040256L
(lp2937
(lp2938
tp2939
a(L409471316L
L0L
(lp2940
(lp2941
tp2942
a(L106L
L0L
(lp2943
(lp2944
tp2945
atp2946
sI1074238904
(Vcache_ll_l1_get_bus
p2947
(lp2948
(L2749735183L
L1443213481L
(lp2949
(lp2950
tp2951
a(L94425498L
L3785322319L
(lp2952
(lp2953
Vabort
p2954
atp2955
a(L1872514061L
L1443213481L
(lp2956
(lp2957
tp2958
a(L3824526338L
L1443213481L
(lp2959
(lp2960
tp2961
a(L892952750L
L0L
(lp2962
(lp2963
tp2964
a(L1182811810L
L0L
(lp2965
(lp2966
tp2967
a(L1101742417L
L0L
(lp2968
(lp2969
tp2970
a(L1100767927L
L0L
(lp2971
(lp2972
tp2973
a(L3360570486L
L0L
(lp2974
(lp2975
tp2976
a(L1872508791L
L1443213481L
(lp2977
(lp2978
tp2979
a(L2882938163L
L0L
(lp2980
(lp2981
tp2982
a(L2927201858L
L0L
(lp2983
(lp2984
tp2985
a(L2258718273L
L0L
(lp2986
(lp2987
tp2988
a(L2580713941L
L0L
(lp2989
(lp2990
tp2991
a(L1872508791L
L1443213481L
(lp2992
(lp2993
tp2994
a(L1872514061L
L1443213481L
(lp2995
(lp2996
tp2997
a(L1641149277L
L0L
(lp2998
(lp2999
tp3000
a(L1872508791L
L1443213481L
(lp3001
(lp3002
tp3003
a(L3027019L
L0L
(lp3004
(lp3005
tp3006
a(L1299866560L
L0L
(lp3007
(lp3008
tp3009
a(L1299866436L
L0L
(lp3010
(lp3011
tp3012
atp3013
sI1074246072
(Vrtc_clk_cpu_freq_get_config
p3014
(lp3015
(L4245581454L
L1443213481L
(lp3016
(lp3017
tp3018
a(L3020187L
L0L
(lp3019
(lp3020
tp3021
a(L3020187L
L0L
(lp3022
(lp3023
tp3024
a(L2734221335L
L242900614L
(lp3025
(lp3026
Vrtc_clk_xtal_freq_get
p3027
atp3028
a(L3789795478L
L0L
(lp3029
(lp3030
tp3031
a(L672805395L
L2704288053L
(lp3032
(lp3033
Vesp_log_early_timestamp
p3034
aVabort
p3035
atp3036
a(L3849169076L
L1443213481L
(lp3037
(lp3038
tp3039
a(L3020187L
L0L
(lp3040
(lp3041
tp3042
a(L3028481L
L0L
(lp3043
(lp3044
tp3045
a(L38508693L
L0L
(lp3046
(lp3047
tp3048
a(L187152368L
L0L
(lp3049
(lp3050
tp3051
a(L1161083655L
L0L
(lp3052
(lp3053
tp3054
a(L1395485899L
L0L
(lp3055
(lp3056
tp3057
a(L2070600034L
L0L
(lp3058
(lp3059
tp3060
atp3061
sI1074239172
(Vload_image
p3062
(lp3063
(L3963348381L
L473788538L
(lp3064
(lp3065
Vesp_log_early_timestamp
p3066
aVbootloader_random_disable
p3067
aVbootloader_ana_clock_glitch_reset_config
p3068
atp3069
a(L2261049225L
L0L
(lp3070
(lp3071
tp3072
a(L106L
L0L
(lp3073
(lp3074
tp3075
a(L4185838750L
L1624138773L
(lp3076
(lp3077
Vmmu_hal_unmap_all
p3078
aVcache_ll_l1_get_bus
p3079
aVcache_ll_l1_enable_bus
p3080
aVcache_ll_l1_get_bus
p3081
aVcache_ll_l1_enable_bus
p3082
aVcache_ll_l1_get_bus
p3083
aVcache_ll_l1_enable_bus
p3084
aVcache_ll_l1_get_bus
p3085
aVcache_ll_l1_enable_bus
p3086
aVbootloader_console_deinit
p3087
atp3088
a(L2843581588L
L1443213481L
(lp3089
(lp3090
tp3091
a(L2902417580L
L0L
(lp3092
(lp3093
tp3094
a(L3421811081L
L362179215L
(lp3095
(lp3096
Vesp_log_early_timestamp
p3097
atp3098
a(L2552261596L
L0L
(lp3099
(lp3100
tp3101
a(L670464924L
L2195759072L
(lp3102
(lp3103
tp3104
a(L3020204L
L0L
(lp3105
(lp3106
tp3107
a(L3421811081L
L362179215L
(lp3108
(lp3109
Vesp_log_early_timestamp
p3110
atp3111
a(L3291469664L
L0L
(lp3112
(lp3113
tp3114
a(L2591655545L
L0L
(lp3115
(lp3116
tp3117
atp3118
sI1074238404
(Vbootloader_mmap_get_free_pages
p3119
(lp3120
(L1496516875L
L0L
(lp3121
(lp3122
tp3123
atp3124
sI1074245060
(Vefuse_hal_get_rated_freq_mhz
p3125
(lp3126
(L1158870592L
L1443213481L
(lp3127
(lp3128
tp3129
a(L338960367L
L0L
(lp3130
(lp3131
tp3132
a(L3360570486L
L0L
(lp3133
(lp3134
tp3135
atp3136
sI1074247620
(Vrtc_clk_wait_for_slow_cycle
p3137
(lp3138
(L2844697221L
L2624587680L
(lp3139
(lp3140
tp3141
a(L287687718L
L0L
(lp3142
(lp3143
tp3144
a(L3360570486L
L0L
(lp3145
(lp3146
tp3147
a(L3843203427L
L1443213481L
(lp3148
(lp3149
tp3150
a(L1300789833L
L0L
(lp3151
(lp3152
tp3153
a(L1259765481L
L0L
(lp3154
(lp3155
tp3156
a(L17340776L
L1443213481L
(lp3157
(lp3158
tp3159
a(L329680227L
L3187408090L
(lp3160
(lp3161
Vesp_log_early_timestamp
p3162
atp3163
atp3164
sI1074267840
(Vwdt_reset_info_dump
p3165
(lp3166
(L4037458708L
L0L
(lp3167
(lp3168
tp3169
a(L2865144428L
L4200222560L
(lp3170
(lp3171
tp3172
a(L217258670L
L0L
(lp3173
(lp3174
tp3175
a(L1103285333L
L0L
(lp3176
(lp3177
tp3178
a(L3750088731L
L2147981551L
(lp3179
(lp3180
Vesp_log_early_timestamp
p3181
atp3182
a(L3245125974L
L1443213481L
(lp3183
(lp3184
tp3185
a(L2920131454L
L4200222560L
(lp3186
(lp3187
tp3188
a(L3355528239L
L2147981551L
(lp3189
(lp3190
Vesp_log_early_timestamp
p3191
atp3192
atp3193
sI1074244812
(Vwdt_hal_write_protect_disable
p3194
(lp3195
(L3085072089L
L1443213481L
(lp3196
(lp3197
tp3198
a(L4195472003L
L0L
(lp3199
(lp3200
tp3201
a(L3360570486L
L0L
(lp3202
(lp3203
tp3204
a(L1210571996L
L0L
(lp3205
(lp3206
tp3207
atp3208
sI1074240972
(Vbootloader_sha256_finish
p3209
(lp3210
(L4066096136L
L0L
(lp3211
(lp3212
tp3213
a(L1697654722L
L2195759072L
(lp3214
(lp3215
tp3216
a(L2213948952L
L242900614L
(lp3217
(lp3218
V__assert_func
p3219
atp3220
a(L3020204L
L0L
(lp3221
(lp3222
tp3223
a(L2888288470L
L2534110409L
(lp3224
(lp3225
tp3226
a(L2534656226L
L0L
(lp3227
(lp3228
tp3229
a(L2740629735L
L4171435875L
(lp3230
(lp3231
Vbootloader_sha256_data
p3232
atp3233
a(L2946948570L
L2195759072L
(lp3234
(lp3235
tp3236
a(L354914383L
L2790500905L
(lp3237
(lp3238
V__bswapsi2
p3239
aVbootloader_sha256_data
p3240
atp3241
a(L2946948756L
L2195759072L
(lp3242
(lp3243
tp3244
a(L657425439L
L0L
(lp3245
(lp3246
tp3247
a(L4173600236L
L1443213481L
(lp3248
(lp3249
tp3250
a(L657425439L
L0L
(lp3251
(lp3252
tp3253
a(L2046284480L
L2195759072L
(lp3254
(lp3255
tp3256
a(L3616504601L
L4171435875L
(lp3257
(lp3258
V__bswapsi2
p3259
atp3260
a(L3347778L
L0L
(lp3261
(lp3262
tp3263
a(L3360570486L
L0L
(lp3264
(lp3265
tp3266
atp3267
sI1074238412
(Vbootloader_fill_random
p3268
(lp3269
(L3377511333L
L2195759072L
(lp3270
(lp3271
tp3272
a(L4033043682L
L4032149094L
(lp3273
(lp3274
V__assert_func
p3275
atp3276
a(L1882547218L
L0L
(lp3277
(lp3278
tp3279
a(L2910371777L
L0L
(lp3280
(lp3281
tp3282
a(L95634693L
L0L
(lp3283
(lp3284
tp3285
a(L3630908706L
L0L
(lp3286
(lp3287
tp3288
a(L160162640L
L0L
(lp3289
(lp3290
tp3291
a(L97689L
L0L
(lp3292
(lp3293
tp3294
a(L3360570486L
L0L
(lp3295
(lp3296
tp3297
atp3298
sI1074235596
(Vbootloader_flash_read_sfdp
p3299
(lp3300
(L711701400L
L0L
(lp3301
(lp3302
tp3303
a(L17919673L
L4032149094L
(lp3304
(lp3305
V__assert_func
p3306
atp3307
a(L3704332455L
L3785322319L
(lp3308
(lp3309
Vbootloader_flash_execute_command_common
p3310
atp3311
atp3312
sI1074247884
(Vesp_rom_spiflash_wait_idle
p3313
(lp3314
(L1698121947L
L1443213481L
(lp3315
(lp3316
tp3317
a(L2023766174L
L0L
(lp3318
(lp3319
tp3320
a(L147213506L
L1443213481L
(lp3321
(lp3322
tp3323
a(L3086959262L
L0L
(lp3324
(lp3325
tp3326
a(L4161019926L
L3785322319L
(lp3327
(lp3328
Vesp_rom_spiflash_read_status
p3329
atp3330
atp3331
sI1074268868
(Vbootloader_random_enable
p3332
(lp3333
(L2397175084L
L664430240L
(lp3334
(lp3335
tp3336
atp3337
sI1074235848
(Vbootloader_flash_cs_timing_config
p3338
(lp3339
(L1222249594L
L1690040256L
(lp3340
(lp3341
tp3342
atp3343
sI1074245832
(Vrtc_clk_slow_freq_get_hz
p3344
(lp3345
(L1826267122L
L3785322319L
(lp3346
(lp3347
Vrtc_clk_slow_src_get
p3348
atp3349
a(L1872507229L
L1443213481L
(lp3350
(lp3351
tp3352
a(L2221201615L
L1443213481L
(lp3353
(lp3354
tp3355
a(L3360570486L
L0L
(lp3356
(lp3357
tp3358
atp3359
sI1074240468
(Vbootloader_reset
p3360
(lp3361
(L479276581L
L2147981551L
(lp3362
(lp3363
Vbootloader_console_deinit
p3364
atp3365
a(L106L
L0L
(lp3366
(lp3367
tp3368
atp3369
sI1074247124
(Vrtc_clk_cal_internal
p3370
(lp3371
(L4103044880L
L1443213481L
(lp3372
(lp3373
tp3374
a(L3906046821L
L4032149094L
(lp3375
(lp3376
V__assert_func
p3377
atp3378
a(L3821006588L
L1443213481L
(lp3379
(lp3380
tp3381
a(L1673513644L
L0L
(lp3382
(lp3383
tp3384
a(L2719210992L
L4021370767L
(lp3385
(lp3386
Vrtc_clk_slow_src_get
p3387
atp3388
a(L3008910671L
L0L
(lp3389
(lp3390
tp3391
a(L97689L
L0L
(lp3392
(lp3393
tp3394
a(L1872507229L
L1443213481L
(lp3395
(lp3396
tp3397
a(L3028464L
L0L
(lp3398
(lp3399
tp3400
a(L3028481L
L0L
(lp3401
(lp3402
tp3403
a(L147213506L
L1443213481L
(lp3404
(lp3405
tp3406
a(L3455571058L
L1374507264L
(lp3407
(lp3408
V__udivdi3
p3409
aVrtc_clk_xtal_freq_get
p3410
atp3411
a(L2780079961L
L0L
(lp3412
(lp3413
tp3414
a(L4208562267L
L1443213481L
(lp3415
(lp3416
tp3417
a(L4114459891L
L3187408090L
(lp3418
(lp3419
Vesp_log_early_timestamp
p3420
atp3421
a(L2258688482L
L0L
(lp3422
(lp3423
tp3424
a(L3360570486L
L0L
(lp3425
(lp3426
tp3427
a(L3553505594L
L0L
(lp3428
(lp3429
tp3430
a(L403361192L
L0L
(lp3431
(lp3432
tp3433
a(L3243404432L
L3785322319L
(lp3434
(lp3435
Vrtc_clk_8m_enable
p3436
atp3437
a(L390546255L
L2195759072L
(lp3438
(lp3439
tp3440
a(L3586367509L
L1443213481L
(lp3441
(lp3442
tp3443
a(L2910371777L
L0L
(lp3444
(lp3445
tp3446
a(L2902417580L
L0L
(lp3447
(lp3448
tp3449
a(L3082259486L
L1443213481L
(lp3450
(lp3451
tp3452
a(L3020204L
L0L
(lp3453
(lp3454
tp3455
a(L603598685L
L1443213481L
(lp3456
(lp3457
tp3458
a(L3429540926L
L0L
(lp3459
(lp3460
tp3461
a(L3028464L
L0L
(lp3462
(lp3463
tp3464
a(L615477255L
L242900614L
(lp3465
(lp3466
Vrtc_clk_8m_enable
p3467
atp3468
atp3469
sI1074269660
(Vbootloader_clear_bss_section
p3470
(lp3471
(L2193193874L
L4032149094L
(lp3472
(lp3473
Vmemset
p3474
atp3475
atp3476
sI1074237392
(Vbootloader_common_get_active_otadata
p3477
(lp3478
(L3317503532L
L0L
(lp3479
(lp3480
tp3481
a(L2503049265L
L1832448559L
(lp3482
(lp3483
Vbootloader_common_ota_select_valid
p3484
aVbootloader_common_ota_select_valid
p3485
aVbootloader_common_select_otadata
p3486
atp3487
a(L735741265L
L0L
(lp3488
(lp3489
tp3490
atp3491
sI1074237660
(Vbootloader_mmap
p3492
(lp3493
(L3007611739L
L2195759072L
(lp3494
(lp3495
tp3496
a(L1328961945L
L2147981551L
(lp3497
(lp3498
Vesp_log_early_timestamp
p3499
atp3500
a(L1596194698L
L1443213481L
(lp3501
(lp3502
tp3503
a(L3729184599L
L0L
(lp3504
(lp3505
tp3506
a(L4163264550L
L3187408090L
(lp3507
(lp3508
Vesp_log_early_timestamp
p3509
atp3510
a(L2258688482L
L0L
(lp3511
(lp3512
tp3513
a(L3360570486L
L0L
(lp3514
(lp3515
tp3516
a(L3419814624L
L1443213481L
(lp3517
(lp3518
tp3519
a(L1441818867L
L1690040256L
(lp3520
(lp3521
tp3522
a(L3433564204L
L362179215L
(lp3523
(lp3524
Vesp_log_early_timestamp
p3525
atp3526
a(L2543114737L
L2147981551L
(lp3527
(lp3528
Vesp_log_early_timestamp
p3529
atp3530
a(L1137490703L
L2195759072L
(lp3531
(lp3532
tp3533
atp3534
sI1074240732
(Vindex_to_partition
p3535
(lp3536
(L4066096119L
L0L
(lp3537
(lp3538
tp3539
a(L1101255660L
L0L
(lp3540
(lp3541
tp3542
a(L1955702725L
L0L
(lp3543
(lp3544
tp3545
a(L3698927993L
L0L
(lp3546
(lp3547
tp3548
a(L2808906342L
L0L
(lp3549
(lp3550
tp3551
a(L4211744375L
L0L
(lp3552
(lp3553
tp3554
a(L3097778015L
L0L
(lp3555
(lp3556
tp3557
a(L1816235430L
L0L
(lp3558
(lp3559
tp3560
a(L2179185678L
L0L
(lp3561
(lp3562
tp3563
a(L3369319173L
L0L
(lp3564
(lp3565
tp3566
atp3567
sI1074268628
(Vbootloader_clock_configure
p3568
(lp3569
(L2559598596L
L1880226080L
(lp3570
(lp3571
Vesp_rom_uart_tx_wait_idle
p3572
aVefuse_hal_chip_revision
p3573
atp3574
a(L1757625900L
L1443213481L
(lp3575
(lp3576
tp3577
a(L741498227L
L1443213481L
(lp3578
(lp3579
tp3580
a(L106L
L0L
(lp3581
(lp3582
tp3583
a(L4228321918L
L1405109379L
(lp3584
(lp3585
Vrtc_clk_slow_src_get
p3586
aVrtc_clk_fast_src_get
p3587
aVrtc_clk_init
p3588
atp3589
a(L2538867838L
L2195759072L
(lp3590
(lp3591
tp3592
a(L1038013235L
L3833084538L
(lp3593
(lp3594
Vrtc_clk_apb_freq_get
p3595
atp3596
a(L106L
L0L
(lp3597
(lp3598
tp3599
a(L106L
L0L
(lp3600
(lp3601
tp3602
atp3603
sI1074236888
(Vefuse_hal_get_minor_chip_version
p3604
(lp3605
(L2292056065L
L1443213481L
(lp3606
(lp3607
tp3608
atp3609
sI1074239704
(Vbootloader_utility_load_partition_table
p3610
(lp3611
(L3401680957L
L3833084538L
(lp3612
(lp3613
Vbootloader_mmap
p3614
atp3615
a(L3861134865L
L2147981551L
(lp3616
(lp3617
Vesp_log_early_timestamp
p3618
atp3619
a(L2258688482L
L0L
(lp3620
(lp3621
tp3622
a(L3360570486L
L0L
(lp3623
(lp3624
tp3625
a(L2379286607L
L3785322319L
(lp3626
(lp3627
Vesp_partition_table_verify
p3628
atp3629
a(L2695471221L
L2147981551L
(lp3630
(lp3631
Vesp_log_early_timestamp
p3632
atp3633
a(L2693125842L
L403192672L
(lp3634
(lp3635
Vesp_log_early_timestamp
p3636
aVesp_log_early_timestamp
p3637
atp3638
a(L650140130L
L0L
(lp3639
(lp3640
tp3641
a(L2163909172L
L2801279232L
(lp3642
(lp3643
Vbootloader_munmap
p3644
aVesp_log_early_timestamp
p3645
atp3646
a(L521126897L
L0L
(lp3647
(lp3648
tp3649
a(L3028464L
L0L
(lp3650
(lp3651
tp3652
a(L106L
L0L
(lp3653
(lp3654
tp3655
a(L147213506L
L1443213481L
(lp3656
(lp3657
tp3658
a(L2919580219L
L2147981551L
(lp3659
(lp3660
Vesp_log_early_timestamp
p3661
atp3662
a(L3990577774L
L0L
(lp3663
(lp3664
tp3665
a(L3020187L
L0L
(lp3666
(lp3667
tp3668
a(L3201555411L
L1443213481L
(lp3669
(lp3670
tp3671
a(L1843602828L
L1443213481L
(lp3672
(lp3673
tp3674
a(L326114897L
L1443213481L
(lp3675
(lp3676
tp3677
a(L2487812812L
L1443213481L
(lp3678
(lp3679
tp3680
a(L3478727216L
L1443213481L
(lp3681
(lp3682
tp3683
a(L106L
L0L
(lp3684
(lp3685
tp3686
a(L93674324L
L0L
(lp3687
(lp3688
tp3689
a(L1872515523L
L1443213481L
(lp3690
(lp3691
tp3692
a(L1215408024L
L1443213481L
(lp3693
(lp3694
tp3695
a(L1872515506L
L1443213481L
(lp3696
(lp3697
tp3698
a(L106L
L0L
(lp3699
(lp3700
tp3701
a(L1872515506L
L1443213481L
(lp3702
(lp3703
tp3704
a(L106L
L0L
(lp3705
(lp3706
tp3707
a(L268651496L
L1443213481L
(lp3708
(lp3709
tp3710
atp3711
sI1074245860
(Vrtc_clk_fast_src_set
p3712
(lp3713
(L1089140614L
L1443213481L
(lp3714
(lp3715
tp3716
a(L3020187L
L0L
(lp3717
(lp3718
tp3719
a(L3827921190L
L3785322319L
(lp3720
(lp3721
Vabort
p3722
atp3723
a(L2578095160L
L1443213481L
(lp3724
(lp3725
tp3726
a(L4159388630L
L1443213481L
(lp3727
(lp3728
tp3729
a(L300459962L
L0L
(lp3730
(lp3731
tp3732
atp3733
sI1074238176
(Vbootloader_flash_erase_sector
p3734
(lp3735
(L4129137686L
L1880226080L
(lp3736
(lp3737
Vesp_rom_spiflash_erase_sector
p3738
aVspi_to_esp_err
p3739
atp3740
atp3741
sI1074237920
(Vbootloader_flash_read
p3742
(lp3743
(L3022618172L
L0L
(lp3744
(lp3745
tp3746
a(L2493247481L
L2147981551L
(lp3747
(lp3748
Vesp_log_early_timestamp
p3749
atp3750
a(L852987398L
L1443213481L
(lp3751
(lp3752
tp3753
a(L1351513776L
L0L
(lp3754
(lp3755
tp3756
a(L1486740491L
L0L
(lp3757
(lp3758
tp3759
a(L4276228047L
L2147981551L
(lp3760
(lp3761
Vesp_log_early_timestamp
p3762
atp3763
a(L3283691850L
L0L
(lp3764
(lp3765
tp3766
a(L4276228016L
L2147981551L
(lp3767
(lp3768
Vesp_log_early_timestamp
p3769
atp3770
a(L3020204L
L0L
(lp3771
(lp3772
tp3773
a(L384130671L
L0L
(lp3774
(lp3775
tp3776
a(L97422L
L0L
(lp3777
(lp3778
tp3779
a(L515889772L
L2195759072L
(lp3780
(lp3781
tp3782
a(L3321969934L
L1690040256L
(lp3783
(lp3784
tp3785
a(L279744554L
L4032149094L
(lp3786
(lp3787
V__assert_func
p3788
atp3789
a(L4071371888L
L2534110409L
(lp3790
(lp3791
tp3792
a(L2438181396L
L1443213481L
(lp3793
(lp3794
tp3795
a(L1976506429L
L3635241909L
(lp3796
(lp3797
Vesp_rom_spiflash_read
p3798
aVspi_to_esp_err
p3799
atp3800
atp3801
sI1074237152
(Vbootloader_common_check_chip_validity
p3802
(lp3803
(L2080115690L
L0L
(lp3804
(lp3805
tp3806
a(L3255759481L
L3187408090L
(lp3807
(lp3808
Vesp_log_early_timestamp
p3809
atp3810
a(L1299867982L
L0L
(lp3811
(lp3812
tp3813
a(L3360570486L
L0L
(lp3814
(lp3815
tp3816
a(L521940037L
L3785322319L
(lp3817
(lp3818
Vefuse_hal_chip_revision
p3819
atp3820
a(L332291457L
L1443213481L
(lp3821
(lp3822
tp3823
a(L780168284L
L362179215L
(lp3824
(lp3825
Vesp_log_early_timestamp
p3826
atp3827
a(L3028464L
L0L
(lp3828
(lp3829
tp3830
a(L573448730L
L0L
(lp3831
(lp3832
tp3833
a(L106L
L0L
(lp3834
(lp3835
tp3836
a(L3027019L
L0L
(lp3837
(lp3838
tp3839
a(L106L
L0L
(lp3840
(lp3841
tp3842
a(L3212356251L
L3785322319L
(lp3843
(lp3844
Vefuse_hal_get_disable_wafer_version_major
p3845
atp3846
a(L2465410698L
L362179215L
(lp3847
(lp3848
Vesp_log_early_timestamp
p3849
atp3850
atp3851
sI1074240492
(Vbootloader_utility_load_boot_image
p3852
(lp3853
(L421993435L
L242900614L
(lp3854
(lp3855
Vmemset
p3856
atp3857
a(L2177418995L
L3785322319L
(lp3858
(lp3859
Vtry_load_partition
p3860
atp3861
a(L1305243774L
L3785322319L
(lp3862
(lp3863
Vload_image
p3864
atp3865
a(L4114459891L
L3187408090L
(lp3866
(lp3867
Vesp_log_early_timestamp
p3868
atp3869
a(L3827921190L
L3785322319L
(lp3870
(lp3871
Vbootloader_reset
p3872
atp3873
a(L1953693036L
L3785322319L
(lp3874
(lp3875
Vindex_to_partition
p3876
atp3877
a(L1204373741L
L3785322319L
(lp3878
(lp3879
Vtry_load_partition
p3880
atp3881
a(L1899865696L
L0L
(lp3882
(lp3883
tp3884
a(L2695355117L
L3785322319L
(lp3885
(lp3886
Vset_actual_ota_seq
p3887
atp3888
a(L1868897605L
L3785322319L
(lp3889
(lp3890
Vlog_invalid_app_partition
p3891
atp3892
a(L831650730L
L0L
(lp3893
(lp3894
tp3895
a(L3021737L
L0L
(lp3896
(lp3897
tp3898
a(L695456438L
L0L
(lp3899
(lp3900
tp3901
a(L315114854L
L3833084538L
(lp3902
(lp3903
Vtry_load_partition
p3904
atp3905
a(L89447667L
L2147981551L
(lp3906
(lp3907
Vesp_log_early_timestamp
p3908
atp3909
a(L2347390157L
L3785322319L
(lp3910
(lp3911
Vindex_to_partition
p3912
atp3913
a(L1204373741L
L3785322319L
(lp3914
(lp3915
Vtry_load_partition
p3916
atp3917
a(L3061261803L
L0L
(lp3918
(lp3919
tp3920
a(L3582858798L
L3785322319L
(lp3921
(lp3922
Vlog_invalid_app_partition
p3923
atp3924
a(L3581752791L
L2704288053L
(lp3925
(lp3926
Vesp_log_early_timestamp
p3927
aVmemset
p3928
atp3929
atp3930
sI1074244844
(Vwdt_hal_set_flashboot_en
p3931
(lp3932
(L2375320464L
L0L
(lp3933
(lp3934
tp3935
a(L3915867581L
L0L
(lp3936
(lp3937
tp3938
a(L3360570486L
L0L
(lp3939
(lp3940
tp3941
a(L3823116953L
L1443213481L
(lp3942
(lp3943
tp3944
atp3945
sI1074269924
(Vbootloader_enable_random
p3946
(lp3947
(L859804465L
L2704288053L
(lp3948
(lp3949
Vesp_log_early_timestamp
p3950
aVbootloader_random_enable
p3951
atp3952
atp3953
sI1074270948
(Vmpu_hal_set_region_access
p3954
(lp3955
(L3538356822L
L0L
(lp3956
(lp3957
tp3958
a(L93674324L
L0L
(lp3959
(lp3960
tp3961
a(L2910371777L
L0L
(lp3962
(lp3963
tp3964
a(L3472092938L
L0L
(lp3965
(lp3966
tp3967
a(L3020187L
L0L
(lp3968
(lp3969
tp3970
a(L3360570486L
L0L
(lp3971
(lp3972
tp3973
a(L2258718273L
L0L
(lp3974
(lp3975
tp3976
a(L3446648619L
L0L
(lp3977
(lp3978
tp3979
a(L3739532189L
L0L
(lp3980
(lp3981
tp3982
a(L1300789895L
L0L
(lp3983
(lp3984
tp3985
atp3986
sI1074236904
(Vesp_dport_access_reg_read
p3987
(lp3988
(L1099794772L
L0L
(lp3989
(lp3990
tp3991
atp3992
sI1074241256
(Vbootloader_ana_clock_glitch_reset_config
p3993
(lp3994
(L2100504542L
L0L
(lp3995
(lp3996
tp3997
atp3998
sI1074245096
(Vrtc_clk_32k_enable_common
p3999
(lp4000
(L2821256590L
L2195759072L
(lp4001
(lp4002
tp4003
a(L97422L
L0L
(lp4004
(lp4005
tp4006
a(L2218417248L
L0L
(lp4007
(lp4008
tp4009
a(L339634797L
L1443213481L
(lp4010
(lp4011
tp4012
a(L51458120L
L0L
(lp4013
(lp4014
tp4015
atp4016
sI1074236916
(Vis_xmc_chip_strict
p4017
(lp4018
(L1286841609L
L0L
(lp4019
(lp4020
tp4021
a(L2234016759L
L0L
(lp4022
(lp4023
tp4024
a(L1069027148L
L0L
(lp4025
(lp4026
tp4027
a(L3021749L
L0L
(lp4028
(lp4029
tp4030
a(L1900148749L
L0L
(lp4031
(lp4032
tp4033
a(L1936875721L
L0L
(lp4034
(lp4035
tp4036
a(L3356166509L
L0L
(lp4037
(lp4038
tp4039
a(L1937769451L
L0L
(lp4040
(lp4041
tp4042
a(L2137658907L
L0L
(lp4043
(lp4044
tp4045
a(L4265949734L
L0L
(lp4046
(lp4047
tp4048
a(L3360570486L
L0L
(lp4049
(lp4050
tp4051
atp4052
sI1074238196
(Vbootloader_flash_write
p4053
(lp4054
(L3770380603L
L0L
(lp4055
(lp4056
tp4057
a(L2654201950L
L2147981551L
(lp4058
(lp4059
Vesp_log_early_timestamp
p4060
atp4061
a(L4207910112L
L1443213481L
(lp4062
(lp4063
tp4064
a(L1610445075L
L0L
(lp4065
(lp4066
tp4067
a(L735741265L
L0L
(lp4068
(lp4069
tp4070
a(L3291333414L
L0L
(lp4071
(lp4072
tp4073
a(L416217162L
L2147981551L
(lp4074
(lp4075
Vesp_log_early_timestamp
p4076
atp4077
a(L3283691850L
L0L
(lp4078
(lp4079
tp4080
a(L212182276L
L3187408090L
(lp4081
(lp4082
Vesp_log_early_timestamp
p4083
atp4084
a(L3212356251L
L3785322319L
(lp4085
(lp4086
Vbootloader_flash_unlock
p4087
atp4088
a(L1799218633L
L0L
(lp4089
(lp4090
tp4091
a(L94425498L
L3785322319L
(lp4092
(lp4093
Vesp_rom_spiflash_write_encrypted
p4094
atp4095
a(L2927190544L
L3785322319L
(lp4096
(lp4097
Vspi_to_esp_err
p4098
atp4099
a(L2927190544L
L3785322319L
(lp4100
(lp4101
Vesp_rom_spiflash_write
p4102
atp4103
atp4104
sI1074248180
(Vesp_rom_spiflash_erase_sector
p4105
(lp4106
(L3892694408L
L1679261929L
(lp4107
(lp4108
tp4109
a(L2258688483L
L0L
(lp4110
(lp4111
tp4112
a(L3360570486L
L0L
(lp4113
(lp4114
tp4115
a(L3212356251L
L3785322319L
(lp4116
(lp4117
Vesp_rom_spiflash_enable_write
p4118
atp4119
a(L184152988L
L0L
(lp4120
(lp4121
tp4122
a(L1036552696L
L362179215L
(lp4123
(lp4124
Vesp_rom_spiflash_wait_idle
p4125
atp4126
a(L3333707777L
L0L
(lp4127
(lp4128
tp4129
a(L3582858798L
L3785322319L
(lp4130
(lp4131
Vesp_rom_spiflash_wait_idle
p4132
atp4133
atp4134
sI1074241264
(Vprocess_checksum
p4135
(lp4136
(L166193219L
L242900614L
(lp4137
(lp4138
Vmemset
p4139
atp4140
a(L3028481L
L0L
(lp4141
(lp4142
tp4143
a(L186886970L
L0L
(lp4144
(lp4145
tp4146
a(L2902417580L
L0L
(lp4147
(lp4148
tp4149
a(L3028481L
L0L
(lp4150
(lp4151
tp4152
a(L169792351L
L3187408090L
(lp4153
(lp4154
Vesp_log_early_timestamp
p4155
atp4156
a(L268651496L
L1443213481L
(lp4157
(lp4158
tp4159
a(L3236648107L
L3785322319L
(lp4160
(lp4161
Vbootloader_flash_read
p4162
atp4163
a(L735741265L
L0L
(lp4164
(lp4165
tp4166
a(L3020204L
L0L
(lp4167
(lp4168
tp4169
a(L2480703612L
L3785322319L
(lp4170
(lp4171
Vbootloader_sha256_data
p4172
atp4173
a(L3436105237L
L0L
(lp4174
(lp4175
tp4176
a(L106L
L0L
(lp4177
(lp4178
tp4179
atp4180
sI1074246396
(Vrtc_clk_cpu_freq_set_config
p4181
(lp4182
(L1040494747L
L3833084538L
(lp4183
(lp4184
Vrtc_clk_xtal_freq_get
p4185
atp4186
a(L2308773007L
L0L
(lp4187
(lp4188
tp4189
a(L3253451229L
L1880226080L
(lp4190
(lp4191
Vrtc_clk_cpu_freq_to_xtal
p4192
aVrtc_clk_wait_for_slow_cycle
p4193
atp4194
a(L2243645672L
L0L
(lp4195
(lp4196
tp4197
a(L4002786498L
L0L
(lp4198
(lp4199
tp4200
a(L2736411858L
L3785322319L
(lp4201
(lp4202
Vrtc_clk_cpu_freq_to_xtal
p4203
atp4204
a(L3360570486L
L0L
(lp4205
(lp4206
tp4207
a(L2755207760L
L1832448559L
(lp4208
(lp4209
Vrtc_clk_cpu_freq_to_xtal
p4210
aVrtc_clk_wait_for_slow_cycle
p4211
aVrtc_clk_bbpll_disable
p4212
atp4213
a(L3020187L
L0L
(lp4214
(lp4215
tp4216
a(L106L
L0L
(lp4217
(lp4218
tp4219
a(L2730236852L
L1156451872L
(lp4220
(lp4221
Vrtc_clk_wait_for_slow_cycle
p4222
aVrtc_clk_xtal_freq_get
p4223
atp4224
a(L106L
L0L
(lp4225
(lp4226
tp4227
a(L3776069396L
L1443213481L
(lp4228
(lp4229
tp4230
a(L83268611L
L0L
(lp4231
(lp4232
tp4233
a(L106L
L0L
(lp4234
(lp4235
tp4236
a(L82345090L
L0L
(lp4237
(lp4238
tp4239
a(L106L
L0L
(lp4240
(lp4241
tp4242
a(L2258718273L
L0L
(lp4243
(lp4244
tp4245
a(L3298883534L
L0L
(lp4246
(lp4247
tp4248
a(L3519990574L
L1443213481L
(lp4249
(lp4250
tp4251
a(L2508198718L
L1743007695L
(lp4252
(lp4253
Vrtc_clk_cpu_freq_to_pll_mhz
p4254
atp4255
a(L935233121L
L2534110409L
(lp4256
(lp4257
tp4258
a(L83268344L
L0L
(lp4259
(lp4260
tp4261
a(L82344823L
L0L
(lp4262
(lp4263
tp4264
a(L1569180676L
L0L
(lp4265
(lp4266
tp4267
a(L2258837488L
L0L
(lp4268
(lp4269
tp4270
a(L4233337962L
L1443213481L
(lp4271
(lp4272
tp4273
a(L1482311963L
L0L
(lp4274
(lp4275
tp4276
a(L133411965L
L0L
(lp4277
(lp4278
tp4279
a(L3673491036L
L0L
(lp4280
(lp4281
tp4282
a(L4197990447L
L0L
(lp4283
(lp4284
tp4285
a(L903154985L
L0L
(lp4286
(lp4287
tp4288
a(L3020187L
L0L
(lp4289
(lp4290
tp4291
a(L106L
L0L
(lp4292
(lp4293
tp4294
a(L1317698645L
L93324751L
(lp4295
(lp4296
Vesp_rom_set_cpu_ticks_per_us
p4297
atp4298
atp4299
sI1074247932
(Vesp_rom_spiflash_enable_write
p4300
(lp4301
(L2885777558L
L1303911398L
(lp4302
(lp4303
Vesp_rom_spiflash_wait_idle
p4304
atp4305
a(L3333707777L
L0L
(lp4306
(lp4307
tp4308
a(L2258688484L
L0L
(lp4309
(lp4310
tp4311
a(L99543895L
L0L
(lp4312
(lp4313
tp4314
a(L2993202392L
L0L
(lp4315
(lp4316
tp4317
a(L1265538927L
L242900614L
(lp4318
(lp4319
Vesp_rom_spiflash_read_status
p4320
atp4321
atp4322
sI1074269684
(Vbootloader_read_bootloader_header
p4323
(lp4324
(L2948018849L
L242900614L
(lp4325
(lp4326
Vbootloader_flash_read
p4327
atp4328
a(L804259852L
L3187408090L
(lp4329
(lp4330
Vesp_log_early_timestamp
p4331
atp4332
a(L735741265L
L0L
(lp4333
(lp4334
tp4335
atp4336
sI1074237432
(Vbootloader_common_reset_rtc_retain_mem
p4337
(lp4338
(L2744385852L
L581251951L
(lp4339
(lp4340
Vmemset
p4341
atp4342
atp4343
ssS'functionsdups'
p4344
g11
((lp4345
tp4346
Rp4347
sS'immediatedups'
p4348
g11
((lp4349
tp4350
Rp4351
sS'functiondups'
p4352
g11
((lp4353
tp4354
Rp4355
sS'fuzzy'
p4356
(dp4357
L366261972L
I1074270280
sL4033782891L
I1074244844
sL1651792242L
I1074247932
sL1500945776L
I1074268064
sL800708016L
I1074239704
sL2092869556L
I1074248180
sL2539816556L
I1074236676
sL3032120501L
I1074246072
sL2641888616L
I1074247124
sL1962232032L
I1074245940
sL1348852091L
I1074248568
sL1485246373L
I1074241264
sL1247030641L
I1074268868
sL214341344L
I1074245012
sL3822220021L
I1074237432
sL1729011238L
I1074242236
sL1959102959L
I1074237660
sL2216531249L
I1074245832
sL2849727465L
I1074239172
sL1821770661L
I1074237868
sL332090111L
I1074236592
sL705724709L
I1074239568
sL282843886L
I1074237920
sL3703425408L
I1074245512
sL3530961461L
I1074270724
sL1210592366L
I1074245688
sL209111356L
I1074245860
sL2726707668L
I1074268572
sL2018002450L
I1074235696
sL994994961L
I1074238820
sL1155028103L
I1074270056
sL2806886186L
I1074268628
sL3715950101L
I1074244812
sL3274368577L
I1074239072
sL2452281182L
I1074247620
sL1122585247L
I1074243884
sL3659714901L
I1074241676
sL2752268667L
I1074245060
sL3428612389L
I1074247588
sL2376760616L
I1074243616
sL1898962604L
I1074238904
sL3223682214L
I1074248480
sL2532014945L
I1074237468
sL1772626723L
I1074235848
sL2471313117L
I1074240972
sL381028389L
I1074241184
sL3711025829L
I1074240492
sL3500016395L
I1074242364
sL797548049L
I1074240804
sL3374853808L
I1074269660
sL2835607711L
I1074270020
sL2095240828L
I1074234772
sL2182127758L
I1074270104
sL3221945515L
I1074246212
sL3525303483L
I1074245804
sL4242478965L
I1074238412
sL79921775L
I1074240368
sL579471141L
I1074269924
sL1096063205L
I1074236820
sL2906154889L
I1074247884
sL1065525808L
I1074236916
sL2038713658L
I1074247080
sL2100777096L
I1074267728
sL2688270468L
I1074269728
sL2708185770L
I1074241620
sL3890904617L
I1074246284
sL1605229163L
I1074240068
sL1332800441L
I1074237392
sL3183721996L
I1074235296
sL3558783183L
I1074238196
sL1377360842L
I1074245096
sL3300368739L
I1074267840
sL1161792488L
I1074241432
sL4091350277L
I1074247988
sL2871786995L
I1074269796
sL3578810761L
I1074235596
sL531949167L
I1074237152
sL1060788199L
I1074245980
sL1444874434L
I1074269952
sL2663898648L
I1074269684
sL627477382L
I1074235960
sL814911857L
I1074240824
sL3280013925L
I1074238492
sL1862804207L
I1074244496
sL1815510750L
I1074245232
sL963803290L
I1074246396
sL3420458249L
I1074247788
sL1872673135L
I1074240468
sL1214705044L
I1074236428
sL4155364446L
I1074237116
sL230862646L
I1074237628
sL1564551092L
I1074242148
sL1950296771L
I1074248316
sL1396037064L
I1074245452
sL1014311563L
I1074243104
sL1596982735L
I1074269372
ssb.