ccopy_reg
_reconstructor
p0
(crizzo
RizzoSignature
p1
c__builtin__
object
p2
Ntp3
Rp4
(dp5
S'formal'
p6
(dp7
L2399612421L
I1074245740
sL1207862518L
I1074240848
sL250925565L
I1074238864
sL1741170115L
I1074238184
sL247137719L
I1074247768
sL3505757179L
I1074234712
sL867946411L
I1074235812
sL2423107704L
I1074239528
sL138009647L
I1074234752
sL1237733855L
I1074239088
sL1348277828L
I1074245888
sL4213015302L
I1074243396
sL2940696155L
I1074246100
sL1696635966L
I1074245516
sL3545118830L
I1074267860
sL3230852531L
I1074238452
sL1969674055L
I1074268080
sL693028457L
I1074240672
sL3232221579L
I1074244900
sL142168405L
I1074246072
sL2702580795L
I1074237548
sL1458472899L
I1074236888
sL3646029665L
I1074245064
sL3191230471L
I1074270384
sL3817471675L
I1074270308
sL2896295319L
I1074237088
sL944494460L
I1074245280
sL2285799430L
I1074244860
sL1674148343L
I1074245796
sL2030740789L
I1074246900
sL162932873L
I1074270068
sL2485902447L
I1074236968
sL902150784L
I1074235860
sL308353321L
I1074269984
sL3333913339L
I1074243700
sL4263613804L
I1074247960
sL2741930811L
I1074240324
sL3791484843L
I1074267139
sL1585823442L
I1074244712
sL1622896354L
I1074244740
sL3259090715L
I1074247412
sL3213302492L
I1074270044
sL3610804324L
I1074270420
sL617669774L
I1074247572
sL426938157L
I1074235264
sL3129199843L
I1074235940
sL3705747329L
I1074247660
sL878917889L
I1074238372
sL3537851837L
I1074248980
sL1016500464L
I1074245220
sL2186980156L
I1074245340
sL2951847322L
I1074244928
sL1568446217L
I1074236792
sL3476917835L
I1074237248
sL3005829471L
I1074271248
sL2635990884L
I1074242176
sL1259414891L
I1074245468
sL1056742531L
I1074236644
sL768348750L
I1074239036
sL1359066243L
I1074270336
sL426984944L
I1074237160
sL4117027047L
I1074268860
sL676927194L
I1074269148
sL2945163535L
I1074240356
sL4294786425L
I1074270652
sL1907947068L
I1074271088
sL2277098556L
I1074237060
sL3307282855L
I1074238344
sL1853923591L
I1074245648
sL911764690L
I1074237880
sL1923374634L
I1074246216
sL1043339424L
I1074240596
sL3837755948L
I1074240692
sL60374282L
I1074245492
sL2543988023L
I1074241084
sL2472605942L
I1074246028
sL3370685554L
I1074270468
sL2956233896L
I1074242896
sL1189478010L
I1074241956
sL1687894276L
I1074244612
sL4038945309L
I1074235608
sL696241373L
I1074237932
sL2373957340L
I1074245676
sL518463041L
I1074236064
sL2626436395L
I1074237192
sL2838859164L
I1074236008
sL3978280629L
I1074241560
sL1275163307L
I1074244812
sL2901532506L
I1074239648
sL1709641802L
I1074240012
sL3050555005L
I1074247380
sL2997001746L
I1074237480
sL952722552L
I1074247708
sL2363736404L
I1074243412
sL4079247507L
I1074241312
sL3113644321L
I1074248680
sL1332374493L
I1074269968
sL2819127986L
I1074237212
sL3980264325L
I1074246944
sL149978958L
I1074236824
sL1877634603L
I1074271320
sL2411516799L
I1074235920
sL3518743416L
I1074238780
sL3310923163L
I1074238988
sL3379108269L
I1074244296
sL2987381963L
I1074269156
sL3459889393L
I1074244644
sL790507223L
I1074236992
sL1168915326L
I1074235556
sL873382621L
I1074236176
sL404293581L
I1074237624
sL2263182908L
I1074238364
sL700866072L
I1074238204
sL3630163135L
I1074237076
sL188664287L
I1074235232
sL782838600L
I1074241044
sL2587289812L
I1074235656
sL4138236490L
I1074241140
sL3075360168L
I1074241504
sL692536993L
I1074237520
sL2218866089L
I1074239140
sL2114693345L
I1074242048
sL3300000600L
I1074268916
sL2669162231L
I1074235960
sL144857933L
I1074241060
sL3360821925L
I1074248816
sL1886791809L
I1074249068
sL1769695875L
I1074270180
sL2987631338L
I1074269644
sL14736409L
I1074270112
sL3322869492L
I1074235900
sL3018942732L
I1074267752
sL677806744L
I1074235836
sL906556151L
I1074237656
sL2398800133L
I1074245756
ssS'immediates'
p8
(dp9
sS'formaldups'
p10
c__builtin__
set
p11
((lp12
tp13
Rp14
sS'stringdups'
p15
g11
((lp16
tp17
Rp18
sS'fuzzydups'
p19
g11
((lp20
tp21
Rp22
sS'strings'
p23
(dp24
sS'functions'
p25
(dp26
I1074244612
(Vwdt_hal_write_protect_disable
p27
(lp28
(L3345031483L
L0L
(lp29
(lp30
tp31
a(L4195472003L
L0L
(lp32
(lp33
tp34
a(L3360570486L
L0L
(lp35
(lp36
tp37
a(L1210571996L
L0L
(lp38
(lp39
tp40
atp41
sI1074245636
(Vrtc_clk_slow_src_get
p42
(lp43
(L376617603L
L3785322319L
(lp44
(lp45
Vclk_ll_rtc_slow_get_src
p46
atp47
atp48
sI1074242048
(Vshould_load
p49
(lp50
(L1379502686L
L0L
(lp51
(lp52
tp53
a(L1182990556L
L0L
(lp54
(lp55
tp56
a(L1188500889L
L0L
(lp57
(lp58
tp59
a(L2306467100L
L0L
(lp60
(lp61
tp62
a(L524505062L
L0L
(lp63
(lp64
tp65
a(L2258897019L
L0L
(lp66
(lp67
tp68
a(L3781799363L
L0L
(lp69
(lp70
tp71
a(L3028464L
L0L
(lp72
(lp73
tp74
a(L2219325068L
L0L
(lp75
(lp76
tp77
a(L4277114872L
L0L
(lp78
(lp79
tp80
a(L2824381917L
L0L
(lp81
(lp82
tp83
a(L1243412227L
L0L
(lp84
(lp85
tp86
a(L2011157548L
L0L
(lp87
(lp88
tp89
a(L3126521138L
L0L
(lp90
(lp91
tp92
a(L1305407438L
L0L
(lp93
(lp94
tp95
a(L1305407469L
L0L
(lp96
(lp97
tp98
atp99
sI1074245888
(Vrtc_clk_cpu_freq_get_config
p100
(lp101
(L3852097526L
L0L
(lp102
(lp103
tp104
a(L3020187L
L0L
(lp105
(lp106
tp107
a(L3020187L
L0L
(lp108
(lp109
tp110
a(L1339883774L
L3785322319L
(lp111
(lp112
Vrtc_clk_xtal_freq_get
p113
atp114
a(L3789795478L
L0L
(lp115
(lp116
tp117
a(L1876772334L
L1880226080L
(lp118
(lp119
Vesp_log_early_timestamp
p120
aVabort
p121
atp122
a(L3035450075L
L0L
(lp123
(lp124
tp125
a(L3020187L
L0L
(lp126
(lp127
tp128
a(L3028481L
L0L
(lp129
(lp130
tp131
a(L38508693L
L0L
(lp132
(lp133
tp134
a(L187152368L
L0L
(lp135
(lp136
tp137
a(L1161083655L
L0L
(lp138
(lp139
tp140
a(L1395485899L
L0L
(lp141
(lp142
tp143
a(L2070600034L
L0L
(lp144
(lp145
tp146
atp147
sI1074267136
(V_init
p148
(lp149
(L3493042598L
L0L
(lp150
(lp151
tp152
atp153
sI1074240012
(Vbootloader_utility_get_selected_boot_partition
p154
(lp155
(L2184143128L
L0L
(lp156
(lp157
tp158
a(L3562950348L
L0L
(lp159
(lp160
tp161
a(L2305665381L
L3785322319L
(lp162
(lp163
Vesp_log_early_timestamp
p164
atp165
a(L194246498L
L0L
(lp166
(lp167
tp168
a(L3360570486L
L0L
(lp169
(lp170
tp171
a(L1375577398L
L3785322319L
(lp172
(lp173
Vbootloader_mmap
p174
atp175
a(L4068127698L
L3785322319L
(lp176
(lp177
Vesp_log_early_timestamp
p178
atp179
a(L2463613311L
L1880226080L
(lp180
(lp181
Vbootloader_munmap
p182
aVbootloader_common_ota_select_invalid
p183
atp184
a(L1103573946L
L0L
(lp185
(lp186
tp187
a(L1876835593L
L3785322319L
(lp188
(lp189
Vbootloader_common_get_active_otadata
p190
atp191
a(L106L
L0L
(lp192
(lp193
tp194
a(L569346373L
L0L
(lp195
(lp196
tp197
a(L788494392L
L3785322319L
(lp198
(lp199
Vbootloader_common_ota_select_invalid
p200
atp201
a(L2801470901L
L0L
(lp202
(lp203
tp204
a(L1838181073L
L3785322319L
(lp205
(lp206
Vesp_log_early_timestamp
p207
atp208
a(L2440848641L
L3785322319L
(lp209
(lp210
Vesp_log_early_timestamp
p211
atp212
a(L505081345L
L0L
(lp213
(lp214
tp215
a(L919052234L
L3785322319L
(lp216
(lp217
Vbootloader_common_ota_select_crc
p218
atp219
a(L2287680455L
L0L
(lp220
(lp221
tp222
a(L3542558037L
L3785322319L
(lp223
(lp224
Vbootloader_common_ota_select_crc
p225
atp226
a(L1299866312L
L0L
(lp227
(lp228
tp229
a(L1279036405L
L0L
(lp230
(lp231
tp232
a(L1406565969L
L3785322319L
(lp233
(lp234
Vesp_log_early_timestamp
p235
atp236
a(L2867263840L
L0L
(lp237
(lp238
tp239
a(L4142614645L
L3785322319L
(lp240
(lp241
Vesp_log_early_timestamp
p242
atp243
atp244
sI1074238988
(Vtry_load_partition
p245
(lp246
(L1263750142L
L0L
(lp247
(lp248
tp249
a(L2258688482L
L0L
(lp250
(lp251
tp252
a(L3360570486L
L0L
(lp253
(lp254
tp255
a(L530241438L
L3785322319L
(lp256
(lp257
Vbootloader_load_image
p258
atp259
a(L3010049260L
L3785322319L
(lp260
(lp261
Vesp_log_early_timestamp
p262
atp263
atp264
sI1074267139
(V_text_start
p265
(lp266
(L1817914933L
L0L
(lp267
(lp268
tp269
a(L536106224L
L0L
(lp270
(lp271
tp272
atp273
sI1074270468
(Vrtc_clk_xtal_freq_estimate
p274
(lp275
(L3845076426L
L1880226080L
(lp276
(lp277
Vrtc_clk_8m_enabled
p278
aVrtc_clk_8md256_enabled
p279
atp280
a(L2449794434L
L3785322319L
(lp281
(lp282
Vrtc_clk_8m_enable
p283
atp284
a(L285692959L
L3785322319L
(lp285
(lp286
Vrtc_clk_cal_ratio
p287
atp288
a(L1894802584L
L0L
(lp289
(lp290
tp291
a(L1915120046L
L0L
(lp292
(lp293
tp294
a(L2740879690L
L0L
(lp295
(lp296
tp297
a(L1059750288L
L3785322319L
(lp298
(lp299
Vrtc_clk_8m_enable
p300
atp301
a(L3008710122L
L3785322319L
(lp302
(lp303
Vesp_log_early_timestamp
p304
atp305
a(L2894376164L
L0L
(lp306
(lp307
tp308
a(L1641150486L
L0L
(lp309
(lp310
tp311
a(L2760502620L
L3785322319L
(lp312
(lp313
Vesp_log_early_timestamp
p314
atp315
a(L3358153306L
L3785322319L
(lp316
(lp317
Vesp_log_early_timestamp
p318
atp319
atp320
sI1074237192
(Vbootloader_common_ota_select_crc
p321
(lp322
(L3214440559L
L0L
(lp323
(lp324
tp325
atp326
sI1074235656
(Vbootloader_flash_xmc_startup
p327
(lp328
(L3680458509L
L3785322319L
(lp329
(lp330
Vis_xmc_chip_strict
p331
atp332
a(L2258688482L
L0L
(lp333
(lp334
tp335
a(L3360570486L
L0L
(lp336
(lp337
tp338
a(L2860324232L
L3785322319L
(lp339
(lp340
Vbootloader_flash_read_sfdp
p341
atp342
a(L2097895665L
L2567856111L
(lp343
(lp344
Vesp_log_early_timestamp
p345
aVbootloader_execute_flash_command
p346
aVbootloader_execute_flash_command
p347
aVbootloader_execute_flash_command
p348
aVbootloader_execute_flash_command
p349
aVbootloader_read_flash_id
p350
aVis_xmc_chip_strict
p351
atp352
a(L4062067944L
L3785322319L
(lp353
(lp354
Vesp_log_early_timestamp
p355
atp356
atp357
sI1074241044
(Vbootloader_console_deinit
p358
(lp359
(L4005071210L
L0L
(lp360
(lp361
tp362
atp363
sI1074248980
(Vesp_rom_spiflash_write_encrypted
p364
(lp365
(L1944247967L
L0L
(lp366
(lp367
tp368
a(L695525630L
L0L
(lp369
(lp370
tp371
a(L97689L
L0L
(lp372
(lp373
tp374
a(L3061232074L
L0L
(lp375
(lp376
tp377
a(L1807150757L
L0L
(lp378
(lp379
tp380
a(L1309309703L
L3785322319L
(lp381
(lp382
Vesp_rom_spiflash_write
p383
atp384
a(L1812851730L
L0L
(lp385
(lp386
tp387
a(L735741265L
L0L
(lp388
(lp389
tp390
atp391
sI1074235920
(Vbootloader_write_status_8b_wrsr2
p392
(lp393
(L3772914914L
L3785322319L
(lp394
(lp395
Vbootloader_execute_flash_command
p396
atp397
atp398
sI1074236176
(Vbootloader_flash_gpio_config
p399
(lp400
(L3448878117L
L3785322319L
(lp401
(lp402
Vbootloader_common_get_chip_ver_pkg
p403
atp404
a(L106L
L0L
(lp405
(lp406
tp407
a(L1998579353L
L0L
(lp408
(lp409
tp410
a(L106L
L0L
(lp411
(lp412
tp413
a(L1029428446L
L0L
(lp414
(lp415
tp416
a(L4242290324L
L0L
(lp417
(lp418
tp419
a(L106L
L0L
(lp420
(lp421
tp422
a(L4003626558L
L0L
(lp423
(lp424
tp425
a(L1553523094L
L0L
(lp426
(lp427
tp428
a(L3360570486L
L0L
(lp429
(lp430
tp431
atp432
sI1074245648
(Vrtc_clk_slow_freq_get_hz
p433
(lp434
(L1826267122L
L3785322319L
(lp435
(lp436
Vclk_ll_rtc_slow_get_src
p437
atp438
a(L4158856552L
L0L
(lp439
(lp440
tp441
a(L3631005815L
L0L
(lp442
(lp443
tp444
a(L702740041L
L0L
(lp445
(lp446
tp447
a(L3360570486L
L0L
(lp448
(lp449
tp450
atp451
sI1074269968
(Vbootloader_flash_update_id
p452
(lp453
(L3149875550L
L3785322319L
(lp454
(lp455
Vbootloader_read_flash_id
p456
atp457
atp458
sI1074271248
(Vrtc_vddsdio_set_config
p459
(lp460
(L1332713656L
L0L
(lp461
(lp462
tp463
atp464
sI1074237212
(Vbootloader_common_ota_select_valid
p465
(lp466
(L1563399710L
L3785322319L
(lp467
(lp468
Vbootloader_common_ota_select_invalid
p469
atp470
a(L3814720849L
L3785322319L
(lp471
(lp472
Vbootloader_common_ota_select_crc
p473
atp474
a(L3360570486L
L0L
(lp475
(lp476
tp477
atp478
sI1074247708
(Vesp_rom_spiflash_enable_write
p479
(lp480
(L2890359061L
L3785322319L
(lp481
(lp482
Vesp_rom_spiflash_wait_idle
p483
atp484
a(L3137194272L
L0L
(lp485
(lp486
tp487
a(L2258718275L
L0L
(lp488
(lp489
tp490
a(L99543895L
L0L
(lp491
(lp492
tp493
a(L2993202392L
L0L
(lp494
(lp495
tp496
a(L1804543818L
L3785322319L
(lp497
(lp498
Vesp_rom_spiflash_read_status
p499
atp500
atp501
sI1074241560
(Vverify_load_addresses
p502
(lp503
(L2764487219L
L0L
(lp504
(lp505
tp506
a(L106L
L0L
(lp507
(lp508
tp509
a(L97642L
L0L
(lp510
(lp511
tp512
a(L532903251L
L3785322319L
(lp513
(lp514
V__assert_func
p515
atp516
a(L170023642L
L0L
(lp517
(lp518
tp519
a(L106L
L0L
(lp520
(lp521
tp522
a(L993824775L
L0L
(lp523
(lp524
tp525
a(L106L
L0L
(lp526
(lp527
tp528
a(L3188534306L
L3785322319L
(lp529
(lp530
Vbootloader_util_regions_overlap
p531
atp532
a(L3284083279L
L3785322319L
(lp533
(lp534
Vbootloader_util_regions_overlap
p535
atp536
a(L3028481L
L0L
(lp537
(lp538
tp539
a(L1178890466L
L3785322319L
(lp540
(lp541
Vbootloader_util_regions_overlap
p542
atp543
a(L2117228786L
L0L
(lp544
(lp545
tp546
a(L273144354L
L0L
(lp547
(lp548
tp549
a(L1016222393L
L0L
(lp550
(lp551
tp552
a(L2661576437L
L0L
(lp553
(lp554
tp555
a(L2503437888L
L0L
(lp556
(lp557
tp558
a(L677569396L
L3785322319L
(lp559
(lp560
Vverify_load_addresses
p561
atp562
a(L1351513776L
L0L
(lp563
(lp564
tp565
a(L3061261803L
L0L
(lp566
(lp567
tp568
a(L2743341656L
L0L
(lp569
(lp570
tp571
a(L791897016L
L0L
(lp572
(lp573
tp574
a(L729859039L
L0L
(lp575
(lp576
tp577
a(L4026856790L
L3785322319L
(lp578
(lp579
Vbootloader_util_regions_overlap
p580
atp581
a(L3028481L
L0L
(lp582
(lp583
tp584
a(L1567678174L
L3785322319L
(lp585
(lp586
Vbootloader_util_regions_overlap
p587
atp588
a(L2782864159L
L0L
(lp589
(lp590
tp591
a(L476078031L
L0L
(lp592
(lp593
tp594
a(L1301487450L
L0L
(lp595
(lp596
tp597
a(L1527375920L
L0L
(lp598
(lp599
tp600
a(L307916850L
L0L
(lp601
(lp602
tp603
a(L697239146L
L0L
(lp604
(lp605
tp606
a(L106L
L0L
(lp607
(lp608
tp609
a(L955505162L
L0L
(lp610
(lp611
tp612
a(L307917400L
L0L
(lp613
(lp614
tp615
a(L490080443L
L0L
(lp616
(lp617
tp618
a(L106L
L0L
(lp619
(lp620
tp621
a(L131589412L
L3785322319L
(lp622
(lp623
Vesp_log_early_timestamp
p624
atp625
a(L955505038L
L0L
(lp626
(lp627
tp628
a(L1303560427L
L0L
(lp629
(lp630
tp631
atp632
sI1074247960
(Vesp_rom_spiflash_config_readmode
p633
(lp634
(L2433198280L
L0L
(lp635
(lp636
tp637
a(L3905548590L
L0L
(lp638
(lp639
tp640
a(L2805935267L
L0L
(lp641
(lp642
tp643
a(L3249937672L
L0L
(lp644
(lp645
tp646
a(L189134253L
L0L
(lp647
(lp648
tp649
a(L93837694L
L0L
(lp650
(lp651
tp652
a(L106L
L0L
(lp653
(lp654
tp655
a(L1221791084L
L0L
(lp656
(lp657
tp658
a(L2805934577L
L0L
(lp659
(lp660
tp661
a(L2907728592L
L0L
(lp662
(lp663
tp664
a(L106L
L0L
(lp665
(lp666
tp667
a(L1330401002L
L0L
(lp668
(lp669
tp670
a(L2890097920L
L0L
(lp671
(lp672
tp673
a(L2122757262L
L0L
(lp674
(lp675
tp676
a(L106L
L0L
(lp677
(lp678
tp679
a(L2148591337L
L0L
(lp680
(lp681
tp682
a(L847977116L
L0L
(lp683
(lp684
tp685
a(L106L
L0L
(lp686
(lp687
tp688
a(L3771541212L
L0L
(lp689
(lp690
tp691
a(L1517596085L
L0L
(lp692
(lp693
tp694
a(L3016870L
L0L
(lp695
(lp696
tp697
a(L4224649423L
L0L
(lp698
(lp699
tp700
a(L3940623931L
L0L
(lp701
(lp702
tp703
a(L3304852550L
L0L
(lp704
(lp705
tp706
a(L2882642734L
L0L
(lp707
(lp708
tp709
a(L2993202392L
L0L
(lp710
(lp711
tp712
a(L3304854015L
L0L
(lp713
(lp714
tp715
a(L388859830L
L0L
(lp716
(lp717
tp718
a(L2639626355L
L0L
(lp719
(lp720
tp721
a(L518309717L
L0L
(lp722
(lp723
tp724
a(L3693263980L
L0L
(lp725
(lp726
tp727
atp728
sI1074235940
(Vbootloader_write_status_16b_wrsr
p729
(lp730
(L1235576642L
L3785322319L
(lp731
(lp732
Vbootloader_execute_flash_command
p733
atp734
atp735
sI1074241060
(V__assert_func
p736
(lp737
(L1697582622L
L0L
(lp738
(lp739
tp740
a(L106L
L0L
(lp741
(lp742
tp743
atp744
sI1074244644
(Vwdt_hal_set_flashboot_en
p745
(lp746
(L2375320464L
L0L
(lp747
(lp748
tp749
a(L3915867581L
L0L
(lp750
(lp751
tp752
a(L3360570486L
L0L
(lp753
(lp754
tp755
a(L1643092119L
L0L
(lp756
(lp757
tp758
atp759
sI1074244900
(Vclk_ll_rtc_slow_get_src
p760
(lp761
(L416280487L
L0L
(lp762
(lp763
tp764
a(L3020187L
L0L
(lp765
(lp766
tp767
a(L2902417580L
L0L
(lp768
(lp769
tp770
a(L2258688485L
L0L
(lp771
(lp772
tp773
a(L3360570486L
L0L
(lp774
(lp775
tp776
atp777
sI1074241312
(Vprocess_image_header
p778
(lp779
(L4286422149L
L3785322319L
(lp780
(lp781
Vbootloader_flash_read
p782
atp783
a(L3020204L
L0L
(lp784
(lp785
tp786
a(L4130667142L
L0L
(lp787
(lp788
tp789
a(L3131381282L
L0L
(lp790
(lp791
tp792
a(L1161397362L
L3785322319L
(lp793
(lp794
Vbootloader_sha256_start
p795
atp796
a(L1948257695L
L3785322319L
(lp797
(lp798
Vbootloader_sha256_data
p799
atp800
a(L1095449651L
L0L
(lp801
(lp802
tp803
a(L3020204L
L0L
(lp804
(lp805
tp806
a(L702739510L
L0L
(lp807
(lp808
tp809
a(L3360570486L
L0L
(lp810
(lp811
tp812
a(L1435924568L
L3785322319L
(lp813
(lp814
Vesp_log_early_timestamp
p815
atp816
a(L3718883008L
L3785322319L
(lp817
(lp818
Vbootloader_common_check_chip_validity
p819
atp820
a(L3677035427L
L0L
(lp821
(lp822
tp823
a(L3028481L
L0L
(lp824
(lp825
tp826
a(L4249612150L
L3785322319L
(lp827
(lp828
Vesp_log_early_timestamp
p829
atp830
a(L2250109166L
L0L
(lp831
(lp832
tp833
a(L1235012870L
L0L
(lp834
(lp835
tp836
a(L3063569071L
L0L
(lp837
(lp838
tp839
atp840
sI1074246944
(Vrtc_clk_cal_internal
p841
(lp842
(L3168308412L
L0L
(lp843
(lp844
tp845
a(L3863152980L
L3785322319L
(lp846
(lp847
V__assert_func
p848
atp849
a(L4026264710L
L0L
(lp850
(lp851
tp852
a(L54826884L
L0L
(lp853
(lp854
tp855
a(L234746575L
L0L
(lp856
(lp857
tp858
a(L861896856L
L3785322319L
(lp859
(lp860
Vrtc_clk_8m_enable
p861
atp862
a(L2689039534L
L3785322319L
(lp863
(lp864
Vrtc_clk_slow_src_get
p865
atp866
a(L1211065969L
L0L
(lp867
(lp868
tp869
a(L97689L
L0L
(lp870
(lp871
tp872
a(L1703854795L
L0L
(lp873
(lp874
tp875
a(L3028464L
L0L
(lp876
(lp877
tp878
a(L3028481L
L0L
(lp879
(lp880
tp881
a(L3450258732L
L0L
(lp882
(lp883
tp884
a(L944966L
L3785322319L
(lp885
(lp886
Vrtc_clk_xtal_freq_get
p887
atp888
a(L2780079961L
L0L
(lp889
(lp890
tp891
a(L3848725940L
L0L
(lp892
(lp893
tp894
a(L4169951882L
L3785322319L
(lp895
(lp896
Vesp_log_early_timestamp
p897
atp898
a(L3360570486L
L0L
(lp899
(lp900
tp901
a(L794862694L
L0L
(lp902
(lp903
tp904
a(L3245477987L
L0L
(lp905
(lp906
tp907
a(L2910371777L
L0L
(lp908
(lp909
tp910
a(L2902417580L
L0L
(lp911
(lp912
tp913
a(L4153720753L
L0L
(lp914
(lp915
tp916
a(L3631005548L
L0L
(lp917
(lp918
tp919
a(L2144990312L
L0L
(lp920
(lp921
tp922
a(L3352263364L
L0L
(lp923
(lp924
tp925
a(L3028464L
L0L
(lp926
(lp927
tp928
a(L1325746132L
L3785322319L
(lp929
(lp930
Vrtc_clk_8m_enable
p931
atp932
atp933
sI1074269984
(Vbootloader_flash_get_wp_pin
p934
(lp935
(L2601977293L
L3785322319L
(lp936
(lp937
Vbootloader_common_get_chip_ver_pkg
p938
atp939
a(L93674324L
L0L
(lp940
(lp941
tp942
a(L4185764111L
L0L
(lp943
(lp944
tp945
a(L1069118110L
L0L
(lp946
(lp947
tp948
a(L3360570486L
L0L
(lp949
(lp950
tp951
a(L3634856619L
L0L
(lp952
(lp953
tp954
a(L426835595L
L3785322319L
(lp955
(lp956
Vefuse_hal_chip_revision
p957
atp958
a(L1641149339L
L0L
(lp959
(lp960
tp961
atp962
sI1074245676
(Vrtc_clk_fast_src_set
p963
(lp964
(L1233611555L
L0L
(lp965
(lp966
tp967
a(L3020187L
L0L
(lp968
(lp969
tp970
a(L3827921190L
L3785322319L
(lp971
(lp972
Vabort
p973
atp974
a(L2904656757L
L0L
(lp975
(lp976
tp977
a(L206212292L
L0L
(lp978
(lp979
tp980
a(L300459962L
L0L
(lp981
(lp982
tp983
atp984
sI1074237480
(Vbootloader_common_get_active_otadata
p985
(lp986
(L3317503532L
L0L
(lp987
(lp988
tp989
a(L2503049265L
L1832448559L
(lp990
(lp991
Vbootloader_common_ota_select_valid
p992
aVbootloader_common_ota_select_valid
p993
aVbootloader_common_select_otadata
p994
atp995
a(L735741265L
L0L
(lp996
(lp997
tp998
atp999
sI1074236968
(Vefuse_hal_chip_revision
p1000
(lp1001
(L2719302832L
L1880226080L
(lp1002
(lp1003
Vefuse_hal_get_major_chip_version
p1004
aVefuse_hal_get_minor_chip_version
p1005
atp1006
atp1007
sI1074239528
(Vset_actual_ota_seq
p1008
(lp1009
(L4094723830L
L0L
(lp1010
(lp1011
tp1012
a(L2573507321L
L0L
(lp1013
(lp1014
tp1015
a(L3461827603L
L1832448559L
(lp1016
(lp1017
Vbootloader_common_ota_select_crc
p1018
aVesp_flash_encryption_enabled
p1019
aVbootloader_flash_erase_sector
p1020
atp1021
a(L3292941333L
L3785322319L
(lp1022
(lp1023
Vbootloader_flash_write
p1024
atp1025
a(L1764870441L
L3785322319L
(lp1026
(lp1027
Vesp_log_early_timestamp
p1028
atp1029
a(L2939835162L
L3785322319L
(lp1030
(lp1031
Vesp_log_early_timestamp
p1032
atp1033
a(L3360570486L
L0L
(lp1034
(lp1035
tp1036
atp1037
sI1074238768
(Vbootloader_clock_get_rated_freq_mhz
p1038
(lp1039
(L376617603L
L3785322319L
(lp1040
(lp1041
Vefuse_hal_get_rated_freq_mhz
p1042
atp1043
atp1044
sI1074238780
(Vlog_invalid_app_partition
p1045
(lp1046
(L3121159614L
L0L
(lp1047
(lp1048
tp1049
a(L3028464L
L0L
(lp1050
(lp1051
tp1052
a(L1381405837L
L3785322319L
(lp1053
(lp1054
Vesp_log_early_timestamp
p1055
atp1056
a(L3833270346L
L0L
(lp1057
(lp1058
tp1059
a(L3360570486L
L0L
(lp1060
(lp1061
tp1062
a(L3430459325L
L3785322319L
(lp1063
(lp1064
Vesp_log_early_timestamp
p1065
atp1066
a(L3309219235L
L3785322319L
(lp1067
(lp1068
Vesp_log_early_timestamp
p1069
atp1070
atp1071
sI1074239036
(Vcache_ll_l1_enable_bus
p1072
(lp1073
(L1908488057L
L0L
(lp1074
(lp1075
tp1076
atp1077
sI1074241084
(Vabort
p1078
(lp1079
(L56968919L
L0L
(lp1080
(lp1081
tp1082
a(L409471316L
L0L
(lp1083
(lp1084
tp1085
a(L106L
L0L
(lp1086
(lp1087
tp1088
atp1089
sI1074235960
(Vbootloader_read_status_8b_xmc25qu64a
p1090
(lp1091
(L3332904159L
L2485746240L
(lp1092
(lp1093
Vbootloader_execute_flash_command
p1094
aVesp_rom_spiflash_wait_idle
p1095
aVbootloader_execute_flash_command
p1096
aVbootloader_execute_flash_command
p1097
atp1098
atp1099
sI1074240324
(Vbootloader_reset
p1100
(lp1101
(L4123387220L
L3785322319L
(lp1102
(lp1103
Vbootloader_console_deinit
p1104
atp1105
a(L106L
L0L
(lp1106
(lp1107
tp1108
atp1109
sI1074243396
(Vbootloader_load_image
p1110
(lp1111
(L1155870502L
L3785322319L
(lp1112
(lp1113
Vimage_load
p1114
atp1115
atp1116
sI1074236992
(Vefuse_hal_get_major_chip_version
p1117
(lp1118
(L1242126302L
L0L
(lp1119
(lp1120
tp1121
a(L894792960L
L0L
(lp1122
(lp1123
tp1124
a(L3783348505L
L0L
(lp1125
(lp1126
tp1127
a(L3360570486L
L0L
(lp1128
(lp1129
tp1130
atp1131
sI1074237248
(Vbootloader_common_check_chip_validity
p1132
(lp1133
(L392423210L
L0L
(lp1134
(lp1135
tp1136
a(L62642320L
L3785322319L
(lp1137
(lp1138
Vesp_log_early_timestamp
p1139
atp1140
a(L522103407L
L3785322319L
(lp1141
(lp1142
Vefuse_hal_chip_revision
p1143
atp1144
a(L106L
L0L
(lp1145
(lp1146
tp1147
a(L1989150608L
L0L
(lp1148
(lp1149
tp1150
a(L720806035L
L3785322319L
(lp1151
(lp1152
Vesp_log_early_timestamp
p1153
atp1154
a(L3028464L
L0L
(lp1155
(lp1156
tp1157
a(L1397322129L
L0L
(lp1158
(lp1159
tp1160
a(L3021749L
L0L
(lp1161
(lp1162
tp1163
a(L3790510041L
L3785322319L
(lp1164
(lp1165
Vesp_log_early_timestamp
p1166
atp1167
a(L1299867982L
L0L
(lp1168
(lp1169
tp1170
a(L3360570486L
L0L
(lp1171
(lp1172
tp1173
atp1174
sI1074244928
(Vrtc_clk_32k_enable_common
p1175
(lp1176
(L1442393279L
L0L
(lp1177
(lp1178
tp1179
a(L97689L
L0L
(lp1180
(lp1181
tp1182
a(L2218417250L
L0L
(lp1183
(lp1184
tp1185
a(L533879761L
L0L
(lp1186
(lp1187
tp1188
a(L51458058L
L0L
(lp1189
(lp1190
tp1191
atp1192
sI1074246216
(Vrtc_clk_cpu_freq_set_config
p1193
(lp1194
(L97989050L
L3785322319L
(lp1195
(lp1196
Vrtc_clk_xtal_freq_get
p1197
atp1198
a(L3020187L
L0L
(lp1199
(lp1200
tp1201
a(L3028464L
L0L
(lp1202
(lp1203
tp1204
a(L264223053L
L1880226080L
(lp1205
(lp1206
Vrtc_clk_cpu_freq_to_xtal
p1207
aVrtc_clk_wait_for_slow_cycle
p1208
atp1209
a(L94425498L
L3785322319L
(lp1210
(lp1211
Vrtc_clk_bbpll_disable
p1212
atp1213
a(L3978916712L
L0L
(lp1214
(lp1215
tp1216
a(L2977209154L
L0L
(lp1217
(lp1218
tp1219
a(L2736411858L
L3785322319L
(lp1220
(lp1221
Vrtc_clk_cpu_freq_to_xtal
p1222
atp1223
a(L3360570486L
L0L
(lp1224
(lp1225
tp1226
a(L3020187L
L0L
(lp1227
(lp1228
tp1229
a(L106L
L0L
(lp1230
(lp1231
tp1232
a(L4139299579L
L1880226080L
(lp1233
(lp1234
Vrtc_clk_wait_for_slow_cycle
p1235
aVrtc_clk_xtal_freq_get
p1236
atp1237
a(L106L
L0L
(lp1238
(lp1239
tp1240
a(L1388483569L
L0L
(lp1241
(lp1242
tp1243
a(L106L
L0L
(lp1244
(lp1245
tp1246
a(L83268611L
L0L
(lp1247
(lp1248
tp1249
a(L106L
L0L
(lp1250
(lp1251
tp1252
a(L82344823L
L0L
(lp1253
(lp1254
tp1255
a(L106L
L0L
(lp1256
(lp1257
tp1258
a(L1274797871L
L0L
(lp1259
(lp1260
tp1261
a(L2960675980L
L0L
(lp1262
(lp1263
tp1264
a(L2332426982L
L1880226080L
(lp1265
(lp1266
Vclk_ll_rtc_slow_get_src
p1267
aVrtc_clk_cpu_freq_to_pll_mhz
p1268
atp1269
a(L97866512L
L0L
(lp1270
(lp1271
tp1272
a(L83268344L
L0L
(lp1273
(lp1274
tp1275
a(L82345090L
L0L
(lp1276
(lp1277
tp1278
a(L1299628291L
L0L
(lp1279
(lp1280
tp1281
a(L2382164494L
L0L
(lp1282
(lp1283
tp1284
a(L2258807646L
L0L
(lp1285
(lp1286
tp1287
a(L878473564L
L0L
(lp1288
(lp1289
tp1290
a(L2389426015L
L0L
(lp1291
(lp1292
tp1293
a(L1596574736L
L0L
(lp1294
(lp1295
tp1296
a(L2086626670L
L0L
(lp1297
(lp1298
tp1299
a(L1302638456L
L0L
(lp1300
(lp1301
tp1302
a(L810137203L
L0L
(lp1303
(lp1304
tp1305
a(L87353900L
L0L
(lp1306
(lp1307
tp1308
a(L3020187L
L0L
(lp1309
(lp1310
tp1311
a(L106L
L0L
(lp1312
(lp1313
tp1314
a(L1226014053L
L0L
(lp1315
(lp1316
tp1317
atp1318
sI1074271320
(Vmpu_hal_set_region_access
p1319
(lp1320
(L3538356822L
L0L
(lp1321
(lp1322
tp1323
a(L93674324L
L0L
(lp1324
(lp1325
tp1326
a(L2910371777L
L0L
(lp1327
(lp1328
tp1329
a(L3472092938L
L0L
(lp1330
(lp1331
tp1332
a(L3020187L
L0L
(lp1333
(lp1334
tp1335
a(L3360570486L
L0L
(lp1336
(lp1337
tp1338
a(L2258718273L
L0L
(lp1339
(lp1340
tp1341
a(L3446648619L
L0L
(lp1342
(lp1343
tp1344
a(L3739532189L
L0L
(lp1345
(lp1346
tp1347
a(L1300789895L
L0L
(lp1348
(lp1349
tp1350
atp1351
sI1074240596
(Vindex_to_partition
p1352
(lp1353
(L4066096119L
L0L
(lp1354
(lp1355
tp1356
a(L1739185955L
L0L
(lp1357
(lp1358
tp1359
a(L2171552758L
L0L
(lp1360
(lp1361
tp1362
a(L2808906342L
L0L
(lp1363
(lp1364
tp1365
a(L2101481936L
L0L
(lp1366
(lp1367
tp1368
a(L3698927993L
L0L
(lp1369
(lp1370
tp1371
a(L2808826781L
L0L
(lp1372
(lp1373
tp1374
a(L3003398163L
L0L
(lp1375
(lp1376
tp1377
a(L2880709161L
L0L
(lp1378
(lp1379
tp1380
a(L1087646172L
L0L
(lp1381
(lp1382
tp1383
atp1384
sI1074243412
(Vesp_partition_table_verify
p1385
(lp1386
(L4221019429L
L0L
(lp1387
(lp1388
tp1389
a(L3688263406L
L0L
(lp1390
(lp1391
tp1392
a(L4090921686L
L0L
(lp1393
(lp1394
tp1395
a(L2910371777L
L0L
(lp1396
(lp1397
tp1398
a(L2810785767L
L0L
(lp1399
(lp1400
tp1401
a(L3360570486L
L0L
(lp1402
(lp1403
tp1404
a(L3190337587L
L0L
(lp1405
(lp1406
tp1407
a(L2069928857L
L0L
(lp1408
(lp1409
tp1410
a(L3020204L
L0L
(lp1411
(lp1412
tp1413
a(L4240560509L
L3785322319L
(lp1414
(lp1415
Vesp_log_early_timestamp
p1416
atp1417
a(L2526422477L
L3785322319L
(lp1418
(lp1419
Vesp_log_early_timestamp
p1420
atp1421
a(L510839312L
L0L
(lp1422
(lp1423
tp1424
a(L2902417580L
L0L
(lp1425
(lp1426
tp1427
a(L3020204L
L0L
(lp1428
(lp1429
tp1430
a(L2215002226L
L3785322319L
(lp1431
(lp1432
Vesp_log_early_timestamp
p1433
atp1434
a(L2867263840L
L0L
(lp1435
(lp1436
tp1437
a(L3655331517L
L0L
(lp1438
(lp1439
tp1440
a(L2902417580L
L0L
(lp1441
(lp1442
tp1443
a(L4240559796L
L3785322319L
(lp1444
(lp1445
Vesp_log_early_timestamp
p1446
atp1447
a(L1305407469L
L0L
(lp1448
(lp1449
tp1450
a(L1167861556L
L0L
(lp1451
(lp1452
tp1453
a(L3914073261L
L0L
(lp1454
(lp1455
tp1456
a(L2910371777L
L0L
(lp1457
(lp1458
tp1459
a(L1235012932L
L0L
(lp1460
(lp1461
tp1462
a(L4142303994L
L3785322319L
(lp1463
(lp1464
Vesp_log_early_timestamp
p1465
atp1466
atp1467
sI1074270044
(Vbootloader_clear_bss_section
p1468
(lp1469
(L1133714402L
L0L
(lp1470
(lp1471
tp1472
atp1473
sI1074237520
(Vbootloader_common_ota_select_invalid
p1474
(lp1475
(L4027567199L
L0L
(lp1476
(lp1477
tp1478
a(L3397985842L
L0L
(lp1479
(lp1480
tp1481
a(L2258867228L
L0L
(lp1482
(lp1483
tp1484
a(L3785235668L
L0L
(lp1485
(lp1486
tp1487
atp1488
sI1074240848
(Vbootloader_sha256_finish
p1489
(lp1490
(L4066096136L
L0L
(lp1491
(lp1492
tp1493
a(L3125987449L
L0L
(lp1494
(lp1495
tp1496
a(L3884092851L
L3785322319L
(lp1497
(lp1498
V__assert_func
p1499
atp1500
a(L3020204L
L0L
(lp1501
(lp1502
tp1503
a(L1816853500L
L0L
(lp1504
(lp1505
tp1506
a(L2534656226L
L0L
(lp1507
(lp1508
tp1509
a(L551614134L
L3785322319L
(lp1510
(lp1511
Vbootloader_sha256_data
p1512
atp1513
a(L3281735505L
L0L
(lp1514
(lp1515
tp1516
a(L841302101L
L3785322319L
(lp1517
(lp1518
Vbootloader_sha256_data
p1519
atp1520
a(L3768329152L
L0L
(lp1521
(lp1522
tp1523
a(L657425439L
L0L
(lp1524
(lp1525
tp1526
a(L3930848034L
L0L
(lp1527
(lp1528
tp1529
a(L657425439L
L0L
(lp1530
(lp1531
tp1532
a(L4116699460L
L0L
(lp1533
(lp1534
tp1535
a(L3511307343L
L0L
(lp1536
(lp1537
tp1538
a(L3347778L
L0L
(lp1539
(lp1540
tp1541
a(L3360570486L
L0L
(lp1542
(lp1543
tp1544
atp1545
sI1074242896
(Vimage_load
p1546
(lp1547
(L3559420668L
L0L
(lp1548
(lp1549
tp1550
a(L1899869541L
L0L
(lp1551
(lp1552
tp1553
a(L979631281L
L0L
(lp1554
(lp1555
tp1556
a(L1525480527L
L0L
(lp1557
(lp1558
tp1559
a(L1043148059L
L0L
(lp1560
(lp1561
tp1562
a(L2796536461L
L0L
(lp1563
(lp1564
tp1565
a(L2974022397L
L3785322319L
(lp1566
(lp1567
Vesp_log_early_timestamp
p1568
atp1569
a(L2068384292L
L0L
(lp1570
(lp1571
tp1572
a(L1968553470L
L3785322319L
(lp1573
(lp1574
Vbootloader_sha256_finish
p1575
atp1576
a(L4209044681L
L0L
(lp1577
(lp1578
tp1579
a(L3225218531L
L0L
(lp1580
(lp1581
tp1582
a(L3802071166L
L0L
(lp1583
(lp1584
tp1585
a(L1301867039L
L3785322319L
(lp1586
(lp1587
Vprocess_image_header
p1588
atp1589
a(L560228796L
L0L
(lp1590
(lp1591
tp1592
a(L4185758499L
L0L
(lp1593
(lp1594
tp1595
a(L1530940255L
L3785322319L
(lp1596
(lp1597
Vprocess_segments
p1598
atp1599
a(L1233227930L
L0L
(lp1600
(lp1601
tp1602
a(L2539156582L
L0L
(lp1603
(lp1604
tp1605
a(L2570888687L
L3785322319L
(lp1606
(lp1607
Vprocess_checksum
p1608
atp1609
a(L425503098L
L3785322319L
(lp1610
(lp1611
Vprocess_appended_hash_and_sig
p1612
atp1613
a(L780930979L
L0L
(lp1614
(lp1615
tp1616
a(L2334355956L
L0L
(lp1617
(lp1618
tp1619
a(L3470740557L
L0L
(lp1620
(lp1621
tp1622
a(L2727908192L
L1880226080L
(lp1623
(lp1624
Vbootloader_sha256_finish
p1625
aVbootloader_debug_buffer
p1626
atp1627
a(L764308364L
L1880226080L
(lp1628
(lp1629
Vesp_log_early_timestamp
p1630
aVbootloader_debug_buffer
p1631
atp1632
a(L1087646176L
L0L
(lp1633
(lp1634
tp1635
a(L2068384292L
L0L
(lp1636
(lp1637
tp1638
a(L3021148818L
L3785322319L
(lp1639
(lp1640
Vbootloader_sha256_finish
p1641
atp1642
a(L3028481L
L0L
(lp1643
(lp1644
tp1645
a(L139701033L
L0L
(lp1646
(lp1647
tp1648
a(L2510919588L
L0L
(lp1649
(lp1650
tp1651
a(L772115669L
L0L
(lp1652
(lp1653
tp1654
a(L2787789065L
L0L
(lp1655
(lp1656
tp1657
a(L85798113L
L0L
(lp1658
(lp1659
tp1660
a(L1351513776L
L0L
(lp1661
(lp1662
tp1663
a(L159346313L
L3785322319L
(lp1664
(lp1665
Vshould_load
p1666
atp1667
a(L4218574503L
L0L
(lp1668
(lp1669
tp1670
a(L3338774213L
L0L
(lp1671
(lp1672
tp1673
a(L3464541874L
L0L
(lp1674
(lp1675
tp1676
a(L3349572949L
L0L
(lp1677
(lp1678
tp1679
a(L2192292519L
L0L
(lp1680
(lp1681
tp1682
a(L106L
L0L
(lp1683
(lp1684
tp1685
a(L26615924L
L0L
(lp1686
(lp1687
tp1688
a(L1299866312L
L0L
(lp1689
(lp1690
tp1691
a(L490060329L
L0L
(lp1692
(lp1693
tp1694
atp1695
sI1074245468
(Vrtc_clk_8m_enabled
p1696
(lp1697
(L2802140000L
L0L
(lp1698
(lp1699
tp1700
atp1701
sI1074249820
(V_fini
p1702
(lp1703
(L3493042598L
L0L
(lp1704
(lp1705
tp1706
atp1707
sI1074234712
(Vesp_flash_encryption_enabled
p1708
(lp1709
(L2932383536L
L0L
(lp1710
(lp1711
tp1712
a(L2910371777L
L0L
(lp1713
(lp1714
tp1715
a(L3360570486L
L0L
(lp1716
(lp1717
tp1718
a(L3016870L
L0L
(lp1719
(lp1720
tp1721
a(L3745038218L
L0L
(lp1722
(lp1723
tp1724
a(L957607403L
L0L
(lp1725
(lp1726
tp1727
atp1728
sI1074247768
(Vesp_rom_spiflash_program_page_internal
p1729
(lp1730
(L2569069283L
L0L
(lp1731
(lp1732
tp1733
a(L2258688483L
L0L
(lp1734
(lp1735
tp1736
a(L3360570486L
L0L
(lp1737
(lp1738
tp1739
a(L792610006L
L0L
(lp1740
(lp1741
tp1742
a(L4235661475L
L3785322319L
(lp1743
(lp1744
Vesp_rom_spiflash_wait_idle
p1745
atp1746
a(L1299866312L
L0L
(lp1747
(lp1748
tp1749
a(L3212356251L
L3785322319L
(lp1750
(lp1751
Vesp_rom_spiflash_enable_write
p1752
atp1753
a(L3383370082L
L0L
(lp1754
(lp1755
tp1756
a(L2209840608L
L0L
(lp1757
(lp1758
tp1759
a(L2953702749L
L0L
(lp1760
(lp1761
tp1762
a(L2989032L
L0L
(lp1763
(lp1764
tp1765
a(L1965622133L
L0L
(lp1766
(lp1767
tp1768
a(L1351235542L
L0L
(lp1769
(lp1770
tp1771
a(L1958113242L
L0L
(lp1772
(lp1773
tp1774
a(L106L
L0L
(lp1775
(lp1776
tp1777
a(L3112950080L
L0L
(lp1778
(lp1779
tp1780
a(L1868606439L
L0L
(lp1781
(lp1782
tp1783
a(L1008983195L
L0L
(lp1784
(lp1785
tp1786
a(L1933954923L
L0L
(lp1787
(lp1788
tp1789
a(L1147866918L
L0L
(lp1790
(lp1791
tp1792
a(L3871602522L
L0L
(lp1793
(lp1794
tp1795
atp1796
sI1074267752
(Vcall_start_cpu0
p1797
(lp1798
(L1137852827L
L0L
(lp1799
(lp1800
tp1801
a(L549459388L
L0L
(lp1802
(lp1803
tp1804
a(L3212347974L
L3785322319L
(lp1805
(lp1806
Vbootloader_init
p1807
atp1808
a(L94425498L
L3785322319L
(lp1809
(lp1810
Vbootloader_reset
p1811
atp1812
a(L1122046408L
L0L
(lp1813
(lp1814
tp1815
a(L4099474112L
L0L
(lp1816
(lp1817
tp1818
a(L3015046664L
L3785322319L
(lp1819
(lp1820
Vbootloader_utility_load_partition_table
p1821
atp1822
a(L2761094216L
L3785322319L
(lp1823
(lp1824
Vesp_log_early_timestamp
p1825
atp1826
a(L405422123L
L3785322319L
(lp1827
(lp1828
Vbootloader_utility_get_selected_boot_partition
p1829
atp1830
a(L2055385849L
L3785322319L
(lp1831
(lp1832
Vbootloader_utility_load_boot_image
p1833
atp1834
atp1835
sI1074240356
(Vbootloader_utility_load_boot_image
p1836
(lp1837
(L1375294773L
L0L
(lp1838
(lp1839
tp1840
a(L2177418995L
L3785322319L
(lp1841
(lp1842
Vtry_load_partition
p1843
atp1844
a(L1305243774L
L3785322319L
(lp1845
(lp1846
Vload_image
p1847
atp1848
a(L1481893282L
L3785322319L
(lp1849
(lp1850
Vesp_log_early_timestamp
p1851
atp1852
a(L3827921190L
L3785322319L
(lp1853
(lp1854
Vbootloader_reset
p1855
atp1856
a(L1953693036L
L3785322319L
(lp1857
(lp1858
Vindex_to_partition
p1859
atp1860
a(L1204373741L
L3785322319L
(lp1861
(lp1862
Vtry_load_partition
p1863
atp1864
a(L1899865696L
L0L
(lp1865
(lp1866
tp1867
a(L2695355117L
L3785322319L
(lp1868
(lp1869
Vset_actual_ota_seq
p1870
atp1871
a(L1868897605L
L3785322319L
(lp1872
(lp1873
Vlog_invalid_app_partition
p1874
atp1875
a(L831650730L
L0L
(lp1876
(lp1877
tp1878
a(L3021737L
L0L
(lp1879
(lp1880
tp1881
a(L695456438L
L0L
(lp1882
(lp1883
tp1884
a(L1129532116L
L3785322319L
(lp1885
(lp1886
Vtry_load_partition
p1887
atp1888
a(L4022121633L
L3785322319L
(lp1889
(lp1890
Vesp_log_early_timestamp
p1891
atp1892
a(L2347390157L
L3785322319L
(lp1893
(lp1894
Vindex_to_partition
p1895
atp1896
a(L1204373741L
L3785322319L
(lp1897
(lp1898
Vtry_load_partition
p1899
atp1900
a(L3061261803L
L0L
(lp1901
(lp1902
tp1903
a(L3582858798L
L3785322319L
(lp1904
(lp1905
Vlog_invalid_app_partition
p1906
atp1907
a(L1285752117L
L3785322319L
(lp1908
(lp1909
Vesp_log_early_timestamp
p1910
atp1911
atp1912
sI1074245220
(Vrtc_clk_bbpll_disable
p1913
(lp1914
(L2525111280L
L0L
(lp1915
(lp1916
tp1917
a(L2472207241L
L0L
(lp1918
(lp1919
tp1920
a(L3360570486L
L0L
(lp1921
(lp1922
tp1923
atp1924
sI1074235232
(Vbootloader_execute_flash_command
p1925
(lp1926
(L2481595632L
L3785322319L
(lp1927
(lp1928
Vbootloader_flash_execute_command_common
p1929
atp1930
atp1931
sI1074237548
(Vbootloader_common_select_otadata
p1932
(lp1933
(L4071767857L
L0L
(lp1934
(lp1935
tp1936
a(L1999329187L
L0L
(lp1937
(lp1938
tp1939
a(L3846398843L
L0L
(lp1940
(lp1941
tp1942
a(L2501968171L
L0L
(lp1943
(lp1944
tp1945
a(L3360570486L
L0L
(lp1946
(lp1947
tp1948
a(L2045232488L
L0L
(lp1949
(lp1950
tp1951
a(L1243525916L
L0L
(lp1952
(lp1953
tp1954
a(L3094144427L
L0L
(lp1955
(lp1956
tp1957
a(L2399509845L
L0L
(lp1958
(lp1959
tp1960
a(L1641201884L
L0L
(lp1961
(lp1962
tp1963
atp1964
sI1074241132
(Vbootloader_ana_clock_glitch_reset_config
p1965
(lp1966
(L2100504542L
L0L
(lp1967
(lp1968
tp1969
atp1970
sI1074245740
(Vrtc_clk_fast_src_get
p1971
(lp1972
(L380770082L
L0L
(lp1973
(lp1974
tp1975
atp1976
sI1074249068
(Vesp_rom_spiflash_read
p1977
(lp1978
(L723063147L
L0L
(lp1979
(lp1980
tp1981
a(L3483359117L
L0L
(lp1982
(lp1983
tp1984
a(L340311750L
L0L
(lp1985
(lp1986
tp1987
a(L2355528925L
L0L
(lp1988
(lp1989
tp1990
a(L106L
L0L
(lp1991
(lp1992
tp1993
a(L633884026L
L0L
(lp1994
(lp1995
tp1996
a(L106L
L0L
(lp1997
(lp1998
tp1999
a(L1755585071L
L0L
(lp2000
(lp2001
tp2002
a(L2345168494L
L0L
(lp2003
(lp2004
tp2005
a(L502012272L
L0L
(lp2006
(lp2007
tp2008
a(L336550648L
L0L
(lp2009
(lp2010
tp2011
a(L493932352L
L0L
(lp2012
(lp2013
tp2014
a(L106L
L0L
(lp2015
(lp2016
tp2017
a(L407315452L
L3785322319L
(lp2018
(lp2019
Vesp_rom_spiflash_wait_idle
p2020
atp2021
a(L3021737L
L0L
(lp2022
(lp2023
tp2024
a(L106L
L0L
(lp2025
(lp2026
tp2027
a(L1868280504L
L0L
(lp2028
(lp2029
tp2030
a(L106L
L0L
(lp2031
(lp2032
tp2033
a(L3172971245L
L0L
(lp2034
(lp2035
tp2036
a(L1221163038L
L0L
(lp2037
(lp2038
tp2039
a(L4122060822L
L0L
(lp2040
(lp2041
tp2042
a(L1406217664L
L0L
(lp2043
(lp2044
tp2045
a(L2989032L
L0L
(lp2046
(lp2047
tp2048
a(L3819849625L
L0L
(lp2049
(lp2050
tp2051
a(L1660957140L
L0L
(lp2052
(lp2053
tp2054
a(L918125861L
L0L
(lp2055
(lp2056
tp2057
a(L3901821459L
L0L
(lp2058
(lp2059
tp2060
a(L2760335532L
L0L
(lp2061
(lp2062
tp2063
a(L2921907736L
L0L
(lp2064
(lp2065
tp2066
a(L4023125337L
L0L
(lp2067
(lp2068
tp2069
a(L3160530488L
L0L
(lp2070
(lp2071
tp2072
a(L1790536897L
L0L
(lp2073
(lp2074
tp2075
a(L3857662038L
L0L
(lp2076
(lp2077
tp2078
a(L781550816L
L0L
(lp2079
(lp2080
tp2081
a(L2687789892L
L0L
(lp2082
(lp2083
tp2084
a(L1405253496L
L0L
(lp2085
(lp2086
tp2087
a(L1756022091L
L0L
(lp2088
(lp2089
tp2090
a(L97689L
L0L
(lp2091
(lp2092
tp2093
a(L1183020347L
L0L
(lp2094
(lp2095
tp2096
a(L4014024819L
L0L
(lp2097
(lp2098
tp2099
a(L3621567083L
L0L
(lp2100
(lp2101
tp2102
atp2103
sI1074270308
(Vbootloader_enable_random
p2104
(lp2105
(L683341208L
L1880226080L
(lp2106
(lp2107
Vesp_log_early_timestamp
p2108
aVbootloader_random_enable
p2109
atp2110
atp2111
sI1074236008
(Vbootloader_write_status_8b_xmc25qu64a
p2112
(lp2113
(L3599908209L
L1157885199L
(lp2114
(lp2115
Vbootloader_execute_flash_command
p2116
aVesp_rom_spiflash_wait_idle
p2117
aVbootloader_execute_flash_command
p2118
aVesp_rom_spiflash_wait_idle
p2119
aVbootloader_execute_flash_command
p2120
atp2121
atp2122
sI1074244712
(Vwdt_hal_write_protect_enable
p2123
(lp2124
(L387778158L
L0L
(lp2125
(lp2126
tp2127
a(L4195472003L
L0L
(lp2128
(lp2129
tp2130
a(L3360570486L
L0L
(lp2131
(lp2132
tp2133
a(L802523425L
L0L
(lp2134
(lp2135
tp2136
atp2137
sI1074241140
(Vprocess_checksum
p2138
(lp2139
(L226873693L
L0L
(lp2140
(lp2141
tp2142
a(L2910371777L
L0L
(lp2143
(lp2144
tp2145
a(L186886970L
L0L
(lp2146
(lp2147
tp2148
a(L2910371777L
L0L
(lp2149
(lp2150
tp2151
a(L3020204L
L0L
(lp2152
(lp2153
tp2154
a(L2480703612L
L3785322319L
(lp2155
(lp2156
Vbootloader_sha256_data
p2157
atp2158
a(L4179073442L
L0L
(lp2159
(lp2160
tp2161
a(L1811888222L
L3785322319L
(lp2162
(lp2163
Vbootloader_flash_read
p2164
atp2165
a(L3126521138L
L0L
(lp2166
(lp2167
tp2168
a(L4120157373L
L0L
(lp2169
(lp2170
tp2171
a(L3278991908L
L3785322319L
(lp2172
(lp2173
Vesp_log_early_timestamp
p2174
atp2175
atp2176
sI1074243700
(Vwdt_hal_init
p2177
(lp2178
(L509746487L
L0L
(lp2179
(lp2180
tp2181
a(L745008699L
L0L
(lp2182
(lp2183
tp2184
a(L2805934244L
L0L
(lp2185
(lp2186
tp2187
a(L3115097993L
L0L
(lp2188
(lp2189
tp2190
a(L1129008730L
L0L
(lp2191
(lp2192
tp2193
a(L3360570486L
L0L
(lp2194
(lp2195
tp2196
a(L3022237171L
L0L
(lp2197
(lp2198
tp2199
atp2200
sI1074245492
(Vrtc_clk_8md256_enabled
p2201
(lp2202
(L1957668129L
L0L
(lp2203
(lp2204
tp2205
atp2206
sI1074239088
(Vcache_ll_l1_enable_bus
p2207
(lp2208
(L1408514293L
L0L
(lp2209
(lp2210
tp2211
atp2212
sI1074248816
(Vesp_rom_spiflash_write
p2213
(lp2214
(L2123829122L
L0L
(lp2215
(lp2216
tp2217
a(L2258688483L
L0L
(lp2218
(lp2219
tp2220
a(L3360570486L
L0L
(lp2221
(lp2222
tp2223
a(L3368132847L
L0L
(lp2224
(lp2225
tp2226
a(L3106685981L
L0L
(lp2227
(lp2228
tp2229
a(L3488660639L
L3785322319L
(lp2230
(lp2231
Vesp_rom_spiflash_program_page_internal
p2232
atp2233
a(L3543402353L
L3785322319L
(lp2234
(lp2235
Vesp_rom_spiflash_program_page_internal
p2236
atp2237
a(L4222526342L
L0L
(lp2238
(lp2239
tp2240
a(L2004208511L
L0L
(lp2241
(lp2242
tp2243
a(L564470656L
L0L
(lp2244
(lp2245
tp2246
a(L2988842384L
L3785322319L
(lp2247
(lp2248
Vesp_rom_spiflash_program_page_internal
p2249
atp2250
a(L2302069176L
L0L
(lp2251
(lp2252
tp2253
atp2254
sI1074271088
(Vrtc_vddsdio_get_config
p2255
(lp2256
(L2764640972L
L0L
(lp2257
(lp2258
tp2259
a(L3421108135L
L0L
(lp2260
(lp2261
tp2262
a(L3002774692L
L0L
(lp2263
(lp2264
tp2265
a(L3341791495L
L0L
(lp2266
(lp2267
tp2268
a(L3344960933L
L0L
(lp2269
(lp2270
tp2271
a(L3355966596L
L0L
(lp2272
(lp2273
tp2274
a(L1306330959L
L0L
(lp2275
(lp2276
tp2277
a(L1077617460L
L0L
(lp2278
(lp2279
tp2280
atp2281
sI1074245756
(Vrtc_clk_xtal_freq_get
p2282
(lp2283
(L436198866L
L0L
(lp2284
(lp2285
tp2286
a(L2847936993L
L0L
(lp2287
(lp2288
tp2289
a(L4141094988L
L0L
(lp2290
(lp2291
tp2292
a(L3360570486L
L0L
(lp2293
(lp2294
tp2295
atp2296
sI1074270068
(Vbootloader_read_bootloader_header
p2297
(lp2298
(L1158061215L
L3785322319L
(lp2299
(lp2300
Vbootloader_flash_read
p2301
atp2302
a(L4076891378L
L3785322319L
(lp2303
(lp2304
Vesp_log_early_timestamp
p2305
atp2306
a(L735741265L
L0L
(lp2307
(lp2308
tp2309
atp2310
sI1074236792
(Vbootloader_common_get_chip_ver_pkg
p2311
(lp2312
(L2886103845L
L0L
(lp2313
(lp2314
tp2315
atp2316
sI1074244740
(Vwdt_hal_enable
p2317
(lp2318
(L2299130915L
L0L
(lp2319
(lp2320
tp2321
a(L165794138L
L0L
(lp2322
(lp2323
tp2324
a(L3360570486L
L0L
(lp2325
(lp2326
tp2327
a(L2847657174L
L0L
(lp2328
(lp2329
tp2330
atp2331
sI1074237060
(Vefuse_hal_get_minor_chip_version
p2332
(lp2333
(L1213965243L
L0L
(lp2334
(lp2335
tp2336
atp2337
sI1074235264
(Vbootloader_flash_unlock
p2338
(lp2339
(L2142380611L
L3785322319L
(lp2340
(lp2341
Vesp_rom_spiflash_wait_idle
p2342
atp2343
a(L4212373562L
L0L
(lp2344
(lp2345
tp2346
a(L4292483033L
L3785322319L
(lp2347
(lp2348
Vbootloader_execute_flash_command
p2349
atp2350
a(L106L
L0L
(lp2351
(lp2352
tp2353
a(L1303560644L
L0L
(lp2354
(lp2355
tp2356
a(L610618440L
L0L
(lp2357
(lp2358
tp2359
a(L106L
L0L
(lp2360
(lp2361
tp2362
a(L345249462L
L0L
(lp2363
(lp2364
tp2365
a(L106L
L0L
(lp2366
(lp2367
tp2368
a(L1024465569L
L0L
(lp2369
(lp2370
tp2371
a(L106L
L0L
(lp2372
(lp2373
tp2374
a(L1481761147L
L1880226080L
(lp2375
(lp2376
Vbootloader_execute_flash_command
p2377
aVbootloader_execute_flash_command
p2378
atp2379
a(L2258807654L
L0L
(lp2380
(lp2381
tp2382
a(L489806350L
L1832448559L
(lp2383
(lp2384
Vesp_rom_spiflash_wait_idle
p2385
aVbootloader_execute_flash_command
p2386
aVbootloader_execute_flash_command
p2387
atp2388
a(L879744646L
L1832448559L
(lp2389
(lp2390
Vesp_rom_spiflash_wait_idle
p2391
aVbootloader_execute_flash_command
p2392
aVbootloader_execute_flash_command
p2393
atp2394
a(L1840772931L
L1880226080L
(lp2395
(lp2396
Vesp_rom_spiflash_wait_idle
p2397
aVbootloader_execute_flash_command
p2398
atp2399
a(L2993202392L
L0L
(lp2400
(lp2401
tp2402
a(L508800419L
L1880226080L
(lp2403
(lp2404
Vbootloader_execute_flash_command
p2405
aVbootloader_execute_flash_command
p2406
atp2407
a(L1303560369L
L0L
(lp2408
(lp2409
tp2410
a(L1596544945L
L0L
(lp2411
(lp2412
tp2413
a(L97689L
L0L
(lp2414
(lp2415
tp2416
a(L106L
L0L
(lp2417
(lp2418
tp2419
atp2420
sI1074234752
(Vbootloader_flash_execute_command_common
p2421
(lp2422
(L3865052895L
L0L
(lp2423
(lp2424
tp2425
a(L3287175998L
L0L
(lp2426
(lp2427
tp2428
a(L4121451103L
L3785322319L
(lp2429
(lp2430
V__assert_func
p2431
atp2432
a(L3021749L
L0L
(lp2433
(lp2434
tp2435
a(L3999871974L
L0L
(lp2436
(lp2437
tp2438
a(L543316797L
L0L
(lp2439
(lp2440
tp2441
a(L2091933878L
L0L
(lp2442
(lp2443
tp2444
a(L1702379862L
L0L
(lp2445
(lp2446
tp2447
a(L3432464320L
L0L
(lp2448
(lp2449
tp2450
a(L3539375712L
L0L
(lp2451
(lp2452
tp2453
a(L3244449450L
L0L
(lp2454
(lp2455
tp2456
a(L4233404408L
L0L
(lp2457
(lp2458
tp2459
a(L2990329343L
L0L
(lp2460
(lp2461
tp2462
a(L2051090536L
L0L
(lp2463
(lp2464
tp2465
a(L3333696662L
L0L
(lp2466
(lp2467
tp2468
a(L963425213L
L0L
(lp2469
(lp2470
tp2471
a(L339491738L
L0L
(lp2472
(lp2473
tp2474
a(L3360570486L
L0L
(lp2475
(lp2476
tp2477
atp2478
sI1074242176
(Vprocess_segments
p2479
(lp2480
(L1018786970L
L0L
(lp2481
(lp2482
tp2483
a(L3285816417L
L0L
(lp2484
(lp2485
tp2486
a(L3782401745L
L0L
(lp2487
(lp2488
tp2489
a(L106L
L0L
(lp2490
(lp2491
tp2492
a(L2411199274L
L0L
(lp2493
(lp2494
tp2495
a(L669991150L
L3785322319L
(lp2496
(lp2497
Vesp_log_early_timestamp
p2498
atp2499
a(L3085209925L
L3785322319L
(lp2500
(lp2501
Vbootloader_flash_read
p2502
atp2503
a(L125419343L
L3785322319L
(lp2504
(lp2505
Vesp_log_early_timestamp
p2506
atp2507
a(L3871473710L
L0L
(lp2508
(lp2509
tp2510
a(L234193771L
L0L
(lp2511
(lp2512
tp2513
a(L1635713494L
L3785322319L
(lp2514
(lp2515
Vbootloader_sha256_data
p2516
atp2517
a(L165187679L
L0L
(lp2518
(lp2519
tp2520
a(L334484485L
L0L
(lp2521
(lp2522
tp2523
a(L451332327L
L0L
(lp2524
(lp2525
tp2526
a(L3802067325L
L0L
(lp2527
(lp2528
tp2529
a(L3592389343L
L0L
(lp2530
(lp2531
tp2532
a(L2258867228L
L0L
(lp2533
(lp2534
tp2535
a(L1255782415L
L0L
(lp2536
(lp2537
tp2538
a(L1756760227L
L0L
(lp2539
(lp2540
tp2541
a(L1849436849L
L0L
(lp2542
(lp2543
tp2544
a(L1947739089L
L3785322319L
(lp2545
(lp2546
Vesp_log_early_timestamp
p2547
atp2548
a(L3601900694L
L0L
(lp2549
(lp2550
tp2551
a(L568253874L
L0L
(lp2552
(lp2553
tp2554
a(L3182428709L
L3785322319L
(lp2555
(lp2556
Vesp_log_early_timestamp
p2557
atp2558
a(L1973629750L
L3785322319L
(lp2559
(lp2560
Vverify_load_addresses
p2561
atp2562
a(L106L
L0L
(lp2563
(lp2564
tp2565
a(L914132342L
L0L
(lp2566
(lp2567
tp2568
a(L291460350L
L0L
(lp2569
(lp2570
tp2571
a(L4151532718L
L3785322319L
(lp2572
(lp2573
Vbootloader_mmap
p2574
atp2575
a(L3589484614L
L3785322319L
(lp2576
(lp2577
Vesp_log_early_timestamp
p2578
atp2579
a(L2994776696L
L0L
(lp2580
(lp2581
tp2582
a(L2942377727L
L0L
(lp2583
(lp2584
tp2585
a(L1652679798L
L3785322319L
(lp2586
(lp2587
Vbootloader_munmap
p2588
atp2589
a(L2993622008L
L0L
(lp2590
(lp2591
tp2592
a(L1216016797L
L3785322319L
(lp2593
(lp2594
Vbootloader_fill_random
p2595
atp2596
a(L3570641403L
L0L
(lp2597
(lp2598
tp2599
a(L3574335487L
L0L
(lp2600
(lp2601
tp2602
a(L3450268858L
L0L
(lp2603
(lp2604
tp2605
a(L3021749L
L0L
(lp2606
(lp2607
tp2608
a(L1609678444L
L0L
(lp2609
(lp2610
tp2611
a(L1777728568L
L0L
(lp2612
(lp2613
tp2614
a(L3020204L
L0L
(lp2615
(lp2616
tp2617
a(L1312354573L
L0L
(lp2618
(lp2619
tp2620
a(L2076461546L
L0L
(lp2621
(lp2622
tp2623
a(L3844184503L
L0L
(lp2624
(lp2625
tp2626
a(L1749969336L
L0L
(lp2627
(lp2628
tp2629
a(L670934548L
L0L
(lp2630
(lp2631
tp2632
a(L781506066L
L3785322319L
(lp2633
(lp2634
Vbootloader_sha256_data
p2635
atp2636
a(L90548756L
L0L
(lp2637
(lp2638
tp2639
a(L4195963580L
L0L
(lp2640
(lp2641
tp2642
a(L2422333549L
L0L
(lp2643
(lp2644
tp2645
a(L3132743422L
L0L
(lp2646
(lp2647
tp2648
a(L249537906L
L3785322319L
(lp2649
(lp2650
Vshould_load
p2651
atp2652
a(L2378267508L
L0L
(lp2653
(lp2654
tp2655
a(L3098292588L
L3785322319L
(lp2656
(lp2657
Vesp_log_early_timestamp
p2658
atp2659
a(L1263395604L
L0L
(lp2660
(lp2661
tp2662
a(L307916924L
L0L
(lp2663
(lp2664
tp2665
a(L3421814691L
L0L
(lp2666
(lp2667
tp2668
a(L81630008L
L0L
(lp2669
(lp2670
tp2671
a(L2742376716L
L0L
(lp2672
(lp2673
tp2674
a(L3786494677L
L3785322319L
(lp2675
(lp2676
Vbootloader_mmap_get_free_pages
p2677
atp2678
a(L2685118414L
L0L
(lp2679
(lp2680
tp2681
a(L2091285670L
L0L
(lp2682
(lp2683
tp2684
atp2685
sI1074270336
(Vbootloader_print_banner
p2686
(lp2687
(L3149952446L
L1880226080L
(lp2688
(lp2689
Vesp_log_early_timestamp
p2690
aVesp_log_early_timestamp
p2691
atp2692
atp2693
sI1074245516
(Vrtc_clk_slow_src_set
p2694
(lp2695
(L1719649901L
L0L
(lp2696
(lp2697
tp2698
a(L3020187L
L0L
(lp2699
(lp2700
tp2701
a(L3028481L
L0L
(lp2702
(lp2703
tp2704
a(L487821223L
L0L
(lp2705
(lp2706
tp2707
a(L185049753L
L0L
(lp2708
(lp2709
tp2710
a(L1851908495L
L0L
(lp2711
(lp2712
tp2713
a(L382170874L
L0L
(lp2714
(lp2715
tp2716
a(L3138544334L
L0L
(lp2717
(lp2718
tp2719
a(L94425498L
L3785322319L
(lp2720
(lp2721
Vabort
p2722
atp2723
atp2724
sI1074246028
(Vrtc_clk_xtal_freq_update
p2725
(lp2726
(L1422638466L
L0L
(lp2727
(lp2728
tp2729
a(L3509357017L
L0L
(lp2730
(lp2731
tp2732
a(L2266180931L
L0L
(lp2733
(lp2734
tp2735
atp2736
sI1074238344
(Vbootloader_enable_wp
p2737
(lp2738
(L1117825804L
L3785322319L
(lp2739
(lp2740
Vbootloader_execute_flash_command
p2741
atp2742
atp2743
sI1074237076
(Vesp_dport_access_reg_read
p2744
(lp2745
(L1099794772L
L0L
(lp2746
(lp2747
tp2748
atp2749
sI1074247572
(Vesp_rom_spiflash_read_status
p2750
(lp2751
(L2938520357L
L0L
(lp2752
(lp2753
tp2754
a(L1182811815L
L0L
(lp2755
(lp2756
tp2757
a(L1827921062L
L0L
(lp2758
(lp2759
tp2760
a(L106L
L0L
(lp2761
(lp2762
tp2763
a(L619542702L
L0L
(lp2764
(lp2765
tp2766
a(L3274807848L
L0L
(lp2767
(lp2768
tp2769
a(L2123059967L
L0L
(lp2770
(lp2771
tp2772
a(L3146966332L
L0L
(lp2773
(lp2774
tp2775
a(L2392720019L
L0L
(lp2776
(lp2777
tp2778
atp2779
sI1074238864
(Vcache_ll_l1_get_bus
p2780
(lp2781
(L3820023252L
L0L
(lp2782
(lp2783
tp2784
a(L94425498L
L3785322319L
(lp2785
(lp2786
Vabort
p2787
atp2788
a(L3179088012L
L0L
(lp2789
(lp2790
tp2791
a(L1844424101L
L0L
(lp2792
(lp2793
tp2794
a(L892952750L
L0L
(lp2795
(lp2796
tp2797
a(L1182811810L
L0L
(lp2798
(lp2799
tp2800
a(L1101742417L
L0L
(lp2801
(lp2802
tp2803
a(L1100767927L
L0L
(lp2804
(lp2805
tp2806
a(L3360570486L
L0L
(lp2807
(lp2808
tp2809
a(L2767111967L
L0L
(lp2810
(lp2811
tp2812
a(L892952750L
L0L
(lp2813
(lp2814
tp2815
a(L2258688482L
L0L
(lp2816
(lp2817
tp2818
a(L1353797152L
L0L
(lp2819
(lp2820
tp2821
a(L2258718273L
L0L
(lp2822
(lp2823
tp2824
a(L2938197270L
L0L
(lp2825
(lp2826
tp2827
a(L2748641547L
L0L
(lp2828
(lp2829
tp2830
a(L2752340901L
L0L
(lp2831
(lp2832
tp2833
a(L1641149277L
L0L
(lp2834
(lp2835
tp2836
a(L3211405977L
L0L
(lp2837
(lp2838
tp2839
a(L3027019L
L0L
(lp2840
(lp2841
tp2842
a(L1299866560L
L0L
(lp2843
(lp2844
tp2845
a(L1299866436L
L0L
(lp2846
(lp2847
tp2848
atp2849
sI1074238364
(Vbootloader_mmap_get_free_pages
p2850
(lp2851
(L1496516875L
L0L
(lp2852
(lp2853
tp2854
atp2855
sI1074240664
(Vbootloader_debug_buffer
p2856
(lp2857
(L2100504542L
L0L
(lp2858
(lp2859
tp2860
atp2861
sI1074236824
(Vesp_rom_uart_tx_wait_idle
p2862
(lp2863
(L3957152286L
L0L
(lp2864
(lp2865
tp2866
a(L1301079727L
L0L
(lp2867
(lp2868
tp2869
a(L3597746521L
L0L
(lp2870
(lp2871
tp2872
a(L3694491048L
L0L
(lp2873
(lp2874
tp2875
a(L3055926844L
L0L
(lp2876
(lp2877
tp2878
a(L3360570486L
L0L
(lp2879
(lp2880
tp2881
atp2882
sI1074235812
(Vbootloader_read_status_8b_rdsr
p2883
(lp2884
(L1945786777L
L3785322319L
(lp2885
(lp2886
Vbootloader_execute_flash_command
p2887
atp2888
atp2889
sI1074235556
(Vbootloader_flash_read_sfdp
p2890
(lp2891
(L711701400L
L0L
(lp2892
(lp2893
tp2894
a(L3334003234L
L3785322319L
(lp2895
(lp2896
V__assert_func
p2897
atp2898
a(L3704332455L
L3785322319L
(lp2899
(lp2900
Vbootloader_flash_execute_command_common
p2901
atp2902
atp2903
sI1074238372
(Vbootloader_fill_random
p2904
(lp2905
(L1233865241L
L0L
(lp2906
(lp2907
tp2908
a(L2195342884L
L3785322319L
(lp2909
(lp2910
V__assert_func
p2911
atp2912
a(L1882547218L
L0L
(lp2913
(lp2914
tp2915
a(L2910371777L
L0L
(lp2916
(lp2917
tp2918
a(L95634693L
L0L
(lp2919
(lp2920
tp2921
a(L3630908706L
L0L
(lp2922
(lp2923
tp2924
a(L160162640L
L0L
(lp2925
(lp2926
tp2927
a(L97689L
L0L
(lp2928
(lp2929
tp2930
a(L3360570486L
L0L
(lp2931
(lp2932
tp2933
atp2934
sI1074239140
(Vload_image
p2935
(lp2936
(L162490783L
L1832448559L
(lp2937
(lp2938
Vesp_log_early_timestamp
p2939
aVbootloader_random_disable
p2940
aVbootloader_ana_clock_glitch_reset_config
p2941
atp2942
a(L2118498116L
L0L
(lp2943
(lp2944
tp2945
a(L106L
L0L
(lp2946
(lp2947
tp2948
a(L1789307221L
L3758435744L
(lp2949
(lp2950
Vmmu_hal_init
p2951
aVcache_ll_l1_get_bus
p2952
aVcache_ll_l1_enable_bus
p2953
aVcache_ll_l1_get_bus
p2954
aVcache_ll_l1_enable_bus
p2955
aVcache_ll_l1_get_bus
p2956
aVcache_ll_l1_enable_bus
p2957
aVcache_ll_l1_get_bus
p2958
aVcache_ll_l1_enable_bus
p2959
aVbootloader_console_deinit
p2960
atp2961
a(L746432701L
L0L
(lp2962
(lp2963
tp2964
a(L2902417580L
L0L
(lp2965
(lp2966
tp2967
a(L1366048922L
L3785322319L
(lp2968
(lp2969
Vesp_log_early_timestamp
p2970
atp2971
a(L3064806881L
L0L
(lp2972
(lp2973
tp2974
a(L839502558L
L0L
(lp2975
(lp2976
tp2977
a(L3020204L
L0L
(lp2978
(lp2979
tp2980
a(L3328497686L
L3785322319L
(lp2981
(lp2982
Vesp_log_early_timestamp
p2983
atp2984
a(L3644183142L
L0L
(lp2985
(lp2986
tp2987
a(L356605111L
L0L
(lp2988
(lp2989
tp2990
atp2991
sI1074241956
(Vprocess_appended_hash_and_sig
p2992
(lp2993
(L1668084157L
L0L
(lp2994
(lp2995
tp2996
a(L2910371777L
L0L
(lp2997
(lp2998
tp2999
a(L1591589631L
L0L
(lp3000
(lp3001
tp3002
a(L2551256078L
L0L
(lp3003
(lp3004
tp3005
a(L2688085881L
L0L
(lp3006
(lp3007
tp3008
a(L3399920573L
L3785322319L
(lp3009
(lp3010
Vesp_log_early_timestamp
p3011
atp3012
a(L2268304300L
L3785322319L
(lp3013
(lp3014
Vbootloader_flash_read
p3015
atp3016
a(L3871473710L
L0L
(lp3017
(lp3018
tp3019
atp3020
sI1074245796
(Vrtc_clk_cpu_freq_mhz_to_config
p3021
(lp3022
(L908718885L
L3785322319L
(lp3023
(lp3024
Vrtc_clk_xtal_freq_get
p3025
atp3026
a(L60460069L
L0L
(lp3027
(lp3028
tp3029
a(L3802072124L
L0L
(lp3030
(lp3031
tp3032
a(L3159006042L
L0L
(lp3033
(lp3034
tp3035
a(L3360570486L
L0L
(lp3036
(lp3037
tp3038
a(L895147205L
L0L
(lp3039
(lp3040
tp3041
a(L3970036657L
L0L
(lp3042
(lp3043
tp3044
a(L2731353429L
L0L
(lp3045
(lp3046
tp3047
a(L1555485793L
L0L
(lp3048
(lp3049
tp3050
a(L2258897023L
L0L
(lp3051
(lp3052
tp3053
a(L1947499251L
L0L
(lp3054
(lp3055
tp3056
a(L1306331021L
L0L
(lp3057
(lp3058
tp3059
atp3060
sI1074240672
(Vbootloader_sha256_start
p3061
(lp3062
(L260677377L
L0L
(lp3063
(lp3064
tp3065
atp3066
sI1074239648
(Vbootloader_utility_load_partition_table
p3067
(lp3068
(L973068460L
L3785322319L
(lp3069
(lp3070
Vbootloader_mmap
p3071
atp3072
a(L1894723508L
L3785322319L
(lp3073
(lp3074
Vesp_log_early_timestamp
p3075
atp3076
a(L2258688482L
L0L
(lp3077
(lp3078
tp3079
a(L3360570486L
L0L
(lp3080
(lp3081
tp3082
a(L3881596654L
L3785322319L
(lp3083
(lp3084
Vesp_partition_table_verify
p3085
atp3086
a(L418712718L
L3785322319L
(lp3087
(lp3088
Vesp_log_early_timestamp
p3089
atp3090
a(L3331315958L
L1880226080L
(lp3091
(lp3092
Vesp_log_early_timestamp
p3093
aVesp_log_early_timestamp
p3094
atp3095
a(L650140130L
L0L
(lp3096
(lp3097
tp3098
a(L3929231144L
L1880226080L
(lp3099
(lp3100
Vbootloader_munmap
p3101
aVesp_log_early_timestamp
p3102
atp3103
a(L521126897L
L0L
(lp3104
(lp3105
tp3106
a(L3028464L
L0L
(lp3107
(lp3108
tp3109
a(L106L
L0L
(lp3110
(lp3111
tp3112
a(L1403802546L
L0L
(lp3113
(lp3114
tp3115
a(L352196314L
L3785322319L
(lp3116
(lp3117
Vesp_log_early_timestamp
p3118
atp3119
a(L3990577774L
L0L
(lp3120
(lp3121
tp3122
a(L3020187L
L0L
(lp3123
(lp3124
tp3125
a(L2318212397L
L0L
(lp3126
(lp3127
tp3128
a(L4208504540L
L0L
(lp3129
(lp3130
tp3131
a(L1859217843L
L0L
(lp3132
(lp3133
tp3134
a(L2546691246L
L0L
(lp3135
(lp3136
tp3137
a(L3797730446L
L0L
(lp3138
(lp3139
tp3140
a(L106L
L0L
(lp3141
(lp3142
tp3143
a(L93674324L
L0L
(lp3144
(lp3145
tp3146
a(L1583301205L
L0L
(lp3147
(lp3148
tp3149
a(L1938133383L
L0L
(lp3150
(lp3151
tp3152
a(L1630400759L
L0L
(lp3153
(lp3154
tp3155
a(L106L
L0L
(lp3156
(lp3157
tp3158
a(L928516522L
L0L
(lp3159
(lp3160
tp3161
a(L106L
L0L
(lp3162
(lp3163
tp3164
a(L568204863L
L0L
(lp3165
(lp3166
tp3167
atp3168
sI1074237088
(Vis_xmc_chip_strict
p3169
(lp3170
(L1286841609L
L0L
(lp3171
(lp3172
tp3173
a(L2234016759L
L0L
(lp3174
(lp3175
tp3176
a(L1069027148L
L0L
(lp3177
(lp3178
tp3179
a(L3021749L
L0L
(lp3180
(lp3181
tp3182
a(L1900148749L
L0L
(lp3183
(lp3184
tp3185
a(L1936875721L
L0L
(lp3186
(lp3187
tp3188
a(L3356166509L
L0L
(lp3189
(lp3190
tp3191
a(L1937769451L
L0L
(lp3192
(lp3193
tp3194
a(L2137658907L
L0L
(lp3195
(lp3196
tp3197
a(L4265949734L
L0L
(lp3198
(lp3199
tp3200
a(L3360570486L
L0L
(lp3201
(lp3202
tp3203
atp3204
sI1074236064
(Vbootloader_flash_cs_timing_config
p3205
(lp3206
(L1940014330L
L0L
(lp3207
(lp3208
tp3209
atp3210
sI1074245280
(Vrtc_clk_32k_enable
p3211
(lp3212
(L753387299L
L0L
(lp3213
(lp3214
tp3215
a(L3776007933L
L3785322319L
(lp3216
(lp3217
Vrtc_clk_32k_enable_common
p3218
atp3219
a(L3496950L
L0L
(lp3220
(lp3221
tp3222
a(L2501812159L
L0L
(lp3223
(lp3224
tp3225
atp3226
sI1074270112
(Vbootloader_check_bootloader_validity
p3227
(lp3228
(L3415859220L
L1832448559L
(lp3229
(lp3230
Vefuse_hal_chip_revision
p3231
aVesp_log_early_timestamp
p3232
aVbootloader_common_check_chip_validity
p3233
atp3234
atp3235
sI1074240692
(Vbootloader_sha256_data
p3236
(lp3237
(L4066096136L
L0L
(lp3238
(lp3239
tp3240
a(L110883720L
L0L
(lp3241
(lp3242
tp3243
a(L3884092851L
L3785322319L
(lp3244
(lp3245
V__assert_func
p3246
atp3247
a(L498498478L
L0L
(lp3248
(lp3249
tp3250
a(L1040021824L
L0L
(lp3251
(lp3252
tp3253
a(L2910371777L
L0L
(lp3254
(lp3255
tp3256
a(L3360570486L
L0L
(lp3257
(lp3258
tp3259
a(L1788837773L
L0L
(lp3260
(lp3261
tp3262
a(L541898147L
L0L
(lp3263
(lp3264
tp3265
a(L2604061911L
L0L
(lp3266
(lp3267
tp3268
a(L8683590L
L0L
(lp3269
(lp3270
tp3271
a(L3387118333L
L0L
(lp3272
(lp3273
tp3274
a(L2032890799L
L0L
(lp3275
(lp3276
tp3277
a(L3028464L
L0L
(lp3278
(lp3279
tp3280
a(L707876039L
L0L
(lp3281
(lp3282
tp3283
a(L498156265L
L0L
(lp3284
(lp3285
tp3286
atp3287
sI1074268860
(Vbootloader_common_vddsdio_configure
p3288
(lp3289
(L1829974089L
L3785322319L
(lp3290
(lp3291
Vrtc_vddsdio_get_config
p3292
atp3293
a(L1489249795L
L3785322319L
(lp3294
(lp3295
Vrtc_vddsdio_set_config
p3296
atp3297
a(L3360570486L
L0L
(lp3298
(lp3299
tp3300
atp3301
sI1074270652
(Vrtc_clk_init
p3302
(lp3303
(L2631239475L
L0L
(lp3304
(lp3305
tp3306
a(L42671777L
L3785322319L
(lp3307
(lp3308
Vrtc_clk_cpu_freq_to_xtal
p3309
atp3310
a(L2129928134L
L3785322319L
(lp3311
(lp3312
Vrtc_clk_xtal_freq_get
p3313
atp3314
a(L89029051L
L0L
(lp3315
(lp3316
tp3317
a(L4187693717L
L3785322319L
(lp3318
(lp3319
Vrtc_clk_xtal_freq_estimate
p3320
atp3321
a(L3087272466L
L3785322319L
(lp3322
(lp3323
Vesp_log_early_timestamp
p3324
atp3325
a(L1305145226L
L1157885199L
(lp3326
(lp3327
Vesp_rom_uart_tx_wait_idle
p3328
aVrtc_clk_xtal_freq_update
p3329
aVrtc_clk_apb_freq_update
p3330
aVrtc_clk_cpu_freq_get_config
p3331
aVrtc_clk_cpu_freq_mhz_to_config
p3332
atp3333
a(L2956683660L
L1880226080L
(lp3334
(lp3335
Vesp_log_early_timestamp
p3336
aVabort
p3337
atp3338
a(L3028481L
L0L
(lp3339
(lp3340
tp3341
a(L4070631611L
L3785322319L
(lp3342
(lp3343
Vrtc_clk_xtal_freq_estimate
p3344
atp3345
a(L646441544L
L3785322319L
(lp3346
(lp3347
Vesp_log_early_timestamp
p3348
atp3349
a(L1492887352L
L3785322319L
(lp3350
(lp3351
Vrtc_clk_cpu_freq_set_config
p3352
atp3353
a(L912310138L
L3785322319L
(lp3354
(lp3355
Vrtc_clk_32k_enable
p3356
atp3357
a(L3191820416L
L1832448559L
(lp3358
(lp3359
Vrtc_clk_8m_enable
p3360
aVrtc_clk_fast_src_set
p3361
aVrtc_clk_slow_src_set
p3362
atp3363
a(L1232958848L
L0L
(lp3364
(lp3365
tp3366
atp3367
sI1074268080
(Vbootloader_init
p3368
(lp3369
(L270395025L
L3785322319L
(lp3370
(lp3371
Vbootloader_init_mem
p3372
atp3373
a(L1265242158L
L0L
(lp3374
(lp3375
tp3376
a(L1494621136L
L3785322319L
(lp3377
(lp3378
V__assert_func
p3379
atp3380
a(L4126189388L
L0L
(lp3381
(lp3382
tp3383
a(L4255864574L
L0L
(lp3384
(lp3385
tp3386
a(L3813782018L
L0L
(lp3387
(lp3388
tp3389
a(L1364096344L
L0L
(lp3390
(lp3391
tp3392
a(L3027019L
L0L
(lp3393
(lp3394
tp3395
a(L3563591778L
L0L
(lp3396
(lp3397
tp3398
a(L2283383106L
L1832448559L
(lp3399
(lp3400
Vbootloader_clear_bss_section
p3401
aVbootloader_common_vddsdio_configure
p3402
aVbootloader_clock_get_rated_freq_mhz
p3403
atp3404
a(L3987130017L
L1157885199L
(lp3405
(lp3406
Vbootloader_clock_configure
p3407
aVbootloader_console_init
p3408
aVbootloader_print_banner
p3409
aVbootloader_flash_update_id
p3410
aVbootloader_flash_xmc_startup
p3411
atp3412
a(L1920341648L
L3785322319L
(lp3413
(lp3414
Vesp_log_early_timestamp
p3415
atp3416
a(L2759316499L
L3785322319L
(lp3417
(lp3418
Vesp_log_early_timestamp
p3419
atp3420
a(L3360570486L
L0L
(lp3421
(lp3422
tp3423
a(L2444883382L
L3785322319L
(lp3424
(lp3425
Vbootloader_read_bootloader_header
p3426
atp3427
a(L2444883382L
L3785322319L
(lp3428
(lp3429
Vbootloader_check_bootloader_validity
p3430
atp3431
a(L2696635194L
L1157885199L
(lp3432
(lp3433
Vbootloader_flash_gpio_config
p3434
aVbootloader_flash_dummy_config
p3435
aVbootloader_flash_cs_timing_config
p3436
aVbootloader_flash_unlock
p3437
aVbootloader_enable_qio_mode
p3438
atp3439
a(L51029731L
L0L
(lp3440
(lp3441
tp3442
a(L471947987L
L0L
(lp3443
(lp3444
tp3445
a(L1404489890L
L0L
(lp3446
(lp3447
tp3448
a(L3674001403L
L3785322319L
(lp3449
(lp3450
Vesp_log_early_timestamp
p3451
atp3452
a(L92454083L
L0L
(lp3453
(lp3454
tp3455
a(L96148167L
L0L
(lp3456
(lp3457
tp3458
a(L99842251L
L0L
(lp3459
(lp3460
tp3461
a(L139553654L
L0L
(lp3462
(lp3463
tp3464
a(L1404491141L
L0L
(lp3465
(lp3466
tp3467
a(L796169228L
L3785322319L
(lp3468
(lp3469
Vesp_log_early_timestamp
p3470
atp3471
a(L93837694L
L0L
(lp3472
(lp3473
tp3474
a(L106L
L0L
(lp3475
(lp3476
tp3477
a(L258083190L
L0L
(lp3478
(lp3479
tp3480
a(L2752571198L
L0L
(lp3481
(lp3482
tp3483
a(L3902507129L
L0L
(lp3484
(lp3485
tp3486
a(L1701707570L
L3785322319L
(lp3487
(lp3488
Vesp_log_early_timestamp
p3489
atp3490
a(L93837694L
L0L
(lp3491
(lp3492
tp3493
a(L106L
L0L
(lp3494
(lp3495
tp3496
a(L3029526157L
L0L
(lp3497
(lp3498
tp3499
a(L2772639124L
L0L
(lp3500
(lp3501
tp3502
a(L2807278488L
L0L
(lp3503
(lp3504
tp3505
a(L3379747486L
L3785322319L
(lp3506
(lp3507
Vbootloader_enable_wp
p3508
atp3509
a(L1266399027L
L0L
(lp3510
(lp3511
tp3512
a(L1895147922L
L0L
(lp3513
(lp3514
tp3515
a(L2166009126L
L3785322319L
(lp3516
(lp3517
Vesp_log_early_timestamp
p3518
atp3519
a(L3639065141L
L0L
(lp3520
(lp3521
tp3522
a(L3616326365L
L0L
(lp3523
(lp3524
tp3525
a(L1129025932L
L0L
(lp3526
(lp3527
tp3528
a(L1569238687L
L3785322319L
(lp3529
(lp3530
Vesp_log_early_timestamp
p3531
atp3532
a(L4263191691L
L1880226080L
(lp3533
(lp3534
Vwdt_reset_info_dump
p3535
aVwdt_reset_info_dump
p3536
atp3537
a(L2752562921L
L0L
(lp3538
(lp3539
tp3540
a(L106L
L0L
(lp3541
(lp3542
tp3543
a(L718636321L
L0L
(lp3544
(lp3545
tp3546
a(L1767021965L
L0L
(lp3547
(lp3548
tp3549
a(L3028481L
L0L
(lp3550
(lp3551
tp3552
a(L3981500492L
L1880226080L
(lp3553
(lp3554
Vbootloader_config_wdt
p3555
aVbootloader_enable_random
p3556
atp3557
atp3558
sI1074270384
(Vbootloader_console_init
p3559
(lp3560
(L2049351542L
L1832448559L
(lp3561
(lp3562
Vesp_rom_uart_tx_wait_idle
p3563
aVrtc_clk_apb_freq_get
p3564
aVesp_rom_uart_set_clock_baudrate
p3565
atp3566
atp3567
sI1074235836
(Vbootloader_read_status_8b_rdsr2
p3568
(lp3569
(L3746738790L
L3785322319L
(lp3570
(lp3571
Vbootloader_execute_flash_command
p3572
atp3573
atp3574
sI1074237624
(Vspi_to_esp_err
p3575
(lp3576
(L3520881295L
L0L
(lp3577
(lp3578
tp3579
a(L2402400019L
L0L
(lp3580
(lp3581
tp3582
a(L3952441574L
L0L
(lp3583
(lp3584
tp3585
a(L3126521138L
L0L
(lp3586
(lp3587
tp3588
atp3589
sI1074237880
(Vbootloader_munmap
p3590
(lp3591
(L1697403118L
L0L
(lp3592
(lp3593
tp3594
a(L3761142808L
L0L
(lp3595
(lp3596
tp3597
a(L3360570486L
L0L
(lp3598
(lp3599
tp3600
atp3601
sI1074246072
(Vrtc_clk_apb_freq_update
p3602
(lp3603
(L723331471L
L0L
(lp3604
(lp3605
tp3606
atp3607
sI1074269644
(Vbootloader_enable_qio_mode
p3608
(lp3609
(L3686454823L
L3785322319L
(lp3610
(lp3611
Vesp_rom_spiflash_wait_idle
p3612
atp3613
a(L4020441777L
L0L
(lp3614
(lp3615
tp3616
a(L106L
L0L
(lp3617
(lp3618
tp3619
a(L3636790596L
L0L
(lp3620
(lp3621
tp3622
a(L106L
L0L
(lp3623
(lp3624
tp3625
a(L3324416480L
L3785322319L
(lp3626
(lp3627
Vesp_log_early_timestamp
p3628
atp3629
a(L141799652L
L3785322319L
(lp3630
(lp3631
Vesp_rom_spiflash_wait_idle
p3632
atp3633
a(L4048775863L
L1880226080L
(lp3634
(lp3635
Vbootloader_execute_flash_command
p3636
aVesp_rom_spiflash_wait_idle
p3637
atp3638
a(L3207603966L
L3785322319L
(lp3639
(lp3640
Vesp_log_early_timestamp
p3641
atp3642
a(L3360570486L
L0L
(lp3643
(lp3644
tp3645
a(L1135431086L
L0L
(lp3646
(lp3647
tp3648
a(L2065152161L
L0L
(lp3649
(lp3650
tp3651
a(L873162525L
L1880226080L
(lp3652
(lp3653
Vesp_rom_spiflash_config_readmode
p3654
aVbootloader_flash_get_wp_pin
p3655
atp3656
atp3657
sI1074244812
(Vmmu_hal_init
p3658
(lp3659
(L1381828061L
L0L
(lp3660
(lp3661
tp3662
a(L2010554219L
L0L
(lp3663
(lp3664
tp3665
a(L3268103L
L0L
(lp3666
(lp3667
tp3668
a(L3212334523L
L0L
(lp3669
(lp3670
tp3671
a(L2010554219L
L0L
(lp3672
(lp3673
tp3674
a(L3360570486L
L0L
(lp3675
(lp3676
tp3677
atp3678
sI1074244296
(Vwdt_hal_config_stage
p3679
(lp3680
(L331558507L
L0L
(lp3681
(lp3682
tp3683
a(L4279082939L
L0L
(lp3684
(lp3685
tp3686
a(L93674324L
L0L
(lp3687
(lp3688
tp3689
a(L2902417580L
L0L
(lp3690
(lp3691
tp3692
a(L1485495983L
L0L
(lp3693
(lp3694
tp3695
a(L3020187L
L0L
(lp3696
(lp3697
tp3698
a(L94425498L
L3785322319L
(lp3699
(lp3700
Vabort
p3701
atp3702
a(L2718517169L
L0L
(lp3703
(lp3704
tp3705
a(L3360570486L
L0L
(lp3706
(lp3707
tp3708
a(L1996799187L
L0L
(lp3709
(lp3710
tp3711
a(L2771194801L
L0L
(lp3712
(lp3713
tp3714
a(L4278159418L
L0L
(lp3715
(lp3716
tp3717
a(L93674324L
L0L
(lp3718
(lp3719
tp3720
a(L3020204L
L0L
(lp3721
(lp3722
tp3723
a(L3391750594L
L0L
(lp3724
(lp3725
tp3726
a(L3020187L
L0L
(lp3727
(lp3728
tp3729
a(L106L
L0L
(lp3730
(lp3731
tp3732
a(L239610384L
L0L
(lp3733
(lp3734
tp3735
a(L831450820L
L0L
(lp3736
(lp3737
tp3738
a(L3340783449L
L0L
(lp3739
(lp3740
tp3741
atp3742
sI1074245064
(Vrtc_clk_cpu_freq_to_pll_mhz
p3743
(lp3744
(L1393544349L
L0L
(lp3745
(lp3746
tp3747
a(L405771233L
L0L
(lp3748
(lp3749
tp3750
a(L2930233244L
L0L
(lp3751
(lp3752
tp3753
a(L3298441904L
L0L
(lp3754
(lp3755
tp3756
a(L3680579786L
L0L
(lp3757
(lp3758
tp3759
a(L1298905564L
L0L
(lp3760
(lp3761
tp3762
a(L46269790L
L3785322319L
(lp3763
(lp3764
Vrtc_clk_wait_for_slow_cycle
p3765
atp3766
a(L1611366957L
L0L
(lp3767
(lp3768
tp3769
a(L1611366988L
L0L
(lp3770
(lp3771
tp3772
a(L94425498L
L3785322319L
(lp3773
(lp3774
Vabort
p3775
atp3776
atp3777
sI1074235860
(Vbootloader_read_status_16b_rdsr_rdsr2
p3778
(lp3779
(L2652824119L
L1880226080L
(lp3780
(lp3781
Vbootloader_execute_flash_command
p3782
aVbootloader_execute_flash_command
p3783
atp3784
atp3785
sI1074246100
(Vrtc_clk_cpu_freq_to_xtal
p3786
(lp3787
(L2382625401L
L0L
(lp3788
(lp3789
tp3790
a(L94425498L
L3785322319L
(lp3791
(lp3792
Vabort
p3793
atp3794
a(L2975556993L
L3785322319L
(lp3795
(lp3796
Vrtc_clk_apb_freq_update
p3797
atp3798
a(L2258867232L
L0L
(lp3799
(lp3800
tp3801
a(L362206021L
L0L
(lp3802
(lp3803
tp3804
atp3805
sI1074247380
(Vrtc_clk_cal_ratio
p3806
(lp3807
(L1201925337L
L3785322319L
(lp3808
(lp3809
Vrtc_clk_cal_internal
p3810
atp3811
atp3812
sI1074269148
(Vbootloader_init_mem
p3813
(lp3814
(L1287383080L
L3785322319L
(lp3815
(lp3816
Vesp_cpu_configure_region_protection
p3817
atp3818
atp3819
sI1074245340
(Vrtc_clk_8m_enable
p3820
(lp3821
(L1843101924L
L0L
(lp3822
(lp3823
tp3824
a(L3147299128L
L0L
(lp3825
(lp3826
tp3827
a(L2151320156L
L0L
(lp3828
(lp3829
tp3830
a(L711175840L
L0L
(lp3831
(lp3832
tp3833
a(L3360570486L
L0L
(lp3834
(lp3835
tp3836
a(L1318267208L
L0L
(lp3837
(lp3838
tp3839
a(L512411289L
L0L
(lp3840
(lp3841
tp3842
atp3843
sI1074267860
(Vwdt_reset_info_dump
p3844
(lp3845
(L4037466985L
L0L
(lp3846
(lp3847
tp3848
a(L826419141L
L0L
(lp3849
(lp3850
tp3851
a(L527117834L
L0L
(lp3852
(lp3853
tp3854
a(L1103285333L
L0L
(lp3855
(lp3856
tp3857
a(L897464656L
L3785322319L
(lp3858
(lp3859
Vesp_log_early_timestamp
p3860
atp3861
a(L2967992533L
L0L
(lp3862
(lp3863
tp3864
a(L144195250L
L3785322319L
(lp3865
(lp3866
Vesp_log_early_timestamp
p3867
atp3868
a(L2899013701L
L0L
(lp3869
(lp3870
tp3871
atp3872
sI1074270420
(Vesp_cpu_configure_region_protection
p3873
(lp3874
(L2885430505L
L0L
(lp3875
(lp3876
tp3877
a(L180431425L
L3785322319L
(lp3878
(lp3879
Vmpu_hal_set_region_access
p3880
atp3881
a(L2537388152L
L3785322319L
(lp3882
(lp3883
Vmpu_hal_set_region_access
p3884
atp3885
atp3886
sI1074235608
(Vbootloader_read_flash_id
p3887
(lp3888
(L549578328L
L3785322319L
(lp3889
(lp3890
Vbootloader_execute_flash_command
p3891
atp3892
atp3893
sI1074236888
(Vesp_rom_uart_set_clock_baudrate
p3894
(lp3895
(L2889646162L
L0L
(lp3896
(lp3897
tp3898
a(L2316512566L
L0L
(lp3899
(lp3900
tp3901
a(L2805931268L
L0L
(lp3902
(lp3903
tp3904
a(L2901979283L
L0L
(lp3905
(lp3906
tp3907
atp3908
sI1074237656
(Vbootloader_mmap
p3909
(lp3910
(L3624397292L
L0L
(lp3911
(lp3912
tp3913
a(L3762918116L
L3785322319L
(lp3914
(lp3915
Vesp_log_early_timestamp
p3916
atp3917
a(L3871473710L
L0L
(lp3918
(lp3919
tp3920
a(L3729184599L
L0L
(lp3921
(lp3922
tp3923
a(L3066168078L
L3785322319L
(lp3924
(lp3925
Vesp_log_early_timestamp
p3926
atp3927
a(L1864365708L
L0L
(lp3928
(lp3929
tp3930
a(L2872111263L
L3785322319L
(lp3931
(lp3932
Vesp_log_early_timestamp
p3933
atp3934
a(L258722864L
L0L
(lp3935
(lp3936
tp3937
a(L3746164654L
L3785322319L
(lp3938
(lp3939
Vesp_log_early_timestamp
p3940
atp3941
a(L2535155408L
L0L
(lp3942
(lp3943
tp3944
atp3945
sI1074236644
(Vbootloader_flash_dummy_config
p3946
(lp3947
(L262000646L
L0L
(lp3948
(lp3949
tp3950
a(L2761717557L
L0L
(lp3951
(lp3952
tp3953
a(L1849044936L
L0L
(lp3954
(lp3955
tp3956
a(L708753936L
L0L
(lp3957
(lp3958
tp3959
a(L1010450057L
L0L
(lp3960
(lp3961
tp3962
a(L3020204L
L0L
(lp3963
(lp3964
tp3965
a(L1610443405L
L0L
(lp3966
(lp3967
tp3968
a(L4032120524L
L0L
(lp3969
(lp3970
tp3971
a(L2336993863L
L0L
(lp3972
(lp3973
tp3974
a(L1298875775L
L0L
(lp3975
(lp3976
tp3977
a(L3880393601L
L0L
(lp3978
(lp3979
tp3980
a(L3328946209L
L0L
(lp3981
(lp3982
tp3983
a(L1610443436L
L0L
(lp3984
(lp3985
tp3986
atp3987
sI1074241504
(Vbootloader_util_regions_overlap
p3988
(lp3989
(L2762640130L
L0L
(lp3990
(lp3991
tp3992
a(L2198512677L
L0L
(lp3993
(lp3994
tp3995
a(L2217655633L
L3785322319L
(lp3996
(lp3997
V__assert_func
p3998
atp3999
a(L97642L
L0L
(lp4000
(lp4001
tp4002
a(L996187529L
L0L
(lp4003
(lp4004
tp4005
a(L366123053L
L0L
(lp4006
(lp4007
tp4008
a(L2258867228L
L0L
(lp4009
(lp4010
tp4011
a(L1253626734L
L0L
(lp4012
(lp4013
tp4014
a(L2258897019L
L0L
(lp4015
(lp4016
tp4017
a(L3109269495L
L0L
(lp4018
(lp4019
tp4020
atp4021
sI1074237932
(Vbootloader_flash_read
p4022
(lp4023
(L728393898L
L0L
(lp4024
(lp4025
tp4026
a(L1489400095L
L3785322319L
(lp4027
(lp4028
Vesp_log_early_timestamp
p4029
atp4030
a(L1941789336L
L0L
(lp4031
(lp4032
tp4033
a(L3360570486L
L0L
(lp4034
(lp4035
tp4036
a(L2660352519L
L0L
(lp4037
(lp4038
tp4039
a(L1179571938L
L3785322319L
(lp4040
(lp4041
Vesp_log_early_timestamp
p4042
atp4043
a(L162336582L
L0L
(lp4044
(lp4045
tp4046
a(L814874711L
L3785322319L
(lp4047
(lp4048
Vesp_log_early_timestamp
p4049
atp4050
a(L3020204L
L0L
(lp4051
(lp4052
tp4053
a(L3893043951L
L0L
(lp4054
(lp4055
tp4056
a(L97422L
L0L
(lp4057
(lp4058
tp4059
a(L1190291857L
L0L
(lp4060
(lp4061
tp4062
a(L2961856275L
L0L
(lp4063
(lp4064
tp4065
a(L2859434406L
L3785322319L
(lp4066
(lp4067
V__assert_func
p4068
atp4069
a(L1539897528L
L0L
(lp4070
(lp4071
tp4072
a(L1915165223L
L0L
(lp4073
(lp4074
tp4075
a(L1336007148L
L1880226080L
(lp4076
(lp4077
Vesp_rom_spiflash_read
p4078
aVspi_to_esp_err
p4079
atp4080
atp4081
sI1074247660
(Vesp_rom_spiflash_wait_idle
p4082
(lp4083
(L3233077286L
L0L
(lp4084
(lp4085
tp4086
a(L2023766174L
L0L
(lp4087
(lp4088
tp4089
a(L2805935267L
L0L
(lp4090
(lp4091
tp4092
a(L3086959262L
L0L
(lp4093
(lp4094
tp4095
a(L4161019926L
L3785322319L
(lp4096
(lp4097
Vesp_rom_spiflash_read_status
p4098
atp4099
atp4100
sI1074269156
(Vbootloader_random_enable
p4101
(lp4102
(L1578364810L
L0L
(lp4103
(lp4104
tp4105
atp4106
sI1074270180
(Vbootloader_config_wdt
p4107
(lp4108
(L1894293052L
L505859776L
(lp4109
(lp4110
Vwdt_hal_write_protect_disable
p4111
aVwdt_hal_set_flashboot_en
p4112
aVwdt_hal_write_protect_enable
p4113
aVwdt_hal_init
p4114
aVrtc_clk_slow_freq_get_hz
p4115
aVwdt_hal_write_protect_disable
p4116
aVwdt_hal_config_stage
p4117
aVwdt_hal_enable
p4118
aVwdt_hal_write_protect_enable
p4119
aVwdt_hal_write_protect_disable
p4120
aVwdt_hal_set_flashboot_en
p4121
aVwdt_hal_write_protect_enable
p4122
atp4123
atp4124
sI1074238184
(Vbootloader_flash_erase_sector
p4125
(lp4126
(L4129137686L
L1880226080L
(lp4127
(lp4128
Vesp_rom_spiflash_erase_sector
p4129
aVspi_to_esp_err
p4130
atp4131
atp4132
sI1074237160
(Vesp_log_early_timestamp
p4133
(lp4134
(L3733265409L
L0L
(lp4135
(lp4136
tp4137
atp4138
sI1074248680
(Vesp_rom_spiflash_erase_sector
p4139
(lp4140
(L1639175887L
L0L
(lp4141
(lp4142
tp4143
a(L2258688483L
L0L
(lp4144
(lp4145
tp4146
a(L3360570486L
L0L
(lp4147
(lp4148
tp4149
a(L3212356251L
L3785322319L
(lp4150
(lp4151
Vesp_rom_spiflash_enable_write
p4152
atp4153
a(L184152988L
L0L
(lp4154
(lp4155
tp4156
a(L146829482L
L3785322319L
(lp4157
(lp4158
Vesp_rom_spiflash_wait_idle
p4159
atp4160
a(L3333707777L
L0L
(lp4161
(lp4162
tp4163
a(L3582858798L
L3785322319L
(lp4164
(lp4165
Vesp_rom_spiflash_wait_idle
p4166
atp4167
atp4168
sI1074238452
(Vbootloader_random_disable
p4169
(lp4170
(L2825582328L
L0L
(lp4171
(lp4172
tp4173
atp4174
sI1074246900
(Vrtc_clk_apb_freq_get
p4175
(lp4176
(L3268507198L
L0L
(lp4177
(lp4178
tp4179
atp4180
sI1074247412
(Vrtc_clk_wait_for_slow_cycle
p4181
(lp4182
(L57851970L
L0L
(lp4183
(lp4184
tp4185
a(L287687718L
L0L
(lp4186
(lp4187
tp4188
a(L3360570486L
L0L
(lp4189
(lp4190
tp4191
a(L2237399032L
L0L
(lp4192
(lp4193
tp4194
a(L2994547433L
L0L
(lp4195
(lp4196
tp4197
a(L2206597745L
L0L
(lp4198
(lp4199
tp4200
a(L788148307L
L3785322319L
(lp4201
(lp4202
Vesp_log_early_timestamp
p4203
atp4204
atp4205
sI1074244860
(Vefuse_hal_get_rated_freq_mhz
p4206
(lp4207
(L3936657855L
L0L
(lp4208
(lp4209
tp4210
a(L3671388797L
L0L
(lp4211
(lp4212
tp4213
a(L3360570486L
L0L
(lp4214
(lp4215
tp4216
atp4217
sI1074235900
(Vbootloader_write_status_8b_wrsr
p4218
(lp4219
(L3692606543L
L3785322319L
(lp4220
(lp4221
Vbootloader_execute_flash_command
p4222
atp4223
atp4224
sI1074238204
(Vbootloader_flash_write
p4225
(lp4226
(L3770380603L
L0L
(lp4227
(lp4228
tp4229
a(L2615366646L
L3785322319L
(lp4230
(lp4231
Vesp_log_early_timestamp
p4232
atp4233
a(L3833270346L
L0L
(lp4234
(lp4235
tp4236
a(L1610445075L
L0L
(lp4237
(lp4238
tp4239
a(L735741265L
L0L
(lp4240
(lp4241
tp4242
a(L3291333414L
L0L
(lp4243
(lp4244
tp4245
a(L1873007406L
L3785322319L
(lp4246
(lp4247
Vesp_log_early_timestamp
p4248
atp4249
a(L3283691850L
L0L
(lp4250
(lp4251
tp4252
a(L2141475974L
L3785322319L
(lp4253
(lp4254
Vesp_log_early_timestamp
p4255
atp4256
a(L3212356251L
L3785322319L
(lp4257
(lp4258
Vbootloader_flash_unlock
p4259
atp4260
a(L1799218633L
L0L
(lp4261
(lp4262
tp4263
a(L94425498L
L3785322319L
(lp4264
(lp4265
Vesp_rom_spiflash_write_encrypted
p4266
atp4267
a(L2927190544L
L3785322319L
(lp4268
(lp4269
Vspi_to_esp_err
p4270
atp4271
a(L2927190544L
L3785322319L
(lp4272
(lp4273
Vesp_rom_spiflash_write
p4274
atp4275
atp4276
sI1074268916
(Vbootloader_clock_configure
p4277
(lp4278
(L2559598596L
L1880226080L
(lp4279
(lp4280
Vesp_rom_uart_tx_wait_idle
p4281
aVefuse_hal_chip_revision
p4282
atp4283
a(L4006799969L
L0L
(lp4284
(lp4285
tp4286
a(L883406775L
L0L
(lp4287
(lp4288
tp4289
a(L106L
L0L
(lp4290
(lp4291
tp4292
a(L4161070602L
L1832448559L
(lp4293
(lp4294
Vrtc_clk_slow_src_get
p4295
aVrtc_clk_fast_src_get
p4296
aVrtc_clk_init
p4297
atp4298
a(L2587354260L
L0L
(lp4299
(lp4300
tp4301
a(L1108834551L
L3785322319L
(lp4302
(lp4303
Vrtc_clk_apb_freq_get
p4304
atp4305
a(L106L
L0L
(lp4306
(lp4307
tp4308
a(L106L
L0L
(lp4309
(lp4310
tp4311
atp4312
ssS'functionsdups'
p4313
g11
((lp4314
tp4315
Rp4316
sS'immediatedups'
p4317
g11
((lp4318
tp4319
Rp4320
sS'functiondups'
p4321
g11
((lp4322
tp4323
Rp4324
sS'fuzzy'
p4325
(dp4326
L438947497L
I1074245516
sL2170867428L
I1074270652
sL617583950L
I1074237248
sL1694124286L
I1074236008
sL430153639L
I1074236176
sL506039468L
I1074269644
sL3121027072L
I1074271088
sL2082889262L
I1074241956
sL291131346L
I1074245064
sL835568324L
I1074246944
sL2919016435L
I1074235264
sL16208487L
I1074234752
sL2319042089L
I1074245648
sL3881399234L
I1074246100
sL2919036513L
I1074239140
sL151789201L
I1074270468
sL2680783959L
I1074235656
sL3512578114L
I1074238988
sL1419132215L
I1074238372
sL4026659104L
I1074269984
sL2469233929L
I1074240848
sL701833459L
I1074268916
sL3897252859L
I1074238780
sL1937794608L
I1074247960
sL1065525808L
I1074237088
sL2327783177L
I1074241140
sL1164839255L
I1074242176
sL2272466760L
I1074245888
sL2117292686L
I1074241560
sL2044047637L
I1074239648
sL1188065553L
I1074237932
sL94556391L
I1074245676
sL3210669721L
I1074245280
sL1332800441L
I1074237480
sL2884218272L
I1074267860
sL1345429244L
I1074241312
sL3190020590L
I1074242896
sL2828970830L
I1074239528
sL4160102055L
I1074240324
sL4202185385L
I1074247660
sL1768086576L
I1074236644
sL4171975289L
I1074248680
sL1565254297L
I1074248980
sL1205407754L
I1074240356
sL2191698036L
I1074270180
sL1513350244L
I1074240012
sL1635528231L
I1074244296
sL519424169L
I1074247412
sL1060788199L
I1074245796
sL406720601L
I1074238864
sL737694352L
I1074247768
sL503029138L
I1074247708
sL1616763831L
I1074249068
sL2262558768L
I1074247572
sL424867129L
I1074248816
sL3791345684L
I1074235960
sL3834155367L
I1074241504
sL2405032630L
I1074267752
sL4289318361L
I1074268080
sL3338518926L
I1074237656
sL2123938668L
I1074246216
sL3883282432L
I1074242048
sL4173399607L
I1074243412
sL1667054119L
I1074240692
sL206902443L
I1074238204
ssb.