ccopy_reg
_reconstructor
p0
(crizzo
RizzoSignature
p1
c__builtin__
object
p2
Ntp3
Rp4
(dp5
S'formal'
p6
(dp7
L2399612421L
I1074245496
sL1207862518L
I1074240604
sL250925565L
I1074238620
sL1741170115L
I1074237940
sL3505757179L
I1074234720
sL517545417L
I1074268056
sL2423107704L
I1074239284
sL3960991490L
I1074269988
sL138009647L
I1074234760
sL3873375177L
I1074269912
sL1237733855L
I1074238844
sL1348277828L
I1074245644
sL4213015302L
I1074243152
sL2940696155L
I1074245856
sL1696635966L
I1074245272
sL3545118830L
I1074267836
sL3230852531L
I1074238208
sL2701837871L
I1074268848
sL693028457L
I1074240428
sL711787332L
I1074269784
sL2292614540L
I1074269144
sL3232221579L
I1074244656
sL142168405L
I1074245828
sL2679917712L
I1074248176
sL2702580795L
I1074237304
sL1458472899L
I1074236644
sL3646029665L
I1074244820
sL1600148817L
I1074270024
sL2896295319L
I1074236844
sL944494460L
I1074245036
sL2285799430L
I1074244616
sL1674148343L
I1074245552
sL2030740789L
I1074246656
sL2485902447L
I1074236724
sL3333913339L
I1074243456
sL2741930811L
I1074240080
sL1585823442L
I1074244468
sL2980528895L
I1074270852
sL1622896354L
I1074244496
sL3259090715L
I1074247168
sL3213302492L
I1074269648
sL426938157L
I1074235272
sL3773905582L
I1074269672
sL878917889L
I1074238128
sL3537851837L
I1074248088
sL1016500464L
I1074244976
sL2186980156L
I1074245096
sL1535600096L
I1074270256
sL2951847322L
I1074244684
sL1568446217L
I1074236548
sL3476917835L
I1074237004
sL2635990884L
I1074241932
sL1259414891L
I1074245224
sL1056742531L
I1074236400
sL768348750L
I1074238792
sL426984944L
I1074236916
sL2945163535L
I1074240112
sL3109331152L
I1074270072
sL2277098556L
I1074236816
sL3307282855L
I1074238100
sL1853923591L
I1074245404
sL911764690L
I1074237636
sL1923374634L
I1074245972
sL1043339424L
I1074240352
sL3837755948L
I1074240448
sL60374282L
I1074245248
sL2543988023L
I1074240840
sL1141372050L
I1074270692
sL2472605942L
I1074245784
sL2956233896L
I1074242652
sL1189478010L
I1074241712
sL1687894276L
I1074244368
sL4038945309L
I1074235616
sL696241373L
I1074237688
sL2373957340L
I1074245432
sL518463041L
I1074235820
sL2626436395L
I1074236948
sL3978280629L
I1074241316
sL1275163307L
I1074244568
sL2901532506L
I1074239404
sL1709641802L
I1074239768
sL3050555005L
I1074247136
sL2997001746L
I1074237236
sL1387660805L
I1074247488
sL2363736404L
I1074243168
sL4079247507L
I1074241068
sL2819127986L
I1074236968
sL3980264325L
I1074246700
sL3521822039L
I1074247788
sL960764153L
I1074267139
sL149978958L
I1074236580
sL1432840359L
I1074247328
sL1877634603L
I1074270924
sL3518743416L
I1074238536
sL3310923163L
I1074238744
sL3379108269L
I1074244052
sL3459889393L
I1074244400
sL790507223L
I1074236748
sL1106768958L
I1074269632
sL948754268L
I1074247596
sL1168915326L
I1074235564
sL873382621L
I1074235932
sL404293581L
I1074237380
sL820846907L
I1074269940
sL2263182908L
I1074238120
sL700866072L
I1074237960
sL3630163135L
I1074236832
sL188664287L
I1074235240
sL782838600L
I1074240800
sL2587289812L
I1074235664
sL4138236490L
I1074240896
sL3075360168L
I1074241260
sL692536993L
I1074237276
sL3596155326L
I1074269716
sL2218866089L
I1074238896
sL2114693345L
I1074241804
sL2998939693L
I1074247536
sL144857933L
I1074240816
sL1805017185L
I1074247924
sL1491982103L
I1074268904
sL3018942732L
I1074267728
sL3084277288L
I1074247400
sL906556151L
I1074237412
sL2398800133L
I1074245512
ssS'immediates'
p8
(dp9
sS'formaldups'
p10
c__builtin__
set
p11
((lp12
tp13
Rp14
sS'stringdups'
p15
g11
((lp16
tp17
Rp18
sS'fuzzydups'
p19
g11
((lp20
tp21
Rp22
sS'strings'
p23
(dp24
sS'functions'
p25
(dp26
I1074238208
(Vbootloader_random_disable
p27
(lp28
(L2825582328L
L0L
(lp29
(lp30
tp31
atp32
sI1074246656
(Vrtc_clk_apb_freq_get
p33
(lp34
(L3268507198L
L0L
(lp35
(lp36
tp37
atp38
sI1074247168
(Vrtc_clk_wait_for_slow_cycle
p39
(lp40
(L57851970L
L0L
(lp41
(lp42
tp43
a(L287687718L
L0L
(lp44
(lp45
tp46
a(L3360570486L
L0L
(lp47
(lp48
tp49
a(L2237399032L
L0L
(lp50
(lp51
tp52
a(L2994547433L
L0L
(lp53
(lp54
tp55
a(L2206597745L
L0L
(lp56
(lp57
tp58
a(L788148307L
L3785322319L
(lp59
(lp60
Vesp_log_early_timestamp
p61
atp62
atp63
sI1074267136
(V_init
p64
(lp65
(L3493042598L
L0L
(lp66
(lp67
tp68
atp69
sI1074241804
(Vshould_load
p70
(lp71
(L1379502686L
L0L
(lp72
(lp73
tp74
a(L1182990556L
L0L
(lp75
(lp76
tp77
a(L1188500889L
L0L
(lp78
(lp79
tp80
a(L2306467100L
L0L
(lp81
(lp82
tp83
a(L524505062L
L0L
(lp84
(lp85
tp86
a(L2258897019L
L0L
(lp87
(lp88
tp89
a(L3781799363L
L0L
(lp90
(lp91
tp92
a(L3028464L
L0L
(lp93
(lp94
tp95
a(L2219325068L
L0L
(lp96
(lp97
tp98
a(L4277114872L
L0L
(lp99
(lp100
tp101
a(L2824381917L
L0L
(lp102
(lp103
tp104
a(L1243412227L
L0L
(lp105
(lp106
tp107
a(L2011157548L
L0L
(lp108
(lp109
tp110
a(L3126521138L
L0L
(lp111
(lp112
tp113
a(L1305407438L
L0L
(lp114
(lp115
tp116
a(L1305407469L
L0L
(lp117
(lp118
tp119
atp120
sI1074245644
(Vrtc_clk_cpu_freq_get_config
p121
(lp122
(L3852097526L
L0L
(lp123
(lp124
tp125
a(L3020187L
L0L
(lp126
(lp127
tp128
a(L3020187L
L0L
(lp129
(lp130
tp131
a(L1339883774L
L3785322319L
(lp132
(lp133
Vrtc_clk_xtal_freq_get
p134
atp135
a(L3789795478L
L0L
(lp136
(lp137
tp138
a(L1876772334L
L1880226080L
(lp139
(lp140
Vesp_log_early_timestamp
p141
aVabort
p142
atp143
a(L3035450075L
L0L
(lp144
(lp145
tp146
a(L3020187L
L0L
(lp147
(lp148
tp149
a(L3028481L
L0L
(lp150
(lp151
tp152
a(L38508693L
L0L
(lp153
(lp154
tp155
a(L187152368L
L0L
(lp156
(lp157
tp158
a(L1161083655L
L0L
(lp159
(lp160
tp161
a(L1395485899L
L0L
(lp162
(lp163
tp164
a(L2070600034L
L0L
(lp165
(lp166
tp167
atp168
sI1074267139
(V_text_start
p169
(lp170
(L2301627893L
L0L
(lp171
(lp172
tp173
atp174
sI1074244616
(Vefuse_hal_get_rated_freq_mhz
p175
(lp176
(L3936657855L
L0L
(lp177
(lp178
tp179
a(L3671388797L
L0L
(lp180
(lp181
tp182
a(L3360570486L
L0L
(lp183
(lp184
tp185
atp186
sI1074237960
(Vbootloader_flash_write
p187
(lp188
(L3770380603L
L0L
(lp189
(lp190
tp191
a(L2615366646L
L3785322319L
(lp192
(lp193
Vesp_log_early_timestamp
p194
atp195
a(L3833270346L
L0L
(lp196
(lp197
tp198
a(L1610445075L
L0L
(lp199
(lp200
tp201
a(L735741265L
L0L
(lp202
(lp203
tp204
a(L3291333414L
L0L
(lp205
(lp206
tp207
a(L1873007406L
L3785322319L
(lp208
(lp209
Vesp_log_early_timestamp
p210
atp211
a(L3283691850L
L0L
(lp212
(lp213
tp214
a(L2141475974L
L3785322319L
(lp215
(lp216
Vesp_log_early_timestamp
p217
atp218
a(L3212356251L
L3785322319L
(lp219
(lp220
Vbootloader_flash_unlock
p221
atp222
a(L1799218633L
L0L
(lp223
(lp224
tp225
a(L94425498L
L3785322319L
(lp226
(lp227
Vesp_rom_spiflash_write_encrypted
p228
atp229
a(L2927190544L
L3785322319L
(lp230
(lp231
Vspi_to_esp_err
p232
atp233
a(L2927190544L
L3785322319L
(lp234
(lp235
Vesp_rom_spiflash_write
p236
atp237
atp238
sI1074236948
(Vbootloader_common_ota_select_crc
p239
(lp240
(L3214440559L
L0L
(lp241
(lp242
tp243
atp244
sI1074244368
(Vwdt_hal_write_protect_disable
p245
(lp246
(L3345031483L
L0L
(lp247
(lp248
tp249
a(L4195472003L
L0L
(lp250
(lp251
tp252
a(L3360570486L
L0L
(lp253
(lp254
tp255
a(L1210571996L
L0L
(lp256
(lp257
tp258
atp259
sI1074235664
(Vbootloader_flash_xmc_startup
p260
(lp261
(L3680458509L
L3785322319L
(lp262
(lp263
Vis_xmc_chip_strict
p264
atp265
a(L2258688482L
L0L
(lp266
(lp267
tp268
a(L3360570486L
L0L
(lp269
(lp270
tp271
a(L2860324232L
L3785322319L
(lp272
(lp273
Vbootloader_flash_read_sfdp
p274
atp275
a(L2097895665L
L2567856111L
(lp276
(lp277
Vesp_log_early_timestamp
p278
aVbootloader_execute_flash_command
p279
aVbootloader_execute_flash_command
p280
aVbootloader_execute_flash_command
p281
aVbootloader_execute_flash_command
p282
aVbootloader_read_flash_id
p283
aVis_xmc_chip_strict
p284
atp285
a(L4062067944L
L3785322319L
(lp286
(lp287
Vesp_log_early_timestamp
p288
atp289
atp290
sI1074245392
(Vrtc_clk_slow_src_get
p291
(lp292
(L376617603L
L3785322319L
(lp293
(lp294
Vclk_ll_rtc_slow_get_src
p295
atp296
atp297
sI1074235932
(Vbootloader_flash_gpio_config
p298
(lp299
(L3448878117L
L3785322319L
(lp300
(lp301
Vbootloader_common_get_chip_ver_pkg
p302
atp303
a(L106L
L0L
(lp304
(lp305
tp306
a(L1998579353L
L0L
(lp307
(lp308
tp309
a(L106L
L0L
(lp310
(lp311
tp312
a(L1029428446L
L0L
(lp313
(lp314
tp315
a(L4242290324L
L0L
(lp316
(lp317
tp318
a(L106L
L0L
(lp319
(lp320
tp321
a(L4003626558L
L0L
(lp322
(lp323
tp324
a(L1553523094L
L0L
(lp325
(lp326
tp327
a(L3360570486L
L0L
(lp328
(lp329
tp330
atp331
sI1074245404
(Vrtc_clk_slow_freq_get_hz
p332
(lp333
(L1826267122L
L3785322319L
(lp334
(lp335
Vclk_ll_rtc_slow_get_src
p336
atp337
a(L4158856552L
L0L
(lp338
(lp339
tp340
a(L3631005815L
L0L
(lp341
(lp342
tp343
a(L702740041L
L0L
(lp344
(lp345
tp346
a(L3360570486L
L0L
(lp347
(lp348
tp349
atp350
sI1074269716
(Vbootloader_check_bootloader_validity
p351
(lp352
(L3134348754L
L1832448559L
(lp353
(lp354
Vefuse_hal_chip_revision
p355
aVesp_log_early_timestamp
p356
aVbootloader_common_check_chip_validity
p357
atp358
atp359
sI1074239768
(Vbootloader_utility_get_selected_boot_partition
p360
(lp361
(L2184143128L
L0L
(lp362
(lp363
tp364
a(L3562950348L
L0L
(lp365
(lp366
tp367
a(L2305665381L
L3785322319L
(lp368
(lp369
Vesp_log_early_timestamp
p370
atp371
a(L194246498L
L0L
(lp372
(lp373
tp374
a(L3360570486L
L0L
(lp375
(lp376
tp377
a(L1375577398L
L3785322319L
(lp378
(lp379
Vbootloader_mmap
p380
atp381
a(L4068127698L
L3785322319L
(lp382
(lp383
Vesp_log_early_timestamp
p384
atp385
a(L2463613311L
L1880226080L
(lp386
(lp387
Vbootloader_munmap
p388
aVbootloader_common_ota_select_invalid
p389
atp390
a(L1103573946L
L0L
(lp391
(lp392
tp393
a(L1876835593L
L3785322319L
(lp394
(lp395
Vbootloader_common_get_active_otadata
p396
atp397
a(L106L
L0L
(lp398
(lp399
tp400
a(L569346373L
L0L
(lp401
(lp402
tp403
a(L788494392L
L3785322319L
(lp404
(lp405
Vbootloader_common_ota_select_invalid
p406
atp407
a(L2801470901L
L0L
(lp408
(lp409
tp410
a(L1838181073L
L3785322319L
(lp411
(lp412
Vesp_log_early_timestamp
p413
atp414
a(L2440848641L
L3785322319L
(lp415
(lp416
Vesp_log_early_timestamp
p417
atp418
a(L505081345L
L0L
(lp419
(lp420
tp421
a(L919052234L
L3785322319L
(lp422
(lp423
Vbootloader_common_ota_select_crc
p424
atp425
a(L2287680455L
L0L
(lp426
(lp427
tp428
a(L3542558037L
L3785322319L
(lp429
(lp430
Vbootloader_common_ota_select_crc
p431
atp432
a(L1299866312L
L0L
(lp433
(lp434
tp435
a(L1279036405L
L0L
(lp436
(lp437
tp438
a(L1406565969L
L3785322319L
(lp439
(lp440
Vesp_log_early_timestamp
p441
atp442
a(L2867263840L
L0L
(lp443
(lp444
tp445
a(L4142614645L
L3785322319L
(lp446
(lp447
Vesp_log_early_timestamp
p448
atp449
atp450
sI1074238744
(Vtry_load_partition
p451
(lp452
(L1263750142L
L0L
(lp453
(lp454
tp455
a(L2258688482L
L0L
(lp456
(lp457
tp458
a(L3360570486L
L0L
(lp459
(lp460
tp461
a(L530241438L
L3785322319L
(lp462
(lp463
Vbootloader_load_image
p464
atp465
a(L3010049260L
L3785322319L
(lp466
(lp467
Vesp_log_early_timestamp
p468
atp469
atp470
sI1074241316
(Vverify_load_addresses
p471
(lp472
(L2764487219L
L0L
(lp473
(lp474
tp475
a(L106L
L0L
(lp476
(lp477
tp478
a(L97642L
L0L
(lp479
(lp480
tp481
a(L532903251L
L3785322319L
(lp482
(lp483
V__assert_func
p484
atp485
a(L170023642L
L0L
(lp486
(lp487
tp488
a(L106L
L0L
(lp489
(lp490
tp491
a(L993824775L
L0L
(lp492
(lp493
tp494
a(L106L
L0L
(lp495
(lp496
tp497
a(L3188534306L
L3785322319L
(lp498
(lp499
Vbootloader_util_regions_overlap
p500
atp501
a(L3284083279L
L3785322319L
(lp502
(lp503
Vbootloader_util_regions_overlap
p504
atp505
a(L3028481L
L0L
(lp506
(lp507
tp508
a(L1178890466L
L3785322319L
(lp509
(lp510
Vbootloader_util_regions_overlap
p511
atp512
a(L2117228786L
L0L
(lp513
(lp514
tp515
a(L273144354L
L0L
(lp516
(lp517
tp518
a(L1016222393L
L0L
(lp519
(lp520
tp521
a(L2661576437L
L0L
(lp522
(lp523
tp524
a(L2503437888L
L0L
(lp525
(lp526
tp527
a(L677569396L
L3785322319L
(lp528
(lp529
Vverify_load_addresses
p530
atp531
a(L1351513776L
L0L
(lp532
(lp533
tp534
a(L3061261803L
L0L
(lp535
(lp536
tp537
a(L2743341656L
L0L
(lp538
(lp539
tp540
a(L791897016L
L0L
(lp541
(lp542
tp543
a(L729859039L
L0L
(lp544
(lp545
tp546
a(L4026856790L
L3785322319L
(lp547
(lp548
Vbootloader_util_regions_overlap
p549
atp550
a(L3028481L
L0L
(lp551
(lp552
tp553
a(L1567678174L
L3785322319L
(lp554
(lp555
Vbootloader_util_regions_overlap
p556
atp557
a(L2782864159L
L0L
(lp558
(lp559
tp560
a(L476078031L
L0L
(lp561
(lp562
tp563
a(L1301487450L
L0L
(lp564
(lp565
tp566
a(L1527375920L
L0L
(lp567
(lp568
tp569
a(L307916850L
L0L
(lp570
(lp571
tp572
a(L697239146L
L0L
(lp573
(lp574
tp575
a(L106L
L0L
(lp576
(lp577
tp578
a(L955505162L
L0L
(lp579
(lp580
tp581
a(L307917400L
L0L
(lp582
(lp583
tp584
a(L490080443L
L0L
(lp585
(lp586
tp587
a(L106L
L0L
(lp588
(lp589
tp590
a(L131589412L
L3785322319L
(lp591
(lp592
Vesp_log_early_timestamp
p593
atp594
a(L955505038L
L0L
(lp595
(lp596
tp597
a(L1303560427L
L0L
(lp598
(lp599
tp600
atp601
sI1074240800
(Vbootloader_console_deinit
p602
(lp603
(L4005071210L
L0L
(lp604
(lp605
tp606
atp607
sI1074241068
(Vprocess_image_header
p608
(lp609
(L4286422149L
L3785322319L
(lp610
(lp611
Vbootloader_flash_read
p612
atp613
a(L3020204L
L0L
(lp614
(lp615
tp616
a(L4130667142L
L0L
(lp617
(lp618
tp619
a(L3131381282L
L0L
(lp620
(lp621
tp622
a(L1161397362L
L3785322319L
(lp623
(lp624
Vbootloader_sha256_start
p625
atp626
a(L1948257695L
L3785322319L
(lp627
(lp628
Vbootloader_sha256_data
p629
atp630
a(L1095449651L
L0L
(lp631
(lp632
tp633
a(L3020204L
L0L
(lp634
(lp635
tp636
a(L702739510L
L0L
(lp637
(lp638
tp639
a(L3360570486L
L0L
(lp640
(lp641
tp642
a(L1435924568L
L3785322319L
(lp643
(lp644
Vesp_log_early_timestamp
p645
atp646
a(L3718883008L
L3785322319L
(lp647
(lp648
Vbootloader_common_check_chip_validity
p649
atp650
a(L3677035427L
L0L
(lp651
(lp652
tp653
a(L3028481L
L0L
(lp654
(lp655
tp656
a(L4249612150L
L3785322319L
(lp657
(lp658
Vesp_log_early_timestamp
p659
atp660
a(L2250109166L
L0L
(lp661
(lp662
tp663
a(L1235012870L
L0L
(lp664
(lp665
tp666
a(L3063569071L
L0L
(lp667
(lp668
tp669
atp670
sI1074246700
(Vrtc_clk_cal_internal
p671
(lp672
(L3168308412L
L0L
(lp673
(lp674
tp675
a(L3863152980L
L3785322319L
(lp676
(lp677
V__assert_func
p678
atp679
a(L4026264710L
L0L
(lp680
(lp681
tp682
a(L54826884L
L0L
(lp683
(lp684
tp685
a(L234746575L
L0L
(lp686
(lp687
tp688
a(L861896856L
L3785322319L
(lp689
(lp690
Vrtc_clk_8m_enable
p691
atp692
a(L2689039534L
L3785322319L
(lp693
(lp694
Vrtc_clk_slow_src_get
p695
atp696
a(L1211065969L
L0L
(lp697
(lp698
tp699
a(L97689L
L0L
(lp700
(lp701
tp702
a(L1703854795L
L0L
(lp703
(lp704
tp705
a(L3028464L
L0L
(lp706
(lp707
tp708
a(L3028481L
L0L
(lp709
(lp710
tp711
a(L3450258732L
L0L
(lp712
(lp713
tp714
a(L944966L
L3785322319L
(lp715
(lp716
Vrtc_clk_xtal_freq_get
p717
atp718
a(L2780079961L
L0L
(lp719
(lp720
tp721
a(L3848725940L
L0L
(lp722
(lp723
tp724
a(L4169951882L
L3785322319L
(lp725
(lp726
Vesp_log_early_timestamp
p727
atp728
a(L3360570486L
L0L
(lp729
(lp730
tp731
a(L794862694L
L0L
(lp732
(lp733
tp734
a(L3245477987L
L0L
(lp735
(lp736
tp737
a(L2910371777L
L0L
(lp738
(lp739
tp740
a(L2902417580L
L0L
(lp741
(lp742
tp743
a(L4153720753L
L0L
(lp744
(lp745
tp746
a(L3631005548L
L0L
(lp747
(lp748
tp749
a(L2144990312L
L0L
(lp750
(lp751
tp752
a(L3352263364L
L0L
(lp753
(lp754
tp755
a(L3028464L
L0L
(lp756
(lp757
tp758
a(L1325746132L
L3785322319L
(lp759
(lp760
Vrtc_clk_8m_enable
p761
atp762
atp763
sI1074269988
(Vbootloader_console_init
p764
(lp765
(L2850348327L
L1832448559L
(lp766
(lp767
Vesp_rom_uart_tx_wait_idle
p768
aVrtc_clk_apb_freq_get
p769
aVesp_rom_uart_set_clock_baudrate
p770
atp771
atp772
sI1074236968
(Vbootloader_common_ota_select_valid
p773
(lp774
(L1563399710L
L3785322319L
(lp775
(lp776
Vbootloader_common_ota_select_invalid
p777
atp778
a(L3814720849L
L3785322319L
(lp779
(lp780
Vbootloader_common_ota_select_crc
p781
atp782
a(L3360570486L
L0L
(lp783
(lp784
tp785
atp786
sI1074237236
(Vbootloader_common_get_active_otadata
p787
(lp788
(L3317503532L
L0L
(lp789
(lp790
tp791
a(L2503049265L
L1832448559L
(lp792
(lp793
Vbootloader_common_ota_select_valid
p794
aVbootloader_common_ota_select_valid
p795
aVbootloader_common_select_otadata
p796
atp797
a(L735741265L
L0L
(lp798
(lp799
tp800
atp801
sI1074236724
(Vefuse_hal_chip_revision
p802
(lp803
(L2719302832L
L1880226080L
(lp804
(lp805
Vefuse_hal_get_major_chip_version
p806
aVefuse_hal_get_minor_chip_version
p807
atp808
atp809
sI1074239284
(Vset_actual_ota_seq
p810
(lp811
(L4094723830L
L0L
(lp812
(lp813
tp814
a(L2573507321L
L0L
(lp815
(lp816
tp817
a(L3461827603L
L1832448559L
(lp818
(lp819
Vbootloader_common_ota_select_crc
p820
aVesp_flash_encryption_enabled
p821
aVbootloader_flash_erase_sector
p822
atp823
a(L3292941333L
L3785322319L
(lp824
(lp825
Vbootloader_flash_write
p826
atp827
a(L1764870441L
L3785322319L
(lp828
(lp829
Vesp_log_early_timestamp
p830
atp831
a(L2939835162L
L3785322319L
(lp832
(lp833
Vesp_log_early_timestamp
p834
atp835
a(L3360570486L
L0L
(lp836
(lp837
tp838
atp839
sI1074244656
(Vclk_ll_rtc_slow_get_src
p840
(lp841
(L416280487L
L0L
(lp842
(lp843
tp844
a(L3020187L
L0L
(lp845
(lp846
tp847
a(L2902417580L
L0L
(lp848
(lp849
tp850
a(L2258688485L
L0L
(lp851
(lp852
tp853
a(L3360570486L
L0L
(lp854
(lp855
tp856
atp857
sI1074244400
(Vwdt_hal_set_flashboot_en
p858
(lp859
(L2375320464L
L0L
(lp860
(lp861
tp862
a(L3915867581L
L0L
(lp863
(lp864
tp865
a(L3360570486L
L0L
(lp866
(lp867
tp868
a(L1643092119L
L0L
(lp869
(lp870
tp871
atp872
sI1074240816
(V__assert_func
p873
(lp874
(L1697582622L
L0L
(lp875
(lp876
tp877
a(L106L
L0L
(lp878
(lp879
tp880
atp881
sI1074270256
(Vrtc_clk_init
p882
(lp883
(L1872218746L
L0L
(lp884
(lp885
tp886
a(L42671777L
L3785322319L
(lp887
(lp888
Vrtc_clk_cpu_freq_to_xtal
p889
atp890
a(L1588890820L
L3785322319L
(lp891
(lp892
Vrtc_clk_xtal_freq_get
p893
atp894
a(L89029051L
L0L
(lp895
(lp896
tp897
a(L4187693717L
L3785322319L
(lp898
(lp899
Vrtc_clk_xtal_freq_estimate
p900
atp901
a(L1317008202L
L3785322319L
(lp902
(lp903
Vesp_log_early_timestamp
p904
atp905
a(L3408606676L
L1157885199L
(lp906
(lp907
Vesp_rom_uart_tx_wait_idle
p908
aVrtc_clk_xtal_freq_update
p909
aVrtc_clk_apb_freq_update
p910
aVrtc_clk_cpu_freq_get_config
p911
aVrtc_clk_cpu_freq_mhz_to_config
p912
atp913
a(L1756602428L
L1880226080L
(lp914
(lp915
Vesp_log_early_timestamp
p916
aVabort
p917
atp918
a(L3028481L
L0L
(lp919
(lp920
tp921
a(L4070631611L
L3785322319L
(lp922
(lp923
Vrtc_clk_xtal_freq_estimate
p924
atp925
a(L404050455L
L3785322319L
(lp926
(lp927
Vesp_log_early_timestamp
p928
atp929
a(L1030549555L
L3785322319L
(lp930
(lp931
Vrtc_clk_cpu_freq_set_config
p932
atp933
a(L912310138L
L3785322319L
(lp934
(lp935
Vrtc_clk_32k_enable
p936
atp937
a(L3191820416L
L1832448559L
(lp938
(lp939
Vrtc_clk_8m_enable
p940
aVrtc_clk_fast_src_set
p941
aVrtc_clk_slow_src_set
p942
atp943
a(L1232958848L
L0L
(lp944
(lp945
tp946
atp947
sI1074238524
(Vbootloader_clock_get_rated_freq_mhz
p948
(lp949
(L376617603L
L3785322319L
(lp950
(lp951
Vefuse_hal_get_rated_freq_mhz
p952
atp953
atp954
sI1074245432
(Vrtc_clk_fast_src_set
p955
(lp956
(L1233611555L
L0L
(lp957
(lp958
tp959
a(L3020187L
L0L
(lp960
(lp961
tp962
a(L3827921190L
L3785322319L
(lp963
(lp964
Vabort
p965
atp966
a(L2904656757L
L0L
(lp967
(lp968
tp969
a(L206212292L
L0L
(lp970
(lp971
tp972
a(L300459962L
L0L
(lp973
(lp974
tp975
atp976
sI1074270024
(Vesp_cpu_configure_region_protection
p977
(lp978
(L2243703604L
L0L
(lp979
(lp980
tp981
a(L180431425L
L3785322319L
(lp982
(lp983
Vmpu_hal_set_region_access
p984
atp985
a(L2537388152L
L3785322319L
(lp986
(lp987
Vmpu_hal_set_region_access
p988
atp989
atp990
sI1074247488
(Vesp_rom_spiflash_wait_idle
p991
(lp992
(L3233076573L
L0L
(lp993
(lp994
tp995
a(L2023766174L
L0L
(lp996
(lp997
tp998
a(L2805934554L
L0L
(lp999
(lp1000
tp1001
a(L3086959262L
L0L
(lp1002
(lp1003
tp1004
a(L4161019926L
L3785322319L
(lp1005
(lp1006
Vesp_rom_spiflash_read_status
p1007
atp1008
atp1009
sI1074236748
(Vefuse_hal_get_major_chip_version
p1010
(lp1011
(L1242126302L
L0L
(lp1012
(lp1013
tp1014
a(L894792960L
L0L
(lp1015
(lp1016
tp1017
a(L3783348505L
L0L
(lp1018
(lp1019
tp1020
a(L3360570486L
L0L
(lp1021
(lp1022
tp1023
atp1024
sI1074237004
(Vbootloader_common_check_chip_validity
p1025
(lp1026
(L392423210L
L0L
(lp1027
(lp1028
tp1029
a(L62642320L
L3785322319L
(lp1030
(lp1031
Vesp_log_early_timestamp
p1032
atp1033
a(L522103407L
L3785322319L
(lp1034
(lp1035
Vefuse_hal_chip_revision
p1036
atp1037
a(L106L
L0L
(lp1038
(lp1039
tp1040
a(L1989150608L
L0L
(lp1041
(lp1042
tp1043
a(L720806035L
L3785322319L
(lp1044
(lp1045
Vesp_log_early_timestamp
p1046
atp1047
a(L3028464L
L0L
(lp1048
(lp1049
tp1050
a(L1397322129L
L0L
(lp1051
(lp1052
tp1053
a(L3021749L
L0L
(lp1054
(lp1055
tp1056
a(L3790510041L
L3785322319L
(lp1057
(lp1058
Vesp_log_early_timestamp
p1059
atp1060
a(L1299867982L
L0L
(lp1061
(lp1062
tp1063
a(L3360570486L
L0L
(lp1064
(lp1065
tp1066
atp1067
sI1074244684
(Vrtc_clk_32k_enable_common
p1068
(lp1069
(L1442393279L
L0L
(lp1070
(lp1071
tp1072
a(L97689L
L0L
(lp1073
(lp1074
tp1075
a(L2218417250L
L0L
(lp1076
(lp1077
tp1078
a(L533879761L
L0L
(lp1079
(lp1080
tp1081
a(L51458058L
L0L
(lp1082
(lp1083
tp1084
atp1085
sI1074238536
(Vlog_invalid_app_partition
p1086
(lp1087
(L3121159614L
L0L
(lp1088
(lp1089
tp1090
a(L3028464L
L0L
(lp1091
(lp1092
tp1093
a(L1381405837L
L3785322319L
(lp1094
(lp1095
Vesp_log_early_timestamp
p1096
atp1097
a(L3833270346L
L0L
(lp1098
(lp1099
tp1100
a(L3360570486L
L0L
(lp1101
(lp1102
tp1103
a(L3430459325L
L3785322319L
(lp1104
(lp1105
Vesp_log_early_timestamp
p1106
atp1107
a(L3309219235L
L3785322319L
(lp1108
(lp1109
Vesp_log_early_timestamp
p1110
atp1111
atp1112
sI1074238792
(Vcache_ll_l1_enable_bus
p1113
(lp1114
(L1908488057L
L0L
(lp1115
(lp1116
tp1117
atp1118
sI1074240840
(Vabort
p1119
(lp1120
(L56968919L
L0L
(lp1121
(lp1122
tp1123
a(L409471316L
L0L
(lp1124
(lp1125
tp1126
a(L106L
L0L
(lp1127
(lp1128
tp1129
atp1130
sI1074269784
(Vbootloader_config_wdt
p1131
(lp1132
(L3738756377L
L505859776L
(lp1133
(lp1134
Vwdt_hal_write_protect_disable
p1135
aVwdt_hal_set_flashboot_en
p1136
aVwdt_hal_write_protect_enable
p1137
aVwdt_hal_init
p1138
aVrtc_clk_slow_freq_get_hz
p1139
aVwdt_hal_write_protect_disable
p1140
aVwdt_hal_config_stage
p1141
aVwdt_hal_enable
p1142
aVwdt_hal_write_protect_enable
p1143
aVwdt_hal_write_protect_disable
p1144
aVwdt_hal_set_flashboot_en
p1145
aVwdt_hal_write_protect_enable
p1146
atp1147
atp1148
sI1074245972
(Vrtc_clk_cpu_freq_set_config
p1149
(lp1150
(L97989050L
L3785322319L
(lp1151
(lp1152
Vrtc_clk_xtal_freq_get
p1153
atp1154
a(L3020187L
L0L
(lp1155
(lp1156
tp1157
a(L3028464L
L0L
(lp1158
(lp1159
tp1160
a(L264223053L
L1880226080L
(lp1161
(lp1162
Vrtc_clk_cpu_freq_to_xtal
p1163
aVrtc_clk_wait_for_slow_cycle
p1164
atp1165
a(L94425498L
L3785322319L
(lp1166
(lp1167
Vrtc_clk_bbpll_disable
p1168
atp1169
a(L3978916712L
L0L
(lp1170
(lp1171
tp1172
a(L2977209154L
L0L
(lp1173
(lp1174
tp1175
a(L2736411858L
L3785322319L
(lp1176
(lp1177
Vrtc_clk_cpu_freq_to_xtal
p1178
atp1179
a(L3360570486L
L0L
(lp1180
(lp1181
tp1182
a(L3020187L
L0L
(lp1183
(lp1184
tp1185
a(L106L
L0L
(lp1186
(lp1187
tp1188
a(L4139299579L
L1880226080L
(lp1189
(lp1190
Vrtc_clk_wait_for_slow_cycle
p1191
aVrtc_clk_xtal_freq_get
p1192
atp1193
a(L106L
L0L
(lp1194
(lp1195
tp1196
a(L1388483569L
L0L
(lp1197
(lp1198
tp1199
a(L106L
L0L
(lp1200
(lp1201
tp1202
a(L83268611L
L0L
(lp1203
(lp1204
tp1205
a(L106L
L0L
(lp1206
(lp1207
tp1208
a(L82344823L
L0L
(lp1209
(lp1210
tp1211
a(L106L
L0L
(lp1212
(lp1213
tp1214
a(L1274797871L
L0L
(lp1215
(lp1216
tp1217
a(L2960675980L
L0L
(lp1218
(lp1219
tp1220
a(L2332426982L
L1880226080L
(lp1221
(lp1222
Vclk_ll_rtc_slow_get_src
p1223
aVrtc_clk_cpu_freq_to_pll_mhz
p1224
atp1225
a(L97866512L
L0L
(lp1226
(lp1227
tp1228
a(L83268344L
L0L
(lp1229
(lp1230
tp1231
a(L82345090L
L0L
(lp1232
(lp1233
tp1234
a(L1299628291L
L0L
(lp1235
(lp1236
tp1237
a(L2382164494L
L0L
(lp1238
(lp1239
tp1240
a(L2258807646L
L0L
(lp1241
(lp1242
tp1243
a(L878473564L
L0L
(lp1244
(lp1245
tp1246
a(L2389426015L
L0L
(lp1247
(lp1248
tp1249
a(L1596574736L
L0L
(lp1250
(lp1251
tp1252
a(L2086626670L
L0L
(lp1253
(lp1254
tp1255
a(L1302638456L
L0L
(lp1256
(lp1257
tp1258
a(L810137203L
L0L
(lp1259
(lp1260
tp1261
a(L87353900L
L0L
(lp1262
(lp1263
tp1264
a(L3020187L
L0L
(lp1265
(lp1266
tp1267
a(L106L
L0L
(lp1268
(lp1269
tp1270
a(L1226014053L
L0L
(lp1271
(lp1272
tp1273
atp1274
sI1074240080
(Vbootloader_reset
p1275
(lp1276
(L4123387220L
L3785322319L
(lp1277
(lp1278
Vbootloader_console_deinit
p1279
atp1280
a(L106L
L0L
(lp1281
(lp1282
tp1283
atp1284
sI1074243152
(Vbootloader_load_image
p1285
(lp1286
(L1155870502L
L3785322319L
(lp1287
(lp1288
Vimage_load
p1289
atp1290
atp1291
sI1074267728
(Vcall_start_cpu0
p1292
(lp1293
(L1137852827L
L0L
(lp1294
(lp1295
tp1296
a(L549459388L
L0L
(lp1297
(lp1298
tp1299
a(L3212347974L
L3785322319L
(lp1300
(lp1301
Vbootloader_init
p1302
atp1303
a(L94425498L
L3785322319L
(lp1304
(lp1305
Vbootloader_reset
p1306
atp1307
a(L1122046408L
L0L
(lp1308
(lp1309
tp1310
a(L4099474112L
L0L
(lp1311
(lp1312
tp1313
a(L3015046664L
L3785322319L
(lp1314
(lp1315
Vbootloader_utility_load_partition_table
p1316
atp1317
a(L2761094216L
L3785322319L
(lp1318
(lp1319
Vesp_log_early_timestamp
p1320
atp1321
a(L405422123L
L3785322319L
(lp1322
(lp1323
Vbootloader_utility_get_selected_boot_partition
p1324
atp1325
a(L2055385849L
L3785322319L
(lp1326
(lp1327
Vbootloader_utility_load_boot_image
p1328
atp1329
atp1330
sI1074237276
(Vbootloader_common_ota_select_invalid
p1331
(lp1332
(L4027567199L
L0L
(lp1333
(lp1334
tp1335
a(L3397985842L
L0L
(lp1336
(lp1337
tp1338
a(L2258867228L
L0L
(lp1339
(lp1340
tp1341
a(L3785235668L
L0L
(lp1342
(lp1343
tp1344
atp1345
sI1074240604
(Vbootloader_sha256_finish
p1346
(lp1347
(L4066096136L
L0L
(lp1348
(lp1349
tp1350
a(L3125987449L
L0L
(lp1351
(lp1352
tp1353
a(L3884092851L
L3785322319L
(lp1354
(lp1355
V__assert_func
p1356
atp1357
a(L3020204L
L0L
(lp1358
(lp1359
tp1360
a(L1816853500L
L0L
(lp1361
(lp1362
tp1363
a(L2534656226L
L0L
(lp1364
(lp1365
tp1366
a(L551614134L
L3785322319L
(lp1367
(lp1368
Vbootloader_sha256_data
p1369
atp1370
a(L3281735505L
L0L
(lp1371
(lp1372
tp1373
a(L841302101L
L3785322319L
(lp1374
(lp1375
Vbootloader_sha256_data
p1376
atp1377
a(L3768329152L
L0L
(lp1378
(lp1379
tp1380
a(L657425439L
L0L
(lp1381
(lp1382
tp1383
a(L3930848034L
L0L
(lp1384
(lp1385
tp1386
a(L657425439L
L0L
(lp1387
(lp1388
tp1389
a(L4116699460L
L0L
(lp1390
(lp1391
tp1392
a(L3511307343L
L0L
(lp1393
(lp1394
tp1395
a(L3347778L
L0L
(lp1396
(lp1397
tp1398
a(L3360570486L
L0L
(lp1399
(lp1400
tp1401
atp1402
sI1074242652
(Vimage_load
p1403
(lp1404
(L3559420668L
L0L
(lp1405
(lp1406
tp1407
a(L1899869541L
L0L
(lp1408
(lp1409
tp1410
a(L979631281L
L0L
(lp1411
(lp1412
tp1413
a(L1525480527L
L0L
(lp1414
(lp1415
tp1416
a(L1043148059L
L0L
(lp1417
(lp1418
tp1419
a(L2796536461L
L0L
(lp1420
(lp1421
tp1422
a(L2974022397L
L3785322319L
(lp1423
(lp1424
Vesp_log_early_timestamp
p1425
atp1426
a(L2068384292L
L0L
(lp1427
(lp1428
tp1429
a(L1968553470L
L3785322319L
(lp1430
(lp1431
Vbootloader_sha256_finish
p1432
atp1433
a(L4209044681L
L0L
(lp1434
(lp1435
tp1436
a(L3225218531L
L0L
(lp1437
(lp1438
tp1439
a(L3802071166L
L0L
(lp1440
(lp1441
tp1442
a(L1301867039L
L3785322319L
(lp1443
(lp1444
Vprocess_image_header
p1445
atp1446
a(L560228796L
L0L
(lp1447
(lp1448
tp1449
a(L4185758499L
L0L
(lp1450
(lp1451
tp1452
a(L1530940255L
L3785322319L
(lp1453
(lp1454
Vprocess_segments
p1455
atp1456
a(L1233227930L
L0L
(lp1457
(lp1458
tp1459
a(L2539156582L
L0L
(lp1460
(lp1461
tp1462
a(L2570888687L
L3785322319L
(lp1463
(lp1464
Vprocess_checksum
p1465
atp1466
a(L425503098L
L3785322319L
(lp1467
(lp1468
Vprocess_appended_hash_and_sig
p1469
atp1470
a(L780930979L
L0L
(lp1471
(lp1472
tp1473
a(L2334355956L
L0L
(lp1474
(lp1475
tp1476
a(L3470740557L
L0L
(lp1477
(lp1478
tp1479
a(L2727908192L
L1880226080L
(lp1480
(lp1481
Vbootloader_sha256_finish
p1482
aVbootloader_debug_buffer
p1483
atp1484
a(L764308364L
L1880226080L
(lp1485
(lp1486
Vesp_log_early_timestamp
p1487
aVbootloader_debug_buffer
p1488
atp1489
a(L1087646176L
L0L
(lp1490
(lp1491
tp1492
a(L2068384292L
L0L
(lp1493
(lp1494
tp1495
a(L3021148818L
L3785322319L
(lp1496
(lp1497
Vbootloader_sha256_finish
p1498
atp1499
a(L3028481L
L0L
(lp1500
(lp1501
tp1502
a(L139701033L
L0L
(lp1503
(lp1504
tp1505
a(L2510919588L
L0L
(lp1506
(lp1507
tp1508
a(L772115669L
L0L
(lp1509
(lp1510
tp1511
a(L2787789065L
L0L
(lp1512
(lp1513
tp1514
a(L85798113L
L0L
(lp1515
(lp1516
tp1517
a(L1351513776L
L0L
(lp1518
(lp1519
tp1520
a(L159346313L
L3785322319L
(lp1521
(lp1522
Vshould_load
p1523
atp1524
a(L4218574503L
L0L
(lp1525
(lp1526
tp1527
a(L3338774213L
L0L
(lp1528
(lp1529
tp1530
a(L3464541874L
L0L
(lp1531
(lp1532
tp1533
a(L3349572949L
L0L
(lp1534
(lp1535
tp1536
a(L2192292519L
L0L
(lp1537
(lp1538
tp1539
a(L106L
L0L
(lp1540
(lp1541
tp1542
a(L26615924L
L0L
(lp1543
(lp1544
tp1545
a(L1299866312L
L0L
(lp1546
(lp1547
tp1548
a(L490060329L
L0L
(lp1549
(lp1550
tp1551
atp1552
sI1074243168
(Vesp_partition_table_verify
p1553
(lp1554
(L4221019429L
L0L
(lp1555
(lp1556
tp1557
a(L3688263406L
L0L
(lp1558
(lp1559
tp1560
a(L4090921686L
L0L
(lp1561
(lp1562
tp1563
a(L2910371777L
L0L
(lp1564
(lp1565
tp1566
a(L2810785767L
L0L
(lp1567
(lp1568
tp1569
a(L3360570486L
L0L
(lp1570
(lp1571
tp1572
a(L3190337587L
L0L
(lp1573
(lp1574
tp1575
a(L2069928857L
L0L
(lp1576
(lp1577
tp1578
a(L3020204L
L0L
(lp1579
(lp1580
tp1581
a(L4240560509L
L3785322319L
(lp1582
(lp1583
Vesp_log_early_timestamp
p1584
atp1585
a(L2526422477L
L3785322319L
(lp1586
(lp1587
Vesp_log_early_timestamp
p1588
atp1589
a(L510839312L
L0L
(lp1590
(lp1591
tp1592
a(L2902417580L
L0L
(lp1593
(lp1594
tp1595
a(L3020204L
L0L
(lp1596
(lp1597
tp1598
a(L2215002226L
L3785322319L
(lp1599
(lp1600
Vesp_log_early_timestamp
p1601
atp1602
a(L2867263840L
L0L
(lp1603
(lp1604
tp1605
a(L3655331517L
L0L
(lp1606
(lp1607
tp1608
a(L2902417580L
L0L
(lp1609
(lp1610
tp1611
a(L4240559796L
L3785322319L
(lp1612
(lp1613
Vesp_log_early_timestamp
p1614
atp1615
a(L1305407469L
L0L
(lp1616
(lp1617
tp1618
a(L1167861556L
L0L
(lp1619
(lp1620
tp1621
a(L3914073261L
L0L
(lp1622
(lp1623
tp1624
a(L2910371777L
L0L
(lp1625
(lp1626
tp1627
a(L1235012932L
L0L
(lp1628
(lp1629
tp1630
a(L4142303994L
L3785322319L
(lp1631
(lp1632
Vesp_log_early_timestamp
p1633
atp1634
atp1635
sI1074240352
(Vindex_to_partition
p1636
(lp1637
(L4066096119L
L0L
(lp1638
(lp1639
tp1640
a(L1739185955L
L0L
(lp1641
(lp1642
tp1643
a(L2171552758L
L0L
(lp1644
(lp1645
tp1646
a(L2808906342L
L0L
(lp1647
(lp1648
tp1649
a(L2101481936L
L0L
(lp1650
(lp1651
tp1652
a(L3698927993L
L0L
(lp1653
(lp1654
tp1655
a(L2808826781L
L0L
(lp1656
(lp1657
tp1658
a(L3003398163L
L0L
(lp1659
(lp1660
tp1661
a(L2880709161L
L0L
(lp1662
(lp1663
tp1664
a(L1087646172L
L0L
(lp1665
(lp1666
tp1667
atp1668
sI1074234720
(Vesp_flash_encryption_enabled
p1669
(lp1670
(L2932383536L
L0L
(lp1671
(lp1672
tp1673
a(L2910371777L
L0L
(lp1674
(lp1675
tp1676
a(L3360570486L
L0L
(lp1677
(lp1678
tp1679
a(L3016870L
L0L
(lp1680
(lp1681
tp1682
a(L3745038218L
L0L
(lp1683
(lp1684
tp1685
a(L957607403L
L0L
(lp1686
(lp1687
tp1688
atp1689
sI1074247788
(Vesp_rom_spiflash_erase_sector
p1690
(lp1691
(L3080458502L
L0L
(lp1692
(lp1693
tp1694
a(L2258688483L
L0L
(lp1695
(lp1696
tp1697
a(L3360570486L
L0L
(lp1698
(lp1699
tp1700
a(L3212356251L
L3785322319L
(lp1701
(lp1702
Vesp_rom_spiflash_enable_write
p1703
atp1704
a(L184152988L
L0L
(lp1705
(lp1706
tp1707
a(L201796810L
L3785322319L
(lp1708
(lp1709
Vesp_rom_spiflash_wait_idle
p1710
atp1711
a(L3333707777L
L0L
(lp1712
(lp1713
tp1714
a(L3582858798L
L3785322319L
(lp1715
(lp1716
Vesp_rom_spiflash_wait_idle
p1717
atp1718
atp1719
sI1074235240
(Vbootloader_execute_flash_command
p1720
(lp1721
(L2481595632L
L3785322319L
(lp1722
(lp1723
Vbootloader_flash_execute_command_common
p1724
atp1725
atp1726
sI1074245224
(Vrtc_clk_8m_enabled
p1727
(lp1728
(L2802140000L
L0L
(lp1729
(lp1730
tp1731
atp1732
sI1074270072
(Vrtc_clk_xtal_freq_estimate
p1733
(lp1734
(L3845076426L
L1880226080L
(lp1735
(lp1736
Vrtc_clk_8m_enabled
p1737
aVrtc_clk_8md256_enabled
p1738
atp1739
a(L2449794434L
L3785322319L
(lp1740
(lp1741
Vrtc_clk_8m_enable
p1742
atp1743
a(L852296508L
L3785322319L
(lp1744
(lp1745
Vrtc_clk_cal_ratio
p1746
atp1747
a(L1894802584L
L0L
(lp1748
(lp1749
tp1750
a(L1915120046L
L0L
(lp1751
(lp1752
tp1753
a(L2740879690L
L0L
(lp1754
(lp1755
tp1756
a(L1059750288L
L3785322319L
(lp1757
(lp1758
Vrtc_clk_8m_enable
p1759
atp1760
a(L4115290129L
L3785322319L
(lp1761
(lp1762
Vesp_log_early_timestamp
p1763
atp1764
a(L2894376164L
L0L
(lp1765
(lp1766
tp1767
a(L1641150486L
L0L
(lp1768
(lp1769
tp1770
a(L1715829099L
L3785322319L
(lp1771
(lp1772
Vesp_log_early_timestamp
p1773
atp1774
a(L1429240978L
L3785322319L
(lp1775
(lp1776
Vesp_log_early_timestamp
p1777
atp1778
atp1779
sI1074244468
(Vwdt_hal_write_protect_enable
p1780
(lp1781
(L387778158L
L0L
(lp1782
(lp1783
tp1784
a(L4195472003L
L0L
(lp1785
(lp1786
tp1787
a(L3360570486L
L0L
(lp1788
(lp1789
tp1790
a(L802523425L
L0L
(lp1791
(lp1792
tp1793
atp1794
sI1074240112
(Vbootloader_utility_load_boot_image
p1795
(lp1796
(L1375294773L
L0L
(lp1797
(lp1798
tp1799
a(L2177418995L
L3785322319L
(lp1800
(lp1801
Vtry_load_partition
p1802
atp1803
a(L1305243774L
L3785322319L
(lp1804
(lp1805
Vload_image
p1806
atp1807
a(L1481893282L
L3785322319L
(lp1808
(lp1809
Vesp_log_early_timestamp
p1810
atp1811
a(L3827921190L
L3785322319L
(lp1812
(lp1813
Vbootloader_reset
p1814
atp1815
a(L1953693036L
L3785322319L
(lp1816
(lp1817
Vindex_to_partition
p1818
atp1819
a(L1204373741L
L3785322319L
(lp1820
(lp1821
Vtry_load_partition
p1822
atp1823
a(L1899865696L
L0L
(lp1824
(lp1825
tp1826
a(L2695355117L
L3785322319L
(lp1827
(lp1828
Vset_actual_ota_seq
p1829
atp1830
a(L1868897605L
L3785322319L
(lp1831
(lp1832
Vlog_invalid_app_partition
p1833
atp1834
a(L831650730L
L0L
(lp1835
(lp1836
tp1837
a(L3021737L
L0L
(lp1838
(lp1839
tp1840
a(L695456438L
L0L
(lp1841
(lp1842
tp1843
a(L1129532116L
L3785322319L
(lp1844
(lp1845
Vtry_load_partition
p1846
atp1847
a(L4022121633L
L3785322319L
(lp1848
(lp1849
Vesp_log_early_timestamp
p1850
atp1851
a(L2347390157L
L3785322319L
(lp1852
(lp1853
Vindex_to_partition
p1854
atp1855
a(L1204373741L
L3785322319L
(lp1856
(lp1857
Vtry_load_partition
p1858
atp1859
a(L3061261803L
L0L
(lp1860
(lp1861
tp1862
a(L3582858798L
L3785322319L
(lp1863
(lp1864
Vlog_invalid_app_partition
p1865
atp1866
a(L1285752117L
L3785322319L
(lp1867
(lp1868
Vesp_log_early_timestamp
p1869
atp1870
atp1871
sI1074244976
(Vrtc_clk_bbpll_disable
p1872
(lp1873
(L2525111280L
L0L
(lp1874
(lp1875
tp1876
a(L2472207241L
L0L
(lp1877
(lp1878
tp1879
a(L3360570486L
L0L
(lp1880
(lp1881
tp1882
atp1883
sI1074247536
(Vesp_rom_spiflash_enable_write
p1884
(lp1885
(L2249402766L
L3785322319L
(lp1886
(lp1887
Vesp_rom_spiflash_wait_idle
p1888
atp1889
a(L3137194272L
L0L
(lp1890
(lp1891
tp1892
a(L2258718275L
L0L
(lp1893
(lp1894
tp1895
a(L99543895L
L0L
(lp1896
(lp1897
tp1898
a(L2993202392L
L0L
(lp1899
(lp1900
tp1901
a(L1804543818L
L3785322319L
(lp1902
(lp1903
Vesp_rom_spiflash_read_status
p1904
atp1905
atp1906
sI1074238844
(Vcache_ll_l1_enable_bus
p1907
(lp1908
(L1408514293L
L0L
(lp1909
(lp1910
tp1911
atp1912
sI1074237304
(Vbootloader_common_select_otadata
p1913
(lp1914
(L4071767857L
L0L
(lp1915
(lp1916
tp1917
a(L1999329187L
L0L
(lp1918
(lp1919
tp1920
a(L3846398843L
L0L
(lp1921
(lp1922
tp1923
a(L2501968171L
L0L
(lp1924
(lp1925
tp1926
a(L3360570486L
L0L
(lp1927
(lp1928
tp1929
a(L2045232488L
L0L
(lp1930
(lp1931
tp1932
a(L1243525916L
L0L
(lp1933
(lp1934
tp1935
a(L3094144427L
L0L
(lp1936
(lp1937
tp1938
a(L2399509845L
L0L
(lp1939
(lp1940
tp1941
a(L1641201884L
L0L
(lp1942
(lp1943
tp1944
atp1945
sI1074240888
(Vbootloader_ana_clock_glitch_reset_config
p1946
(lp1947
(L2100504542L
L0L
(lp1948
(lp1949
tp1950
atp1951
sI1074245496
(Vrtc_clk_fast_src_get
p1952
(lp1953
(L380770082L
L0L
(lp1954
(lp1955
tp1956
atp1957
sI1074236548
(Vbootloader_common_get_chip_ver_pkg
p1958
(lp1959
(L2886103845L
L0L
(lp1960
(lp1961
tp1962
atp1963
sI1074245248
(Vrtc_clk_8md256_enabled
p1964
(lp1965
(L1957668129L
L0L
(lp1966
(lp1967
tp1968
atp1969
sI1074243456
(Vwdt_hal_init
p1970
(lp1971
(L509746487L
L0L
(lp1972
(lp1973
tp1974
a(L745008699L
L0L
(lp1975
(lp1976
tp1977
a(L2805934244L
L0L
(lp1978
(lp1979
tp1980
a(L3115097993L
L0L
(lp1981
(lp1982
tp1983
a(L1129008730L
L0L
(lp1984
(lp1985
tp1986
a(L3360570486L
L0L
(lp1987
(lp1988
tp1989
a(L3022237171L
L0L
(lp1990
(lp1991
tp1992
atp1993
sI1074240896
(Vprocess_checksum
p1994
(lp1995
(L226873693L
L0L
(lp1996
(lp1997
tp1998
a(L2910371777L
L0L
(lp1999
(lp2000
tp2001
a(L186886970L
L0L
(lp2002
(lp2003
tp2004
a(L2910371777L
L0L
(lp2005
(lp2006
tp2007
a(L3020204L
L0L
(lp2008
(lp2009
tp2010
a(L2480703612L
L3785322319L
(lp2011
(lp2012
Vbootloader_sha256_data
p2013
atp2014
a(L4179073442L
L0L
(lp2015
(lp2016
tp2017
a(L1811888222L
L3785322319L
(lp2018
(lp2019
Vbootloader_flash_read
p2020
atp2021
a(L3126521138L
L0L
(lp2022
(lp2023
tp2024
a(L4120157373L
L0L
(lp2025
(lp2026
tp2027
a(L3278991908L
L3785322319L
(lp2028
(lp2029
Vesp_log_early_timestamp
p2030
atp2031
atp2032
sI1074241932
(Vprocess_segments
p2033
(lp2034
(L1018786970L
L0L
(lp2035
(lp2036
tp2037
a(L3285816417L
L0L
(lp2038
(lp2039
tp2040
a(L3782401745L
L0L
(lp2041
(lp2042
tp2043
a(L106L
L0L
(lp2044
(lp2045
tp2046
a(L2411199274L
L0L
(lp2047
(lp2048
tp2049
a(L669991150L
L3785322319L
(lp2050
(lp2051
Vesp_log_early_timestamp
p2052
atp2053
a(L3085209925L
L3785322319L
(lp2054
(lp2055
Vbootloader_flash_read
p2056
atp2057
a(L125419343L
L3785322319L
(lp2058
(lp2059
Vesp_log_early_timestamp
p2060
atp2061
a(L3871473710L
L0L
(lp2062
(lp2063
tp2064
a(L234193771L
L0L
(lp2065
(lp2066
tp2067
a(L1635713494L
L3785322319L
(lp2068
(lp2069
Vbootloader_sha256_data
p2070
atp2071
a(L165187679L
L0L
(lp2072
(lp2073
tp2074
a(L334484485L
L0L
(lp2075
(lp2076
tp2077
a(L451332327L
L0L
(lp2078
(lp2079
tp2080
a(L3802067325L
L0L
(lp2081
(lp2082
tp2083
a(L3592389343L
L0L
(lp2084
(lp2085
tp2086
a(L2258867228L
L0L
(lp2087
(lp2088
tp2089
a(L1255782415L
L0L
(lp2090
(lp2091
tp2092
a(L1756760227L
L0L
(lp2093
(lp2094
tp2095
a(L1849436849L
L0L
(lp2096
(lp2097
tp2098
a(L1947739089L
L3785322319L
(lp2099
(lp2100
Vesp_log_early_timestamp
p2101
atp2102
a(L3601900694L
L0L
(lp2103
(lp2104
tp2105
a(L568253874L
L0L
(lp2106
(lp2107
tp2108
a(L3182428709L
L3785322319L
(lp2109
(lp2110
Vesp_log_early_timestamp
p2111
atp2112
a(L1973629750L
L3785322319L
(lp2113
(lp2114
Vverify_load_addresses
p2115
atp2116
a(L106L
L0L
(lp2117
(lp2118
tp2119
a(L914132342L
L0L
(lp2120
(lp2121
tp2122
a(L291460350L
L0L
(lp2123
(lp2124
tp2125
a(L4151532718L
L3785322319L
(lp2126
(lp2127
Vbootloader_mmap
p2128
atp2129
a(L3589484614L
L3785322319L
(lp2130
(lp2131
Vesp_log_early_timestamp
p2132
atp2133
a(L2994776696L
L0L
(lp2134
(lp2135
tp2136
a(L2942377727L
L0L
(lp2137
(lp2138
tp2139
a(L1652679798L
L3785322319L
(lp2140
(lp2141
Vbootloader_munmap
p2142
atp2143
a(L2993622008L
L0L
(lp2144
(lp2145
tp2146
a(L1216016797L
L3785322319L
(lp2147
(lp2148
Vbootloader_fill_random
p2149
atp2150
a(L3570641403L
L0L
(lp2151
(lp2152
tp2153
a(L3574335487L
L0L
(lp2154
(lp2155
tp2156
a(L3450268858L
L0L
(lp2157
(lp2158
tp2159
a(L3021749L
L0L
(lp2160
(lp2161
tp2162
a(L1609678444L
L0L
(lp2163
(lp2164
tp2165
a(L1777728568L
L0L
(lp2166
(lp2167
tp2168
a(L3020204L
L0L
(lp2169
(lp2170
tp2171
a(L1312354573L
L0L
(lp2172
(lp2173
tp2174
a(L2076461546L
L0L
(lp2175
(lp2176
tp2177
a(L3844184503L
L0L
(lp2178
(lp2179
tp2180
a(L1749969336L
L0L
(lp2181
(lp2182
tp2183
a(L670934548L
L0L
(lp2184
(lp2185
tp2186
a(L781506066L
L3785322319L
(lp2187
(lp2188
Vbootloader_sha256_data
p2189
atp2190
a(L90548756L
L0L
(lp2191
(lp2192
tp2193
a(L4195963580L
L0L
(lp2194
(lp2195
tp2196
a(L2422333549L
L0L
(lp2197
(lp2198
tp2199
a(L3132743422L
L0L
(lp2200
(lp2201
tp2202
a(L249537906L
L3785322319L
(lp2203
(lp2204
Vshould_load
p2205
atp2206
a(L2378267508L
L0L
(lp2207
(lp2208
tp2209
a(L3098292588L
L3785322319L
(lp2210
(lp2211
Vesp_log_early_timestamp
p2212
atp2213
a(L1263395604L
L0L
(lp2214
(lp2215
tp2216
a(L307916924L
L0L
(lp2217
(lp2218
tp2219
a(L3421814691L
L0L
(lp2220
(lp2221
tp2222
a(L81630008L
L0L
(lp2223
(lp2224
tp2225
a(L2742376716L
L0L
(lp2226
(lp2227
tp2228
a(L3786494677L
L3785322319L
(lp2229
(lp2230
Vbootloader_mmap_get_free_pages
p2231
atp2232
a(L2685118414L
L0L
(lp2233
(lp2234
tp2235
a(L2091285670L
L0L
(lp2236
(lp2237
tp2238
atp2239
sI1074270852
(Vrtc_vddsdio_set_config
p2240
(lp2241
(L2337814951L
L0L
(lp2242
(lp2243
tp2244
atp2245
sI1074235272
(Vbootloader_flash_unlock
p2246
(lp2247
(L2142380611L
L3785322319L
(lp2248
(lp2249
Vesp_rom_spiflash_wait_idle
p2250
atp2251
a(L4212373562L
L0L
(lp2252
(lp2253
tp2254
a(L4292483033L
L3785322319L
(lp2255
(lp2256
Vbootloader_execute_flash_command
p2257
atp2258
a(L106L
L0L
(lp2259
(lp2260
tp2261
a(L1303560644L
L0L
(lp2262
(lp2263
tp2264
a(L610618440L
L0L
(lp2265
(lp2266
tp2267
a(L106L
L0L
(lp2268
(lp2269
tp2270
a(L345249462L
L0L
(lp2271
(lp2272
tp2273
a(L106L
L0L
(lp2274
(lp2275
tp2276
a(L1024465569L
L0L
(lp2277
(lp2278
tp2279
a(L106L
L0L
(lp2280
(lp2281
tp2282
a(L1481761147L
L1880226080L
(lp2283
(lp2284
Vbootloader_execute_flash_command
p2285
aVbootloader_execute_flash_command
p2286
atp2287
a(L2258807654L
L0L
(lp2288
(lp2289
tp2290
a(L489806350L
L1832448559L
(lp2291
(lp2292
Vesp_rom_spiflash_wait_idle
p2293
aVbootloader_execute_flash_command
p2294
aVbootloader_execute_flash_command
p2295
atp2296
a(L879744646L
L1832448559L
(lp2297
(lp2298
Vesp_rom_spiflash_wait_idle
p2299
aVbootloader_execute_flash_command
p2300
aVbootloader_execute_flash_command
p2301
atp2302
a(L1840772931L
L1880226080L
(lp2303
(lp2304
Vesp_rom_spiflash_wait_idle
p2305
aVbootloader_execute_flash_command
p2306
atp2307
a(L2993202392L
L0L
(lp2308
(lp2309
tp2310
a(L508800419L
L1880226080L
(lp2311
(lp2312
Vbootloader_execute_flash_command
p2313
aVbootloader_execute_flash_command
p2314
atp2315
a(L1303560369L
L0L
(lp2316
(lp2317
tp2318
a(L1596544945L
L0L
(lp2319
(lp2320
tp2321
a(L97689L
L0L
(lp2322
(lp2323
tp2324
a(L106L
L0L
(lp2325
(lp2326
tp2327
atp2328
sI1074234760
(Vbootloader_flash_execute_command_common
p2329
(lp2330
(L3865052895L
L0L
(lp2331
(lp2332
tp2333
a(L3287175998L
L0L
(lp2334
(lp2335
tp2336
a(L4121451103L
L3785322319L
(lp2337
(lp2338
V__assert_func
p2339
atp2340
a(L3021749L
L0L
(lp2341
(lp2342
tp2343
a(L3999871974L
L0L
(lp2344
(lp2345
tp2346
a(L543316797L
L0L
(lp2347
(lp2348
tp2349
a(L2091933878L
L0L
(lp2350
(lp2351
tp2352
a(L1702379862L
L0L
(lp2353
(lp2354
tp2355
a(L3432464320L
L0L
(lp2356
(lp2357
tp2358
a(L3539375712L
L0L
(lp2359
(lp2360
tp2361
a(L3244449450L
L0L
(lp2362
(lp2363
tp2364
a(L4233404408L
L0L
(lp2365
(lp2366
tp2367
a(L2990329343L
L0L
(lp2368
(lp2369
tp2370
a(L2051090536L
L0L
(lp2371
(lp2372
tp2373
a(L3333696662L
L0L
(lp2374
(lp2375
tp2376
a(L963425213L
L0L
(lp2377
(lp2378
tp2379
a(L339491738L
L0L
(lp2380
(lp2381
tp2382
a(L3360570486L
L0L
(lp2383
(lp2384
tp2385
atp2386
sI1074245512
(Vrtc_clk_xtal_freq_get
p2387
(lp2388
(L436198866L
L0L
(lp2389
(lp2390
tp2391
a(L2847936993L
L0L
(lp2392
(lp2393
tp2394
a(L4141094988L
L0L
(lp2395
(lp2396
tp2397
a(L3360570486L
L0L
(lp2398
(lp2399
tp2400
atp2401
sI1074268056
(Vbootloader_init
p2402
(lp2403
(L270395025L
L3785322319L
(lp2404
(lp2405
Vbootloader_init_mem
p2406
atp2407
a(L1265242158L
L0L
(lp2408
(lp2409
tp2410
a(L1494621136L
L3785322319L
(lp2411
(lp2412
V__assert_func
p2413
atp2414
a(L4126189388L
L0L
(lp2415
(lp2416
tp2417
a(L4255864574L
L0L
(lp2418
(lp2419
tp2420
a(L3813782018L
L0L
(lp2421
(lp2422
tp2423
a(L1364096344L
L0L
(lp2424
(lp2425
tp2426
a(L3027019L
L0L
(lp2427
(lp2428
tp2429
a(L3563591778L
L0L
(lp2430
(lp2431
tp2432
a(L935425969L
L1157885199L
(lp2433
(lp2434
Vbootloader_clear_bss_section
p2435
aVesp_log_early_timestamp
p2436
aVesp_efuse_init_virtual_mode_in_ram
p2437
aVbootloader_common_vddsdio_configure
p2438
aVbootloader_clock_get_rated_freq_mhz
p2439
atp2440
a(L3987130017L
L1157885199L
(lp2441
(lp2442
Vbootloader_clock_configure
p2443
aVbootloader_console_init
p2444
aVbootloader_print_banner
p2445
aVbootloader_flash_update_id
p2446
aVbootloader_flash_xmc_startup
p2447
atp2448
a(L707633217L
L3785322319L
(lp2449
(lp2450
Vesp_log_early_timestamp
p2451
atp2452
a(L397772013L
L3785322319L
(lp2453
(lp2454
Vesp_log_early_timestamp
p2455
atp2456
a(L3360570486L
L0L
(lp2457
(lp2458
tp2459
a(L2444883382L
L3785322319L
(lp2460
(lp2461
Vbootloader_read_bootloader_header
p2462
atp2463
a(L2444883382L
L3785322319L
(lp2464
(lp2465
Vbootloader_check_bootloader_validity
p2466
atp2467
a(L556971218L
L2485746240L
(lp2468
(lp2469
Vbootloader_flash_gpio_config
p2470
aVbootloader_flash_dummy_config
p2471
aVbootloader_flash_cs_timing_config
p2472
aVbootloader_flash_unlock
p2473
atp2474
a(L3279764549L
L0L
(lp2475
(lp2476
tp2477
a(L1825257684L
L0L
(lp2478
(lp2479
tp2480
a(L3902505827L
L0L
(lp2481
(lp2482
tp2483
a(L2691217542L
L3785322319L
(lp2484
(lp2485
Vesp_log_early_timestamp
p2486
atp2487
a(L92454083L
L0L
(lp2488
(lp2489
tp2490
a(L96148167L
L0L
(lp2491
(lp2492
tp2493
a(L99842251L
L0L
(lp2494
(lp2495
tp2496
a(L139553654L
L0L
(lp2497
(lp2498
tp2499
a(L1404491141L
L0L
(lp2500
(lp2501
tp2502
a(L2960444368L
L3785322319L
(lp2503
(lp2504
Vesp_log_early_timestamp
p2505
atp2506
a(L93837694L
L0L
(lp2507
(lp2508
tp2509
a(L106L
L0L
(lp2510
(lp2511
tp2512
a(L258083190L
L0L
(lp2513
(lp2514
tp2515
a(L2752571198L
L0L
(lp2516
(lp2517
tp2518
a(L3902507129L
L0L
(lp2519
(lp2520
tp2521
a(L2238412974L
L3785322319L
(lp2522
(lp2523
Vesp_log_early_timestamp
p2524
atp2525
a(L93837694L
L0L
(lp2526
(lp2527
tp2528
a(L106L
L0L
(lp2529
(lp2530
tp2531
a(L3029526157L
L0L
(lp2532
(lp2533
tp2534
a(L2772639124L
L0L
(lp2535
(lp2536
tp2537
a(L2807278488L
L0L
(lp2538
(lp2539
tp2540
a(L3864137198L
L3785322319L
(lp2541
(lp2542
Vbootloader_enable_wp
p2543
atp2544
a(L1266399027L
L0L
(lp2545
(lp2546
tp2547
a(L1895147922L
L0L
(lp2548
(lp2549
tp2550
a(L2662302114L
L3785322319L
(lp2551
(lp2552
Vesp_log_early_timestamp
p2553
atp2554
a(L3639065141L
L0L
(lp2555
(lp2556
tp2557
a(L3616326365L
L0L
(lp2558
(lp2559
tp2560
a(L1129025932L
L0L
(lp2561
(lp2562
tp2563
a(L1424465571L
L3785322319L
(lp2564
(lp2565
Vesp_log_early_timestamp
p2566
atp2567
a(L4263191691L
L1880226080L
(lp2568
(lp2569
Vwdt_reset_info_dump
p2570
aVwdt_reset_info_dump
p2571
atp2572
a(L2752562921L
L0L
(lp2573
(lp2574
tp2575
a(L106L
L0L
(lp2576
(lp2577
tp2578
a(L718636321L
L0L
(lp2579
(lp2580
tp2581
a(L1767021965L
L0L
(lp2582
(lp2583
tp2584
a(L3028481L
L0L
(lp2585
(lp2586
tp2587
a(L3272123969L
L1880226080L
(lp2588
(lp2589
Vbootloader_config_wdt
p2590
aVbootloader_enable_random
p2591
atp2592
atp2593
sI1074238100
(Vbootloader_enable_wp
p2594
(lp2595
(L1117825804L
L3785322319L
(lp2596
(lp2597
Vbootloader_execute_flash_command
p2598
atp2599
atp2600
sI1074244496
(Vwdt_hal_enable
p2601
(lp2602
(L2299130915L
L0L
(lp2603
(lp2604
tp2605
a(L165794138L
L0L
(lp2606
(lp2607
tp2608
a(L3360570486L
L0L
(lp2609
(lp2610
tp2611
a(L2847657174L
L0L
(lp2612
(lp2613
tp2614
atp2615
sI1074236816
(Vefuse_hal_get_minor_chip_version
p2616
(lp2617
(L1213965243L
L0L
(lp2618
(lp2619
tp2620
atp2621
sI1074238620
(Vcache_ll_l1_get_bus
p2622
(lp2623
(L3820023252L
L0L
(lp2624
(lp2625
tp2626
a(L94425498L
L3785322319L
(lp2627
(lp2628
Vabort
p2629
atp2630
a(L3179088012L
L0L
(lp2631
(lp2632
tp2633
a(L1844424101L
L0L
(lp2634
(lp2635
tp2636
a(L892952750L
L0L
(lp2637
(lp2638
tp2639
a(L1182811810L
L0L
(lp2640
(lp2641
tp2642
a(L1101742417L
L0L
(lp2643
(lp2644
tp2645
a(L1100767927L
L0L
(lp2646
(lp2647
tp2648
a(L3360570486L
L0L
(lp2649
(lp2650
tp2651
a(L2767111967L
L0L
(lp2652
(lp2653
tp2654
a(L892952750L
L0L
(lp2655
(lp2656
tp2657
a(L2258688482L
L0L
(lp2658
(lp2659
tp2660
a(L1353797152L
L0L
(lp2661
(lp2662
tp2663
a(L2258718273L
L0L
(lp2664
(lp2665
tp2666
a(L2938197270L
L0L
(lp2667
(lp2668
tp2669
a(L2748641547L
L0L
(lp2670
(lp2671
tp2672
a(L2752340901L
L0L
(lp2673
(lp2674
tp2675
a(L1641149277L
L0L
(lp2676
(lp2677
tp2678
a(L3211405977L
L0L
(lp2679
(lp2680
tp2681
a(L3027019L
L0L
(lp2682
(lp2683
tp2684
a(L1299866560L
L0L
(lp2685
(lp2686
tp2687
a(L1299866436L
L0L
(lp2688
(lp2689
tp2690
atp2691
sI1074245272
(Vrtc_clk_slow_src_set
p2692
(lp2693
(L1719649901L
L0L
(lp2694
(lp2695
tp2696
a(L3020187L
L0L
(lp2697
(lp2698
tp2699
a(L3028481L
L0L
(lp2700
(lp2701
tp2702
a(L487821223L
L0L
(lp2703
(lp2704
tp2705
a(L185049753L
L0L
(lp2706
(lp2707
tp2708
a(L1851908495L
L0L
(lp2709
(lp2710
tp2711
a(L382170874L
L0L
(lp2712
(lp2713
tp2714
a(L3138544334L
L0L
(lp2715
(lp2716
tp2717
a(L94425498L
L3785322319L
(lp2718
(lp2719
Vabort
p2720
atp2721
atp2722
sI1074245784
(Vrtc_clk_xtal_freq_update
p2723
(lp2724
(L1422638466L
L0L
(lp2725
(lp2726
tp2727
a(L3509357017L
L0L
(lp2728
(lp2729
tp2730
a(L2266180931L
L0L
(lp2731
(lp2732
tp2733
atp2734
sI1074248088
(Vesp_rom_spiflash_write_encrypted
p2735
(lp2736
(L1944247967L
L0L
(lp2737
(lp2738
tp2739
a(L695525630L
L0L
(lp2740
(lp2741
tp2742
a(L97689L
L0L
(lp2743
(lp2744
tp2745
a(L3061232074L
L0L
(lp2746
(lp2747
tp2748
a(L1807150757L
L0L
(lp2749
(lp2750
tp2751
a(L1309309703L
L3785322319L
(lp2752
(lp2753
Vesp_rom_spiflash_write
p2754
atp2755
a(L1812851730L
L0L
(lp2756
(lp2757
tp2758
a(L735741265L
L0L
(lp2759
(lp2760
tp2761
atp2762
sI1074240420
(Vbootloader_debug_buffer
p2763
(lp2764
(L2100504542L
L0L
(lp2765
(lp2766
tp2767
atp2768
sI1074236580
(Vesp_rom_uart_tx_wait_idle
p2769
(lp2770
(L3957152286L
L0L
(lp2771
(lp2772
tp2773
a(L1301079727L
L0L
(lp2774
(lp2775
tp2776
a(L3597746521L
L0L
(lp2777
(lp2778
tp2779
a(L3694491048L
L0L
(lp2780
(lp2781
tp2782
a(L3055926844L
L0L
(lp2783
(lp2784
tp2785
a(L3360570486L
L0L
(lp2786
(lp2787
tp2788
atp2789
sI1074236832
(Vesp_dport_access_reg_read
p2790
(lp2791
(L1099794772L
L0L
(lp2792
(lp2793
tp2794
atp2795
sI1074247328
(Vesp_efuse_utility_update_virt_blocks
p2796
(lp2797
(L4153903384L
L3785322319L
(lp2798
(lp2799
Vesp_log_early_timestamp
p2800
atp2801
a(L1900679720L
L0L
(lp2802
(lp2803
tp2804
a(L3021749L
L0L
(lp2805
(lp2806
tp2807
a(L2329022007L
L0L
(lp2808
(lp2809
tp2810
a(L3360570486L
L0L
(lp2811
(lp2812
tp2813
a(L3309002545L
L0L
(lp2814
(lp2815
tp2816
atp2817
sI1074245036
(Vrtc_clk_32k_enable
p2818
(lp2819
(L753387299L
L0L
(lp2820
(lp2821
tp2822
a(L3776007933L
L3785322319L
(lp2823
(lp2824
Vrtc_clk_32k_enable_common
p2825
atp2826
a(L3496950L
L0L
(lp2827
(lp2828
tp2829
a(L2501812159L
L0L
(lp2830
(lp2831
tp2832
atp2833
sI1074240428
(Vbootloader_sha256_start
p2834
(lp2835
(L260677377L
L0L
(lp2836
(lp2837
tp2838
atp2839
sI1074239404
(Vbootloader_utility_load_partition_table
p2840
(lp2841
(L973068460L
L3785322319L
(lp2842
(lp2843
Vbootloader_mmap
p2844
atp2845
a(L1894723508L
L3785322319L
(lp2846
(lp2847
Vesp_log_early_timestamp
p2848
atp2849
a(L2258688482L
L0L
(lp2850
(lp2851
tp2852
a(L3360570486L
L0L
(lp2853
(lp2854
tp2855
a(L3881596654L
L3785322319L
(lp2856
(lp2857
Vesp_partition_table_verify
p2858
atp2859
a(L418712718L
L3785322319L
(lp2860
(lp2861
Vesp_log_early_timestamp
p2862
atp2863
a(L3331315958L
L1880226080L
(lp2864
(lp2865
Vesp_log_early_timestamp
p2866
aVesp_log_early_timestamp
p2867
atp2868
a(L650140130L
L0L
(lp2869
(lp2870
tp2871
a(L3929231144L
L1880226080L
(lp2872
(lp2873
Vbootloader_munmap
p2874
aVesp_log_early_timestamp
p2875
atp2876
a(L521126897L
L0L
(lp2877
(lp2878
tp2879
a(L3028464L
L0L
(lp2880
(lp2881
tp2882
a(L106L
L0L
(lp2883
(lp2884
tp2885
a(L1403802546L
L0L
(lp2886
(lp2887
tp2888
a(L352196314L
L3785322319L
(lp2889
(lp2890
Vesp_log_early_timestamp
p2891
atp2892
a(L3990577774L
L0L
(lp2893
(lp2894
tp2895
a(L3020187L
L0L
(lp2896
(lp2897
tp2898
a(L2318212397L
L0L
(lp2899
(lp2900
tp2901
a(L4208504540L
L0L
(lp2902
(lp2903
tp2904
a(L1859217843L
L0L
(lp2905
(lp2906
tp2907
a(L2546691246L
L0L
(lp2908
(lp2909
tp2910
a(L3797730446L
L0L
(lp2911
(lp2912
tp2913
a(L106L
L0L
(lp2914
(lp2915
tp2916
a(L93674324L
L0L
(lp2917
(lp2918
tp2919
a(L1583301205L
L0L
(lp2920
(lp2921
tp2922
a(L1938133383L
L0L
(lp2923
(lp2924
tp2925
a(L1630400759L
L0L
(lp2926
(lp2927
tp2928
a(L106L
L0L
(lp2929
(lp2930
tp2931
a(L928516522L
L0L
(lp2932
(lp2933
tp2934
a(L106L
L0L
(lp2935
(lp2936
tp2937
a(L568204863L
L0L
(lp2938
(lp2939
tp2940
atp2941
sI1074235564
(Vbootloader_flash_read_sfdp
p2942
(lp2943
(L711701400L
L0L
(lp2944
(lp2945
tp2946
a(L3334003234L
L3785322319L
(lp2947
(lp2948
V__assert_func
p2949
atp2950
a(L3704332455L
L3785322319L
(lp2951
(lp2952
Vbootloader_flash_execute_command_common
p2953
atp2954
atp2955
sI1074235820
(Vbootloader_flash_cs_timing_config
p2956
(lp2957
(L1940014330L
L0L
(lp2958
(lp2959
tp2960
atp2961
sI1074236844
(Vis_xmc_chip_strict
p2962
(lp2963
(L1286841609L
L0L
(lp2964
(lp2965
tp2966
a(L2234016759L
L0L
(lp2967
(lp2968
tp2969
a(L1069027148L
L0L
(lp2970
(lp2971
tp2972
a(L3021749L
L0L
(lp2973
(lp2974
tp2975
a(L1900148749L
L0L
(lp2976
(lp2977
tp2978
a(L1936875721L
L0L
(lp2979
(lp2980
tp2981
a(L3356166509L
L0L
(lp2982
(lp2983
tp2984
a(L1937769451L
L0L
(lp2985
(lp2986
tp2987
a(L2137658907L
L0L
(lp2988
(lp2989
tp2990
a(L4265949734L
L0L
(lp2991
(lp2992
tp2993
a(L3360570486L
L0L
(lp2994
(lp2995
tp2996
atp2997
sI1074247596
(Vesp_rom_spiflash_program_page_internal
p2998
(lp2999
(L2569069283L
L0L
(lp3000
(lp3001
tp3002
a(L2258688483L
L0L
(lp3003
(lp3004
tp3005
a(L3360570486L
L0L
(lp3006
(lp3007
tp3008
a(L1797932095L
L0L
(lp3009
(lp3010
tp3011
a(L4235661475L
L3785322319L
(lp3012
(lp3013
Vesp_rom_spiflash_wait_idle
p3014
atp3015
a(L1299866312L
L0L
(lp3016
(lp3017
tp3018
a(L3212356251L
L3785322319L
(lp3019
(lp3020
Vesp_rom_spiflash_enable_write
p3021
atp3022
a(L3316363329L
L0L
(lp3023
(lp3024
tp3025
a(L26163681L
L0L
(lp3026
(lp3027
tp3028
a(L2953702749L
L0L
(lp3029
(lp3030
tp3031
a(L2989032L
L0L
(lp3032
(lp3033
tp3034
a(L1965622133L
L0L
(lp3035
(lp3036
tp3037
a(L2232244568L
L0L
(lp3038
(lp3039
tp3040
a(L1958113242L
L0L
(lp3041
(lp3042
tp3043
a(L106L
L0L
(lp3044
(lp3045
tp3046
a(L3112950080L
L0L
(lp3047
(lp3048
tp3049
a(L1868606439L
L0L
(lp3050
(lp3051
tp3052
a(L1008983226L
L0L
(lp3053
(lp3054
tp3055
a(L1933954923L
L0L
(lp3056
(lp3057
tp3058
a(L1147866918L
L0L
(lp3059
(lp3060
tp3061
a(L3871602522L
L0L
(lp3062
(lp3063
tp3064
atp3065
sI1074238120
(Vbootloader_mmap_get_free_pages
p3066
(lp3067
(L1496516875L
L0L
(lp3068
(lp3069
tp3070
atp3071
sI1074267836
(Vwdt_reset_info_dump
p3072
(lp3073
(L4037466985L
L0L
(lp3074
(lp3075
tp3076
a(L826419141L
L0L
(lp3077
(lp3078
tp3079
a(L527117834L
L0L
(lp3080
(lp3081
tp3082
a(L1103285333L
L0L
(lp3083
(lp3084
tp3085
a(L897464656L
L3785322319L
(lp3086
(lp3087
Vesp_log_early_timestamp
p3088
atp3089
a(L2967992533L
L0L
(lp3090
(lp3091
tp3092
a(L144195250L
L3785322319L
(lp3093
(lp3094
Vesp_log_early_timestamp
p3095
atp3096
a(L2899013701L
L0L
(lp3097
(lp3098
tp3099
atp3100
sI1074241712
(Vprocess_appended_hash_and_sig
p3101
(lp3102
(L1668084157L
L0L
(lp3103
(lp3104
tp3105
a(L2910371777L
L0L
(lp3106
(lp3107
tp3108
a(L1591589631L
L0L
(lp3109
(lp3110
tp3111
a(L2551256078L
L0L
(lp3112
(lp3113
tp3114
a(L2688085881L
L0L
(lp3115
(lp3116
tp3117
a(L3399920573L
L3785322319L
(lp3118
(lp3119
Vesp_log_early_timestamp
p3120
atp3121
a(L2268304300L
L3785322319L
(lp3122
(lp3123
Vbootloader_flash_read
p3124
atp3125
a(L3871473710L
L0L
(lp3126
(lp3127
tp3128
atp3129
sI1074238128
(Vbootloader_fill_random
p3130
(lp3131
(L1233865241L
L0L
(lp3132
(lp3133
tp3134
a(L2195342884L
L3785322319L
(lp3135
(lp3136
V__assert_func
p3137
atp3138
a(L1882547218L
L0L
(lp3139
(lp3140
tp3141
a(L2910371777L
L0L
(lp3142
(lp3143
tp3144
a(L95634693L
L0L
(lp3145
(lp3146
tp3147
a(L3630908706L
L0L
(lp3148
(lp3149
tp3150
a(L160162640L
L0L
(lp3151
(lp3152
tp3153
a(L97689L
L0L
(lp3154
(lp3155
tp3156
a(L3360570486L
L0L
(lp3157
(lp3158
tp3159
atp3160
sI1074238896
(Vload_image
p3161
(lp3162
(L162490783L
L1832448559L
(lp3163
(lp3164
Vesp_log_early_timestamp
p3165
aVbootloader_random_disable
p3166
aVbootloader_ana_clock_glitch_reset_config
p3167
atp3168
a(L2118498116L
L0L
(lp3169
(lp3170
tp3171
a(L106L
L0L
(lp3172
(lp3173
tp3174
a(L1789307221L
L3758435744L
(lp3175
(lp3176
Vmmu_hal_init
p3177
aVcache_ll_l1_get_bus
p3178
aVcache_ll_l1_enable_bus
p3179
aVcache_ll_l1_get_bus
p3180
aVcache_ll_l1_enable_bus
p3181
aVcache_ll_l1_get_bus
p3182
aVcache_ll_l1_enable_bus
p3183
aVcache_ll_l1_get_bus
p3184
aVcache_ll_l1_enable_bus
p3185
aVbootloader_console_deinit
p3186
atp3187
a(L746432701L
L0L
(lp3188
(lp3189
tp3190
a(L2902417580L
L0L
(lp3191
(lp3192
tp3193
a(L1366048922L
L3785322319L
(lp3194
(lp3195
Vesp_log_early_timestamp
p3196
atp3197
a(L3064806881L
L0L
(lp3198
(lp3199
tp3200
a(L839502558L
L0L
(lp3201
(lp3202
tp3203
a(L3020204L
L0L
(lp3204
(lp3205
tp3206
a(L3328497686L
L3785322319L
(lp3207
(lp3208
Vesp_log_early_timestamp
p3209
atp3210
a(L3644183142L
L0L
(lp3211
(lp3212
tp3213
a(L356605111L
L0L
(lp3214
(lp3215
tp3216
atp3217
sI1074245552
(Vrtc_clk_cpu_freq_mhz_to_config
p3218
(lp3219
(L908718885L
L3785322319L
(lp3220
(lp3221
Vrtc_clk_xtal_freq_get
p3222
atp3223
a(L60460069L
L0L
(lp3224
(lp3225
tp3226
a(L3802072124L
L0L
(lp3227
(lp3228
tp3229
a(L3159006042L
L0L
(lp3230
(lp3231
tp3232
a(L3360570486L
L0L
(lp3233
(lp3234
tp3235
a(L895147205L
L0L
(lp3236
(lp3237
tp3238
a(L3970036657L
L0L
(lp3239
(lp3240
tp3241
a(L2731353429L
L0L
(lp3242
(lp3243
tp3244
a(L1555485793L
L0L
(lp3245
(lp3246
tp3247
a(L2258897023L
L0L
(lp3248
(lp3249
tp3250
a(L1947499251L
L0L
(lp3251
(lp3252
tp3253
a(L1306331021L
L0L
(lp3254
(lp3255
tp3256
atp3257
sI1074268848
(Vbootloader_common_vddsdio_configure
p3258
(lp3259
(L1829974089L
L3785322319L
(lp3260
(lp3261
Vrtc_vddsdio_get_config
p3262
atp3263
a(L744297223L
L3785322319L
(lp3264
(lp3265
Vrtc_vddsdio_set_config
p3266
atp3267
a(L3360570486L
L0L
(lp3268
(lp3269
tp3270
atp3271
sI1074237380
(Vspi_to_esp_err
p3272
(lp3273
(L3520881295L
L0L
(lp3274
(lp3275
tp3276
a(L2402400019L
L0L
(lp3277
(lp3278
tp3279
a(L3952441574L
L0L
(lp3280
(lp3281
tp3282
a(L3126521138L
L0L
(lp3283
(lp3284
tp3285
atp3286
sI1074237636
(Vbootloader_munmap
p3287
(lp3288
(L1697403118L
L0L
(lp3289
(lp3290
tp3291
a(L3761142808L
L0L
(lp3292
(lp3293
tp3294
a(L3360570486L
L0L
(lp3295
(lp3296
tp3297
atp3298
sI1074245828
(Vrtc_clk_apb_freq_update
p3299
(lp3300
(L723331471L
L0L
(lp3301
(lp3302
tp3303
atp3304
sI1074270924
(Vmpu_hal_set_region_access
p3305
(lp3306
(L3538356822L
L0L
(lp3307
(lp3308
tp3309
a(L93674324L
L0L
(lp3310
(lp3311
tp3312
a(L2910371777L
L0L
(lp3313
(lp3314
tp3315
a(L3472092938L
L0L
(lp3316
(lp3317
tp3318
a(L3020187L
L0L
(lp3319
(lp3320
tp3321
a(L3360570486L
L0L
(lp3322
(lp3323
tp3324
a(L2258718273L
L0L
(lp3325
(lp3326
tp3327
a(L3446648619L
L0L
(lp3328
(lp3329
tp3330
a(L3739532189L
L0L
(lp3331
(lp3332
tp3333
a(L1300789895L
L0L
(lp3334
(lp3335
tp3336
atp3337
sI1074240448
(Vbootloader_sha256_data
p3338
(lp3339
(L4066096136L
L0L
(lp3340
(lp3341
tp3342
a(L110883720L
L0L
(lp3343
(lp3344
tp3345
a(L3884092851L
L3785322319L
(lp3346
(lp3347
V__assert_func
p3348
atp3349
a(L498498478L
L0L
(lp3350
(lp3351
tp3352
a(L1040021824L
L0L
(lp3353
(lp3354
tp3355
a(L2910371777L
L0L
(lp3356
(lp3357
tp3358
a(L3360570486L
L0L
(lp3359
(lp3360
tp3361
a(L1788837773L
L0L
(lp3362
(lp3363
tp3364
a(L541898147L
L0L
(lp3365
(lp3366
tp3367
a(L2604061911L
L0L
(lp3368
(lp3369
tp3370
a(L8683590L
L0L
(lp3371
(lp3372
tp3373
a(L3387118333L
L0L
(lp3374
(lp3375
tp3376
a(L2032890799L
L0L
(lp3377
(lp3378
tp3379
a(L3028464L
L0L
(lp3380
(lp3381
tp3382
a(L707876039L
L0L
(lp3383
(lp3384
tp3385
a(L498156265L
L0L
(lp3386
(lp3387
tp3388
atp3389
sI1074269632
(Vbootloader_flash_update_id
p3390
(lp3391
(L3217824586L
L3785322319L
(lp3392
(lp3393
Vbootloader_read_flash_id
p3394
atp3395
atp3396
sI1074269144
(Vbootloader_random_enable
p3397
(lp3398
(L2268790019L
L0L
(lp3399
(lp3400
tp3401
atp3402
sI1074269912
(Vbootloader_enable_random
p3403
(lp3404
(L1236070240L
L1880226080L
(lp3405
(lp3406
Vesp_log_early_timestamp
p3407
aVbootloader_random_enable
p3408
atp3409
atp3410
sI1074244820
(Vrtc_clk_cpu_freq_to_pll_mhz
p3411
(lp3412
(L1393544349L
L0L
(lp3413
(lp3414
tp3415
a(L405771233L
L0L
(lp3416
(lp3417
tp3418
a(L2930233244L
L0L
(lp3419
(lp3420
tp3421
a(L3298441904L
L0L
(lp3422
(lp3423
tp3424
a(L3680579786L
L0L
(lp3425
(lp3426
tp3427
a(L1298905564L
L0L
(lp3428
(lp3429
tp3430
a(L46269790L
L3785322319L
(lp3431
(lp3432
Vrtc_clk_wait_for_slow_cycle
p3433
atp3434
a(L1611366957L
L0L
(lp3435
(lp3436
tp3437
a(L1611366988L
L0L
(lp3438
(lp3439
tp3440
a(L94425498L
L3785322319L
(lp3441
(lp3442
Vabort
p3443
atp3444
atp3445
sI1074244052
(Vwdt_hal_config_stage
p3446
(lp3447
(L331558507L
L0L
(lp3448
(lp3449
tp3450
a(L4279082939L
L0L
(lp3451
(lp3452
tp3453
a(L93674324L
L0L
(lp3454
(lp3455
tp3456
a(L2902417580L
L0L
(lp3457
(lp3458
tp3459
a(L1485495983L
L0L
(lp3460
(lp3461
tp3462
a(L3020187L
L0L
(lp3463
(lp3464
tp3465
a(L94425498L
L3785322319L
(lp3466
(lp3467
Vabort
p3468
atp3469
a(L2718517169L
L0L
(lp3470
(lp3471
tp3472
a(L3360570486L
L0L
(lp3473
(lp3474
tp3475
a(L1996799187L
L0L
(lp3476
(lp3477
tp3478
a(L2771194801L
L0L
(lp3479
(lp3480
tp3481
a(L4278159418L
L0L
(lp3482
(lp3483
tp3484
a(L93674324L
L0L
(lp3485
(lp3486
tp3487
a(L3020204L
L0L
(lp3488
(lp3489
tp3490
a(L3391750594L
L0L
(lp3491
(lp3492
tp3493
a(L3020187L
L0L
(lp3494
(lp3495
tp3496
a(L106L
L0L
(lp3497
(lp3498
tp3499
a(L239610384L
L0L
(lp3500
(lp3501
tp3502
a(L831450820L
L0L
(lp3503
(lp3504
tp3505
a(L3340783449L
L0L
(lp3506
(lp3507
tp3508
atp3509
sI1074269136
(Vbootloader_init_mem
p3510
(lp3511
(L1287383080L
L3785322319L
(lp3512
(lp3513
Vesp_cpu_configure_region_protection
p3514
atp3515
atp3516
sI1074269648
(Vbootloader_clear_bss_section
p3517
(lp3518
(L1133714402L
L0L
(lp3519
(lp3520
tp3521
atp3522
sI1074244568
(Vmmu_hal_init
p3523
(lp3524
(L1381828061L
L0L
(lp3525
(lp3526
tp3527
a(L2010554219L
L0L
(lp3528
(lp3529
tp3530
a(L3268103L
L0L
(lp3531
(lp3532
tp3533
a(L3212334523L
L0L
(lp3534
(lp3535
tp3536
a(L2010554219L
L0L
(lp3537
(lp3538
tp3539
a(L3360570486L
L0L
(lp3540
(lp3541
tp3542
atp3543
sI1074268904
(Vbootloader_clock_configure
p3544
(lp3545
(L2559598596L
L1880226080L
(lp3546
(lp3547
Vesp_rom_uart_tx_wait_idle
p3548
aVefuse_hal_chip_revision
p3549
atp3550
a(L634440293L
L0L
(lp3551
(lp3552
tp3553
a(L883406775L
L0L
(lp3554
(lp3555
tp3556
a(L106L
L0L
(lp3557
(lp3558
tp3559
a(L1743684360L
L1832448559L
(lp3560
(lp3561
Vrtc_clk_slow_src_get
p3562
aVrtc_clk_fast_src_get
p3563
aVrtc_clk_init
p3564
atp3565
a(L338743460L
L0L
(lp3566
(lp3567
tp3568
a(L1112528635L
L3785322319L
(lp3569
(lp3570
Vrtc_clk_apb_freq_get
p3571
atp3572
a(L106L
L0L
(lp3573
(lp3574
tp3575
a(L106L
L0L
(lp3576
(lp3577
tp3578
atp3579
sI1074269672
(Vbootloader_read_bootloader_header
p3580
(lp3581
(L965061915L
L3785322319L
(lp3582
(lp3583
Vbootloader_flash_read
p3584
atp3585
a(L63714649L
L3785322319L
(lp3586
(lp3587
Vesp_log_early_timestamp
p3588
atp3589
a(L735741265L
L0L
(lp3590
(lp3591
tp3592
atp3593
sI1074236644
(Vesp_rom_uart_set_clock_baudrate
p3594
(lp3595
(L2889646162L
L0L
(lp3596
(lp3597
tp3598
a(L2316512566L
L0L
(lp3599
(lp3600
tp3601
a(L2805931268L
L0L
(lp3602
(lp3603
tp3604
a(L2901979283L
L0L
(lp3605
(lp3606
tp3607
atp3608
sI1074237412
(Vbootloader_mmap
p3609
(lp3610
(L3624397292L
L0L
(lp3611
(lp3612
tp3613
a(L3762918116L
L3785322319L
(lp3614
(lp3615
Vesp_log_early_timestamp
p3616
atp3617
a(L3871473710L
L0L
(lp3618
(lp3619
tp3620
a(L3729184599L
L0L
(lp3621
(lp3622
tp3623
a(L3066168078L
L3785322319L
(lp3624
(lp3625
Vesp_log_early_timestamp
p3626
atp3627
a(L1864365708L
L0L
(lp3628
(lp3629
tp3630
a(L2872111263L
L3785322319L
(lp3631
(lp3632
Vesp_log_early_timestamp
p3633
atp3634
a(L258722864L
L0L
(lp3635
(lp3636
tp3637
a(L3746164654L
L3785322319L
(lp3638
(lp3639
Vesp_log_early_timestamp
p3640
atp3641
a(L2535155408L
L0L
(lp3642
(lp3643
tp3644
atp3645
sI1074235616
(Vbootloader_read_flash_id
p3646
(lp3647
(L549578328L
L3785322319L
(lp3648
(lp3649
Vbootloader_execute_flash_command
p3650
atp3651
atp3652
sI1074245856
(Vrtc_clk_cpu_freq_to_xtal
p3653
(lp3654
(L2382625401L
L0L
(lp3655
(lp3656
tp3657
a(L94425498L
L3785322319L
(lp3658
(lp3659
Vabort
p3660
atp3661
a(L2975556993L
L3785322319L
(lp3662
(lp3663
Vrtc_clk_apb_freq_update
p3664
atp3665
a(L2258867232L
L0L
(lp3666
(lp3667
tp3668
a(L362206021L
L0L
(lp3669
(lp3670
tp3671
atp3672
sI1074247136
(Vrtc_clk_cal_ratio
p3673
(lp3674
(L1201925337L
L3785322319L
(lp3675
(lp3676
Vrtc_clk_cal_internal
p3677
atp3678
atp3679
sI1074247392
(Vesp_efuse_init_virtual_mode_in_ram
p3680
(lp3681
(L1287383080L
L3785322319L
(lp3682
(lp3683
Vesp_efuse_utility_update_virt_blocks
p3684
atp3685
atp3686
sI1074248928
(V_fini
p3687
(lp3688
(L3493042598L
L0L
(lp3689
(lp3690
tp3691
atp3692
sI1074241260
(Vbootloader_util_regions_overlap
p3693
(lp3694
(L2762640130L
L0L
(lp3695
(lp3696
tp3697
a(L2198512677L
L0L
(lp3698
(lp3699
tp3700
a(L2217655633L
L3785322319L
(lp3701
(lp3702
V__assert_func
p3703
atp3704
a(L97642L
L0L
(lp3705
(lp3706
tp3707
a(L996187529L
L0L
(lp3708
(lp3709
tp3710
a(L366123053L
L0L
(lp3711
(lp3712
tp3713
a(L2258867228L
L0L
(lp3714
(lp3715
tp3716
a(L1253626734L
L0L
(lp3717
(lp3718
tp3719
a(L2258897019L
L0L
(lp3720
(lp3721
tp3722
a(L3109269495L
L0L
(lp3723
(lp3724
tp3725
atp3726
sI1074270692
(Vrtc_vddsdio_get_config
p3727
(lp3728
(L1825737531L
L0L
(lp3729
(lp3730
tp3731
a(L3421108135L
L0L
(lp3732
(lp3733
tp3734
a(L3002774692L
L0L
(lp3735
(lp3736
tp3737
a(L3784564000L
L0L
(lp3738
(lp3739
tp3740
a(L3399561523L
L0L
(lp3741
(lp3742
tp3743
a(L2423030990L
L0L
(lp3744
(lp3745
tp3746
a(L1306330959L
L0L
(lp3747
(lp3748
tp3749
a(L1167336421L
L0L
(lp3750
(lp3751
tp3752
atp3753
sI1074245096
(Vrtc_clk_8m_enable
p3754
(lp3755
(L1843101924L
L0L
(lp3756
(lp3757
tp3758
a(L3147299128L
L0L
(lp3759
(lp3760
tp3761
a(L2151320156L
L0L
(lp3762
(lp3763
tp3764
a(L711175840L
L0L
(lp3765
(lp3766
tp3767
a(L3360570486L
L0L
(lp3768
(lp3769
tp3770
a(L1318267208L
L0L
(lp3771
(lp3772
tp3773
a(L512411289L
L0L
(lp3774
(lp3775
tp3776
atp3777
sI1074247400
(Vesp_rom_spiflash_read_status
p3778
(lp3779
(L2938520357L
L0L
(lp3780
(lp3781
tp3782
a(L1182811815L
L0L
(lp3783
(lp3784
tp3785
a(L2359095695L
L0L
(lp3786
(lp3787
tp3788
a(L106L
L0L
(lp3789
(lp3790
tp3791
a(L1725371117L
L0L
(lp3792
(lp3793
tp3794
a(L3274807848L
L0L
(lp3795
(lp3796
tp3797
a(L2123059967L
L0L
(lp3798
(lp3799
tp3800
a(L3146966332L
L0L
(lp3801
(lp3802
tp3803
a(L2392720019L
L0L
(lp3804
(lp3805
tp3806
atp3807
sI1074236916
(Vesp_log_early_timestamp
p3808
(lp3809
(L3733265409L
L0L
(lp3810
(lp3811
tp3812
atp3813
sI1074237940
(Vbootloader_flash_erase_sector
p3814
(lp3815
(L4129137686L
L1880226080L
(lp3816
(lp3817
Vesp_rom_spiflash_erase_sector
p3818
aVspi_to_esp_err
p3819
atp3820
atp3821
sI1074247924
(Vesp_rom_spiflash_write
p3822
(lp3823
(L3687802361L
L0L
(lp3824
(lp3825
tp3826
a(L2258688483L
L0L
(lp3827
(lp3828
tp3829
a(L3360570486L
L0L
(lp3830
(lp3831
tp3832
a(L3368132847L
L0L
(lp3833
(lp3834
tp3835
a(L3106685981L
L0L
(lp3836
(lp3837
tp3838
a(L3488660639L
L3785322319L
(lp3839
(lp3840
Vesp_rom_spiflash_program_page_internal
p3841
atp3842
a(L3543402353L
L3785322319L
(lp3843
(lp3844
Vesp_rom_spiflash_program_page_internal
p3845
atp3846
a(L4222526342L
L0L
(lp3847
(lp3848
tp3849
a(L2004208511L
L0L
(lp3850
(lp3851
tp3852
a(L564470656L
L0L
(lp3853
(lp3854
tp3855
a(L2988842384L
L3785322319L
(lp3856
(lp3857
Vesp_rom_spiflash_program_page_internal
p3858
atp3859
a(L2302069176L
L0L
(lp3860
(lp3861
tp3862
atp3863
sI1074236400
(Vbootloader_flash_dummy_config
p3864
(lp3865
(L262000646L
L0L
(lp3866
(lp3867
tp3868
a(L2761717557L
L0L
(lp3869
(lp3870
tp3871
a(L1849044936L
L0L
(lp3872
(lp3873
tp3874
a(L708753936L
L0L
(lp3875
(lp3876
tp3877
a(L1010450057L
L0L
(lp3878
(lp3879
tp3880
a(L3020204L
L0L
(lp3881
(lp3882
tp3883
a(L1610443405L
L0L
(lp3884
(lp3885
tp3886
a(L4032120524L
L0L
(lp3887
(lp3888
tp3889
a(L2336993863L
L0L
(lp3890
(lp3891
tp3892
a(L1298875775L
L0L
(lp3893
(lp3894
tp3895
a(L3880393601L
L0L
(lp3896
(lp3897
tp3898
a(L3328946209L
L0L
(lp3899
(lp3900
tp3901
a(L1610443436L
L0L
(lp3902
(lp3903
tp3904
atp3905
sI1074248176
(Vesp_rom_spiflash_read
p3906
(lp3907
(L3161167155L
L0L
(lp3908
(lp3909
tp3910
a(L2664405459L
L0L
(lp3911
(lp3912
tp3913
a(L340311750L
L0L
(lp3914
(lp3915
tp3916
a(L2355528925L
L0L
(lp3917
(lp3918
tp3919
a(L106L
L0L
(lp3920
(lp3921
tp3922
a(L633884026L
L0L
(lp3923
(lp3924
tp3925
a(L106L
L0L
(lp3926
(lp3927
tp3928
a(L1755585071L
L0L
(lp3929
(lp3930
tp3931
a(L2727407663L
L0L
(lp3932
(lp3933
tp3934
a(L2401097377L
L0L
(lp3935
(lp3936
tp3937
a(L336550648L
L0L
(lp3938
(lp3939
tp3940
a(L1935214967L
L0L
(lp3941
(lp3942
tp3943
a(L106L
L0L
(lp3944
(lp3945
tp3946
a(L3163031942L
L3785322319L
(lp3947
(lp3948
Vesp_rom_spiflash_wait_idle
p3949
atp3950
a(L3021737L
L0L
(lp3951
(lp3952
tp3953
a(L106L
L0L
(lp3954
(lp3955
tp3956
a(L1868280504L
L0L
(lp3957
(lp3958
tp3959
a(L106L
L0L
(lp3960
(lp3961
tp3962
a(L1915067387L
L0L
(lp3963
(lp3964
tp3965
a(L1221163038L
L0L
(lp3966
(lp3967
tp3968
a(L4122060822L
L0L
(lp3969
(lp3970
tp3971
a(L1159904577L
L0L
(lp3972
(lp3973
tp3974
a(L2989032L
L0L
(lp3975
(lp3976
tp3977
a(L3819849625L
L0L
(lp3978
(lp3979
tp3980
a(L3011903627L
L0L
(lp3981
(lp3982
tp3983
a(L961531348L
L0L
(lp3984
(lp3985
tp3986
a(L3901821482L
L0L
(lp3987
(lp3988
tp3989
a(L2760335532L
L0L
(lp3990
(lp3991
tp3992
a(L2921907736L
L0L
(lp3993
(lp3994
tp3995
a(L4023125337L
L0L
(lp3996
(lp3997
tp3998
a(L3542769657L
L0L
(lp3999
(lp4000
tp4001
a(L1790536897L
L0L
(lp4002
(lp4003
tp4004
a(L3350885573L
L0L
(lp4005
(lp4006
tp4007
a(L781550816L
L0L
(lp4008
(lp4009
tp4010
a(L2687789892L
L0L
(lp4011
(lp4012
tp4013
a(L1405253496L
L0L
(lp4014
(lp4015
tp4016
a(L4012933098L
L0L
(lp4017
(lp4018
tp4019
a(L97689L
L0L
(lp4020
(lp4021
tp4022
a(L1183020347L
L0L
(lp4023
(lp4024
tp4025
a(L4014024819L
L0L
(lp4026
(lp4027
tp4028
a(L3621567083L
L0L
(lp4029
(lp4030
tp4031
atp4032
sI1074269940
(Vbootloader_print_banner
p4033
(lp4034
(L1025976584L
L1880226080L
(lp4035
(lp4036
Vesp_log_early_timestamp
p4037
aVesp_log_early_timestamp
p4038
atp4039
atp4040
sI1074237688
(Vbootloader_flash_read
p4041
(lp4042
(L728393898L
L0L
(lp4043
(lp4044
tp4045
a(L1489400095L
L3785322319L
(lp4046
(lp4047
Vesp_log_early_timestamp
p4048
atp4049
a(L1941789336L
L0L
(lp4050
(lp4051
tp4052
a(L3360570486L
L0L
(lp4053
(lp4054
tp4055
a(L2660352519L
L0L
(lp4056
(lp4057
tp4058
a(L1179571938L
L3785322319L
(lp4059
(lp4060
Vesp_log_early_timestamp
p4061
atp4062
a(L162336582L
L0L
(lp4063
(lp4064
tp4065
a(L814874711L
L3785322319L
(lp4066
(lp4067
Vesp_log_early_timestamp
p4068
atp4069
a(L3020204L
L0L
(lp4070
(lp4071
tp4072
a(L3893043951L
L0L
(lp4073
(lp4074
tp4075
a(L97422L
L0L
(lp4076
(lp4077
tp4078
a(L1190291857L
L0L
(lp4079
(lp4080
tp4081
a(L2961856275L
L0L
(lp4082
(lp4083
tp4084
a(L2859434406L
L3785322319L
(lp4085
(lp4086
V__assert_func
p4087
atp4088
a(L1539897528L
L0L
(lp4089
(lp4090
tp4091
a(L1915165223L
L0L
(lp4092
(lp4093
tp4094
a(L1336007148L
L1880226080L
(lp4095
(lp4096
Vesp_rom_spiflash_read
p4097
aVspi_to_esp_err
p4098
atp4099
atp4100
ssS'functionsdups'
p4101
g11
((lp4102
tp4103
Rp4104
sS'immediatedups'
p4105
g11
((lp4106
tp4107
Rp4108
sS'functiondups'
p4109
g11
((lp4110
tp4111
Rp4112
sS'fuzzy'
p4113
(dp4114
L1536L
I1074240816
sL438947497L
I1074245272
sL2170867428L
I1074270256
sL617583950L
I1074237004
sL4193862648L
I1074268056
sL430153639L
I1074235932
sL3121027072L
I1074270692
sL2082889262L
I1074241712
sL291131346L
I1074244820
sL835568324L
I1074246700
sL2919016435L
I1074235272
sL16208487L
I1074234760
sL2319042089L
I1074245404
sL3881399234L
I1074245856
sL2919036513L
I1074238896
sL151789201L
I1074270072
sL2680783959L
I1074235664
sL3512578114L
I1074238744
sL1419132215L
I1074238128
sL2469233929L
I1074240604
sL701833459L
I1074268904
sL3897252859L
I1074238536
sL1065525808L
I1074236844
sL2327783177L
I1074240896
sL1164839255L
I1074241932
sL2272466760L
I1074245644
sL2117292686L
I1074241316
sL2044047637L
I1074239404
sL1188065553L
I1074237688
sL94556391L
I1074245432
sL3210669721L
I1074245036
sL1332800441L
I1074237236
sL2884218272L
I1074267836
sL1345429244L
I1074241068
sL3190020590L
I1074242652
sL2828970830L
I1074239284
sL4160102055L
I1074240080
sL4202185385L
I1074247488
sL1768086576L
I1074236400
sL4171975289L
I1074247788
sL1565254297L
I1074248088
sL1205407754L
I1074240112
sL2191698036L
I1074269784
sL1513350244L
I1074239768
sL3170828071L
I1074247328
sL1635528231L
I1074244052
sL519424169L
I1074247168
sL1060788199L
I1074245552
sL406720601L
I1074238620
sL737694352L
I1074247596
sL503029138L
I1074247536
sL1616763831L
I1074248176
sL2262558768L
I1074247400
sL424867129L
I1074247924
sL3834155367L
I1074241260
sL2405032630L
I1074267728
sL3338518926L
I1074237412
sL2123938668L
I1074245972
sL3883282432L
I1074241804
sL4173399607L
I1074243168
sL1667054119L
I1074240448
sL206902443L
I1074237960
ssb.