ccopy_reg
_reconstructor
p0
(crizzo
RizzoSignature
p1
c__builtin__
object
p2
Ntp3
Rp4
(dp5
S'formal'
p6
(dp7
L2005196428L
I1074245324
sL3016530374L
I1074247688
sL1741170115L
I1074238140
sL2087186284L
I1074236304
sL3129017229L
I1074269528
sL867946411L
I1074236452
sL3984280162L
I1074244300
sL2628804010L
I1074270800
sL461860251L
I1074247128
sL286550283L
I1074269692
sL3976424482L
I1074234620
sL552298442L
I1074235188
sL2767810776L
I1074238160
sL2771134728L
I1074240092
sL2702580795L
I1074237516
sL2610420647L
I1074269556
sL2896295319L
I1074237040
sL25479346L
I1074240572
sL3442495501L
I1074239596
sL1331791455L
I1074245416
sL1674148343L
I1074245472
sL1786019146L
I1074247496
sL4023292303L
I1074237592
sL3256726111L
I1074248540
sL2485902447L
I1074236880
sL902150784L
I1074236500
sL723138898L
I1074238320
sL424336643L
I1074269460
sL366218909L
I1074269980
sL368505532L
I1074245748
sL848906711L
I1074248704
sL557383543L
I1074236600
sL353716291L
I1074244500
sL1585823442L
I1074244400
sL1622896354L
I1074244428
sL2803618626L
I1074239808
sL3384899485L
I1074241964
sL2521269785L
I1074237120
sL3129199843L
I1074236580
sL2189223198L
I1074240332
sL3580313603L
I1074241836
sL2493713350L
I1074245180
sL827757374L
I1074236648
sL2930276314L
I1074235724
sL3007247178L
I1074238868
sL4161584248L
I1074268480
sL4175577751L
I1074244548
sL2723725103L
I1074240768
sL1633709340L
I1074245156
sL2813809866L
I1074236904
sL2366387314L
I1074270648
sL1330922710L
I1074246632
sL1731035566L
I1074236716
sL244922653L
I1074242584
sL2691843063L
I1074245776
sL3307282855L
I1074238300
sL127813144L
I1074243372
sL3065846068L
I1074235488
sL3553146178L
I1074267636
sL2195669076L
I1074245132
sL357647324L
I1074268776
sL3361686224L
I1074268536
sL3660049840L
I1074243068
sL3721992006L
I1074240784
sL1662035087L
I1074267744
sL4038945309L
I1074235540
sL3041505513L
I1074237624
sL429722680L
I1074245888
sL1435968304L
I1074244584
sL4178015136L
I1074247296
sL1992104215L
I1074237012
sL1112935418L
I1074234664
sL2931540503L
I1074247440
sL1382567621L
I1074238376
sL105563623L
I1074240404
sL2997001746L
I1074237448
sL59949349L
I1074241032
sL76756778L
I1074240864
sL2819127986L
I1074237172
sL3195929028L
I1074240068
sL3024810484L
I1074270204
sL981681L
I1074269332
sL1481764497L
I1074237152
sL1877634603L
I1074270880
sL2411516799L
I1074236560
sL2687718384L
I1074243104
sL2789355142L
I1074243984
sL1098683832L
I1074244944
sL3015462521L
I1074238784
sL3066643969L
I1074247096
sL935372552L
I1074267968
sL137696254L
I1074244720
sL886840080L
I1074237208
sL2062758462L
I1074236944
sL1347401601L
I1074240424
sL2248158928L
I1074238456
sL660825523L
I1074245004
sL3362774716L
I1074236800
sL3338519854L
I1074245704
sL4163357170L
I1074269280
sL2195659785L
I1074245352
sL540472814L
I1074248404
sL2263182908L
I1074238368
sL965583188L
I1074245564
sL114336524L
I1074269484
sL282668036L
I1074244332
sL963291061L
I1074248792
sL3630163135L
I1074237028
sL188664287L
I1074235156
sL2743385701L
I1074269264
sL2404540336L
I1074245296
sL2485146564L
I1074240808
sL692536993L
I1074237488
sL169616374L
I1074239500
sL822000404L
I1074245432
sL921639684L
I1074235836
sL235684320L
I1074237884
sL3364903294L
I1074247392
sL675504051L
I1074236700
sL1817360290L
I1074241276
sL917018201L
I1074237112
sL237904351L
I1074241220
sL459328145L
I1074269728
sL2805511626L
I1074239120
sL2758712477L
I1074241748
sL309068699L
I1074244884
sL1140246287L
I1074246588
sL3322869492L
I1074236540
sL3137236L
I1074235588
sL2570362575L
I1074238900
sL3958998789L
I1074237832
sL677806744L
I1074236476
sL4029637072L
I1074270028
ssS'immediates'
p8
(dp9
sS'formaldups'
p10
c__builtin__
set
p11
((lp12
tp13
Rp14
sS'stringdups'
p15
g11
((lp16
tp17
Rp18
sS'fuzzydups'
p19
g11
((lp20
tp21
Rp22
sS'strings'
p23
(dp24
sS'functions'
p25
(dp26
I1074240768
(Vbootloader_console_deinit
p27
(lp28
(L1858531217L
L1443213481L
(lp29
(lp30
tp31
atp32
sI1074245888
(Vrtc_clk_cpu_freq_set_config
p33
(lp34
(L1040494747L
L3833084538L
(lp35
(lp36
Vrtc_clk_xtal_freq_get
p37
atp38
a(L2308773007L
L0L
(lp39
(lp40
tp41
a(L3253451229L
L1880226080L
(lp42
(lp43
Vrtc_clk_cpu_freq_to_xtal
p44
aVrtc_clk_wait_for_slow_cycle
p45
atp46
a(L2243645672L
L0L
(lp47
(lp48
tp49
a(L4002786498L
L0L
(lp50
(lp51
tp52
a(L2736411858L
L3785322319L
(lp53
(lp54
Vrtc_clk_cpu_freq_to_xtal
p55
atp56
a(L3360570486L
L0L
(lp57
(lp58
tp59
a(L2755207760L
L1832448559L
(lp60
(lp61
Vrtc_clk_cpu_freq_to_xtal
p62
aVrtc_clk_wait_for_slow_cycle
p63
aVrtc_clk_bbpll_disable
p64
atp65
a(L3020187L
L0L
(lp66
(lp67
tp68
a(L106L
L0L
(lp69
(lp70
tp71
a(L4256952326L
L2515631753L
(lp72
(lp73
Vrtc_clk_wait_for_slow_cycle
p74
aVrtc_clk_xtal_freq_get
p75
atp76
a(L106L
L0L
(lp77
(lp78
tp79
a(L1246335289L
L1443213481L
(lp80
(lp81
tp82
a(L83268611L
L0L
(lp83
(lp84
tp85
a(L106L
L0L
(lp86
(lp87
tp88
a(L82345090L
L0L
(lp89
(lp90
tp91
a(L106L
L0L
(lp92
(lp93
tp94
a(L2258718273L
L0L
(lp95
(lp96
tp97
a(L3298883534L
L0L
(lp98
(lp99
tp100
a(L3519990574L
L1443213481L
(lp101
(lp102
tp103
a(L2508198718L
L1743007695L
(lp104
(lp105
Vrtc_clk_cpu_freq_to_pll_mhz
p106
atp107
a(L3492960355L
L2195759072L
(lp108
(lp109
tp110
a(L83268344L
L0L
(lp111
(lp112
tp113
a(L82344823L
L0L
(lp114
(lp115
tp116
a(L1569180676L
L0L
(lp117
(lp118
tp119
a(L2258837488L
L0L
(lp120
(lp121
tp122
a(L4233337962L
L1443213481L
(lp123
(lp124
tp125
a(L1482311963L
L0L
(lp126
(lp127
tp128
a(L133411965L
L0L
(lp129
(lp130
tp131
a(L3673491036L
L0L
(lp132
(lp133
tp134
a(L4197990447L
L0L
(lp135
(lp136
tp137
a(L903154985L
L0L
(lp138
(lp139
tp140
a(L3020187L
L0L
(lp141
(lp142
tp143
a(L106L
L0L
(lp144
(lp145
tp146
a(L3854192277L
L93324751L
(lp147
(lp148
Vesp_rom_set_cpu_ticks_per_us
p149
atp150
atp151
sI1074248704
(Vesp_rom_spiflash_write_encrypted
p152
(lp153
(L1944247967L
L0L
(lp154
(lp155
tp156
a(L3825342292L
L1443213481L
(lp157
(lp158
tp159
a(L97689L
L0L
(lp160
(lp161
tp162
a(L3061232074L
L0L
(lp163
(lp164
tp165
a(L1562911102L
L1443213481L
(lp166
(lp167
tp168
a(L1309309703L
L3785322319L
(lp169
(lp170
Vesp_rom_spiflash_write
p171
atp172
a(L2269233063L
L1443213481L
(lp173
(lp174
tp175
a(L735741265L
L0L
(lp176
(lp177
tp178
atp179
sI1074267136
(V_init
p180
(lp181
(L3493042598L
L0L
(lp182
(lp183
tp184
atp185
sI1074239500
(Vset_actual_ota_seq
p186
(lp187
(L4094723830L
L0L
(lp188
(lp189
tp190
a(L3504298995L
L2195759072L
(lp191
(lp192
tp193
a(L3797934020L
L2474967913L
(lp194
(lp195
Vmemset
p196
aVbootloader_common_ota_select_crc
p197
aVesp_flash_encryption_enabled
p198
aVbootloader_flash_erase_sector
p199
atp200
a(L3383023989L
L3785322319L
(lp201
(lp202
Vbootloader_flash_write
p203
atp204
a(L2553207239L
L3187408090L
(lp205
(lp206
Vesp_log_early_timestamp
p207
atp208
a(L3360570486L
L0L
(lp209
(lp210
tp211
atp212
sI1074245132
(Vrtc_clk_8m_enabled
p213
(lp214
(L563532105L
L1443213481L
(lp215
(lp216
tp217
atp218
sI1074237448
(Vbootloader_common_get_active_otadata
p219
(lp220
(L3317503532L
L0L
(lp221
(lp222
tp223
a(L2503049265L
L1832448559L
(lp224
(lp225
Vbootloader_common_ota_select_valid
p226
aVbootloader_common_ota_select_valid
p227
aVbootloader_common_select_otadata
p228
atp229
a(L735741265L
L0L
(lp230
(lp231
tp232
atp233
sI1074241032
(Vprocess_image_header
p234
(lp235
(L3301900732L
L2218577417L
(lp236
(lp237
Vmemset
p238
aVbootloader_flash_read
p239
atp240
a(L3020204L
L0L
(lp241
(lp242
tp243
a(L4205021202L
L0L
(lp244
(lp245
tp246
a(L321261932L
L0L
(lp247
(lp248
tp249
a(L1161397362L
L3785322319L
(lp250
(lp251
Vbootloader_sha256_start
p252
atp253
a(L2062774299L
L3785322319L
(lp254
(lp255
Vbootloader_sha256_data
p256
atp257
a(L1291118193L
L0L
(lp258
(lp259
tp260
a(L3028481L
L0L
(lp261
(lp262
tp263
a(L559062533L
L3187408090L
(lp264
(lp265
Vesp_log_early_timestamp
p266
atp267
a(L147213506L
L1443213481L
(lp268
(lp269
tp270
a(L2983970029L
L0L
(lp271
(lp272
tp273
a(L4235213884L
L3785322319L
(lp274
(lp275
Vbootloader_common_check_chip_validity
p276
atp277
a(L4144303915L
L0L
(lp278
(lp279
tp280
a(L3028481L
L0L
(lp281
(lp282
tp283
a(L3714328738L
L3187408090L
(lp284
(lp285
Vesp_log_early_timestamp
p286
atp287
a(L2852701393L
L0L
(lp288
(lp289
tp290
a(L2122516551L
L0L
(lp291
(lp292
tp293
a(L3064492592L
L0L
(lp294
(lp295
tp296
atp297
sI1074247688
(Vesp_rom_spiflash_config_readmode
p298
(lp299
(L1991524954L
L1443213481L
(lp300
(lp301
tp302
a(L3905548590L
L0L
(lp303
(lp304
tp305
a(L147213506L
L1443213481L
(lp306
(lp307
tp308
a(L3249937672L
L0L
(lp309
(lp310
tp311
a(L606611678L
L2534110409L
(lp312
(lp313
tp314
a(L93837694L
L0L
(lp315
(lp316
tp317
a(L106L
L0L
(lp318
(lp319
tp320
a(L4183135214L
L1443213481L
(lp321
(lp322
tp323
a(L2312969165L
L0L
(lp324
(lp325
tp326
a(L2318350296L
L0L
(lp327
(lp328
tp329
a(L688848543L
L1690040256L
(lp330
(lp331
tp332
a(L106L
L0L
(lp333
(lp334
tp335
a(L2309348921L
L1690040256L
(lp336
(lp337
tp338
a(L2890097920L
L0L
(lp339
(lp340
tp341
a(L2122757262L
L0L
(lp342
(lp343
tp344
a(L106L
L0L
(lp345
(lp346
tp347
a(L2317061491L
L0L
(lp348
(lp349
tp350
a(L1872504408L
L1443213481L
(lp351
(lp352
tp353
a(L106L
L0L
(lp354
(lp355
tp356
a(L2066898285L
L2195759072L
(lp357
(lp358
tp359
a(L1128993267L
L1443213481L
(lp360
(lp361
tp362
a(L3016870L
L0L
(lp363
(lp364
tp365
a(L4134302882L
L1443213481L
(lp366
(lp367
tp368
a(L4118655448L
L1443213481L
(lp369
(lp370
tp371
a(L3304852550L
L0L
(lp372
(lp373
tp374
a(L2882642734L
L0L
(lp375
(lp376
tp377
a(L2993202392L
L0L
(lp378
(lp379
tp380
a(L3304854015L
L0L
(lp381
(lp382
tp383
a(L388859830L
L0L
(lp384
(lp385
tp386
a(L206349837L
L1443213481L
(lp387
(lp388
tp389
a(L1852655062L
L1690040256L
(lp390
(lp391
tp392
a(L3795379801L
L1443213481L
(lp393
(lp394
tp395
atp396
sI1074235156
(Vbootloader_execute_flash_command
p397
(lp398
(L2481595632L
L3785322319L
(lp399
(lp400
Vbootloader_flash_execute_command_common
p401
atp402
atp403
sI1074244884
(Vrtc_clk_bbpll_disable
p404
(lp405
(L3512291683L
L1690040256L
(lp406
(lp407
tp408
a(L2472207241L
L0L
(lp409
(lp410
tp411
a(L3360570486L
L0L
(lp412
(lp413
tp414
atp415
sI1074269980
(Vesp_cpu_configure_region_protection
p416
(lp417
(L3233924472L
L581251951L
(lp418
(lp419
Vmemcpy
p420
atp421
a(L180431425L
L3785322319L
(lp422
(lp423
Vmpu_hal_set_region_access
p424
atp425
a(L2537388152L
L3785322319L
(lp426
(lp427
Vmpu_hal_set_region_access
p428
atp429
atp430
sI1074240784
(V__assert_func
p431
(lp432
(L3115292802L
L2195759072L
(lp433
(lp434
tp435
a(L106L
L0L
(lp436
(lp437
tp438
atp439
sI1074236944
(Vefuse_hal_get_major_chip_version
p440
(lp441
(L1572156932L
L2195759072L
(lp442
(lp443
tp444
a(L894792960L
L0L
(lp445
(lp446
tp447
a(L724635033L
L0L
(lp448
(lp449
tp450
a(L3360570486L
L0L
(lp451
(lp452
tp453
atp454
sI1074247440
(Vesp_rom_spiflash_enable_write
p455
(lp456
(L2885777558L
L1303911398L
(lp457
(lp458
Vesp_rom_spiflash_wait_idle
p459
atp460
a(L3333707777L
L0L
(lp461
(lp462
tp463
a(L2258688484L
L0L
(lp464
(lp465
tp466
a(L99543895L
L0L
(lp467
(lp468
tp469
a(L2993202392L
L0L
(lp470
(lp471
tp472
a(L1265538927L
L242900614L
(lp473
(lp474
Vesp_rom_spiflash_read_status
p475
atp476
atp477
sI1074236700
(Vesp_rom_set_cpu_ticks_per_us
p478
(lp479
(L396058732L
L2195759072L
(lp480
(lp481
tp482
atp483
sI1074234652
(Vesp_flash_encryption_enabled
p484
(lp485
(L376617603L
L3785322319L
(lp486
(lp487
Vefuse_hal_flash_encryption_enabled
p488
atp489
atp490
sI1074269460
(Vbootloader_clear_bss_section
p491
(lp492
(L2193193874L
L4032149094L
(lp493
(lp494
Vmemset
p495
atp496
atp497
sI1074237208
(Vbootloader_common_check_chip_validity
p498
(lp499
(L2080115690L
L0L
(lp500
(lp501
tp502
a(L3255759481L
L3187408090L
(lp503
(lp504
Vesp_log_early_timestamp
p505
atp506
a(L1299867982L
L0L
(lp507
(lp508
tp509
a(L3360570486L
L0L
(lp510
(lp511
tp512
a(L521940037L
L3785322319L
(lp513
(lp514
Vefuse_hal_chip_revision
p515
atp516
a(L332291457L
L1443213481L
(lp517
(lp518
tp519
a(L780168284L
L362179215L
(lp520
(lp521
Vesp_log_early_timestamp
p522
atp523
a(L3028464L
L0L
(lp524
(lp525
tp526
a(L573448730L
L0L
(lp527
(lp528
tp529
a(L106L
L0L
(lp530
(lp531
tp532
a(L3027019L
L0L
(lp533
(lp534
tp535
a(L106L
L0L
(lp536
(lp537
tp538
a(L3212356251L
L3785322319L
(lp539
(lp540
Vefuse_hal_get_disable_wafer_version_major
p541
atp542
a(L2465410698L
L362179215L
(lp543
(lp544
Vesp_log_early_timestamp
p545
atp546
atp547
sI1074242584
(Vimage_load
p548
(lp549
(L3048705773L
L0L
(lp550
(lp551
tp552
a(L3463713141L
L0L
(lp553
(lp554
tp555
a(L3309803581L
L0L
(lp556
(lp557
tp558
a(L256049682L
L0L
(lp559
(lp560
tp561
a(L1935188817L
L0L
(lp562
(lp563
tp564
a(L3028481L
L0L
(lp565
(lp566
tp567
a(L3021749L
L0L
(lp568
(lp569
tp570
a(L106L
L0L
(lp571
(lp572
tp573
a(L585264737L
L0L
(lp574
(lp575
tp576
a(L1145291904L
L3785322319L
(lp577
(lp578
Vprocess_image_header
p579
atp580
a(L823859500L
L0L
(lp581
(lp582
tp583
a(L3061291474L
L0L
(lp584
(lp585
tp586
a(L4106474008L
L3785322319L
(lp587
(lp588
Vprocess_segments
p589
atp590
a(L3868840998L
L0L
(lp591
(lp592
tp593
a(L2962085561L
L1443213481L
(lp594
(lp595
tp596
a(L1827898452L
L3785322319L
(lp597
(lp598
Vprocess_checksum
p599
atp600
a(L2214715179L
L3785322319L
(lp601
(lp602
Vprocess_appended_hash_and_sig
p603
atp604
a(L3028481L
L0L
(lp605
(lp606
tp607
a(L2902417580L
L0L
(lp608
(lp609
tp610
a(L3285560995L
L3785322319L
(lp611
(lp612
Vbootloader_sha256_finish
p613
atp614
a(L3946560000L
L0L
(lp615
(lp616
tp617
a(L93674324L
L0L
(lp618
(lp619
tp620
a(L2674734805L
L2195759072L
(lp621
(lp622
tp623
a(L1168805591L
L1443213481L
(lp624
(lp625
tp626
a(L1179424413L
L0L
(lp627
(lp628
tp629
a(L3928150917L
L0L
(lp630
(lp631
tp632
a(L106L
L0L
(lp633
(lp634
tp635
a(L3871473710L
L0L
(lp636
(lp637
tp638
a(L3884726427L
L0L
(lp639
(lp640
tp641
a(L106L
L0L
(lp642
(lp643
tp644
a(L3020187L
L0L
(lp645
(lp646
tp647
a(L1337906930L
L3187408090L
(lp648
(lp649
Vesp_log_early_timestamp
p650
atp651
a(L2868044067L
L0L
(lp652
(lp653
tp654
a(L1179764900L
L0L
(lp655
(lp656
tp657
a(L2332746046L
L3785322319L
(lp658
(lp659
Vbootloader_sha256_finish
p660
atp661
a(L3721568057L
L242900614L
(lp662
(lp663
Vmemset
p664
atp665
a(L3020204L
L0L
(lp666
(lp667
tp668
a(L3039742375L
L1443213481L
(lp669
(lp670
tp671
a(L106L
L0L
(lp672
(lp673
tp674
a(L3307179591L
L2839326997L
(lp675
(lp676
Vmemset
p677
aVbootloader_sha256_finish
p678
aVbootloader_debug_buffer
p679
aVmemcmp
p680
atp681
a(L3433271982L
L2266857161L
(lp682
(lp683
Vesp_log_early_timestamp
p684
aVbootloader_debug_buffer
p685
atp686
a(L3741653406L
L3785322319L
(lp687
(lp688
Vshould_load
p689
atp690
a(L2764257181L
L0L
(lp691
(lp692
tp693
a(L3338774213L
L0L
(lp694
(lp695
tp696
a(L193456747L
L1443213481L
(lp697
(lp698
tp699
a(L3349572949L
L0L
(lp700
(lp701
tp702
a(L2192292519L
L0L
(lp703
(lp704
tp705
a(L106L
L0L
(lp706
(lp707
tp708
a(L1702191967L
L1443213481L
(lp709
(lp710
tp711
a(L1299866312L
L0L
(lp712
(lp713
tp714
a(L3010020263L
L0L
(lp715
(lp716
tp717
atp718
sI1074236452
(Vbootloader_read_status_8b_rdsr
p719
(lp720
(L1945786777L
L3785322319L
(lp721
(lp722
Vbootloader_execute_flash_command
p723
atp724
atp725
sI1074245156
(Vrtc_clk_8md256_enabled
p726
(lp727
(L4014027530L
L1443213481L
(lp728
(lp729
tp730
atp731
sI1074269484
(Vbootloader_read_bootloader_header
p732
(lp733
(L2948018849L
L242900614L
(lp734
(lp735
Vbootloader_flash_read
p736
atp737
a(L804259852L
L3187408090L
(lp738
(lp739
Vesp_log_early_timestamp
p740
atp741
a(L735741265L
L0L
(lp742
(lp743
tp744
atp745
sI1074243104
(Vesp_partition_table_verify
p746
(lp747
(L44179228L
L1443213481L
(lp748
(lp749
tp750
a(L3031150553L
L1443213481L
(lp751
(lp752
tp753
a(L1184829782L
L0L
(lp754
(lp755
tp756
a(L3020204L
L0L
(lp757
(lp758
tp759
a(L26389654L
L3187408090L
(lp760
(lp761
Vesp_log_early_timestamp
p762
atp763
a(L1235012963L
L0L
(lp764
(lp765
tp766
a(L3190337587L
L0L
(lp767
(lp768
tp769
a(L2069928857L
L0L
(lp770
(lp771
tp772
a(L2902417580L
L0L
(lp773
(lp774
tp775
a(L2543114737L
L2147981551L
(lp776
(lp777
Vesp_log_early_timestamp
p778
atp779
a(L1715222413L
L1443213481L
(lp780
(lp781
tp782
a(L3020204L
L0L
(lp783
(lp784
tp785
a(L3020204L
L0L
(lp786
(lp787
tp788
a(L1328961945L
L2147981551L
(lp789
(lp790
Vesp_log_early_timestamp
p791
atp792
a(L4207910112L
L1443213481L
(lp793
(lp794
tp795
a(L1235012932L
L0L
(lp796
(lp797
tp798
a(L458256366L
L4021370767L
(lp799
(lp800
Vmemcmp
p801
atp802
a(L3020204L
L0L
(lp803
(lp804
tp805
a(L2543114737L
L2147981551L
(lp806
(lp807
Vesp_log_early_timestamp
p808
atp809
a(L1305407469L
L0L
(lp810
(lp811
tp812
a(L1167861556L
L0L
(lp813
(lp814
tp815
a(L818997085L
L0L
(lp816
(lp817
tp818
a(L3360570486L
L0L
(lp819
(lp820
tp821
a(L3020204L
L0L
(lp822
(lp823
tp824
a(L3999534504L
L3187408090L
(lp825
(lp826
Vesp_log_early_timestamp
p827
atp828
atp829
sI1074269728
(Vbootloader_enable_qio_mode
p830
(lp831
(L1479365645L
L4171435875L
(lp832
(lp833
Vesp_rom_spiflash_wait_idle
p834
atp835
a(L2355298608L
L1443213481L
(lp836
(lp837
tp838
a(L834872216L
L1690040256L
(lp839
(lp840
tp841
a(L3289196298L
L0L
(lp842
(lp843
tp844
a(L92660513L
L0L
(lp845
(lp846
tp847
a(L99833645L
L664492969L
(lp848
(lp849
Vesp_rom_spiflash_wait_idle
p850
aVbootloader_read_status_8b_rdsr
p851
atp852
a(L3562429912L
L2485746240L
(lp853
(lp854
Vbootloader_execute_flash_command
p855
aVbootloader_write_status_8b_wrsr
p856
aVesp_rom_spiflash_wait_idle
p857
aVbootloader_read_status_8b_rdsr
p858
atp859
a(L1898350695L
L3187408090L
(lp860
(lp861
Vesp_log_early_timestamp
p862
atp863
a(L3360570486L
L0L
(lp864
(lp865
tp866
a(L1923746841L
L2801279232L
(lp867
(lp868
Vesp_rom_spiflash_config_readmode
p869
aVbootloader_flash_get_wp_pin
p870
atp871
atp872
sI1074241836
(Vshould_load
p873
(lp874
(L4190720747L
L2534110409L
(lp875
(lp876
tp877
a(L1182990556L
L0L
(lp878
(lp879
tp880
a(L1744532171L
L1443213481L
(lp881
(lp882
tp883
a(L2306467100L
L0L
(lp884
(lp885
tp886
a(L4034276159L
L1443213481L
(lp887
(lp888
tp889
a(L2258897019L
L0L
(lp890
(lp891
tp892
a(L3781799363L
L0L
(lp893
(lp894
tp895
a(L3028464L
L0L
(lp896
(lp897
tp898
a(L166133047L
L2195759072L
(lp899
(lp900
tp901
a(L4277114872L
L0L
(lp902
(lp903
tp904
a(L2824381917L
L0L
(lp905
(lp906
tp907
a(L1243412227L
L0L
(lp908
(lp909
tp910
a(L2011157548L
L0L
(lp911
(lp912
tp913
a(L3126521138L
L0L
(lp914
(lp915
tp916
a(L1305407438L
L0L
(lp917
(lp918
tp919
a(L1305407469L
L0L
(lp920
(lp921
tp922
atp923
sI1074236716
(Vesp_rom_uart_tx_wait_idle
p924
(lp925
(L3110839460L
L2534110409L
(lp926
(lp927
tp928
a(L1301079727L
L0L
(lp929
(lp930
tp931
a(L597952197L
L0L
(lp932
(lp933
tp934
a(L1971823332L
L0L
(lp935
(lp936
tp937
a(L3055926844L
L0L
(lp938
(lp939
tp940
a(L3360570486L
L0L
(lp941
(lp942
tp943
a(L3694491048L
L0L
(lp944
(lp945
tp946
a(L106L
L0L
(lp947
(lp948
tp949
atp950
sI1074243372
(Vwdt_hal_init
p951
(lp952
(L1845705415L
L242900614L
(lp953
(lp954
Vmemset
p955
atp956
a(L106L
L0L
(lp957
(lp958
tp959
a(L147213506L
L1443213481L
(lp960
(lp961
tp962
a(L3076988543L
L0L
(lp963
(lp964
tp965
a(L746843176L
L3294285696L
(lp966
(lp967
tp968
a(L3028464L
L0L
(lp969
(lp970
tp971
a(L268651496L
L1443213481L
(lp972
(lp973
tp974
a(L213928354L
L1443213481L
(lp975
(lp976
tp977
a(L1646580088L
L3294285696L
(lp978
(lp979
tp980
a(L3360570486L
L0L
(lp981
(lp982
tp983
atp984
sI1074239016
(Vcache_ll_l1_enable_bus
p985
(lp986
(L318252209L
L1443213481L
(lp987
(lp988
tp989
atp990
sI1074234664
(Vbootloader_flash_execute_command_common
p991
(lp992
(L1988465817L
L0L
(lp993
(lp994
tp995
a(L2946944720L
L2195759072L
(lp996
(lp997
tp998
a(L2213948952L
L242900614L
(lp999
(lp1000
V__assert_func
p1001
atp1002
a(L3021749L
L0L
(lp1003
(lp1004
tp1005
a(L1160973241L
L2195759072L
(lp1006
(lp1007
tp1008
a(L2792673601L
L1679261929L
(lp1009
(lp1010
tp1011
a(L3792188146L
L0L
(lp1012
(lp1013
tp1014
a(L4024113366L
L0L
(lp1015
(lp1016
tp1017
a(L3275299125L
L1443213481L
(lp1018
(lp1019
tp1020
a(L2232084959L
L2534110409L
(lp1021
(lp1022
tp1023
a(L1099389923L
L0L
(lp1024
(lp1025
tp1026
a(L857553440L
L2195759072L
(lp1027
(lp1028
tp1029
a(L3877681344L
L0L
(lp1030
(lp1031
tp1032
a(L73134175L
L1443213481L
(lp1033
(lp1034
tp1035
a(L1270255739L
L0L
(lp1036
(lp1037
tp1038
a(L3691039583L
L0L
(lp1039
(lp1040
tp1041
a(L3411317116L
L0L
(lp1042
(lp1043
tp1044
a(L3360570486L
L0L
(lp1045
(lp1046
tp1047
atp1048
sI1074240808
(Vabort
p1049
(lp1050
(L2564459292L
L1690040256L
(lp1051
(lp1052
tp1053
a(L409471316L
L0L
(lp1054
(lp1055
tp1056
a(L106L
L0L
(lp1057
(lp1058
tp1059
atp1060
sI1074245416
(Vrtc_clk_fast_src_get
p1061
(lp1062
(L2217920473L
L1443213481L
(lp1063
(lp1064
tp1065
atp1066
sI1074238772
(Vbootloader_clock_get_rated_freq_mhz
p1067
(lp1068
(L376617603L
L3785322319L
(lp1069
(lp1070
Vefuse_hal_get_rated_freq_mhz
p1071
atp1072
atp1073
sI1074235188
(Vbootloader_flash_unlock
p1074
(lp1075
(L1368360454L
L242900614L
(lp1076
(lp1077
Vesp_rom_spiflash_wait_idle
p1078
atp1079
a(L1574074940L
L0L
(lp1080
(lp1081
tp1082
a(L1667462067L
L3785322319L
(lp1083
(lp1084
Vbootloader_execute_flash_command
p1085
atp1086
a(L106L
L0L
(lp1087
(lp1088
tp1089
a(L1013678540L
L0L
(lp1090
(lp1091
tp1092
a(L2529045083L
L0L
(lp1093
(lp1094
tp1095
a(L990750093L
L1832448559L
(lp1096
(lp1097
Vesp_rom_spiflash_wait_idle
p1098
aVbootloader_execute_flash_command
p1099
aVbootloader_execute_flash_command
p1100
atp1101
a(L993671302L
L1832448559L
(lp1102
(lp1103
Vesp_rom_spiflash_wait_idle
p1104
aVbootloader_execute_flash_command
p1105
aVbootloader_execute_flash_command
p1106
atp1107
a(L1209048744L
L1880226080L
(lp1108
(lp1109
Vesp_rom_spiflash_wait_idle
p1110
aVbootloader_execute_flash_command
p1111
atp1112
a(L3162775668L
L0L
(lp1113
(lp1114
tp1115
a(L2435612105L
L0L
(lp1116
(lp1117
tp1118
a(L3664359624L
L0L
(lp1119
(lp1120
tp1121
a(L2074930120L
L1880226080L
(lp1122
(lp1123
Vbootloader_execute_flash_command
p1124
aVbootloader_execute_flash_command
p1125
atp1126
a(L2125014318L
L0L
(lp1127
(lp1128
tp1129
a(L568821667L
L0L
(lp1130
(lp1131
tp1132
a(L1711531685L
L1880226080L
(lp1133
(lp1134
Vbootloader_execute_flash_command
p1135
aVbootloader_execute_flash_command
p1136
atp1137
a(L3658700047L
L0L
(lp1138
(lp1139
tp1140
a(L3269997774L
L0L
(lp1141
(lp1142
tp1143
a(L106L
L0L
(lp1144
(lp1145
tp1146
a(L2993202392L
L0L
(lp1147
(lp1148
tp1149
atp1150
sI1074244400
(Vwdt_hal_write_protect_enable
p1151
(lp1152
(L387778158L
L0L
(lp1153
(lp1154
tp1155
a(L4195472003L
L0L
(lp1156
(lp1157
tp1158
a(L3360570486L
L0L
(lp1159
(lp1160
tp1161
a(L802523425L
L0L
(lp1162
(lp1163
tp1164
atp1165
sI1074237488
(Vbootloader_common_ota_select_invalid
p1166
(lp1167
(L4027567199L
L0L
(lp1168
(lp1169
tp1170
a(L3397985842L
L0L
(lp1171
(lp1172
tp1173
a(L2258867228L
L0L
(lp1174
(lp1175
tp1176
a(L3785235668L
L0L
(lp1177
(lp1178
tp1179
atp1180
sI1074236476
(Vbootloader_read_status_8b_rdsr2
p1181
(lp1182
(L3746738790L
L3785322319L
(lp1183
(lp1184
Vbootloader_execute_flash_command
p1185
atp1186
atp1187
sI1074240572
(Vbootloader_sha256_finish
p1188
(lp1189
(L4066096136L
L0L
(lp1190
(lp1191
tp1192
a(L1697654722L
L2195759072L
(lp1193
(lp1194
tp1195
a(L2213948952L
L242900614L
(lp1196
(lp1197
V__assert_func
p1198
atp1199
a(L3020204L
L0L
(lp1200
(lp1201
tp1202
a(L2888288470L
L2534110409L
(lp1203
(lp1204
tp1205
a(L2534656226L
L0L
(lp1206
(lp1207
tp1208
a(L2740629735L
L4171435875L
(lp1209
(lp1210
Vbootloader_sha256_data
p1211
atp1212
a(L2946948570L
L2195759072L
(lp1213
(lp1214
tp1215
a(L354914383L
L2790500905L
(lp1216
(lp1217
V__bswapsi2
p1218
aVbootloader_sha256_data
p1219
atp1220
a(L2946948756L
L2195759072L
(lp1221
(lp1222
tp1223
a(L657425439L
L0L
(lp1224
(lp1225
tp1226
a(L4173600236L
L1443213481L
(lp1227
(lp1228
tp1229
a(L657425439L
L0L
(lp1230
(lp1231
tp1232
a(L2046284480L
L2195759072L
(lp1233
(lp1234
tp1235
a(L3616504601L
L4171435875L
(lp1236
(lp1237
V__bswapsi2
p1238
atp1239
a(L3347778L
L0L
(lp1240
(lp1241
tp1242
a(L3360570486L
L0L
(lp1243
(lp1244
tp1245
atp1246
sI1074245180
(Vrtc_clk_slow_src_set
p1247
(lp1248
(L585347011L
L2195759072L
(lp1249
(lp1250
tp1251
a(L3020187L
L0L
(lp1252
(lp1253
tp1254
a(L3028481L
L0L
(lp1255
(lp1256
tp1257
a(L487821223L
L0L
(lp1258
(lp1259
tp1260
a(L4271877108L
L1443213481L
(lp1261
(lp1262
tp1263
a(L1851908495L
L0L
(lp1264
(lp1265
tp1266
a(L1099319264L
L1443213481L
(lp1267
(lp1268
tp1269
a(L3138544334L
L0L
(lp1270
(lp1271
tp1272
a(L94425498L
L3785322319L
(lp1273
(lp1274
Vabort
p1275
atp1276
atp1277
sI1074245432
(Vrtc_clk_xtal_freq_get
p1278
(lp1279
(L3313072792L
L1443213481L
(lp1280
(lp1281
tp1282
a(L2847936993L
L0L
(lp1283
(lp1284
tp1285
a(L2252934062L
L1443213481L
(lp1286
(lp1287
tp1288
a(L3360570486L
L0L
(lp1289
(lp1290
tp1291
atp1292
sI1074240068
(Vbootloader_reset
p1293
(lp1294
(L479276581L
L2147981551L
(lp1295
(lp1296
Vbootloader_console_deinit
p1297
atp1298
a(L106L
L0L
(lp1299
(lp1300
tp1301
atp1302
sI1074270028
(Vrtc_clk_xtal_freq_estimate
p1303
(lp1304
(L1823831978L
L1880226080L
(lp1305
(lp1306
Vrtc_clk_8m_enabled
p1307
aVrtc_clk_8md256_enabled
p1308
atp1309
a(L2449794434L
L3785322319L
(lp1310
(lp1311
Vrtc_clk_8m_enable
p1312
atp1313
a(L3726876033L
L2704288053L
(lp1314
(lp1315
Vrtc_clk_cal_ratio
p1316
aV__udivdi3
p1317
atp1318
a(L3934977694L
L0L
(lp1319
(lp1320
tp1321
a(L3955289886L
L0L
(lp1322
(lp1323
tp1324
a(L2553207239L
L3187408090L
(lp1325
(lp1326
Vesp_log_early_timestamp
p1327
atp1328
a(L2307427870L
L0L
(lp1329
(lp1330
tp1331
a(L1281346514L
L3785322319L
(lp1332
(lp1333
Vrtc_clk_8m_enable
p1334
atp1335
a(L3909119106L
L0L
(lp1336
(lp1337
tp1338
a(L2298857999L
L3187408090L
(lp1339
(lp1340
Vesp_log_early_timestamp
p1341
atp1342
a(L3304487880L
L0L
(lp1343
(lp1344
tp1345
a(L1641150486L
L0L
(lp1346
(lp1347
tp1348
a(L2026357443L
L3187408090L
(lp1349
(lp1350
Vesp_log_early_timestamp
p1351
atp1352
atp1353
sI1074238784
(Vlog_invalid_app_partition
p1354
(lp1355
(L2157385331L
L2195759072L
(lp1356
(lp1357
tp1358
a(L3028464L
L0L
(lp1359
(lp1360
tp1361
a(L1760520779L
L3833084538L
(lp1362
(lp1363
Vesp_log_early_timestamp
p1364
atp1365
a(L4207910112L
L1443213481L
(lp1366
(lp1367
tp1368
a(L3360570486L
L0L
(lp1369
(lp1370
tp1371
a(L3212513603L
L3833084538L
(lp1372
(lp1373
Vesp_log_early_timestamp
p1374
atp1375
a(L431938678L
L2147981551L
(lp1376
(lp1377
Vesp_log_early_timestamp
p1378
atp1379
atp1380
sI1074239808
(Vbootloader_utility_get_selected_boot_partition
p1381
(lp1382
(L2938832293L
L0L
(lp1383
(lp1384
tp1385
a(L2250662613L
L1443213481L
(lp1386
(lp1387
tp1388
a(L3987062097L
L2147981551L
(lp1389
(lp1390
Vesp_log_early_timestamp
p1391
atp1392
a(L558289164L
L1443213481L
(lp1393
(lp1394
tp1395
a(L3360570486L
L0L
(lp1396
(lp1397
tp1398
a(L3118387733L
L3785322319L
(lp1399
(lp1400
Vbootloader_mmap
p1401
atp1402
a(L3080008394L
L2147981551L
(lp1403
(lp1404
Vesp_log_early_timestamp
p1405
atp1406
a(L937961821L
L2410515468L
(lp1407
(lp1408
Vmemcpy
p1409
aVmemcpy
p1410
aVbootloader_munmap
p1411
aVbootloader_common_ota_select_invalid
p1412
atp1413
a(L2911028409L
L0L
(lp1414
(lp1415
tp1416
a(L726746649L
L3785322319L
(lp1417
(lp1418
Vbootloader_common_get_active_otadata
p1419
atp1420
a(L4179097382L
L0L
(lp1421
(lp1422
tp1423
a(L3111084448L
L3785322319L
(lp1424
(lp1425
Vbootloader_common_ota_select_invalid
p1426
atp1427
a(L2793942993L
L0L
(lp1428
(lp1429
tp1430
a(L1043744473L
L0L
(lp1431
(lp1432
tp1433
a(L2302032704L
L0L
(lp1434
(lp1435
tp1436
a(L1173788779L
L3785322319L
(lp1437
(lp1438
Vbootloader_common_ota_select_crc
p1439
atp1440
a(L178397698L
L1443213481L
(lp1441
(lp1442
tp1443
a(L1324800084L
L3785322319L
(lp1444
(lp1445
Vbootloader_common_ota_select_crc
p1446
atp1447
a(L1299866312L
L0L
(lp1448
(lp1449
tp1450
a(L3005064543L
L1443213481L
(lp1451
(lp1452
tp1453
a(L1522345576L
L3833084538L
(lp1454
(lp1455
Vesp_log_early_timestamp
p1456
atp1457
a(L4207910112L
L1443213481L
(lp1458
(lp1459
tp1460
a(L1641201884L
L0L
(lp1461
(lp1462
tp1463
a(L1194215008L
L3833084538L
(lp1464
(lp1465
Vesp_log_early_timestamp
p1466
atp1467
atp1468
sI1074267968
(Vbootloader_init
p1469
(lp1470
(L2778985116L
L362179215L
(lp1471
(lp1472
Vbootloader_init_mem
p1473
atp1474
a(L2588916198L
L2195759072L
(lp1475
(lp1476
tp1477
a(L2569579240L
L242900614L
(lp1478
(lp1479
V__assert_func
p1480
atp1481
a(L2041988382L
L2534110409L
(lp1482
(lp1483
tp1484
a(L2946990947L
L2195759072L
(lp1485
(lp1486
tp1487
a(L3813782018L
L0L
(lp1488
(lp1489
tp1490
a(L2946991009L
L2195759072L
(lp1491
(lp1492
tp1493
a(L3027019L
L0L
(lp1494
(lp1495
tp1496
a(L2946991040L
L2195759072L
(lp1497
(lp1498
tp1499
a(L4055793689L
L1832448559L
(lp1500
(lp1501
Vbootloader_clear_bss_section
p1502
aVbootloader_common_vddsdio_configure
p1503
aVbootloader_clock_get_rated_freq_mhz
p1504
atp1505
a(L106L
L0L
(lp1506
(lp1507
tp1508
a(L1943573098L
L2769615034L
(lp1509
(lp1510
Vbootloader_clock_configure
p1511
aVbootloader_console_init
p1512
aVbootloader_print_banner
p1513
aVbootloader_flash_update_id
p1514
aVbootloader_flash_xmc_startup
p1515
atp1516
a(L3014296803L
L3187408090L
(lp1517
(lp1518
Vesp_log_early_timestamp
p1519
atp1520
a(L4245842452L
L3187408090L
(lp1521
(lp1522
Vesp_log_early_timestamp
p1523
atp1524
a(L3360570486L
L0L
(lp1525
(lp1526
tp1527
a(L2444883382L
L3785322319L
(lp1528
(lp1529
Vbootloader_read_bootloader_header
p1530
atp1531
a(L2444883382L
L3785322319L
(lp1532
(lp1533
Vbootloader_check_bootloader_validity
p1534
atp1535
a(L2444883382L
L3785322319L
(lp1536
(lp1537
Vbootloader_init_spi_flash
p1538
atp1539
a(L1947007263L
L2195759072L
(lp1540
(lp1541
tp1542
a(L254817508L
L0L
(lp1543
(lp1544
tp1545
a(L93892250L
L0L
(lp1546
(lp1547
tp1548
a(L2915015718L
L0L
(lp1549
(lp1550
tp1551
a(L1460895057L
L2218577417L
(lp1552
(lp1553
Vbootloader_config_wdt
p1554
aVbootloader_enable_random
p1555
atp1556
a(L1895147938L
L0L
(lp1557
(lp1558
tp1559
a(L2680457259L
L0L
(lp1560
(lp1561
tp1562
a(L3027019L
L0L
(lp1563
(lp1564
tp1565
a(L97315L
L0L
(lp1566
(lp1567
tp1568
a(L3014296803L
L3187408090L
(lp1569
(lp1570
Vesp_log_early_timestamp
p1571
atp1572
a(L1766563386L
L3187408090L
(lp1573
(lp1574
Vesp_log_early_timestamp
p1575
atp1576
a(L3164960223L
L0L
(lp1577
(lp1578
tp1579
a(L1895147938L
L0L
(lp1580
(lp1581
tp1582
a(L156585483L
L1880226080L
(lp1583
(lp1584
Vwdt_reset_info_dump
p1585
aVwdt_reset_info_dump
p1586
atp1587
atp1588
sI1074268480
(Vbootloader_common_vddsdio_configure
p1589
(lp1590
(L1829974089L
L3785322319L
(lp1591
(lp1592
Vrtc_vddsdio_get_config
p1593
atp1594
a(L351649043L
L3833084538L
(lp1595
(lp1596
Vrtc_vddsdio_set_config
p1597
atp1598
a(L3360570486L
L0L
(lp1599
(lp1600
tp1601
atp1602
sI1074244428
(Vwdt_hal_enable
p1603
(lp1604
(L2299130915L
L0L
(lp1605
(lp1606
tp1607
a(L165794138L
L0L
(lp1608
(lp1609
tp1610
a(L3360570486L
L0L
(lp1611
(lp1612
tp1613
a(L2847657174L
L0L
(lp1614
(lp1615
tp1616
atp1617
sI1074240332
(Vindex_to_partition
p1618
(lp1619
(L4066096119L
L0L
(lp1620
(lp1621
tp1622
a(L1101255660L
L0L
(lp1623
(lp1624
tp1625
a(L1955702725L
L0L
(lp1626
(lp1627
tp1628
a(L3698927993L
L0L
(lp1629
(lp1630
tp1631
a(L2808906342L
L0L
(lp1632
(lp1633
tp1634
a(L4211744375L
L0L
(lp1635
(lp1636
tp1637
a(L3097778015L
L0L
(lp1638
(lp1639
tp1640
a(L1816235430L
L0L
(lp1641
(lp1642
tp1643
a(L2179185678L
L0L
(lp1644
(lp1645
tp1646
a(L3369319173L
L0L
(lp1647
(lp1648
tp1649
atp1650
sI1074237516
(Vbootloader_common_select_otadata
p1651
(lp1652
(L4071767857L
L0L
(lp1653
(lp1654
tp1655
a(L1999329187L
L0L
(lp1656
(lp1657
tp1658
a(L3846398843L
L0L
(lp1659
(lp1660
tp1661
a(L2501968171L
L0L
(lp1662
(lp1663
tp1664
a(L3360570486L
L0L
(lp1665
(lp1666
tp1667
a(L2045232488L
L0L
(lp1668
(lp1669
tp1670
a(L1243525916L
L0L
(lp1671
(lp1672
tp1673
a(L3094144427L
L0L
(lp1674
(lp1675
tp1676
a(L2399509845L
L0L
(lp1677
(lp1678
tp1679
a(L1641201884L
L0L
(lp1680
(lp1681
tp1682
atp1683
sI1074235724
(Vbootloader_flash_cs_timing_config
p1684
(lp1685
(L1222249594L
L1690040256L
(lp1686
(lp1687
tp1688
atp1689
sI1074245704
(Vrtc_clk_xtal_freq_update
p1690
(lp1691
(L3023525581L
L2195759072L
(lp1692
(lp1693
tp1694
a(L3509357017L
L0L
(lp1695
(lp1696
tp1697
a(L2266180931L
L0L
(lp1698
(lp1699
tp1700
atp1701
sI1074247496
(Vesp_rom_spiflash_program_page_internal
p1702
(lp1703
(L2569069283L
L0L
(lp1704
(lp1705
tp1706
a(L2258688483L
L0L
(lp1707
(lp1708
tp1709
a(L3360570486L
L0L
(lp1710
(lp1711
tp1712
a(L2295540031L
L1443213481L
(lp1713
(lp1714
tp1715
a(L4235661475L
L3785322319L
(lp1716
(lp1717
Vesp_rom_spiflash_wait_idle
p1718
atp1719
a(L1299866312L
L0L
(lp1720
(lp1721
tp1722
a(L3212356251L
L3785322319L
(lp1723
(lp1724
Vesp_rom_spiflash_enable_write
p1725
atp1726
a(L1834262847L
L2195759072L
(lp1727
(lp1728
tp1729
a(L633937013L
L1443213481L
(lp1730
(lp1731
tp1732
a(L2953702749L
L0L
(lp1733
(lp1734
tp1735
a(L2989032L
L0L
(lp1736
(lp1737
tp1738
a(L1965622133L
L0L
(lp1739
(lp1740
tp1741
a(L809386272L
L2195759072L
(lp1742
(lp1743
tp1744
a(L1958113242L
L0L
(lp1745
(lp1746
tp1747
a(L106L
L0L
(lp1748
(lp1749
tp1750
a(L3112950080L
L0L
(lp1751
(lp1752
tp1753
a(L1868606439L
L0L
(lp1754
(lp1755
tp1756
a(L147213506L
L1443213481L
(lp1757
(lp1758
tp1759
a(L1933954923L
L0L
(lp1760
(lp1761
tp1762
a(L1147866918L
L0L
(lp1763
(lp1764
tp1765
a(L3871602522L
L0L
(lp1766
(lp1767
tp1768
atp1769
sI1074249544
(V_fini
p1770
(lp1771
(L3493042598L
L0L
(lp1772
(lp1773
tp1774
atp1775
sI1074269528
(Vbootloader_check_bootloader_validity
p1776
(lp1777
(L1235570239L
L195123093L
(lp1778
(lp1779
Vefuse_hal_chip_revision
p1780
aVbootloader_common_check_chip_validity
p1781
atp1782
atp1783
sI1074237012
(Vefuse_hal_get_minor_chip_version
p1784
(lp1785
(L2292056065L
L1443213481L
(lp1786
(lp1787
tp1788
atp1789
sI1074236500
(Vbootloader_read_status_16b_rdsr_rdsr2
p1790
(lp1791
(L2652824119L
L1880226080L
(lp1792
(lp1793
Vbootloader_execute_flash_command
p1794
aVbootloader_execute_flash_command
p1795
atp1796
atp1797
sI1074244944
(Vrtc_clk_32k_enable
p1798
(lp1799
(L753387299L
L0L
(lp1800
(lp1801
tp1802
a(L3776007933L
L3785322319L
(lp1803
(lp1804
Vrtc_clk_32k_enable_common
p1805
atp1806
a(L3496950L
L0L
(lp1807
(lp1808
tp1809
a(L707626330L
L2534110409L
(lp1810
(lp1811
tp1812
atp1813
sI1074269264
(Vbootloader_flash_update_id
p1814
(lp1815
(L296988142L
L3833084538L
(lp1816
(lp1817
Vbootloader_read_flash_id
p1818
atp1819
atp1820
sI1074270800
(Vrtc_vddsdio_set_config
p1821
(lp1822
(L3557742407L
L1443213481L
(lp1823
(lp1824
tp1825
atp1826
sI1074238300
(Vbootloader_enable_wp
p1827
(lp1828
(L1117825804L
L3785322319L
(lp1829
(lp1830
Vbootloader_execute_flash_command
p1831
atp1832
atp1833
sI1074239068
(Vcache_ll_l1_enable_bus
p1834
(lp1835
(L318252209L
L1443213481L
(lp1836
(lp1837
tp1838
atp1839
sI1074240092
(Vbootloader_utility_load_boot_image
p1840
(lp1841
(L421993435L
L242900614L
(lp1842
(lp1843
Vmemset
p1844
atp1845
a(L2177418995L
L3785322319L
(lp1846
(lp1847
Vtry_load_partition
p1848
atp1849
a(L1305243774L
L3785322319L
(lp1850
(lp1851
Vload_image
p1852
atp1853
a(L4114459891L
L3187408090L
(lp1854
(lp1855
Vesp_log_early_timestamp
p1856
atp1857
a(L3827921190L
L3785322319L
(lp1858
(lp1859
Vbootloader_reset
p1860
atp1861
a(L1953693036L
L3785322319L
(lp1862
(lp1863
Vindex_to_partition
p1864
atp1865
a(L1204373741L
L3785322319L
(lp1866
(lp1867
Vtry_load_partition
p1868
atp1869
a(L1899865696L
L0L
(lp1870
(lp1871
tp1872
a(L2695355117L
L3785322319L
(lp1873
(lp1874
Vset_actual_ota_seq
p1875
atp1876
a(L1868897605L
L3785322319L
(lp1877
(lp1878
Vlog_invalid_app_partition
p1879
atp1880
a(L831650730L
L0L
(lp1881
(lp1882
tp1883
a(L3021737L
L0L
(lp1884
(lp1885
tp1886
a(L695456438L
L0L
(lp1887
(lp1888
tp1889
a(L315114854L
L3833084538L
(lp1890
(lp1891
Vtry_load_partition
p1892
atp1893
a(L89447667L
L2147981551L
(lp1894
(lp1895
Vesp_log_early_timestamp
p1896
atp1897
a(L2347390157L
L3785322319L
(lp1898
(lp1899
Vindex_to_partition
p1900
atp1901
a(L1204373741L
L3785322319L
(lp1902
(lp1903
Vtry_load_partition
p1904
atp1905
a(L3061261803L
L0L
(lp1906
(lp1907
tp1908
a(L3582858798L
L3785322319L
(lp1909
(lp1910
Vlog_invalid_app_partition
p1911
atp1912
a(L3581752791L
L2704288053L
(lp1913
(lp1914
Vesp_log_early_timestamp
p1915
aVmemset
p1916
atp1917
atp1918
sI1074248540
(Vesp_rom_spiflash_write
p1919
(lp1920
(L924384987L
L1679261929L
(lp1921
(lp1922
tp1923
a(L2258688483L
L0L
(lp1924
(lp1925
tp1926
a(L3360570486L
L0L
(lp1927
(lp1928
tp1929
a(L3368132847L
L0L
(lp1930
(lp1931
tp1932
a(L3106685981L
L0L
(lp1933
(lp1934
tp1935
a(L3488660639L
L3785322319L
(lp1936
(lp1937
Vesp_rom_spiflash_program_page_internal
p1938
atp1939
a(L3543402353L
L3785322319L
(lp1940
(lp1941
Vesp_rom_spiflash_program_page_internal
p1942
atp1943
a(L4222526342L
L0L
(lp1944
(lp1945
tp1946
a(L2004208511L
L0L
(lp1947
(lp1948
tp1949
a(L564470656L
L0L
(lp1950
(lp1951
tp1952
a(L441922648L
L3785322319L
(lp1953
(lp1954
Vesp_rom_spiflash_program_page_internal
p1955
atp1956
a(L2302069176L
L0L
(lp1957
(lp1958
tp1959
atp1960
sI1074240856
(Vbootloader_ana_clock_glitch_reset_config
p1961
(lp1962
(L2100504542L
L0L
(lp1963
(lp1964
tp1965
atp1966
sI1074248792
(Vesp_rom_spiflash_read
p1967
(lp1968
(L1499485309L
L1690040256L
(lp1969
(lp1970
tp1971
a(L3114780042L
L1679261929L
(lp1972
(lp1973
tp1974
a(L2860271684L
L0L
(lp1975
(lp1976
tp1977
a(L1872504408L
L1443213481L
(lp1978
(lp1979
tp1980
a(L106L
L0L
(lp1981
(lp1982
tp1983
a(L633884026L
L0L
(lp1984
(lp1985
tp1986
a(L106L
L0L
(lp1987
(lp1988
tp1989
a(L1100272902L
L1443213481L
(lp1990
(lp1991
tp1992
a(L1372101025L
L1690040256L
(lp1993
(lp1994
tp1995
a(L974197278L
L2195759072L
(lp1996
(lp1997
tp1998
a(L336550648L
L0L
(lp1999
(lp2000
tp2001
a(L3167414617L
L1443213481L
(lp2002
(lp2003
tp2004
a(L106L
L0L
(lp2005
(lp2006
tp2007
a(L3138763340L
L362179215L
(lp2008
(lp2009
Vesp_rom_spiflash_wait_idle
p2010
atp2011
a(L3021737L
L0L
(lp2012
(lp2013
tp2014
a(L106L
L0L
(lp2015
(lp2016
tp2017
a(L1868280504L
L0L
(lp2018
(lp2019
tp2020
a(L106L
L0L
(lp2021
(lp2022
tp2023
a(L750281353L
L0L
(lp2024
(lp2025
tp2026
a(L3897437082L
L0L
(lp2027
(lp2028
tp2029
a(L4122060822L
L0L
(lp2030
(lp2031
tp2032
a(L483218220L
L1443213481L
(lp2033
(lp2034
tp2035
a(L2989032L
L0L
(lp2036
(lp2037
tp2038
a(L3819849625L
L0L
(lp2039
(lp2040
tp2041
a(L1082031446L
L2195759072L
(lp2042
(lp2043
tp2044
a(L1872504408L
L1443213481L
(lp2045
(lp2046
tp2047
a(L147213506L
L1443213481L
(lp2048
(lp2049
tp2050
a(L2062799182L
L2534110409L
(lp2051
(lp2052
tp2053
a(L2921907736L
L0L
(lp2054
(lp2055
tp2056
a(L3677617742L
L1443213481L
(lp2057
(lp2058
tp2059
a(L2483025066L
L1679261929L
(lp2060
(lp2061
tp2062
a(L2136664087L
L1443213481L
(lp2063
(lp2064
tp2065
a(L3000478599L
L2195759072L
(lp2066
(lp2067
tp2068
a(L3333707777L
L0L
(lp2069
(lp2070
tp2071
a(L3251955268L
L0L
(lp2072
(lp2073
tp2074
a(L3418540920L
L0L
(lp2075
(lp2076
tp2077
a(L4183823801L
L1443213481L
(lp2078
(lp2079
tp2080
a(L97689L
L0L
(lp2081
(lp2082
tp2083
a(L2258897019L
L0L
(lp2084
(lp2085
tp2086
a(L4014024819L
L0L
(lp2087
(lp2088
tp2089
a(L3621567083L
L0L
(lp2090
(lp2091
tp2092
atp2093
sI1074268776
(Vbootloader_random_enable
p2094
(lp2095
(L2397175084L
L664430240L
(lp2096
(lp2097
tp2098
atp2099
sI1074237028
(Vesp_dport_access_reg_read
p2100
(lp2101
(L1099794772L
L0L
(lp2102
(lp2103
tp2104
atp2105
sI1074235488
(Vbootloader_flash_read_sfdp
p2106
(lp2107
(L711701400L
L0L
(lp2108
(lp2109
tp2110
a(L17919673L
L4032149094L
(lp2111
(lp2112
V__assert_func
p2113
atp2114
a(L3704332455L
L3785322319L
(lp2115
(lp2116
Vbootloader_flash_execute_command_common
p2117
atp2118
atp2119
sI1074240864
(Vprocess_checksum
p2120
(lp2121
(L166193219L
L242900614L
(lp2122
(lp2123
Vmemset
p2124
atp2125
a(L3028481L
L0L
(lp2126
(lp2127
tp2128
a(L186886970L
L0L
(lp2129
(lp2130
tp2131
a(L2902417580L
L0L
(lp2132
(lp2133
tp2134
a(L3028481L
L0L
(lp2135
(lp2136
tp2137
a(L169792351L
L3187408090L
(lp2138
(lp2139
Vesp_log_early_timestamp
p2140
atp2141
a(L268651496L
L1443213481L
(lp2142
(lp2143
tp2144
a(L3236648107L
L3785322319L
(lp2145
(lp2146
Vbootloader_flash_read
p2147
atp2148
a(L735741265L
L0L
(lp2149
(lp2150
tp2151
a(L3020204L
L0L
(lp2152
(lp2153
tp2154
a(L2480703612L
L3785322319L
(lp2155
(lp2156
Vbootloader_sha256_data
p2157
atp2158
a(L3436105237L
L0L
(lp2159
(lp2160
tp2161
a(L106L
L0L
(lp2162
(lp2163
tp2164
atp2165
sI1074245472
(Vrtc_clk_cpu_freq_mhz_to_config
p2166
(lp2167
(L908718885L
L3785322319L
(lp2168
(lp2169
Vrtc_clk_xtal_freq_get
p2170
atp2171
a(L60460069L
L0L
(lp2172
(lp2173
tp2174
a(L3802072124L
L0L
(lp2175
(lp2176
tp2177
a(L3159006042L
L0L
(lp2178
(lp2179
tp2180
a(L3360570486L
L0L
(lp2181
(lp2182
tp2183
a(L895147205L
L0L
(lp2184
(lp2185
tp2186
a(L3970036657L
L0L
(lp2187
(lp2188
tp2189
a(L2731353429L
L0L
(lp2190
(lp2191
tp2192
a(L1555485793L
L0L
(lp2193
(lp2194
tp2195
a(L2258897023L
L0L
(lp2196
(lp2197
tp2198
a(L1947499251L
L0L
(lp2199
(lp2200
tp2201
a(L1306331021L
L0L
(lp2202
(lp2203
tp2204
atp2205
sI1074267744
(Vwdt_reset_info_dump
p2206
(lp2207
(L4037458708L
L0L
(lp2208
(lp2209
tp2210
a(L2865144428L
L4200222560L
(lp2211
(lp2212
tp2213
a(L217258670L
L0L
(lp2214
(lp2215
tp2216
a(L1103285333L
L0L
(lp2217
(lp2218
tp2219
a(L3750088731L
L2147981551L
(lp2220
(lp2221
Vesp_log_early_timestamp
p2222
atp2223
a(L3245125974L
L1443213481L
(lp2224
(lp2225
tp2226
a(L2920131454L
L4200222560L
(lp2227
(lp2228
tp2229
a(L3355528239L
L2147981551L
(lp2230
(lp2231
Vesp_log_early_timestamp
p2232
atp2233
atp2234
sI1074268768
(Vbootloader_init_mem
p2235
(lp2236
(L1287383080L
L3785322319L
(lp2237
(lp2238
Vesp_cpu_configure_region_protection
p2239
atp2240
atp2241
sI1074269280
(Vbootloader_flash_get_wp_pin
p2242
(lp2243
(L2601977293L
L3785322319L
(lp2244
(lp2245
Vbootloader_common_get_chip_ver_pkg
p2246
atp2247
a(L93674324L
L0L
(lp2248
(lp2249
tp2250
a(L295626217L
L0L
(lp2251
(lp2252
tp2253
a(L2258688531L
L0L
(lp2254
(lp2255
tp2256
a(L3360570486L
L0L
(lp2257
(lp2258
tp2259
a(L937283203L
L0L
(lp2260
(lp2261
tp2262
a(L1641149339L
L0L
(lp2263
(lp2264
tp2265
a(L846431812L
L3785322319L
(lp2266
(lp2267
Vefuse_hal_chip_revision
p2268
atp2269
a(L1299866529L
L0L
(lp2270
(lp2271
tp2272
atp2273
sI1074239596
(Vbootloader_utility_load_partition_table
p2274
(lp2275
(L3128219304L
L3785322319L
(lp2276
(lp2277
Vbootloader_mmap
p2278
atp2279
a(L600602913L
L3187408090L
(lp2280
(lp2281
Vesp_log_early_timestamp
p2282
atp2283
a(L2258688482L
L0L
(lp2284
(lp2285
tp2286
a(L3360570486L
L0L
(lp2287
(lp2288
tp2289
a(L255479872L
L3785322319L
(lp2290
(lp2291
Vesp_partition_table_verify
p2292
atp2293
a(L3613202002L
L0L
(lp2294
(lp2295
tp2296
a(L97642L
L0L
(lp2297
(lp2298
tp2299
a(L4248828323L
L3785322319L
(lp2300
(lp2301
Vbootloader_munmap
p2302
atp2303
a(L3014296803L
L3187408090L
(lp2304
(lp2305
Vesp_log_early_timestamp
p2306
atp2307
a(L3927622121L
L0L
(lp2308
(lp2309
tp2310
a(L3020187L
L0L
(lp2311
(lp2312
tp2313
a(L1532853611L
L0L
(lp2314
(lp2315
tp2316
a(L1036489382L
L0L
(lp2317
(lp2318
tp2319
a(L3020187L
L0L
(lp2320
(lp2321
tp2322
a(L2997988170L
L0L
(lp2323
(lp2324
tp2325
a(L529263765L
L0L
(lp2326
(lp2327
tp2328
a(L775434204L
L0L
(lp2329
(lp2330
tp2331
a(L3579705151L
L0L
(lp2332
(lp2333
tp2334
a(L2387139071L
L0L
(lp2335
(lp2336
tp2337
a(L1599920163L
L0L
(lp2338
(lp2339
tp2340
atp2341
sI1074268536
(Vbootloader_clock_configure
p2342
(lp2343
(L2559598596L
L1880226080L
(lp2344
(lp2345
Vesp_rom_uart_tx_wait_idle
p2346
aVefuse_hal_chip_revision
p2347
atp2348
a(L1757625900L
L1443213481L
(lp2349
(lp2350
tp2351
a(L741498227L
L1443213481L
(lp2352
(lp2353
tp2354
a(L106L
L0L
(lp2355
(lp2356
tp2357
a(L4228321918L
L1405109379L
(lp2358
(lp2359
Vrtc_clk_slow_src_get
p2360
aVrtc_clk_fast_src_get
p2361
aVrtc_clk_init
p2362
atp2363
a(L2538867838L
L2195759072L
(lp2364
(lp2365
tp2366
a(L1038013235L
L3833084538L
(lp2367
(lp2368
Vrtc_clk_apb_freq_get
p2369
atp2370
a(L106L
L0L
(lp2371
(lp2372
tp2373
a(L106L
L0L
(lp2374
(lp2375
tp2376
atp2377
sI1074245748
(Vrtc_clk_apb_freq_update
p2378
(lp2379
(L3982322780L
L1443213481L
(lp2380
(lp2381
tp2382
atp2383
sI1074237040
(Vis_xmc_chip_strict
p2384
(lp2385
(L1286841609L
L0L
(lp2386
(lp2387
tp2388
a(L2234016759L
L0L
(lp2389
(lp2390
tp2391
a(L1069027148L
L0L
(lp2392
(lp2393
tp2394
a(L3021749L
L0L
(lp2395
(lp2396
tp2397
a(L1900148749L
L0L
(lp2398
(lp2399
tp2400
a(L1936875721L
L0L
(lp2401
(lp2402
tp2403
a(L3356166509L
L0L
(lp2404
(lp2405
tp2406
a(L1937769451L
L0L
(lp2407
(lp2408
tp2409
a(L2137658907L
L0L
(lp2410
(lp2411
tp2412
a(L4265949734L
L0L
(lp2413
(lp2414
tp2415
a(L3360570486L
L0L
(lp2416
(lp2417
tp2418
atp2419
sI1074238320
(Vbootloader_flash_get_spi_mode
p2420
(lp2421
(L1418320346L
L1443213481L
(lp2422
(lp2423
tp2424
a(L2046153171L
L0L
(lp2425
(lp2426
tp2427
a(L893866618L
L0L
(lp2428
(lp2429
tp2430
a(L894790139L
L0L
(lp2431
(lp2432
tp2433
a(L822032846L
L0L
(lp2434
(lp2435
tp2436
a(L3360570486L
L0L
(lp2437
(lp2438
tp2439
atp2440
sI1074244720
(Vrtc_clk_cpu_freq_to_pll_mhz
p2441
(lp2442
(L860463073L
L1443213481L
(lp2443
(lp2444
tp2445
a(L3629237403L
L1443213481L
(lp2446
(lp2447
tp2448
a(L4055327139L
L3380333161L
(lp2449
(lp2450
Vesp_rom_set_cpu_ticks_per_us
p2451
aVrtc_clk_wait_for_slow_cycle
p2452
atp2453
a(L3007305308L
L1443213481L
(lp2454
(lp2455
tp2456
a(L3293824299L
L0L
(lp2457
(lp2458
tp2459
a(L94425498L
L3785322319L
(lp2460
(lp2461
Vabort
p2462
atp2463
a(L1611366926L
L0L
(lp2464
(lp2465
tp2466
a(L1611366957L
L0L
(lp2467
(lp2468
tp2469
atp2470
sI1074236540
(Vbootloader_write_status_8b_wrsr
p2471
(lp2472
(L3692606543L
L3785322319L
(lp2473
(lp2474
Vbootloader_execute_flash_command
p2475
atp2476
atp2477
sI1074269556
(Vbootloader_config_wdt
p2478
(lp2479
(L3447475412L
L603716358L
(lp2480
(lp2481
Vwdt_hal_write_protect_disable
p2482
aVwdt_hal_set_flashboot_en
p2483
aVwdt_hal_write_protect_enable
p2484
aVwdt_hal_init
p2485
aVrtc_clk_slow_freq_get_hz
p2486
aVwdt_hal_write_protect_disable
p2487
aV__udivdi3
p2488
aVwdt_hal_config_stage
p2489
aVwdt_hal_enable
p2490
aVwdt_hal_write_protect_enable
p2491
aVwdt_hal_write_protect_disable
p2492
aVwdt_hal_set_flashboot_en
p2493
aVwdt_hal_write_protect_enable
p2494
atp2495
atp2496
sI1074236800
(Vesp_rom_uart_set_clock_baudrate
p2497
(lp2498
(L1471953879L
L1443213481L
(lp2499
(lp2500
tp2501
a(L1872515506L
L1443213481L
(lp2502
(lp2503
tp2504
a(L147213506L
L1443213481L
(lp2505
(lp2506
tp2507
a(L3104172142L
L1443213481L
(lp2508
(lp2509
tp2510
atp2511
sI1074247296
(Vesp_rom_spiflash_read_status
p2512
(lp2513
(L3588638125L
L1443213481L
(lp2514
(lp2515
tp2516
a(L4250092034L
L2534110409L
(lp2517
(lp2518
tp2519
a(L4159619641L
L0L
(lp2520
(lp2521
tp2522
a(L2392720019L
L0L
(lp2523
(lp2524
tp2525
a(L2258688487L
L0L
(lp2526
(lp2527
tp2528
a(L4159619145L
L0L
(lp2529
(lp2530
tp2531
a(L3241763332L
L1443213481L
(lp2532
(lp2533
tp2534
a(L3117156279L
L0L
(lp2535
(lp2536
tp2537
a(L2123059967L
L0L
(lp2538
(lp2539
tp2540
a(L582177370L
L0L
(lp2541
(lp2542
tp2543
atp2544
sI1074245004
(Vrtc_clk_8m_enable
p2545
(lp2546
(L2359152383L
L2195759072L
(lp2547
(lp2548
tp2549
a(L2145669267L
L1443213481L
(lp2550
(lp2551
tp2552
a(L2151320156L
L0L
(lp2553
(lp2554
tp2555
a(L1262936142L
L1443213481L
(lp2556
(lp2557
tp2558
a(L3360570486L
L0L
(lp2559
(lp2560
tp2561
a(L1318267208L
L0L
(lp2562
(lp2563
tp2564
a(L1085208965L
L1443213481L
(lp2565
(lp2566
tp2567
atp2568
sI1074240396
(Vbootloader_debug_buffer
p2569
(lp2570
(L2100504542L
L0L
(lp2571
(lp2572
tp2573
atp2574
sI1074237832
(Vbootloader_munmap
p2575
(lp2576
(L4096859803L
L2195759072L
(lp2577
(lp2578
tp2579
a(L4150885370L
L2624587680L
(lp2580
(lp2581
tp2582
a(L3360570486L
L0L
(lp2583
(lp2584
tp2585
atp2586
sI1074270872
(Vbootloader_print_banner
p2587
(lp2588
(L2100504542L
L0L
(lp2589
(lp2590
tp2591
atp2592
sI1074244500
(Vmmu_hal_unmap_all
p2593
(lp2594
(L3970138582L
L1443213481L
(lp2595
(lp2596
tp2597
a(L2010554219L
L0L
(lp2598
(lp2599
tp2600
a(L147213506L
L1443213481L
(lp2601
(lp2602
tp2603
a(L3212334523L
L0L
(lp2604
(lp2605
tp2606
a(L2010554219L
L0L
(lp2607
(lp2608
tp2609
a(L3360570486L
L0L
(lp2610
(lp2611
tp2612
atp2613
sI1074240404
(Vbootloader_sha256_start
p2614
(lp2615
(L1737386262L
L2534110409L
(lp2616
(lp2617
tp2618
atp2619
sI1074238868
(Vtry_load_partition
p2620
(lp2621
(L1898493800L
L0L
(lp2622
(lp2623
tp2624
a(L2454209732L
L3785322319L
(lp2625
(lp2626
Vbootloader_load_image
p2627
atp2628
a(L3360570486L
L0L
(lp2629
(lp2630
tp2631
atp2632
sI1074235540
(Vbootloader_read_flash_id
p2633
(lp2634
(L549578328L
L3785322319L
(lp2635
(lp2636
Vbootloader_execute_flash_command
p2637
atp2638
atp2639
sI1074239120
(Vload_image
p2640
(lp2641
(L276015809L
L1880226080L
(lp2642
(lp2643
Vbootloader_random_disable
p2644
aVbootloader_ana_clock_glitch_reset_config
p2645
atp2646
a(L1373545544L
L0L
(lp2647
(lp2648
tp2649
a(L106L
L0L
(lp2650
(lp2651
tp2652
a(L1208231435L
L1624138773L
(lp2653
(lp2654
Vmmu_hal_unmap_all
p2655
aVcache_ll_l1_get_bus
p2656
aVcache_ll_l1_enable_bus
p2657
aVcache_ll_l1_get_bus
p2658
aVcache_ll_l1_enable_bus
p2659
aVcache_ll_l1_get_bus
p2660
aVcache_ll_l1_enable_bus
p2661
aVcache_ll_l1_get_bus
p2662
aVcache_ll_l1_enable_bus
p2663
aVbootloader_console_deinit
p2664
atp2665
a(L552377565L
L1443213481L
(lp2666
(lp2667
tp2668
a(L2902417580L
L0L
(lp2669
(lp2670
tp2671
a(L2350501541L
L362179215L
(lp2672
(lp2673
Vesp_log_early_timestamp
p2674
atp2675
a(L3455620645L
L0L
(lp2676
(lp2677
tp2678
a(L1295608873L
L2195759072L
(lp2679
(lp2680
tp2681
a(L3020204L
L0L
(lp2682
(lp2683
tp2684
a(L2350501541L
L362179215L
(lp2685
(lp2686
Vesp_log_early_timestamp
p2687
atp2688
a(L17153577L
L0L
(lp2689
(lp2690
tp2691
a(L2014464593L
L0L
(lp2692
(lp2693
tp2694
atp2695
sI1074236304
(Vbootloader_flash_dummy_config
p2696
(lp2697
(L2633298977L
L1443213481L
(lp2698
(lp2699
tp2700
a(L2761717557L
L0L
(lp2701
(lp2702
tp2703
a(L1849044936L
L0L
(lp2704
(lp2705
tp2706
a(L2198646520L
L2195759072L
(lp2707
(lp2708
tp2709
a(L1857500547L
L1443213481L
(lp2710
(lp2711
tp2712
a(L3020204L
L0L
(lp2713
(lp2714
tp2715
a(L1610443405L
L0L
(lp2716
(lp2717
tp2718
a(L4032120524L
L0L
(lp2719
(lp2720
tp2721
a(L2336993863L
L0L
(lp2722
(lp2723
tp2724
a(L1298875775L
L0L
(lp2725
(lp2726
tp2727
a(L3880393601L
L0L
(lp2728
(lp2729
tp2730
a(L2272848587L
L1443213481L
(lp2731
(lp2732
tp2733
a(L1610443436L
L0L
(lp2734
(lp2735
tp2736
atp2737
sI1074236560
(Vbootloader_write_status_8b_wrsr2
p2738
(lp2739
(L3772914914L
L3785322319L
(lp2740
(lp2741
Vbootloader_execute_flash_command
p2742
atp2743
atp2744
sI1074243984
(Vwdt_hal_config_stage
p2745
(lp2746
(L331558507L
L0L
(lp2747
(lp2748
tp2749
a(L4279082939L
L0L
(lp2750
(lp2751
tp2752
a(L93674324L
L0L
(lp2753
(lp2754
tp2755
a(L2902417580L
L0L
(lp2756
(lp2757
tp2758
a(L1506709436L
L1443213481L
(lp2759
(lp2760
tp2761
a(L3020187L
L0L
(lp2762
(lp2763
tp2764
a(L94425498L
L3785322319L
(lp2765
(lp2766
Vabort
p2767
atp2768
a(L1999536000L
L1443213481L
(lp2769
(lp2770
tp2771
a(L3360570486L
L0L
(lp2772
(lp2773
tp2774
a(L2402105077L
L1443213481L
(lp2775
(lp2776
tp2777
a(L3297501927L
L1443213481L
(lp2778
(lp2779
tp2780
a(L4278159418L
L0L
(lp2781
(lp2782
tp2783
a(L93674324L
L0L
(lp2784
(lp2785
tp2786
a(L3020204L
L0L
(lp2787
(lp2788
tp2789
a(L2956541743L
L1443213481L
(lp2790
(lp2791
tp2792
a(L3020187L
L0L
(lp2793
(lp2794
tp2795
a(L106L
L0L
(lp2796
(lp2797
tp2798
a(L1473987957L
L1443213481L
(lp2799
(lp2800
tp2801
a(L927955509L
L1443213481L
(lp2802
(lp2803
tp2804
a(L3740367810L
L1443213481L
(lp2805
(lp2806
tp2807
atp2808
sI1074245776
(Vrtc_clk_cpu_freq_to_xtal
p2809
(lp2810
(L767415990L
L3785322319L
(lp2811
(lp2812
Vesp_rom_set_cpu_ticks_per_us
p2813
atp2814
a(L94425498L
L3785322319L
(lp2815
(lp2816
Vabort
p2817
atp2818
a(L749912951L
L671729222L
(lp2819
(lp2820
Vrtc_clk_apb_freq_update
p2821
atp2822
a(L2258867230L
L0L
(lp2823
(lp2824
tp2825
a(L1803595874L
L2195759072L
(lp2826
(lp2827
tp2828
atp2829
sI1074269332
(Vbootloader_init_spi_flash
p2830
(lp2831
(L577359950L
L4180884841L
(lp2832
(lp2833
Vbootloader_flash_gpio_config
p2834
aVbootloader_flash_dummy_config
p2835
aVbootloader_flash_cs_timing_config
p2836
aVbootloader_flash_unlock
p2837
aVbootloader_enable_qio_mode
p2838
aVbootloader_flash_get_spi_mode
p2839
atp2840
a(L93674324L
L0L
(lp2841
(lp2842
tp2843
a(L3422553167L
L0L
(lp2844
(lp2845
tp2846
a(L1707909459L
L0L
(lp2847
(lp2848
tp2849
a(L1038322988L
L0L
(lp2850
(lp2851
tp2852
a(L3944678822L
L2082837423L
(lp2853
(lp2854
Vbootloader_enable_wp
p2855
atp2856
a(L3907331784L
L0L
(lp2857
(lp2858
tp2859
atp2860
sI1074237592
(Vspi_to_esp_err
p2861
(lp2862
(L2749733621L
L1443213481L
(lp2863
(lp2864
tp2865
a(L1872507229L
L1443213481L
(lp2866
(lp2867
tp2868
a(L3952441574L
L0L
(lp2869
(lp2870
tp2871
a(L3126521138L
L0L
(lp2872
(lp2873
tp2874
atp2875
sI1074236580
(Vbootloader_write_status_16b_wrsr
p2876
(lp2877
(L1235576642L
L3785322319L
(lp2878
(lp2879
Vbootloader_execute_flash_command
p2880
atp2881
atp2882
sI1074238368
(Vbootloader_mmap_get_free_pages
p2883
(lp2884
(L1496516875L
L0L
(lp2885
(lp2886
tp2887
atp2888
sI1074270880
(Vmpu_hal_set_region_access
p2889
(lp2890
(L3538356822L
L0L
(lp2891
(lp2892
tp2893
a(L93674324L
L0L
(lp2894
(lp2895
tp2896
a(L2910371777L
L0L
(lp2897
(lp2898
tp2899
a(L3472092938L
L0L
(lp2900
(lp2901
tp2902
a(L3020187L
L0L
(lp2903
(lp2904
tp2905
a(L3360570486L
L0L
(lp2906
(lp2907
tp2908
a(L2258718273L
L0L
(lp2909
(lp2910
tp2911
a(L3446648619L
L0L
(lp2912
(lp2913
tp2914
a(L3739532189L
L0L
(lp2915
(lp2916
tp2917
a(L1300789895L
L0L
(lp2918
(lp2919
tp2920
atp2921
sI1074241964
(Vprocess_segments
p2922
(lp2923
(L670742546L
L0L
(lp2924
(lp2925
tp2926
a(L1478361954L
L0L
(lp2927
(lp2928
tp2929
a(L3782401745L
L0L
(lp2930
(lp2931
tp2932
a(L106L
L0L
(lp2933
(lp2934
tp2935
a(L234202048L
L0L
(lp2936
(lp2937
tp2938
a(L3014296803L
L3187408090L
(lp2939
(lp2940
Vesp_log_early_timestamp
p2941
atp2942
a(L418370317L
L3785322319L
(lp2943
(lp2944
Vbootloader_flash_read
p2945
atp2946
a(L1556134886L
L3187408090L
(lp2947
(lp2948
Vesp_log_early_timestamp
p2949
atp2950
a(L464010095L
L0L
(lp2951
(lp2952
tp2953
a(L1890170661L
L0L
(lp2954
(lp2955
tp2956
a(L4138551778L
L3785322319L
(lp2957
(lp2958
Vbootloader_sha256_data
p2959
atp2960
a(L1382414308L
L1443213481L
(lp2961
(lp2962
tp2963
a(L2258867228L
L0L
(lp2964
(lp2965
tp2966
a(L1653981967L
L0L
(lp2967
(lp2968
tp2969
a(L523560059L
L0L
(lp2970
(lp2971
tp2972
a(L684380407L
L3187408090L
(lp2973
(lp2974
Vesp_log_early_timestamp
p2975
atp2976
a(L268651496L
L1443213481L
(lp2977
(lp2978
tp2979
a(L2585693023L
L2195759072L
(lp2980
(lp2981
tp2982
a(L4022143605L
L1443213481L
(lp2983
(lp2984
tp2985
a(L606368755L
L0L
(lp2986
(lp2987
tp2988
a(L2626753793L
L0L
(lp2989
(lp2990
tp2991
a(L2505340542L
L3187408090L
(lp2992
(lp2993
Vesp_log_early_timestamp
p2994
atp2995
a(L2864902319L
L0L
(lp2996
(lp2997
tp2998
a(L2314103720L
L0L
(lp2999
(lp3000
tp3001
a(L2136754140L
L3785322319L
(lp3002
(lp3003
Vbootloader_mmap_get_free_pages
p3004
atp3005
a(L3028481L
L0L
(lp3006
(lp3007
tp3008
a(L3306817873L
L0L
(lp3009
(lp3010
tp3011
a(L2642187286L
L3785322319L
(lp3012
(lp3013
Vshould_load
p3014
atp3015
a(L3020204L
L0L
(lp3016
(lp3017
tp3018
a(L1879695069L
L3785322319L
(lp3019
(lp3020
Vverify_load_addresses
p3021
atp3022
a(L106L
L0L
(lp3023
(lp3024
tp3025
a(L113955750L
L0L
(lp3026
(lp3027
tp3028
a(L262831199L
L0L
(lp3029
(lp3030
tp3031
a(L4128104404L
L3785322319L
(lp3032
(lp3033
Vbootloader_mmap
p3034
atp3035
a(L1180618826L
L3187408090L
(lp3036
(lp3037
Vesp_log_early_timestamp
p3038
atp3039
a(L1727089337L
L0L
(lp3040
(lp3041
tp3042
a(L1191704088L
L1443213481L
(lp3043
(lp3044
tp3045
a(L2599431133L
L242900614L
(lp3046
(lp3047
Vmemcpy
p3048
atp3049
a(L1595421496L
L3785322319L
(lp3050
(lp3051
Vbootloader_munmap
p3052
atp3053
a(L1820299912L
L0L
(lp3054
(lp3055
tp3056
a(L2364697717L
L242900614L
(lp3057
(lp3058
Vbootloader_fill_random
p3059
atp3060
a(L3616854679L
L1443213481L
(lp3061
(lp3062
tp3063
a(L3616854679L
L1443213481L
(lp3064
(lp3065
tp3066
a(L3450268858L
L0L
(lp3067
(lp3068
tp3069
a(L3021749L
L0L
(lp3070
(lp3071
tp3072
a(L3821106106L
L0L
(lp3073
(lp3074
tp3075
a(L2494883302L
L0L
(lp3076
(lp3077
tp3078
a(L2043449225L
L0L
(lp3079
(lp3080
tp3081
a(L2213415704L
L1443213481L
(lp3082
(lp3083
tp3084
a(L1641789675L
L1443213481L
(lp3085
(lp3086
tp3087
a(L3018893270L
L0L
(lp3088
(lp3089
tp3090
a(L1224748769L
L0L
(lp3091
(lp3092
tp3093
a(L653501462L
L0L
(lp3094
(lp3095
tp3096
a(L3499111993L
L3785322319L
(lp3097
(lp3098
Vbootloader_sha256_data
p3099
atp3100
a(L90548756L
L0L
(lp3101
(lp3102
tp3103
a(L1702191967L
L1443213481L
(lp3104
(lp3105
tp3106
a(L2883900389L
L0L
(lp3107
(lp3108
tp3109
atp3110
sI1074240424
(Vbootloader_sha256_data
p3111
(lp3112
(L4066096136L
L0L
(lp3113
(lp3114
tp3115
a(L1697654611L
L2195759072L
(lp3116
(lp3117
tp3118
a(L2213948952L
L242900614L
(lp3119
(lp3120
V__assert_func
p3121
atp3122
a(L498498478L
L0L
(lp3123
(lp3124
tp3125
a(L3590389832L
L1443213481L
(lp3126
(lp3127
tp3128
a(L2910371777L
L0L
(lp3129
(lp3130
tp3131
a(L3360570486L
L0L
(lp3132
(lp3133
tp3134
a(L1087685526L
L2195759072L
(lp3135
(lp3136
tp3137
a(L426633611L
L1443213481L
(lp3138
(lp3139
tp3140
a(L2584057186L
L1443213481L
(lp3141
(lp3142
tp3143
a(L3342433287L
L1443213481L
(lp3144
(lp3145
tp3146
a(L2526675390L
L242900614L
(lp3147
(lp3148
V__bswapsi2
p3149
atp3150
a(L942815853L
L2195759072L
(lp3151
(lp3152
tp3153
a(L1872507229L
L1443213481L
(lp3154
(lp3155
tp3156
a(L147213506L
L1443213481L
(lp3157
(lp3158
tp3159
a(L3745004802L
L0L
(lp3160
(lp3161
tp3162
atp3163
sI1074238376
(Vbootloader_fill_random
p3164
(lp3165
(L3377511333L
L2195759072L
(lp3166
(lp3167
tp3168
a(L4033043682L
L4032149094L
(lp3169
(lp3170
V__assert_func
p3171
atp3172
a(L1882547218L
L0L
(lp3173
(lp3174
tp3175
a(L2910371777L
L0L
(lp3176
(lp3177
tp3178
a(L95634693L
L0L
(lp3179
(lp3180
tp3181
a(L3630908706L
L0L
(lp3182
(lp3183
tp3184
a(L160162640L
L0L
(lp3185
(lp3186
tp3187
a(L97689L
L0L
(lp3188
(lp3189
tp3190
a(L3360570486L
L0L
(lp3191
(lp3192
tp3193
atp3194
sI1074270648
(Vrtc_vddsdio_get_config
p3195
(lp3196
(L3097658956L
L1443213481L
(lp3197
(lp3198
tp3199
a(L1750635626L
L0L
(lp3200
(lp3201
tp3202
a(L3193418487L
L0L
(lp3203
(lp3204
tp3205
a(L3511111289L
L1443213481L
(lp3206
(lp3207
tp3208
a(L115635292L
L0L
(lp3209
(lp3210
tp3211
a(L896053863L
L0L
(lp3212
(lp3213
tp3214
a(L1306330959L
L0L
(lp3215
(lp3216
tp3217
a(L1783408782L
L1443213481L
(lp3218
(lp3219
tp3220
atp3221
sI1074238900
(Vcache_ll_l1_get_bus
p3222
(lp3223
(L2749735183L
L1443213481L
(lp3224
(lp3225
tp3226
a(L94425498L
L3785322319L
(lp3227
(lp3228
Vabort
p3229
atp3230
a(L1872514061L
L1443213481L
(lp3231
(lp3232
tp3233
a(L3824526338L
L1443213481L
(lp3234
(lp3235
tp3236
a(L892952750L
L0L
(lp3237
(lp3238
tp3239
a(L1182811810L
L0L
(lp3240
(lp3241
tp3242
a(L1101742417L
L0L
(lp3243
(lp3244
tp3245
a(L1100767927L
L0L
(lp3246
(lp3247
tp3248
a(L3360570486L
L0L
(lp3249
(lp3250
tp3251
a(L1872508791L
L1443213481L
(lp3252
(lp3253
tp3254
a(L2882938163L
L0L
(lp3255
(lp3256
tp3257
a(L2927201858L
L0L
(lp3258
(lp3259
tp3260
a(L2258718273L
L0L
(lp3261
(lp3262
tp3263
a(L2580713941L
L0L
(lp3264
(lp3265
tp3266
a(L1872508791L
L1443213481L
(lp3267
(lp3268
tp3269
a(L1872514061L
L1443213481L
(lp3270
(lp3271
tp3272
a(L1641149277L
L0L
(lp3273
(lp3274
tp3275
a(L1872508791L
L1443213481L
(lp3276
(lp3277
tp3278
a(L3027019L
L0L
(lp3279
(lp3280
tp3281
a(L1299866560L
L0L
(lp3282
(lp3283
tp3284
a(L1299866436L
L0L
(lp3285
(lp3286
tp3287
atp3288
sI1074245296
(Vrtc_clk_slow_src_get
p3289
(lp3290
(L1566794270L
L1443213481L
(lp3291
(lp3292
tp3293
a(L3020187L
L0L
(lp3294
(lp3295
tp3296
a(L2902417580L
L0L
(lp3297
(lp3298
tp3299
a(L2258688485L
L0L
(lp3300
(lp3301
tp3302
a(L3360570486L
L0L
(lp3303
(lp3304
tp3305
atp3306
sI1074238140
(Vbootloader_flash_erase_sector
p3307
(lp3308
(L4129137686L
L1880226080L
(lp3309
(lp3310
Vesp_rom_spiflash_erase_sector
p3311
aVspi_to_esp_err
p3312
atp3313
atp3314
sI1074237884
(Vbootloader_flash_read
p3315
(lp3316
(L3022618172L
L0L
(lp3317
(lp3318
tp3319
a(L2493247481L
L2147981551L
(lp3320
(lp3321
Vesp_log_early_timestamp
p3322
atp3323
a(L852987398L
L1443213481L
(lp3324
(lp3325
tp3326
a(L1351513776L
L0L
(lp3327
(lp3328
tp3329
a(L1486740491L
L0L
(lp3330
(lp3331
tp3332
a(L4276228047L
L2147981551L
(lp3333
(lp3334
Vesp_log_early_timestamp
p3335
atp3336
a(L3283691850L
L0L
(lp3337
(lp3338
tp3339
a(L4276228016L
L2147981551L
(lp3340
(lp3341
Vesp_log_early_timestamp
p3342
atp3343
a(L3020204L
L0L
(lp3344
(lp3345
tp3346
a(L384130671L
L0L
(lp3347
(lp3348
tp3349
a(L97422L
L0L
(lp3350
(lp3351
tp3352
a(L515889772L
L2195759072L
(lp3353
(lp3354
tp3355
a(L3321969934L
L1690040256L
(lp3356
(lp3357
tp3358
a(L279744554L
L4032149094L
(lp3359
(lp3360
V__assert_func
p3361
atp3362
a(L4071371888L
L2534110409L
(lp3363
(lp3364
tp3365
a(L2438181396L
L1443213481L
(lp3366
(lp3367
tp3368
a(L1976506429L
L3635241909L
(lp3369
(lp3370
Vesp_rom_spiflash_read
p3371
aVspi_to_esp_err
p3372
atp3373
atp3374
sI1074235836
(Vbootloader_flash_gpio_config
p3375
(lp3376
(L3362256192L
L3785322319L
(lp3377
(lp3378
Vbootloader_common_get_chip_ver_pkg
p3379
atp3380
a(L106L
L0L
(lp3381
(lp3382
tp3383
a(L1998579353L
L0L
(lp3384
(lp3385
tp3386
a(L106L
L0L
(lp3387
(lp3388
tp3389
a(L1839763068L
L1443213481L
(lp3390
(lp3391
tp3392
a(L2440320488L
L1396946377L
(lp3393
(lp3394
tp3395
a(L106L
L0L
(lp3396
(lp3397
tp3398
a(L4003626558L
L0L
(lp3399
(lp3400
tp3401
a(L2164907201L
L2534110409L
(lp3402
(lp3403
tp3404
a(L3360570486L
L0L
(lp3405
(lp3406
tp3407
atp3408
sI1074245564
(Vrtc_clk_cpu_freq_get_config
p3409
(lp3410
(L4245581454L
L1443213481L
(lp3411
(lp3412
tp3413
a(L3020187L
L0L
(lp3414
(lp3415
tp3416
a(L3020187L
L0L
(lp3417
(lp3418
tp3419
a(L2734221335L
L242900614L
(lp3420
(lp3421
Vrtc_clk_xtal_freq_get
p3422
atp3423
a(L3789795478L
L0L
(lp3424
(lp3425
tp3426
a(L672805395L
L2704288053L
(lp3427
(lp3428
Vesp_log_early_timestamp
p3429
aVabort
p3430
atp3431
a(L3849169076L
L1443213481L
(lp3432
(lp3433
tp3434
a(L3020187L
L0L
(lp3435
(lp3436
tp3437
a(L3028481L
L0L
(lp3438
(lp3439
tp3440
a(L38508693L
L0L
(lp3441
(lp3442
tp3443
a(L187152368L
L0L
(lp3444
(lp3445
tp3446
a(L1161083655L
L0L
(lp3447
(lp3448
tp3449
a(L1395485899L
L0L
(lp3450
(lp3451
tp3452
a(L2070600034L
L0L
(lp3453
(lp3454
tp3455
atp3456
sI1074246588
(Vrtc_clk_apb_freq_get
p3457
(lp3458
(L189810653L
L1679261929L
(lp3459
(lp3460
tp3461
atp3462
sI1074237624
(Vbootloader_mmap
p3463
(lp3464
(L3007611739L
L2195759072L
(lp3465
(lp3466
tp3467
a(L1328961945L
L2147981551L
(lp3468
(lp3469
Vesp_log_early_timestamp
p3470
atp3471
a(L1596194698L
L1443213481L
(lp3472
(lp3473
tp3474
a(L3729184599L
L0L
(lp3475
(lp3476
tp3477
a(L4163264550L
L3187408090L
(lp3478
(lp3479
Vesp_log_early_timestamp
p3480
atp3481
a(L2258688482L
L0L
(lp3482
(lp3483
tp3484
a(L3360570486L
L0L
(lp3485
(lp3486
tp3487
a(L3419814624L
L1443213481L
(lp3488
(lp3489
tp3490
a(L1441818867L
L1690040256L
(lp3491
(lp3492
tp3493
a(L3433564204L
L362179215L
(lp3494
(lp3495
Vesp_log_early_timestamp
p3496
atp3497
a(L2543114737L
L2147981551L
(lp3498
(lp3499
Vesp_log_early_timestamp
p3500
atp3501
a(L1137490703L
L2195759072L
(lp3502
(lp3503
tp3504
atp3505
sI1074237112
(Vefuse_hal_get_disable_wafer_version_major
p3506
(lp3507
(L4194175088L
L0L
(lp3508
(lp3509
tp3510
atp3511
sI1074236600
(Vbootloader_read_status_8b_xmc25qu64a
p3512
(lp3513
(L689398057L
L3955484661L
(lp3514
(lp3515
Vbootloader_execute_flash_command
p3516
aVesp_rom_spiflash_wait_idle
p3517
aVbootloader_execute_flash_command
p3518
aVbootloader_execute_flash_command
p3519
atp3520
atp3521
sI1074247096
(Vrtc_clk_cal_ratio
p3522
(lp3523
(L3870710856L
L195123093L
(lp3524
(lp3525
Vrtc_clk_cal_internal
p3526
aV__udivdi3
p3527
atp3528
atp3529
sI1074235588
(Vbootloader_flash_xmc_startup
p3530
(lp3531
(L3433652179L
L242900614L
(lp3532
(lp3533
Vis_xmc_chip_strict
p3534
atp3535
a(L2258688482L
L0L
(lp3536
(lp3537
tp3538
a(L3360570486L
L0L
(lp3539
(lp3540
tp3541
a(L251913992L
L3785322319L
(lp3542
(lp3543
Vbootloader_flash_read_sfdp
p3544
atp3545
a(L645871038L
L2369128116L
(lp3546
(lp3547
Vbootloader_execute_flash_command
p3548
aVbootloader_execute_flash_command
p3549
aVbootloader_execute_flash_command
p3550
aVbootloader_execute_flash_command
p3551
aVbootloader_read_flash_id
p3552
aVis_xmc_chip_strict
p3553
atp3554
a(L1000132677L
L3187408090L
(lp3555
(lp3556
Vesp_log_early_timestamp
p3557
atp3558
atp3559
sI1074241220
(Vbootloader_util_regions_overlap
p3560
(lp3561
(L2762640130L
L0L
(lp3562
(lp3563
tp3564
a(L1697654632L
L2195759072L
(lp3565
(lp3566
tp3567
a(L2213948952L
L242900614L
(lp3568
(lp3569
V__assert_func
p3570
atp3571
a(L97642L
L0L
(lp3572
(lp3573
tp3574
a(L1087686177L
L2195759072L
(lp3575
(lp3576
tp3577
a(L366123053L
L0L
(lp3578
(lp3579
tp3580
a(L2258867228L
L0L
(lp3581
(lp3582
tp3583
a(L1253626734L
L0L
(lp3584
(lp3585
tp3586
a(L2258897019L
L0L
(lp3587
(lp3588
tp3589
a(L3109269495L
L0L
(lp3590
(lp3591
tp3592
atp3593
sI1074244548
(Vefuse_hal_get_rated_freq_mhz
p3594
(lp3595
(L1158870592L
L1443213481L
(lp3596
(lp3597
tp3598
a(L338960367L
L0L
(lp3599
(lp3600
tp3601
a(L3360570486L
L0L
(lp3602
(lp3603
tp3604
atp3605
sI1074237120
(Vesp_log_early_timestamp
p3606
(lp3607
(L4015029253L
L1443213481L
(lp3608
(lp3609
tp3610
atp3611
sI1074244300
(Vwdt_hal_write_protect_disable
p3612
(lp3613
(L3085072089L
L1443213481L
(lp3614
(lp3615
tp3616
a(L4195472003L
L0L
(lp3617
(lp3618
tp3619
a(L3360570486L
L0L
(lp3620
(lp3621
tp3622
a(L1210571996L
L0L
(lp3623
(lp3624
tp3625
atp3626
sI1074245324
(Vrtc_clk_slow_freq_get_hz
p3627
(lp3628
(L1826267122L
L3785322319L
(lp3629
(lp3630
Vrtc_clk_slow_src_get
p3631
atp3632
a(L1872507229L
L1443213481L
(lp3633
(lp3634
tp3635
a(L2221201615L
L1443213481L
(lp3636
(lp3637
tp3638
a(L3360570486L
L0L
(lp3639
(lp3640
tp3641
atp3642
sI1074241748
(Vprocess_appended_hash_and_sig
p3643
(lp3644
(L1668084157L
L0L
(lp3645
(lp3646
tp3647
a(L2910371777L
L0L
(lp3648
(lp3649
tp3650
a(L4285188111L
L0L
(lp3651
(lp3652
tp3653
a(L1151175705L
L0L
(lp3654
(lp3655
tp3656
a(L97689L
L0L
(lp3657
(lp3658
tp3659
a(L2250231589L
L3187408090L
(lp3660
(lp3661
Vesp_log_early_timestamp
p3662
atp3663
a(L268651496L
L1443213481L
(lp3664
(lp3665
tp3666
a(L1464893571L
L3785322319L
(lp3667
(lp3668
Vbootloader_flash_read
p3669
atp3670
a(L735741265L
L0L
(lp3671
(lp3672
tp3673
atp3674
sI1074248404
(Vesp_rom_spiflash_erase_sector
p3675
(lp3676
(L3892694408L
L1679261929L
(lp3677
(lp3678
tp3679
a(L2258688483L
L0L
(lp3680
(lp3681
tp3682
a(L3360570486L
L0L
(lp3683
(lp3684
tp3685
a(L3212356251L
L3785322319L
(lp3686
(lp3687
Vesp_rom_spiflash_enable_write
p3688
atp3689
a(L184152988L
L0L
(lp3690
(lp3691
tp3692
a(L1036552696L
L362179215L
(lp3693
(lp3694
Vesp_rom_spiflash_wait_idle
p3695
atp3696
a(L3333707777L
L0L
(lp3697
(lp3698
tp3699
a(L3582858798L
L3785322319L
(lp3700
(lp3701
Vesp_rom_spiflash_wait_idle
p3702
atp3703
atp3704
sI1074238160
(Vbootloader_flash_write
p3705
(lp3706
(L3770380603L
L0L
(lp3707
(lp3708
tp3709
a(L2654201950L
L2147981551L
(lp3710
(lp3711
Vesp_log_early_timestamp
p3712
atp3713
a(L4207910112L
L1443213481L
(lp3714
(lp3715
tp3716
a(L1610445075L
L0L
(lp3717
(lp3718
tp3719
a(L735741265L
L0L
(lp3720
(lp3721
tp3722
a(L3291333414L
L0L
(lp3723
(lp3724
tp3725
a(L416217162L
L2147981551L
(lp3726
(lp3727
Vesp_log_early_timestamp
p3728
atp3729
a(L3283691850L
L0L
(lp3730
(lp3731
tp3732
a(L212182276L
L3187408090L
(lp3733
(lp3734
Vesp_log_early_timestamp
p3735
atp3736
a(L3212356251L
L3785322319L
(lp3737
(lp3738
Vbootloader_flash_unlock
p3739
atp3740
a(L1799218633L
L0L
(lp3741
(lp3742
tp3743
a(L94425498L
L3785322319L
(lp3744
(lp3745
Vesp_rom_spiflash_write_encrypted
p3746
atp3747
a(L2927190544L
L3785322319L
(lp3748
(lp3749
Vspi_to_esp_err
p3750
atp3751
a(L2927190544L
L3785322319L
(lp3752
(lp3753
Vesp_rom_spiflash_write
p3754
atp3755
atp3756
sI1074236880
(Vefuse_hal_chip_revision
p3757
(lp3758
(L2719302832L
L1880226080L
(lp3759
(lp3760
Vefuse_hal_get_major_chip_version
p3761
aVefuse_hal_get_minor_chip_version
p3762
atp3763
atp3764
sI1074247128
(Vrtc_clk_wait_for_slow_cycle
p3765
(lp3766
(L2844697221L
L2624587680L
(lp3767
(lp3768
tp3769
a(L287687718L
L0L
(lp3770
(lp3771
tp3772
a(L3360570486L
L0L
(lp3773
(lp3774
tp3775
a(L3843203427L
L1443213481L
(lp3776
(lp3777
tp3778
a(L1300789833L
L0L
(lp3779
(lp3780
tp3781
a(L1259765481L
L0L
(lp3782
(lp3783
tp3784
a(L17340776L
L1443213481L
(lp3785
(lp3786
tp3787
a(L329680227L
L3187408090L
(lp3788
(lp3789
Vesp_log_early_timestamp
p3790
atp3791
atp3792
sI1074237152
(Vbootloader_common_ota_select_crc
p3793
(lp3794
(L2925798959L
L1443213481L
(lp3795
(lp3796
tp3797
atp3798
sI1074247392
(Vesp_rom_spiflash_wait_idle
p3799
(lp3800
(L1698121947L
L1443213481L
(lp3801
(lp3802
tp3803
a(L2023766174L
L0L
(lp3804
(lp3805
tp3806
a(L147213506L
L1443213481L
(lp3807
(lp3808
tp3809
a(L3086959262L
L0L
(lp3810
(lp3811
tp3812
a(L4161019926L
L3785322319L
(lp3813
(lp3814
Vesp_rom_spiflash_read_status
p3815
atp3816
atp3817
sI1074244332
(Vwdt_hal_set_flashboot_en
p3818
(lp3819
(L2375320464L
L0L
(lp3820
(lp3821
tp3822
a(L3915867581L
L0L
(lp3823
(lp3824
tp3825
a(L3360570486L
L0L
(lp3826
(lp3827
tp3828
a(L3823116953L
L1443213481L
(lp3829
(lp3830
tp3831
atp3832
sI1074236904
(Vefuse_hal_flash_encryption_enabled
p3833
(lp3834
(L221474917L
L1443213481L
(lp3835
(lp3836
tp3837
a(L2910371777L
L0L
(lp3838
(lp3839
tp3840
a(L3360570486L
L0L
(lp3841
(lp3842
tp3843
a(L3016870L
L0L
(lp3844
(lp3845
tp3846
a(L3745038218L
L0L
(lp3847
(lp3848
tp3849
a(L957607403L
L0L
(lp3850
(lp3851
tp3852
atp3853
sI1074236648
(Vbootloader_write_status_8b_xmc25qu64a
p3854
(lp3855
(L3301890095L
L494283823L
(lp3856
(lp3857
Vbootloader_execute_flash_command
p3858
aVesp_rom_spiflash_wait_idle
p3859
aVbootloader_execute_flash_command
p3860
aVesp_rom_spiflash_wait_idle
p3861
aVbootloader_execute_flash_command
p3862
atp3863
atp3864
sI1074244584
(Vrtc_clk_32k_enable_common
p3865
(lp3866
(L2821256590L
L2195759072L
(lp3867
(lp3868
tp3869
a(L97422L
L0L
(lp3870
(lp3871
tp3872
a(L2218417248L
L0L
(lp3873
(lp3874
tp3875
a(L339634797L
L1443213481L
(lp3876
(lp3877
tp3878
a(L51458120L
L0L
(lp3879
(lp3880
tp3881
atp3882
sI1074245352
(Vrtc_clk_fast_src_set
p3883
(lp3884
(L1089140614L
L1443213481L
(lp3885
(lp3886
tp3887
a(L3020187L
L0L
(lp3888
(lp3889
tp3890
a(L3827921190L
L3785322319L
(lp3891
(lp3892
Vabort
p3893
atp3894
a(L2578095160L
L1443213481L
(lp3895
(lp3896
tp3897
a(L4159388630L
L1443213481L
(lp3898
(lp3899
tp3900
a(L300459962L
L0L
(lp3901
(lp3902
tp3903
atp3904
sI1074246632
(Vrtc_clk_cal_internal
p3905
(lp3906
(L4103044880L
L1443213481L
(lp3907
(lp3908
tp3909
a(L3906046821L
L4032149094L
(lp3910
(lp3911
V__assert_func
p3912
atp3913
a(L3821006588L
L1443213481L
(lp3914
(lp3915
tp3916
a(L1673513644L
L0L
(lp3917
(lp3918
tp3919
a(L2719210992L
L4021370767L
(lp3920
(lp3921
Vrtc_clk_slow_src_get
p3922
atp3923
a(L3008910671L
L0L
(lp3924
(lp3925
tp3926
a(L97689L
L0L
(lp3927
(lp3928
tp3929
a(L1872507229L
L1443213481L
(lp3930
(lp3931
tp3932
a(L3028464L
L0L
(lp3933
(lp3934
tp3935
a(L3028481L
L0L
(lp3936
(lp3937
tp3938
a(L147213506L
L1443213481L
(lp3939
(lp3940
tp3941
a(L3455571058L
L1374507264L
(lp3942
(lp3943
V__udivdi3
p3944
aVrtc_clk_xtal_freq_get
p3945
atp3946
a(L2780079961L
L0L
(lp3947
(lp3948
tp3949
a(L4208562267L
L1443213481L
(lp3950
(lp3951
tp3952
a(L4114459891L
L3187408090L
(lp3953
(lp3954
Vesp_log_early_timestamp
p3955
atp3956
a(L2258688482L
L0L
(lp3957
(lp3958
tp3959
a(L3360570486L
L0L
(lp3960
(lp3961
tp3962
a(L3553505594L
L0L
(lp3963
(lp3964
tp3965
a(L403361192L
L0L
(lp3966
(lp3967
tp3968
a(L3243404432L
L3785322319L
(lp3969
(lp3970
Vrtc_clk_8m_enable
p3971
atp3972
a(L390546255L
L2195759072L
(lp3973
(lp3974
tp3975
a(L3586367509L
L1443213481L
(lp3976
(lp3977
tp3978
a(L2910371777L
L0L
(lp3979
(lp3980
tp3981
a(L2902417580L
L0L
(lp3982
(lp3983
tp3984
a(L3082259486L
L1443213481L
(lp3985
(lp3986
tp3987
a(L3020204L
L0L
(lp3988
(lp3989
tp3990
a(L603598685L
L1443213481L
(lp3991
(lp3992
tp3993
a(L3429540926L
L0L
(lp3994
(lp3995
tp3996
a(L3028464L
L0L
(lp3997
(lp3998
tp3999
a(L615477255L
L242900614L
(lp4000
(lp4001
Vrtc_clk_8m_enable
p4002
atp4003
atp4004
sI1074237172
(Vbootloader_common_ota_select_valid
p4005
(lp4006
(L1563399710L
L3785322319L
(lp4007
(lp4008
Vbootloader_common_ota_select_invalid
p4009
atp4010
a(L3814720849L
L3785322319L
(lp4011
(lp4012
Vbootloader_common_ota_select_crc
p4013
atp4014
a(L3360570486L
L0L
(lp4015
(lp4016
tp4017
atp4018
sI1074269692
(Vbootloader_console_init
p4019
(lp4020
(L3806010175L
L988378406L
(lp4021
(lp4022
Vesp_rom_uart_tx_wait_idle
p4023
aVrtc_clk_apb_freq_get
p4024
aVesp_rom_uart_set_clock_baudrate
p4025
atp4026
atp4027
sI1074270204
(Vrtc_clk_init
p4028
(lp4029
(L1100006719L
L1443213481L
(lp4030
(lp4031
tp4032
a(L42671777L
L3785322319L
(lp4033
(lp4034
Vrtc_clk_cpu_freq_to_xtal
p4035
atp4036
a(L739905763L
L1743007695L
(lp4037
(lp4038
Vrtc_clk_xtal_freq_get
p4039
atp4040
a(L3028481L
L0L
(lp4041
(lp4042
tp4043
a(L4284274517L
L3785322319L
(lp4044
(lp4045
Vrtc_clk_xtal_freq_estimate
p4046
atp4047
a(L2576622952L
L3187408090L
(lp4048
(lp4049
Vesp_log_early_timestamp
p4050
atp4051
a(L1822030105L
L3065544262L
(lp4052
(lp4053
Vesp_rom_uart_tx_wait_idle
p4054
aVrtc_clk_xtal_freq_update
p4055
aVrtc_clk_apb_freq_update
p4056
aVrtc_clk_cpu_freq_get_config
p4057
aVrtc_clk_cpu_freq_mhz_to_config
p4058
atp4059
a(L521302419L
L2704288053L
(lp4060
(lp4061
Vesp_log_early_timestamp
p4062
aVabort
p4063
atp4064
a(L2902417580L
L0L
(lp4065
(lp4066
tp4067
a(L1899970065L
L0L
(lp4068
(lp4069
tp4070
a(L377687546L
L3785322319L
(lp4071
(lp4072
Vrtc_clk_xtal_freq_estimate
p4073
atp4074
a(L2163742247L
L3187408090L
(lp4075
(lp4076
Vesp_log_early_timestamp
p4077
atp4078
a(L299116989L
L2426646996L
(lp4079
(lp4080
Vrtc_clk_cpu_freq_set_config
p4081
aV__udivdi3
p4082
atp4083
a(L912310138L
L3785322319L
(lp4084
(lp4085
Vrtc_clk_32k_enable
p4086
atp4087
a(L3191820416L
L1832448559L
(lp4088
(lp4089
Vrtc_clk_8m_enable
p4090
aVrtc_clk_fast_src_set
p4091
aVrtc_clk_slow_src_set
p4092
atp4093
a(L1232958848L
L0L
(lp4094
(lp4095
tp4096
atp4097
sI1074234620
(Vbootloader_common_get_chip_ver_pkg
p4098
(lp4099
(L3197874814L
L1443213481L
(lp4100
(lp4101
tp4102
atp4103
sI1074241276
(Vverify_load_addresses
p4104
(lp4105
(L2764487219L
L0L
(lp4106
(lp4107
tp4108
a(L106L
L0L
(lp4109
(lp4110
tp4111
a(L97642L
L0L
(lp4112
(lp4113
tp4114
a(L1682572953L
L4032149094L
(lp4115
(lp4116
V__assert_func
p4117
atp4118
a(L371731316L
L2195759072L
(lp4119
(lp4120
tp4121
a(L106L
L0L
(lp4122
(lp4123
tp4124
a(L3747671351L
L2195759072L
(lp4125
(lp4126
tp4127
a(L106L
L0L
(lp4128
(lp4129
tp4130
a(L159211233L
L4171435875L
(lp4131
(lp4132
Vbootloader_util_regions_overlap
p4133
atp4134
a(L3369736729L
L581251951L
(lp4135
(lp4136
Vbootloader_util_regions_overlap
p4137
atp4138
a(L3028481L
L0L
(lp4139
(lp4140
tp4141
a(L129067213L
L242900614L
(lp4142
(lp4143
Vbootloader_util_regions_overlap
p4144
atp4145
a(L51970127L
L2534110409L
(lp4146
(lp4147
tp4148
a(L3212477138L
L1443213481L
(lp4149
(lp4150
tp4151
a(L1032381749L
L0L
(lp4152
(lp4153
tp4154
a(L2837304413L
L0L
(lp4155
(lp4156
tp4157
a(L677569396L
L3785322319L
(lp4158
(lp4159
Vverify_load_addresses
p4160
atp4161
a(L1351513776L
L0L
(lp4162
(lp4163
tp4164
a(L956755582L
L0L
(lp4165
(lp4166
tp4167
a(L1550159667L
L1443213481L
(lp4168
(lp4169
tp4170
a(L2297907636L
L2195759072L
(lp4171
(lp4172
tp4173
a(L106L
L0L
(lp4174
(lp4175
tp4176
a(L1378880375L
L2195759072L
(lp4177
(lp4178
tp4179
a(L106L
L0L
(lp4180
(lp4181
tp4182
a(L1933245593L
L581251951L
(lp4183
(lp4184
Vbootloader_util_regions_overlap
p4185
atp4186
a(L3028481L
L0L
(lp4187
(lp4188
tp4189
a(L2219806806L
L581251951L
(lp4190
(lp4191
Vbootloader_util_regions_overlap
p4192
atp4193
a(L3186102034L
L1690040256L
(lp4194
(lp4195
tp4196
a(L1284972329L
L1443213481L
(lp4197
(lp4198
tp4199
a(L3236457224L
L1443213481L
(lp4200
(lp4201
tp4202
a(L2743341656L
L0L
(lp4203
(lp4204
tp4205
a(L182882711L
L0L
(lp4206
(lp4207
tp4208
a(L2268367078L
L2195759072L
(lp4209
(lp4210
tp4211
a(L297163306L
L0L
(lp4212
(lp4213
tp4214
a(L1900059593L
L0L
(lp4215
(lp4216
tp4217
a(L376010266L
L2534110409L
(lp4218
(lp4219
tp4220
a(L1319531632L
L1443213481L
(lp4221
(lp4222
tp4223
a(L3929371936L
L0L
(lp4224
(lp4225
tp4226
a(L147213506L
L1443213481L
(lp4227
(lp4228
tp4229
a(L4072848040L
L0L
(lp4230
(lp4231
tp4232
a(L106L
L0L
(lp4233
(lp4234
tp4235
a(L268651496L
L1443213481L
(lp4236
(lp4237
tp4238
a(L147213506L
L1443213481L
(lp4239
(lp4240
tp4241
a(L3020204L
L0L
(lp4242
(lp4243
tp4244
a(L885671544L
L2275292552L
(lp4245
(lp4246
Vesp_log_early_timestamp
p4247
atp4248
a(L1303560396L
L0L
(lp4249
(lp4250
tp4251
a(L268651496L
L1443213481L
(lp4252
(lp4253
tp4254
a(L1303560427L
L0L
(lp4255
(lp4256
tp4257
atp4258
sI1074243068
(Vbootloader_load_image
p4259
(lp4260
(L2799729290L
L242900614L
(lp4261
(lp4262
Vimage_load
p4263
atp4264
atp4265
sI1074267636
(Vcall_start_cpu0
p4266
(lp4267
(L342432055L
L1443213481L
(lp4268
(lp4269
tp4270
a(L4207910112L
L1443213481L
(lp4271
(lp4272
tp4273
a(L3212347974L
L3785322319L
(lp4274
(lp4275
Vbootloader_init
p4276
atp4277
a(L94425498L
L3785322319L
(lp4278
(lp4279
Vbootloader_reset
p4280
atp4281
a(L1872507246L
L1443213481L
(lp4282
(lp4283
tp4284
a(L4207910112L
L1443213481L
(lp4285
(lp4286
tp4287
a(L356913563L
L2218577417L
(lp4288
(lp4289
Vmemset
p4290
aVbootloader_utility_load_partition_table
p4291
atp4292
a(L3014296803L
L3187408090L
(lp4293
(lp4294
Vesp_log_early_timestamp
p4295
atp4296
a(L405422123L
L3785322319L
(lp4297
(lp4298
Vbootloader_utility_get_selected_boot_partition
p4299
atp4300
a(L2025208509L
L242900614L
(lp4301
(lp4302
Vbootloader_utility_load_boot_image
p4303
atp4304
atp4305
sI1074269684
(Vbootloader_enable_random
p4306
(lp4307
(L1287383080L
L3785322319L
(lp4308
(lp4309
Vbootloader_random_enable
p4310
atp4311
atp4312
sI1074238456
(Vbootloader_random_disable
p4313
(lp4314
(L482324986L
L2935979744L
(lp4315
(lp4316
tp4317
atp4318
ssS'functionsdups'
p4319
g11
((lp4320
tp4321
Rp4322
sS'immediatedups'
p4323
g11
((lp4324
tp4325
Rp4326
sS'functiondups'
p4327
g11
((lp4328
tp4329
Rp4330
sS'fuzzy'
p4331
(dp4332
L366261972L
I1074270204
sL4033782891L
I1074244332
sL1651792242L
I1074247440
sL1500945776L
I1074267968
sL2092869556L
I1074248404
sL2539816556L
I1074236800
sL3032120501L
I1074245564
sL2641888616L
I1074246632
sL1962232032L
I1074245432
sL2859057779L
I1074269264
sL1348852091L
I1074248792
sL1485246373L
I1074240864
sL1247030641L
I1074268776
sL2749526724L
I1074239500
sL214341344L
I1074244500
sL1729011238L
I1074241836
sL1959102959L
I1074237624
sL2216531249L
I1074245324
sL317294020L
I1074235588
sL1766137975L
I1074238868
sL1821770661L
I1074237832
sL332090111L
I1074236716
sL282843886L
I1074237884
sL3703425408L
I1074245004
sL465259514L
I1074247688
sL3530961461L
I1074270648
sL1210592366L
I1074245180
sL209111356L
I1074245352
sL2726707668L
I1074268480
sL2131781703L
I1074236600
sL827829001L
I1074269332
sL994994961L
I1074238784
sL1155028103L
I1074269980
sL3356599408L
I1074243068
sL2806886186L
I1074268536
sL3715950101L
I1074244300
sL2538597924L
I1074245888
sL2452281182L
I1074247128
sL2367595883L
I1074236700
sL1122585247L
I1074243372
sL3659714901L
I1074241276
sL2752268667L
I1074244548
sL160672234L
I1074241964
sL2376760616L
I1074243104
sL1898962604L
I1074238900
sL3223682214L
I1074248704
sL1772626723L
I1074235724
sL2471313117L
I1074240572
sL381028389L
I1074240784
sL3711025829L
I1074240092
sL797548049L
I1074240404
sL3374853808L
I1074269460
sL2835607711L
I1074269692
sL2095240828L
I1074234664
sL2182127758L
I1074270028
sL3221945515L
I1074245704
sL3525303483L
I1074245296
sL4242478965L
I1074238376
sL1924373790L
I1074269280
sL3665358295L
I1074244720
sL3281732395L
I1074239120
sL1096063205L
I1074236944
sL2906154889L
I1074247392
sL3262873546L
I1074269728
sL1065525808L
I1074237040
sL3905831542L
I1074239808
sL2038713658L
I1074246588
sL2708185770L
I1074241220
sL3890904617L
I1074245776
sL1332800441L
I1074237448
sL3183721996L
I1074235188
sL3558783183L
I1074238160
sL1377360842L
I1074244584
sL3300368739L
I1074267744
sL1161792488L
I1074241032
sL4091350277L
I1074247496
sL2871786995L
I1074269556
sL3578810761L
I1074235488
sL531949167L
I1074237208
sL1060788199L
I1074245472
sL2663898648L
I1074269484
sL627477382L
I1074235836
sL814911857L
I1074240424
sL3280013925L
I1074238456
sL1862804207L
I1074243984
sL3420458249L
I1074247296
sL812561285L
I1074239596
sL1872673135L
I1074240068
sL1214705044L
I1074236304
sL4155364446L
I1074237172
sL755401973L
I1074267636
sL230862646L
I1074237592
sL1564551092L
I1074241748
sL1447890363L
I1074236648
sL1950296771L
I1074248540
sL1396037064L
I1074244944
sL1014311563L
I1074242584
ssb.