ccopy_reg
_reconstructor
p0
(crizzo
RizzoSignature
p1
c__builtin__
object
p2
Ntp3
Rp4
(dp5
S'formal'
p6
(dp7
L4293844463L
I1074237072
sL2005196428L
I1074245832
sL1741170115L
I1074238176
sL2087186284L
I1074236428
sL1913647619L
I1074269956
sL3058924610L
I1074237028
sL3984280162L
I1074244812
sL2628804010L
I1074270880
sL4213015302L
I1074243584
sL461860251L
I1074247620
sL286550283L
I1074270024
sL552298442L
I1074235296
sL3976424482L
I1074234728
sL2767810776L
I1074238196
sL2771134728L
I1074240492
sL2326361228L
I1074269376
sL2702580795L
I1074237552
sL2610420647L
I1074269800
sL2896295319L
I1074236916
sL25479346L
I1074240972
sL438696979L
I1074269928
sL2483705907L
I1074239568
sL1123431371L
I1074239704
sL1331791455L
I1074245924
sL1674148343L
I1074245980
sL1786019146L
I1074247988
sL4023292303L
I1074237628
sL3256726111L
I1074248316
sL2485902447L
I1074236756
sL723138898L
I1074238356
sL424336643L
I1074269664
sL366218909L
I1074270060
sL368505532L
I1074246256
sL848906711L
I1074248480
sL353716291L
I1074245012
sL1585823442L
I1074244912
sL1622896354L
I1074244940
sL3092620558L
I1074235696
sL2521269785L
I1074236996
sL730944497L
I1074240068
sL2189223198L
I1074240732
sL3580313603L
I1074242236
sL2493713350L
I1074245688
sL183144L
I1074239072
sL2930276314L
I1074235848
sL4161584248L
I1074268576
sL4175577751L
I1074245060
sL2723725103L
I1074241168
sL1633709340L
I1074245664
sL2813809866L
I1074236780
sL2366387314L
I1074270728
sL1330922710L
I1074247124
sL2612952636L
I1074267728
sL1731035566L
I1074236592
sL676927194L
I1074268864
sL244922653L
I1074243104
sL2691843063L
I1074246284
sL3307282855L
I1074238336
sL127813144L
I1074243884
sL2834351222L
I1074245232
sL3065846068L
I1074235596
sL2195669076L
I1074245640
sL357647324L
I1074268872
sL3361686224L
I1074268632
sL3042952135L
I1074267720
sL670505576L
I1074240368
sL3721992006L
I1074241184
sL1160735408L
I1074242364
sL1662035087L
I1074267840
sL4038945309L
I1074235648
sL3041505513L
I1074237660
sL1435968304L
I1074245096
sL4178015136L
I1074247788
sL1992104215L
I1074236888
sL1112935418L
I1074234772
sL4020657674L
I1074246396
sL2931540503L
I1074247932
sL1382567621L
I1074238412
sL105563623L
I1074240804
sL2997001746L
I1074237392
sL720504384L
I1074237452
sL59949349L
I1074241432
sL1087228788L
I1074239172
sL76756778L
I1074241264
sL556795273L
I1074269732
sL2819127986L
I1074237116
sL3195929028L
I1074240468
sL3024810484L
I1074270284
sL1481764497L
I1074237096
sL1877634603L
I1074270952
sL2687718384L
I1074243616
sL2789355142L
I1074244496
sL1098683832L
I1074245452
sL3015462521L
I1074238820
sL3066643969L
I1074247588
sL935372552L
I1074268064
sL886840080L
I1074237152
sL2062758462L
I1074236820
sL1347401601L
I1074240824
sL2248158928L
I1074238492
sL660825523L
I1074245512
sL3362774716L
I1074236676
sL3338519854L
I1074246212
sL1347623814L
I1074237468
sL2195659785L
I1074245860
sL540472814L
I1074248180
sL2263182908L
I1074238404
sL965583188L
I1074246072
sL114336524L
I1074269688
sL282668036L
I1074244844
sL963291061L
I1074248568
sL3630163135L
I1074236904
sL188664287L
I1074235264
sL2743385701L
I1074269360
sL2404540336L
I1074245804
sL2485146564L
I1074241208
sL692536993L
I1074237524
sL3284292650L
I1074237432
sL822000404L
I1074245940
sL921639684L
I1074235960
sL235684320L
I1074237920
sL3364903294L
I1074247884
sL675504051L
I1074236576
sL1817360290L
I1074241676
sL1621098576L
I1074243600
sL917018201L
I1074236988
sL237904351L
I1074241620
sL2758712477L
I1074242148
sL309068699L
I1074245392
sL1140246287L
I1074247080
sL2570362575L
I1074238904
sL3958998789L
I1074237868
sL4029637072L
I1074270108
ssS'immediates'
p8
(dp9
sS'formaldups'
p10
c__builtin__
set
p11
((lp12
tp13
Rp14
sS'stringdups'
p15
g11
((lp16
tp17
Rp18
sS'fuzzydups'
p19
g11
((lp20
tp21
Rp22
sS'strings'
p23
(dp24
sS'functions'
p25
(dp26
I1074270728
(Vrtc_vddsdio_get_config
p27
(lp28
(L3097658956L
L1443213481L
(lp29
(lp30
tp31
a(L1750635626L
L0L
(lp32
(lp33
tp34
a(L3193418487L
L0L
(lp35
(lp36
tp37
a(L3511111289L
L1443213481L
(lp38
(lp39
tp40
a(L115635292L
L0L
(lp41
(lp42
tp43
a(L896053863L
L0L
(lp44
(lp45
tp46
a(L1306330959L
L0L
(lp47
(lp48
tp49
a(L1783408782L
L1443213481L
(lp50
(lp51
tp52
atp53
sI1074236676
(Vesp_rom_uart_set_clock_baudrate
p54
(lp55
(L1471953879L
L1443213481L
(lp56
(lp57
tp58
a(L1872515506L
L1443213481L
(lp59
(lp60
tp61
a(L147213506L
L1443213481L
(lp62
(lp63
tp64
a(L3104172142L
L1443213481L
(lp65
(lp66
tp67
atp68
sI1074235648
(Vbootloader_read_flash_id
p69
(lp70
(L549578328L
L3785322319L
(lp71
(lp72
Vbootloader_execute_flash_command
p73
atp74
atp75
sI1074243584
(Vbootloader_load_image
p76
(lp77
(L1155870502L
L3785322319L
(lp78
(lp79
Vimage_load
p80
atp81
atp82
sI1074267136
(V_init
p83
(lp84
(L3493042598L
L0L
(lp85
(lp86
tp87
atp88
sI1074236428
(Vbootloader_flash_dummy_config
p89
(lp90
(L2633298977L
L1443213481L
(lp91
(lp92
tp93
a(L2761717557L
L0L
(lp94
(lp95
tp96
a(L1849044936L
L0L
(lp97
(lp98
tp99
a(L2198646520L
L2195759072L
(lp100
(lp101
tp102
a(L1857500547L
L1443213481L
(lp103
(lp104
tp105
a(L3020204L
L0L
(lp106
(lp107
tp108
a(L1610443405L
L0L
(lp109
(lp110
tp111
a(L4032120524L
L0L
(lp112
(lp113
tp114
a(L2336993863L
L0L
(lp115
(lp116
tp117
a(L1298875775L
L0L
(lp118
(lp119
tp120
a(L3880393601L
L0L
(lp121
(lp122
tp123
a(L2272848587L
L1443213481L
(lp124
(lp125
tp126
a(L1610443436L
L0L
(lp127
(lp128
tp129
atp130
sI1074237452
(Vbootloader_common_get_rtc_retain_mem_partition
p131
(lp132
(L3440563016L
L3833084538L
(lp133
(lp134
Vis_retain_mem_valid
p135
atp136
atp137
sI1074269956
(Vbootloader_print_banner
p138
(lp139
(L3569996224L
L1385564105L
(lp140
(lp141
Vesp_bootloader_get_description
p142
aVesp_log_early_timestamp
p143
aVesp_log_early_timestamp
p144
aVesp_log_early_timestamp
p145
atp146
atp147
sI1074245640
(Vrtc_clk_8m_enabled
p148
(lp149
(L563532105L
L1443213481L
(lp150
(lp151
tp152
atp153
sI1074243600
(Vbootloader_load_image_no_verify
p154
(lp155
(L3412781509L
L3785322319L
(lp156
(lp157
Vimage_load
p158
atp159
atp160
sI1074245392
(Vrtc_clk_bbpll_disable
p161
(lp162
(L3512291683L
L1690040256L
(lp163
(lp164
tp165
a(L2472207241L
L0L
(lp166
(lp167
tp168
a(L3360570486L
L0L
(lp169
(lp170
tp171
atp172
sI1074237468
(Vbootloader_common_update_rtc_retain_mem
p173
(lp174
(L2958000229L
L0L
(lp175
(lp176
tp177
a(L3212356251L
L3785322319L
(lp178
(lp179
Vis_retain_mem_valid
p180
atp181
a(L94425498L
L3785322319L
(lp182
(lp183
Vbootloader_common_reset_rtc_retain_mem
p184
atp185
a(L2376360173L
L1443213481L
(lp186
(lp187
tp188
a(L4141035440L
L0L
(lp189
(lp190
tp191
a(L2902417580L
L0L
(lp192
(lp193
tp194
a(L395718978L
L1443213481L
(lp195
(lp196
tp197
a(L3738038928L
L3785322319L
(lp198
(lp199
Vupdate_rtc_retain_mem_crc
p200
atp201
atp202
sI1074238492
(Vbootloader_random_disable
p203
(lp204
(L482324986L
L2935979744L
(lp205
(lp206
tp207
atp208
sI1074240796
(Vbootloader_debug_buffer
p209
(lp210
(L2100504542L
L0L
(lp211
(lp212
tp213
atp214
sI1074240804
(Vbootloader_sha256_start
p215
(lp216
(L1737386262L
L2534110409L
(lp217
(lp218
tp219
atp220
sI1074245924
(Vrtc_clk_fast_src_get
p221
(lp222
(L2217920473L
L1443213481L
(lp223
(lp224
tp225
atp226
sI1074243104
(Vimage_load
p227
(lp228
(L3048705773L
L0L
(lp229
(lp230
tp231
a(L3463713141L
L0L
(lp232
(lp233
tp234
a(L3309803581L
L0L
(lp235
(lp236
tp237
a(L256049682L
L0L
(lp238
(lp239
tp240
a(L1935188817L
L0L
(lp241
(lp242
tp243
a(L3028481L
L0L
(lp244
(lp245
tp246
a(L3021749L
L0L
(lp247
(lp248
tp249
a(L106L
L0L
(lp250
(lp251
tp252
a(L585264737L
L0L
(lp253
(lp254
tp255
a(L1145291904L
L3785322319L
(lp256
(lp257
Vprocess_image_header
p258
atp259
a(L823859500L
L0L
(lp260
(lp261
tp262
a(L3061291474L
L0L
(lp263
(lp264
tp265
a(L4106474008L
L3785322319L
(lp266
(lp267
Vprocess_segments
p268
atp269
a(L3868840998L
L0L
(lp270
(lp271
tp272
a(L2962085561L
L1443213481L
(lp273
(lp274
tp275
a(L1827898452L
L3785322319L
(lp276
(lp277
Vprocess_checksum
p278
atp279
a(L2214715179L
L3785322319L
(lp280
(lp281
Vprocess_appended_hash_and_sig
p282
atp283
a(L3028481L
L0L
(lp284
(lp285
tp286
a(L2902417580L
L0L
(lp287
(lp288
tp289
a(L3285560995L
L3785322319L
(lp290
(lp291
Vbootloader_sha256_finish
p292
atp293
a(L3946560000L
L0L
(lp294
(lp295
tp296
a(L93674324L
L0L
(lp297
(lp298
tp299
a(L2674734805L
L2195759072L
(lp300
(lp301
tp302
a(L1168805591L
L1443213481L
(lp303
(lp304
tp305
a(L1179424413L
L0L
(lp306
(lp307
tp308
a(L3928150917L
L0L
(lp309
(lp310
tp311
a(L106L
L0L
(lp312
(lp313
tp314
a(L3871473710L
L0L
(lp315
(lp316
tp317
a(L3884726427L
L0L
(lp318
(lp319
tp320
a(L106L
L0L
(lp321
(lp322
tp323
a(L3020187L
L0L
(lp324
(lp325
tp326
a(L1337906930L
L3187408090L
(lp327
(lp328
Vesp_log_early_timestamp
p329
atp330
a(L2868044067L
L0L
(lp331
(lp332
tp333
a(L1179764900L
L0L
(lp334
(lp335
tp336
a(L2332746046L
L3785322319L
(lp337
(lp338
Vbootloader_sha256_finish
p339
atp340
a(L3721568057L
L242900614L
(lp341
(lp342
Vmemset
p343
atp344
a(L3020204L
L0L
(lp345
(lp346
tp347
a(L3039742375L
L1443213481L
(lp348
(lp349
tp350
a(L106L
L0L
(lp351
(lp352
tp353
a(L3307179591L
L2839326997L
(lp354
(lp355
Vmemset
p356
aVbootloader_sha256_finish
p357
aVbootloader_debug_buffer
p358
aVmemcmp
p359
atp360
a(L3433271982L
L2266857161L
(lp361
(lp362
Vesp_log_early_timestamp
p363
aVbootloader_debug_buffer
p364
atp365
a(L3741653406L
L3785322319L
(lp366
(lp367
Vshould_load
p368
atp369
a(L2764257181L
L0L
(lp370
(lp371
tp372
a(L3338774213L
L0L
(lp373
(lp374
tp375
a(L193456747L
L1443213481L
(lp376
(lp377
tp378
a(L3349572949L
L0L
(lp379
(lp380
tp381
a(L2192292519L
L0L
(lp382
(lp383
tp384
a(L106L
L0L
(lp385
(lp386
tp387
a(L1702191967L
L1443213481L
(lp388
(lp389
tp390
a(L1299866312L
L0L
(lp391
(lp392
tp393
a(L3010020263L
L0L
(lp394
(lp395
tp396
atp397
sI1074243616
(Vesp_partition_table_verify
p398
(lp399
(L44179228L
L1443213481L
(lp400
(lp401
tp402
a(L3031150553L
L1443213481L
(lp403
(lp404
tp405
a(L1184829782L
L0L
(lp406
(lp407
tp408
a(L3020204L
L0L
(lp409
(lp410
tp411
a(L26389654L
L3187408090L
(lp412
(lp413
Vesp_log_early_timestamp
p414
atp415
a(L1235012963L
L0L
(lp416
(lp417
tp418
a(L3190337587L
L0L
(lp419
(lp420
tp421
a(L2069928857L
L0L
(lp422
(lp423
tp424
a(L2902417580L
L0L
(lp425
(lp426
tp427
a(L2543114737L
L2147981551L
(lp428
(lp429
Vesp_log_early_timestamp
p430
atp431
a(L1715222413L
L1443213481L
(lp432
(lp433
tp434
a(L3020204L
L0L
(lp435
(lp436
tp437
a(L3020204L
L0L
(lp438
(lp439
tp440
a(L1328961945L
L2147981551L
(lp441
(lp442
Vesp_log_early_timestamp
p443
atp444
a(L4207910112L
L1443213481L
(lp445
(lp446
tp447
a(L1235012932L
L0L
(lp448
(lp449
tp450
a(L458256366L
L4021370767L
(lp451
(lp452
Vmemcmp
p453
atp454
a(L3020204L
L0L
(lp455
(lp456
tp457
a(L2543114737L
L2147981551L
(lp458
(lp459
Vesp_log_early_timestamp
p460
atp461
a(L1305407469L
L0L
(lp462
(lp463
tp464
a(L1167861556L
L0L
(lp465
(lp466
tp467
a(L818997085L
L0L
(lp468
(lp469
tp470
a(L3360570486L
L0L
(lp471
(lp472
tp473
a(L3020204L
L0L
(lp474
(lp475
tp476
a(L3999534504L
L3187408090L
(lp477
(lp478
Vesp_log_early_timestamp
p479
atp480
atp481
sI1074245664
(Vrtc_clk_8md256_enabled
p482
(lp483
(L4014027530L
L1443213481L
(lp484
(lp485
tp486
atp487
sI1074248480
(Vesp_rom_spiflash_write_encrypted
p488
(lp489
(L1944247967L
L0L
(lp490
(lp491
tp492
a(L3825342292L
L1443213481L
(lp493
(lp494
tp495
a(L97689L
L0L
(lp496
(lp497
tp498
a(L3061232074L
L0L
(lp499
(lp500
tp501
a(L1562911102L
L1443213481L
(lp502
(lp503
tp504
a(L1309309703L
L3785322319L
(lp505
(lp506
Vesp_rom_spiflash_write
p507
atp508
a(L2269233063L
L1443213481L
(lp509
(lp510
tp511
a(L735741265L
L0L
(lp512
(lp513
tp514
atp515
sI1074243884
(Vwdt_hal_init
p516
(lp517
(L1845705415L
L242900614L
(lp518
(lp519
Vmemset
p520
atp521
a(L106L
L0L
(lp522
(lp523
tp524
a(L147213506L
L1443213481L
(lp525
(lp526
tp527
a(L3076988543L
L0L
(lp528
(lp529
tp530
a(L746843176L
L3294285696L
(lp531
(lp532
tp533
a(L3028464L
L0L
(lp534
(lp535
tp536
a(L268651496L
L1443213481L
(lp537
(lp538
tp539
a(L213928354L
L1443213481L
(lp540
(lp541
tp542
a(L1646580088L
L3294285696L
(lp543
(lp544
tp545
a(L3360570486L
L0L
(lp546
(lp547
tp548
atp549
sI1074239020
(Vcache_ll_l1_enable_bus
p550
(lp551
(L318252209L
L1443213481L
(lp552
(lp553
tp554
atp555
sI1074269732
(Vbootloader_check_bootloader_validity
p556
(lp557
(L2945382592L
L1069700966L
(lp558
(lp559
Vefuse_hal_chip_revision
p560
aVesp_log_early_timestamp
p561
aVbootloader_common_check_chip_validity
p562
atp563
atp564
sI1074245940
(Vrtc_clk_xtal_freq_get
p565
(lp566
(L3313072792L
L1443213481L
(lp567
(lp568
tp569
a(L2847936993L
L0L
(lp570
(lp571
tp572
a(L2252934062L
L1443213481L
(lp573
(lp574
tp575
a(L3360570486L
L0L
(lp576
(lp577
tp578
atp579
sI1074247988
(Vesp_rom_spiflash_program_page_internal
p580
(lp581
(L2569069283L
L0L
(lp582
(lp583
tp584
a(L2258688483L
L0L
(lp585
(lp586
tp587
a(L3360570486L
L0L
(lp588
(lp589
tp590
a(L2295540031L
L1443213481L
(lp591
(lp592
tp593
a(L4235661475L
L3785322319L
(lp594
(lp595
Vesp_rom_spiflash_wait_idle
p596
atp597
a(L1299866312L
L0L
(lp598
(lp599
tp600
a(L3212356251L
L3785322319L
(lp601
(lp602
Vesp_rom_spiflash_enable_write
p603
atp604
a(L1834262847L
L2195759072L
(lp605
(lp606
tp607
a(L633937013L
L1443213481L
(lp608
(lp609
tp610
a(L2953702749L
L0L
(lp611
(lp612
tp613
a(L2989032L
L0L
(lp614
(lp615
tp616
a(L1965622133L
L0L
(lp617
(lp618
tp619
a(L809386272L
L2195759072L
(lp620
(lp621
tp622
a(L1958113242L
L0L
(lp623
(lp624
tp625
a(L106L
L0L
(lp626
(lp627
tp628
a(L3112950080L
L0L
(lp629
(lp630
tp631
a(L1868606439L
L0L
(lp632
(lp633
tp634
a(L147213506L
L1443213481L
(lp635
(lp636
tp637
a(L1933954923L
L0L
(lp638
(lp639
tp640
a(L1147866918L
L0L
(lp641
(lp642
tp643
a(L3871602522L
L0L
(lp644
(lp645
tp646
atp647
sI1074235696
(Vbootloader_flash_xmc_startup
p648
(lp649
(L3433652179L
L242900614L
(lp650
(lp651
Vis_xmc_chip_strict
p652
atp653
a(L2258688482L
L0L
(lp654
(lp655
tp656
a(L3360570486L
L0L
(lp657
(lp658
tp659
a(L2860324232L
L3785322319L
(lp660
(lp661
Vbootloader_flash_read_sfdp
p662
atp663
a(L933155447L
L3609046414L
(lp664
(lp665
Vesp_log_early_timestamp
p666
aVbootloader_execute_flash_command
p667
aVbootloader_execute_flash_command
p668
aVbootloader_execute_flash_command
p669
aVbootloader_execute_flash_command
p670
aVbootloader_read_flash_id
p671
aVis_xmc_chip_strict
p672
atp673
a(L1000132677L
L3187408090L
(lp674
(lp675
Vesp_log_early_timestamp
p676
atp677
atp678
sI1074244912
(Vwdt_hal_write_protect_enable
p679
(lp680
(L387778158L
L0L
(lp681
(lp682
tp683
a(L4195472003L
L0L
(lp684
(lp685
tp686
a(L3360570486L
L0L
(lp687
(lp688
tp689
a(L802523425L
L0L
(lp690
(lp691
tp692
atp693
sI1074236988
(Vefuse_hal_get_disable_wafer_version_major
p694
(lp695
(L4194175088L
L0L
(lp696
(lp697
tp698
atp699
sI1074242364
(Vprocess_segments
p700
(lp701
(L1326203493L
L0L
(lp702
(lp703
tp704
a(L1640778736L
L0L
(lp705
(lp706
tp707
a(L3782401745L
L0L
(lp708
(lp709
tp710
a(L106L
L0L
(lp711
(lp712
tp713
a(L3028481L
L0L
(lp714
(lp715
tp716
a(L3014296803L
L3187408090L
(lp717
(lp718
Vesp_log_early_timestamp
p719
atp720
a(L761135359L
L3785322319L
(lp721
(lp722
Vbootloader_flash_read
p723
atp724
a(L3856957476L
L3187408090L
(lp725
(lp726
Vesp_log_early_timestamp
p727
atp728
a(L3871473710L
L0L
(lp729
(lp730
tp731
a(L219417435L
L0L
(lp732
(lp733
tp734
a(L616767314L
L3785322319L
(lp735
(lp736
Vbootloader_sha256_data
p737
atp738
a(L1599301852L
L1443213481L
(lp739
(lp740
tp741
a(L2258837437L
L0L
(lp742
(lp743
tp744
a(L1764156528L
L0L
(lp745
(lp746
tp747
a(L3028481L
L0L
(lp748
(lp749
tp750
a(L2231662647L
L3187408090L
(lp751
(lp752
Vesp_log_early_timestamp
p753
atp754
a(L268651496L
L1443213481L
(lp755
(lp756
tp757
a(L652851030L
L2195759072L
(lp758
(lp759
tp760
a(L3802069243L
L0L
(lp761
(lp762
tp763
a(L3696234693L
L1443213481L
(lp764
(lp765
tp766
a(L2258867228L
L0L
(lp767
(lp768
tp769
a(L2277415887L
L0L
(lp770
(lp771
tp772
a(L3177376558L
L0L
(lp773
(lp774
tp775
a(L3028481L
L0L
(lp776
(lp777
tp778
a(L3861001733L
L3187408090L
(lp779
(lp780
Vesp_log_early_timestamp
p781
atp782
a(L2640606608L
L0L
(lp783
(lp784
tp785
a(L3028481L
L0L
(lp786
(lp787
tp788
a(L3892729576L
L3833084538L
(lp789
(lp790
Vesp_log_early_timestamp
p791
atp792
a(L4033680444L
L404278070L
(lp793
(lp794
tp795
a(L2902417580L
L0L
(lp796
(lp797
tp798
a(L2902417580L
L0L
(lp799
(lp800
tp801
a(L1229952296L
L3785322319L
(lp802
(lp803
Vverify_load_addresses
p804
atp805
a(L3783935185L
L3785322319L
(lp806
(lp807
Vbootloader_mmap_get_free_pages
p808
atp809
a(L3028481L
L0L
(lp810
(lp811
tp812
a(L224879076L
L0L
(lp813
(lp814
tp815
a(L142590671L
L0L
(lp816
(lp817
tp818
a(L3028481L
L0L
(lp819
(lp820
tp821
a(L94425498L
L3785322319L
(lp822
(lp823
Vesp_log_early_timestamp
p824
atp825
a(L1961289970L
L1443213481L
(lp826
(lp827
tp828
a(L4085121624L
L3785322319L
(lp829
(lp830
Vshould_load
p831
atp832
a(L3028481L
L0L
(lp833
(lp834
tp835
a(L1038006420L
L3833084538L
(lp836
(lp837
Vesp_log_early_timestamp
p838
atp839
a(L106L
L0L
(lp840
(lp841
tp842
a(L3815630522L
L0L
(lp843
(lp844
tp845
a(L1646054028L
L3833084538L
(lp846
(lp847
Vesp_log_early_timestamp
p848
atp849
a(L2629678223L
L0L
(lp850
(lp851
tp852
a(L2684012095L
L0L
(lp853
(lp854
tp855
a(L3357777304L
L3785322319L
(lp856
(lp857
Vbootloader_mmap
p858
atp859
a(L3911420474L
L3187408090L
(lp860
(lp861
Vesp_log_early_timestamp
p862
atp863
a(L1698460186L
L0L
(lp864
(lp865
tp866
a(L3264682310L
L1443213481L
(lp867
(lp868
tp869
a(L4016429890L
L242900614L
(lp870
(lp871
Vmemcpy
p872
atp873
a(L1595421496L
L3785322319L
(lp874
(lp875
Vbootloader_munmap
p876
atp877
a(L2757579158L
L0L
(lp878
(lp879
tp880
a(L605525844L
L242900614L
(lp881
(lp882
Vbootloader_fill_random
p883
atp884
a(L3616854679L
L1443213481L
(lp885
(lp886
tp887
a(L3616854679L
L1443213481L
(lp888
(lp889
tp890
a(L3450268858L
L0L
(lp891
(lp892
tp893
a(L3021749L
L0L
(lp894
(lp895
tp896
a(L322434465L
L0L
(lp897
(lp898
tp899
a(L2494883302L
L0L
(lp900
(lp901
tp902
a(L2902417580L
L0L
(lp903
(lp904
tp905
a(L2213415704L
L1443213481L
(lp906
(lp907
tp908
a(L193456747L
L1443213481L
(lp909
(lp910
tp911
a(L1426980959L
L0L
(lp912
(lp913
tp914
a(L1841482652L
L0L
(lp915
(lp916
tp917
a(L653501462L
L0L
(lp918
(lp919
tp920
a(L3310548426L
L3785322319L
(lp921
(lp922
Vbootloader_sha256_data
p923
atp924
a(L90548756L
L0L
(lp925
(lp926
tp927
a(L1702191967L
L1443213481L
(lp928
(lp929
tp930
a(L2364005371L
L0L
(lp931
(lp932
tp933
atp934
sI1074240824
(Vbootloader_sha256_data
p935
(lp936
(L4066096136L
L0L
(lp937
(lp938
tp939
a(L1697654611L
L2195759072L
(lp940
(lp941
tp942
a(L2213948952L
L242900614L
(lp943
(lp944
V__assert_func
p945
atp946
a(L498498478L
L0L
(lp947
(lp948
tp949
a(L3590389832L
L1443213481L
(lp950
(lp951
tp952
a(L2910371777L
L0L
(lp953
(lp954
tp955
a(L3360570486L
L0L
(lp956
(lp957
tp958
a(L1087685526L
L2195759072L
(lp959
(lp960
tp961
a(L426633611L
L1443213481L
(lp962
(lp963
tp964
a(L2584057186L
L1443213481L
(lp965
(lp966
tp967
a(L3342433287L
L1443213481L
(lp968
(lp969
tp970
a(L2526675390L
L242900614L
(lp971
(lp972
V__bswapsi2
p973
atp974
a(L942815853L
L2195759072L
(lp975
(lp976
tp977
a(L1872507229L
L1443213481L
(lp978
(lp979
tp980
a(L147213506L
L1443213481L
(lp981
(lp982
tp983
a(L3745004802L
L0L
(lp984
(lp985
tp986
atp987
sI1074235960
(Vbootloader_flash_gpio_config
p988
(lp989
(L3362256192L
L3785322319L
(lp990
(lp991
Vbootloader_common_get_chip_ver_pkg
p992
atp993
a(L106L
L0L
(lp994
(lp995
tp996
a(L1998579353L
L0L
(lp997
(lp998
tp999
a(L106L
L0L
(lp1000
(lp1001
tp1002
a(L1839763068L
L1443213481L
(lp1003
(lp1004
tp1005
a(L2440320488L
L1396946377L
(lp1006
(lp1007
tp1008
a(L106L
L0L
(lp1009
(lp1010
tp1011
a(L4003626558L
L0L
(lp1012
(lp1013
tp1014
a(L2164907201L
L2534110409L
(lp1015
(lp1016
tp1017
a(L3360570486L
L0L
(lp1018
(lp1019
tp1020
atp1021
sI1074245688
(Vrtc_clk_slow_src_set
p1022
(lp1023
(L585347011L
L2195759072L
(lp1024
(lp1025
tp1026
a(L3020187L
L0L
(lp1027
(lp1028
tp1029
a(L3028481L
L0L
(lp1030
(lp1031
tp1032
a(L487821223L
L0L
(lp1033
(lp1034
tp1035
a(L4271877108L
L1443213481L
(lp1036
(lp1037
tp1038
a(L1851908495L
L0L
(lp1039
(lp1040
tp1041
a(L1099319264L
L1443213481L
(lp1042
(lp1043
tp1044
a(L3138544334L
L0L
(lp1045
(lp1046
tp1047
a(L94425498L
L3785322319L
(lp1048
(lp1049
Vabort
p1050
atp1051
atp1052
sI1074267720
(Vesp_bootloader_get_description
p1053
(lp1054
(L2248573785L
L2195759072L
(lp1055
(lp1056
tp1057
atp1058
sI1074270024
(Vbootloader_console_init
p1059
(lp1060
(L3806010175L
L988378406L
(lp1061
(lp1062
Vesp_rom_uart_tx_wait_idle
p1063
aVrtc_clk_apb_freq_get
p1064
aVesp_rom_uart_set_clock_baudrate
p1065
atp1066
atp1067
sI1074240068
(Vbootloader_utility_get_selected_boot_partition
p1068
(lp1069
(L2938832293L
L0L
(lp1070
(lp1071
tp1072
a(L2250662613L
L1443213481L
(lp1073
(lp1074
tp1075
a(L3987062097L
L2147981551L
(lp1076
(lp1077
Vesp_log_early_timestamp
p1078
atp1079
a(L558289164L
L1443213481L
(lp1080
(lp1081
tp1082
a(L3360570486L
L0L
(lp1083
(lp1084
tp1085
a(L3118387733L
L3785322319L
(lp1086
(lp1087
Vbootloader_mmap
p1088
atp1089
a(L3080008394L
L2147981551L
(lp1090
(lp1091
Vesp_log_early_timestamp
p1092
atp1093
a(L937961821L
L2410515468L
(lp1094
(lp1095
Vmemcpy
p1096
aVmemcpy
p1097
aVbootloader_munmap
p1098
aVbootloader_common_ota_select_invalid
p1099
atp1100
a(L2911028409L
L0L
(lp1101
(lp1102
tp1103
a(L726754926L
L3785322319L
(lp1104
(lp1105
Vbootloader_common_get_active_otadata
p1106
atp1107
a(L106L
L0L
(lp1108
(lp1109
tp1110
a(L4179097382L
L0L
(lp1111
(lp1112
tp1113
a(L788494392L
L3785322319L
(lp1114
(lp1115
Vbootloader_common_ota_select_invalid
p1116
atp1117
a(L638952356L
L1443213481L
(lp1118
(lp1119
tp1120
a(L1522345576L
L3833084538L
(lp1121
(lp1122
Vesp_log_early_timestamp
p1123
atp1124
a(L4207910112L
L1443213481L
(lp1125
(lp1126
tp1127
a(L1641201884L
L0L
(lp1128
(lp1129
tp1130
a(L3196944801L
L2147981551L
(lp1131
(lp1132
Vesp_log_early_timestamp
p1133
atp1134
a(L2302032704L
L0L
(lp1135
(lp1136
tp1137
a(L1173788779L
L3785322319L
(lp1138
(lp1139
Vbootloader_common_ota_select_crc
p1140
atp1141
a(L178397698L
L1443213481L
(lp1142
(lp1143
tp1144
a(L1324800084L
L3785322319L
(lp1145
(lp1146
Vbootloader_common_ota_select_crc
p1147
atp1148
a(L1299866312L
L0L
(lp1149
(lp1150
tp1151
a(L2704362655L
L1443213481L
(lp1152
(lp1153
tp1154
a(L344024800L
L3833084538L
(lp1155
(lp1156
Vesp_log_early_timestamp
p1157
atp1158
a(L1194215008L
L3833084538L
(lp1159
(lp1160
Vesp_log_early_timestamp
p1161
atp1162
atp1163
sI1074236996
(Vesp_log_early_timestamp
p1164
(lp1165
(L4015029253L
L1443213481L
(lp1166
(lp1167
tp1168
atp1169
sI1074246212
(Vrtc_clk_xtal_freq_update
p1170
(lp1171
(L3023525581L
L2195759072L
(lp1172
(lp1173
tp1174
a(L3509357017L
L0L
(lp1175
(lp1176
tp1177
a(L2266180931L
L0L
(lp1178
(lp1179
tp1180
atp1181
sI1074270284
(Vrtc_clk_init
p1182
(lp1183
(L1100006719L
L1443213481L
(lp1184
(lp1185
tp1186
a(L42671777L
L3785322319L
(lp1187
(lp1188
Vrtc_clk_cpu_freq_to_xtal
p1189
atp1190
a(L739905763L
L1743007695L
(lp1191
(lp1192
Vrtc_clk_xtal_freq_get
p1193
atp1194
a(L3028481L
L0L
(lp1195
(lp1196
tp1197
a(L4284274517L
L3785322319L
(lp1198
(lp1199
Vrtc_clk_xtal_freq_estimate
p1200
atp1201
a(L2576622952L
L3187408090L
(lp1202
(lp1203
Vesp_log_early_timestamp
p1204
atp1205
a(L1822030105L
L3065544262L
(lp1206
(lp1207
Vesp_rom_uart_tx_wait_idle
p1208
aVrtc_clk_xtal_freq_update
p1209
aVrtc_clk_apb_freq_update
p1210
aVrtc_clk_cpu_freq_get_config
p1211
aVrtc_clk_cpu_freq_mhz_to_config
p1212
atp1213
a(L521302419L
L2704288053L
(lp1214
(lp1215
Vesp_log_early_timestamp
p1216
aVabort
p1217
atp1218
a(L2902417580L
L0L
(lp1219
(lp1220
tp1221
a(L1899970065L
L0L
(lp1222
(lp1223
tp1224
a(L377687546L
L3785322319L
(lp1225
(lp1226
Vrtc_clk_xtal_freq_estimate
p1227
atp1228
a(L2163742247L
L3187408090L
(lp1229
(lp1230
Vesp_log_early_timestamp
p1231
atp1232
a(L299116989L
L2426646996L
(lp1233
(lp1234
Vrtc_clk_cpu_freq_set_config
p1235
aV__udivdi3
p1236
atp1237
a(L912310138L
L3785322319L
(lp1238
(lp1239
Vrtc_clk_32k_enable
p1240
atp1241
a(L3191820416L
L1832448559L
(lp1242
(lp1243
Vrtc_clk_8m_enable
p1244
aVrtc_clk_fast_src_set
p1245
aVrtc_clk_slow_src_set
p1246
atp1247
a(L1232958848L
L0L
(lp1248
(lp1249
tp1250
atp1251
sI1074244940
(Vwdt_hal_enable
p1252
(lp1253
(L2299130915L
L0L
(lp1254
(lp1255
tp1256
a(L165794138L
L0L
(lp1257
(lp1258
tp1259
a(L3360570486L
L0L
(lp1260
(lp1261
tp1262
a(L2847657174L
L0L
(lp1263
(lp1264
tp1265
atp1266
sI1074245452
(Vrtc_clk_32k_enable
p1267
(lp1268
(L753387299L
L0L
(lp1269
(lp1270
tp1271
a(L3776007933L
L3785322319L
(lp1272
(lp1273
Vrtc_clk_32k_enable_common
p1274
atp1275
a(L3496950L
L0L
(lp1276
(lp1277
tp1278
a(L707626330L
L2534110409L
(lp1279
(lp1280
tp1281
atp1282
sI1074236756
(Vefuse_hal_chip_revision
p1283
(lp1284
(L2719302832L
L1880226080L
(lp1285
(lp1286
Vefuse_hal_get_major_chip_version
p1287
aVefuse_hal_get_minor_chip_version
p1288
atp1289
atp1290
sI1074237524
(Vbootloader_common_ota_select_invalid
p1291
(lp1292
(L4027567199L
L0L
(lp1293
(lp1294
tp1295
a(L3397985842L
L0L
(lp1296
(lp1297
tp1298
a(L2258867228L
L0L
(lp1299
(lp1300
tp1301
a(L3785235668L
L0L
(lp1302
(lp1303
tp1304
atp1305
sI1074241620
(Vbootloader_util_regions_overlap
p1306
(lp1307
(L2762640130L
L0L
(lp1308
(lp1309
tp1310
a(L1697654632L
L2195759072L
(lp1311
(lp1312
tp1313
a(L2213948952L
L242900614L
(lp1314
(lp1315
V__assert_func
p1316
atp1317
a(L97642L
L0L
(lp1318
(lp1319
tp1320
a(L1087686177L
L2195759072L
(lp1321
(lp1322
tp1323
a(L366123053L
L0L
(lp1324
(lp1325
tp1326
a(L2258867228L
L0L
(lp1327
(lp1328
tp1329
a(L1253626734L
L0L
(lp1330
(lp1331
tp1332
a(L2258897019L
L0L
(lp1333
(lp1334
tp1335
a(L3109269495L
L0L
(lp1336
(lp1337
tp1338
atp1339
sI1074239568
(Vset_actual_ota_seq
p1340
(lp1341
(L4094723830L
L0L
(lp1342
(lp1343
tp1344
a(L3504298995L
L2195759072L
(lp1345
(lp1346
tp1347
a(L1236604048L
L2474967913L
(lp1348
(lp1349
Vmemset
p1350
aVbootloader_common_ota_select_crc
p1351
aVesp_flash_encryption_enabled
p1352
aVbootloader_flash_erase_sector
p1353
atp1354
a(L300669811L
L3785322319L
(lp1355
(lp1356
Vbootloader_flash_write
p1357
atp1358
a(L3166192197L
L3187408090L
(lp1359
(lp1360
Vesp_log_early_timestamp
p1361
atp1362
a(L2489520564L
L3187408090L
(lp1363
(lp1364
Vesp_log_early_timestamp
p1365
atp1366
a(L889933560L
L1880226080L
(lp1367
(lp1368
Vindex_to_partition
p1369
aVbootloader_common_update_rtc_retain_mem
p1370
atp1371
atp1372
sI1074267728
(Vcall_start_cpu0
p1373
(lp1374
(L342432055L
L1443213481L
(lp1375
(lp1376
tp1377
a(L4207910112L
L1443213481L
(lp1378
(lp1379
tp1380
a(L3212347974L
L3785322319L
(lp1381
(lp1382
Vbootloader_init
p1383
atp1384
a(L94425498L
L3785322319L
(lp1385
(lp1386
Vbootloader_reset
p1387
atp1388
a(L1872507246L
L1443213481L
(lp1389
(lp1390
tp1391
a(L4207910112L
L1443213481L
(lp1392
(lp1393
tp1394
a(L3453696961L
L2871875098L
(lp1395
(lp1396
Vbootloader_utility_load_boot_image_from_deep_sleep
p1397
aVmemset
p1398
aVbootloader_utility_load_partition_table
p1399
atp1400
a(L3014296803L
L3187408090L
(lp1401
(lp1402
Vesp_log_early_timestamp
p1403
atp1404
a(L736289835L
L3785322319L
(lp1405
(lp1406
Vbootloader_utility_get_selected_boot_partition
p1407
atp1408
a(L289035773L
L242900614L
(lp1409
(lp1410
Vbootloader_utility_load_boot_image
p1411
atp1412
atp1413
sI1074245980
(Vrtc_clk_cpu_freq_mhz_to_config
p1414
(lp1415
(L908718885L
L3785322319L
(lp1416
(lp1417
Vrtc_clk_xtal_freq_get
p1418
atp1419
a(L60460069L
L0L
(lp1420
(lp1421
tp1422
a(L3802072124L
L0L
(lp1423
(lp1424
tp1425
a(L3159006042L
L0L
(lp1426
(lp1427
tp1428
a(L3360570486L
L0L
(lp1429
(lp1430
tp1431
a(L895147205L
L0L
(lp1432
(lp1433
tp1434
a(L3970036657L
L0L
(lp1435
(lp1436
tp1437
a(L2731353429L
L0L
(lp1438
(lp1439
tp1440
a(L1555485793L
L0L
(lp1441
(lp1442
tp1443
a(L2258897023L
L0L
(lp1444
(lp1445
tp1446
a(L1947499251L
L0L
(lp1447
(lp1448
tp1449
a(L1306331021L
L0L
(lp1450
(lp1451
tp1452
atp1453
sI1074238808
(Vbootloader_clock_get_rated_freq_mhz
p1454
(lp1455
(L376617603L
L3785322319L
(lp1456
(lp1457
Vefuse_hal_get_rated_freq_mhz
p1458
atp1459
atp1460
sI1074269800
(Vbootloader_config_wdt
p1461
(lp1462
(L3447475412L
L603716358L
(lp1463
(lp1464
Vwdt_hal_write_protect_disable
p1465
aVwdt_hal_set_flashboot_en
p1466
aVwdt_hal_write_protect_enable
p1467
aVwdt_hal_init
p1468
aVrtc_clk_slow_freq_get_hz
p1469
aVwdt_hal_write_protect_disable
p1470
aV__udivdi3
p1471
aVwdt_hal_config_stage
p1472
aVwdt_hal_enable
p1473
aVwdt_hal_write_protect_enable
p1474
aVwdt_hal_write_protect_disable
p1475
aVwdt_hal_set_flashboot_en
p1476
aVwdt_hal_write_protect_enable
p1477
atp1478
atp1479
sI1074242148
(Vprocess_appended_hash_and_sig
p1480
(lp1481
(L1668084157L
L0L
(lp1482
(lp1483
tp1484
a(L2910371777L
L0L
(lp1485
(lp1486
tp1487
a(L4285188111L
L0L
(lp1488
(lp1489
tp1490
a(L1151175705L
L0L
(lp1491
(lp1492
tp1493
a(L97689L
L0L
(lp1494
(lp1495
tp1496
a(L2250231589L
L3187408090L
(lp1497
(lp1498
Vesp_log_early_timestamp
p1499
atp1500
a(L268651496L
L1443213481L
(lp1501
(lp1502
tp1503
a(L1464893571L
L3785322319L
(lp1504
(lp1505
Vbootloader_flash_read
p1506
atp1507
a(L735741265L
L0L
(lp1508
(lp1509
tp1510
atp1511
sI1074238820
(Vlog_invalid_app_partition
p1512
(lp1513
(L2157385331L
L2195759072L
(lp1514
(lp1515
tp1516
a(L3028464L
L0L
(lp1517
(lp1518
tp1519
a(L1760520779L
L3833084538L
(lp1520
(lp1521
Vesp_log_early_timestamp
p1522
atp1523
a(L4207910112L
L1443213481L
(lp1524
(lp1525
tp1526
a(L3360570486L
L0L
(lp1527
(lp1528
tp1529
a(L3212513603L
L3833084538L
(lp1530
(lp1531
Vesp_log_early_timestamp
p1532
atp1533
a(L431938678L
L2147981551L
(lp1534
(lp1535
Vesp_log_early_timestamp
p1536
atp1537
atp1538
sI1074237028
(Vis_retain_mem_valid
p1539
(lp1540
(L2820478025L
L2195759072L
(lp1541
(lp1542
tp1543
atp1544
sI1074270060
(Vesp_cpu_configure_region_protection
p1545
(lp1546
(L3233924472L
L581251951L
(lp1547
(lp1548
Vmemcpy
p1549
atp1550
a(L180431425L
L3785322319L
(lp1551
(lp1552
Vmpu_hal_set_region_access
p1553
atp1554
a(L2537388152L
L3785322319L
(lp1555
(lp1556
Vmpu_hal_set_region_access
p1557
atp1558
atp1559
sI1074239072
(Vtry_load_partition
p1560
(lp1561
(L1263750142L
L0L
(lp1562
(lp1563
tp1564
a(L2258688482L
L0L
(lp1565
(lp1566
tp1567
a(L3360570486L
L0L
(lp1568
(lp1569
tp1570
a(L530241438L
L3785322319L
(lp1571
(lp1572
Vbootloader_load_image
p1573
atp1574
a(L4168266278L
L3187408090L
(lp1575
(lp1576
Vesp_log_early_timestamp
p1577
atp1578
atp1579
sI1074236780
(Vefuse_hal_flash_encryption_enabled
p1580
(lp1581
(L221474917L
L1443213481L
(lp1582
(lp1583
tp1584
a(L2910371777L
L0L
(lp1585
(lp1586
tp1587
a(L3360570486L
L0L
(lp1588
(lp1589
tp1590
a(L3016870L
L0L
(lp1591
(lp1592
tp1593
a(L3745038218L
L0L
(lp1594
(lp1595
tp1596
a(L957607403L
L0L
(lp1597
(lp1598
tp1599
atp1600
sI1074247788
(Vesp_rom_spiflash_read_status
p1601
(lp1602
(L3588638125L
L1443213481L
(lp1603
(lp1604
tp1605
a(L4250092034L
L2534110409L
(lp1606
(lp1607
tp1608
a(L4159619641L
L0L
(lp1609
(lp1610
tp1611
a(L2392720019L
L0L
(lp1612
(lp1613
tp1614
a(L2258688487L
L0L
(lp1615
(lp1616
tp1617
a(L4159619145L
L0L
(lp1618
(lp1619
tp1620
a(L3241763332L
L1443213481L
(lp1621
(lp1622
tp1623
a(L3117156279L
L0L
(lp1624
(lp1625
tp1626
a(L2123059967L
L0L
(lp1627
(lp1628
tp1629
a(L582177370L
L0L
(lp1630
(lp1631
tp1632
atp1633
sI1074234728
(Vbootloader_common_get_chip_ver_pkg
p1634
(lp1635
(L3197874814L
L1443213481L
(lp1636
(lp1637
tp1638
atp1639
sI1074249320
(V_fini
p1640
(lp1641
(L3493042598L
L0L
(lp1642
(lp1643
tp1644
atp1645
sI1074240368
(Vbootloader_utility_load_boot_image_from_deep_sleep
p1646
(lp1647
(L1370794446L
L1443213481L
(lp1648
(lp1649
tp1650
a(L776220236L
L548448364L
(lp1651
(lp1652
Vbootloader_common_get_rtc_retain_mem_partition
p1653
atp1654
a(L807480887L
L3785322319L
(lp1655
(lp1656
Vbootloader_load_image_no_verify
p1657
atp1658
a(L2339377961L
L46646223L
(lp1659
(lp1660
Vesp_log_early_timestamp
p1661
aVbootloader_common_update_rtc_retain_mem
p1662
aVload_image
p1663
atp1664
a(L753783728L
L403192672L
(lp1665
(lp1666
Vesp_log_early_timestamp
p1667
aVesp_log_early_timestamp
p1668
atp1669
a(L3360570486L
L0L
(lp1670
(lp1671
tp1672
atp1673
sI1074237552
(Vbootloader_common_select_otadata
p1674
(lp1675
(L4071767857L
L0L
(lp1676
(lp1677
tp1678
a(L1999329187L
L0L
(lp1679
(lp1680
tp1681
a(L3846398843L
L0L
(lp1682
(lp1683
tp1684
a(L2501968171L
L0L
(lp1685
(lp1686
tp1687
a(L3360570486L
L0L
(lp1688
(lp1689
tp1690
a(L2045232488L
L0L
(lp1691
(lp1692
tp1693
a(L1243525916L
L0L
(lp1694
(lp1695
tp1696
a(L3094144427L
L0L
(lp1697
(lp1698
tp1699
a(L2399509845L
L0L
(lp1700
(lp1701
tp1702
a(L1641201884L
L0L
(lp1703
(lp1704
tp1705
atp1706
sI1074245232
(Vrtc_clk_cpu_freq_to_pll_mhz
p1707
(lp1708
(L3231135830L
L0L
(lp1709
(lp1710
tp1711
a(L2102627717L
L2195759072L
(lp1712
(lp1713
tp1714
a(L2982280123L
L3380333161L
(lp1715
(lp1716
Vesp_rom_set_cpu_ticks_per_us
p1717
aVrtc_clk_wait_for_slow_cycle
p1718
atp1719
a(L708686908L
L1443213481L
(lp1720
(lp1721
tp1722
a(L3284807114L
L0L
(lp1723
(lp1724
tp1725
a(L94425498L
L3785322319L
(lp1726
(lp1727
Vabort
p1728
atp1729
a(L2258897019L
L0L
(lp1730
(lp1731
tp1732
a(L1113742378L
L0L
(lp1733
(lp1734
tp1735
a(L1306330990L
L0L
(lp1736
(lp1737
tp1738
atp1739
sI1074246256
(Vrtc_clk_apb_freq_update
p1740
(lp1741
(L3982322780L
L1443213481L
(lp1742
(lp1743
tp1744
atp1745
sI1074248316
(Vesp_rom_spiflash_write
p1746
(lp1747
(L924384987L
L1679261929L
(lp1748
(lp1749
tp1750
a(L2258688483L
L0L
(lp1751
(lp1752
tp1753
a(L3360570486L
L0L
(lp1754
(lp1755
tp1756
a(L3368132847L
L0L
(lp1757
(lp1758
tp1759
a(L3106685981L
L0L
(lp1760
(lp1761
tp1762
a(L3488660639L
L3785322319L
(lp1763
(lp1764
Vesp_rom_spiflash_program_page_internal
p1765
atp1766
a(L3543402353L
L3785322319L
(lp1767
(lp1768
Vesp_rom_spiflash_program_page_internal
p1769
atp1770
a(L4222526342L
L0L
(lp1771
(lp1772
tp1773
a(L2004208511L
L0L
(lp1774
(lp1775
tp1776
a(L564470656L
L0L
(lp1777
(lp1778
tp1779
a(L441922648L
L3785322319L
(lp1780
(lp1781
Vesp_rom_spiflash_program_page_internal
p1782
atp1783
a(L2302069176L
L0L
(lp1784
(lp1785
tp1786
atp1787
sI1074248568
(Vesp_rom_spiflash_read
p1788
(lp1789
(L1499485309L
L1690040256L
(lp1790
(lp1791
tp1792
a(L3114780042L
L1679261929L
(lp1793
(lp1794
tp1795
a(L2860271684L
L0L
(lp1796
(lp1797
tp1798
a(L1872504408L
L1443213481L
(lp1799
(lp1800
tp1801
a(L106L
L0L
(lp1802
(lp1803
tp1804
a(L633884026L
L0L
(lp1805
(lp1806
tp1807
a(L106L
L0L
(lp1808
(lp1809
tp1810
a(L1100272902L
L1443213481L
(lp1811
(lp1812
tp1813
a(L1372101025L
L1690040256L
(lp1814
(lp1815
tp1816
a(L974197278L
L2195759072L
(lp1817
(lp1818
tp1819
a(L336550648L
L0L
(lp1820
(lp1821
tp1822
a(L3167414617L
L1443213481L
(lp1823
(lp1824
tp1825
a(L106L
L0L
(lp1826
(lp1827
tp1828
a(L3138763340L
L362179215L
(lp1829
(lp1830
Vesp_rom_spiflash_wait_idle
p1831
atp1832
a(L3021737L
L0L
(lp1833
(lp1834
tp1835
a(L106L
L0L
(lp1836
(lp1837
tp1838
a(L1868280504L
L0L
(lp1839
(lp1840
tp1841
a(L106L
L0L
(lp1842
(lp1843
tp1844
a(L750281353L
L0L
(lp1845
(lp1846
tp1847
a(L3897437082L
L0L
(lp1848
(lp1849
tp1850
a(L4122060822L
L0L
(lp1851
(lp1852
tp1853
a(L483218220L
L1443213481L
(lp1854
(lp1855
tp1856
a(L2989032L
L0L
(lp1857
(lp1858
tp1859
a(L3819849625L
L0L
(lp1860
(lp1861
tp1862
a(L1082031446L
L2195759072L
(lp1863
(lp1864
tp1865
a(L1872504408L
L1443213481L
(lp1866
(lp1867
tp1868
a(L147213506L
L1443213481L
(lp1869
(lp1870
tp1871
a(L2062799182L
L2534110409L
(lp1872
(lp1873
tp1874
a(L2921907736L
L0L
(lp1875
(lp1876
tp1877
a(L3677617742L
L1443213481L
(lp1878
(lp1879
tp1880
a(L2483025066L
L1679261929L
(lp1881
(lp1882
tp1883
a(L2136664087L
L1443213481L
(lp1884
(lp1885
tp1886
a(L3000478599L
L2195759072L
(lp1887
(lp1888
tp1889
a(L3333707777L
L0L
(lp1890
(lp1891
tp1892
a(L3251955268L
L0L
(lp1893
(lp1894
tp1895
a(L3418540920L
L0L
(lp1896
(lp1897
tp1898
a(L4183823801L
L1443213481L
(lp1899
(lp1900
tp1901
a(L97689L
L0L
(lp1902
(lp1903
tp1904
a(L2258897019L
L0L
(lp1905
(lp1906
tp1907
a(L4014024819L
L0L
(lp1908
(lp1909
tp1910
a(L3621567083L
L0L
(lp1911
(lp1912
tp1913
atp1914
sI1074238336
(Vbootloader_enable_wp
p1915
(lp1916
(L1117825804L
L3785322319L
(lp1917
(lp1918
Vbootloader_execute_flash_command
p1919
atp1920
atp1921
sI1074235264
(Vbootloader_execute_flash_command
p1922
(lp1923
(L2481595632L
L3785322319L
(lp1924
(lp1925
Vbootloader_flash_execute_command_common
p1926
atp1927
atp1928
sI1074241676
(Vverify_load_addresses
p1929
(lp1930
(L2764487219L
L0L
(lp1931
(lp1932
tp1933
a(L106L
L0L
(lp1934
(lp1935
tp1936
a(L97642L
L0L
(lp1937
(lp1938
tp1939
a(L1682572953L
L4032149094L
(lp1940
(lp1941
V__assert_func
p1942
atp1943
a(L371731316L
L2195759072L
(lp1944
(lp1945
tp1946
a(L106L
L0L
(lp1947
(lp1948
tp1949
a(L3747671351L
L2195759072L
(lp1950
(lp1951
tp1952
a(L106L
L0L
(lp1953
(lp1954
tp1955
a(L159211233L
L4171435875L
(lp1956
(lp1957
Vbootloader_util_regions_overlap
p1958
atp1959
a(L3369736729L
L581251951L
(lp1960
(lp1961
Vbootloader_util_regions_overlap
p1962
atp1963
a(L3028481L
L0L
(lp1964
(lp1965
tp1966
a(L129067213L
L242900614L
(lp1967
(lp1968
Vbootloader_util_regions_overlap
p1969
atp1970
a(L51970127L
L2534110409L
(lp1971
(lp1972
tp1973
a(L3212477138L
L1443213481L
(lp1974
(lp1975
tp1976
a(L1032381749L
L0L
(lp1977
(lp1978
tp1979
a(L2837304413L
L0L
(lp1980
(lp1981
tp1982
a(L677569396L
L3785322319L
(lp1983
(lp1984
Vverify_load_addresses
p1985
atp1986
a(L1351513776L
L0L
(lp1987
(lp1988
tp1989
a(L956755582L
L0L
(lp1990
(lp1991
tp1992
a(L1550159667L
L1443213481L
(lp1993
(lp1994
tp1995
a(L2297907636L
L2195759072L
(lp1996
(lp1997
tp1998
a(L106L
L0L
(lp1999
(lp2000
tp2001
a(L1378880375L
L2195759072L
(lp2002
(lp2003
tp2004
a(L106L
L0L
(lp2005
(lp2006
tp2007
a(L1933245593L
L581251951L
(lp2008
(lp2009
Vbootloader_util_regions_overlap
p2010
atp2011
a(L3028481L
L0L
(lp2012
(lp2013
tp2014
a(L2219806806L
L581251951L
(lp2015
(lp2016
Vbootloader_util_regions_overlap
p2017
atp2018
a(L3186102034L
L1690040256L
(lp2019
(lp2020
tp2021
a(L1284972329L
L1443213481L
(lp2022
(lp2023
tp2024
a(L3236457224L
L1443213481L
(lp2025
(lp2026
tp2027
a(L2743341656L
L0L
(lp2028
(lp2029
tp2030
a(L182882711L
L0L
(lp2031
(lp2032
tp2033
a(L2268367078L
L2195759072L
(lp2034
(lp2035
tp2036
a(L297163306L
L0L
(lp2037
(lp2038
tp2039
a(L1900059593L
L0L
(lp2040
(lp2041
tp2042
a(L376010266L
L2534110409L
(lp2043
(lp2044
tp2045
a(L1319531632L
L1443213481L
(lp2046
(lp2047
tp2048
a(L3929371936L
L0L
(lp2049
(lp2050
tp2051
a(L147213506L
L1443213481L
(lp2052
(lp2053
tp2054
a(L4072848040L
L0L
(lp2055
(lp2056
tp2057
a(L106L
L0L
(lp2058
(lp2059
tp2060
a(L268651496L
L1443213481L
(lp2061
(lp2062
tp2063
a(L147213506L
L1443213481L
(lp2064
(lp2065
tp2066
a(L3020204L
L0L
(lp2067
(lp2068
tp2069
a(L885671544L
L2275292552L
(lp2070
(lp2071
Vesp_log_early_timestamp
p2072
atp2073
a(L1303560396L
L0L
(lp2074
(lp2075
tp2076
a(L268651496L
L1443213481L
(lp2077
(lp2078
tp2079
a(L1303560427L
L0L
(lp2080
(lp2081
tp2082
atp2083
sI1074246284
(Vrtc_clk_cpu_freq_to_xtal
p2084
(lp2085
(L767415990L
L3785322319L
(lp2086
(lp2087
Vesp_rom_set_cpu_ticks_per_us
p2088
atp2089
a(L94425498L
L3785322319L
(lp2090
(lp2091
Vabort
p2092
atp2093
a(L749912951L
L671729222L
(lp2094
(lp2095
Vrtc_clk_apb_freq_update
p2096
atp2097
a(L2258867230L
L0L
(lp2098
(lp2099
tp2100
a(L1803595874L
L2195759072L
(lp2101
(lp2102
tp2103
atp2104
sI1074245512
(Vrtc_clk_8m_enable
p2105
(lp2106
(L2359152383L
L2195759072L
(lp2107
(lp2108
tp2109
a(L2145669267L
L1443213481L
(lp2110
(lp2111
tp2112
a(L2151320156L
L0L
(lp2113
(lp2114
tp2115
a(L1262936142L
L1443213481L
(lp2116
(lp2117
tp2118
a(L3360570486L
L0L
(lp2119
(lp2120
tp2121
a(L1318267208L
L0L
(lp2122
(lp2123
tp2124
a(L1085208965L
L1443213481L
(lp2125
(lp2126
tp2127
atp2128
sI1074234760
(Vesp_flash_encryption_enabled
p2129
(lp2130
(L376617603L
L3785322319L
(lp2131
(lp2132
Vefuse_hal_flash_encryption_enabled
p2133
atp2134
atp2135
sI1074234772
(Vbootloader_flash_execute_command_common
p2136
(lp2137
(L1988465817L
L0L
(lp2138
(lp2139
tp2140
a(L2946944720L
L2195759072L
(lp2141
(lp2142
tp2143
a(L2213948952L
L242900614L
(lp2144
(lp2145
V__assert_func
p2146
atp2147
a(L3021749L
L0L
(lp2148
(lp2149
tp2150
a(L1160973241L
L2195759072L
(lp2151
(lp2152
tp2153
a(L2792673601L
L1679261929L
(lp2154
(lp2155
tp2156
a(L3792188146L
L0L
(lp2157
(lp2158
tp2159
a(L4024113366L
L0L
(lp2160
(lp2161
tp2162
a(L3275299125L
L1443213481L
(lp2163
(lp2164
tp2165
a(L2232084959L
L2534110409L
(lp2166
(lp2167
tp2168
a(L1099389923L
L0L
(lp2169
(lp2170
tp2171
a(L857553440L
L2195759072L
(lp2172
(lp2173
tp2174
a(L3877681344L
L0L
(lp2175
(lp2176
tp2177
a(L73134175L
L1443213481L
(lp2178
(lp2179
tp2180
a(L1270255739L
L0L
(lp2181
(lp2182
tp2183
a(L3691039583L
L0L
(lp2184
(lp2185
tp2186
a(L3411317116L
L0L
(lp2187
(lp2188
tp2189
a(L3360570486L
L0L
(lp2190
(lp2191
tp2192
atp2193
sI1074236820
(Vefuse_hal_get_major_chip_version
p2194
(lp2195
(L1572156932L
L2195759072L
(lp2196
(lp2197
tp2198
a(L894792960L
L0L
(lp2199
(lp2200
tp2201
a(L724635033L
L0L
(lp2202
(lp2203
tp2204
a(L3360570486L
L0L
(lp2205
(lp2206
tp2207
atp2208
sI1074238356
(Vbootloader_flash_get_spi_mode
p2209
(lp2210
(L1418320346L
L1443213481L
(lp2211
(lp2212
tp2213
a(L2046153171L
L0L
(lp2214
(lp2215
tp2216
a(L893866618L
L0L
(lp2217
(lp2218
tp2219
a(L894790139L
L0L
(lp2220
(lp2221
tp2222
a(L822032846L
L0L
(lp2223
(lp2224
tp2225
a(L3360570486L
L0L
(lp2226
(lp2227
tp2228
atp2229
sI1074245012
(Vmmu_hal_unmap_all
p2230
(lp2231
(L3970138582L
L1443213481L
(lp2232
(lp2233
tp2234
a(L2010554219L
L0L
(lp2235
(lp2236
tp2237
a(L147213506L
L1443213481L
(lp2238
(lp2239
tp2240
a(L3212334523L
L0L
(lp2241
(lp2242
tp2243
a(L2010554219L
L0L
(lp2244
(lp2245
tp2246
a(L3360570486L
L0L
(lp2247
(lp2248
tp2249
atp2250
sI1074270108
(Vrtc_clk_xtal_freq_estimate
p2251
(lp2252
(L1823831978L
L1880226080L
(lp2253
(lp2254
Vrtc_clk_8m_enabled
p2255
aVrtc_clk_8md256_enabled
p2256
atp2257
a(L2449794434L
L3785322319L
(lp2258
(lp2259
Vrtc_clk_8m_enable
p2260
atp2261
a(L3726876033L
L2704288053L
(lp2262
(lp2263
Vrtc_clk_cal_ratio
p2264
aV__udivdi3
p2265
atp2266
a(L3934977694L
L0L
(lp2267
(lp2268
tp2269
a(L3955289886L
L0L
(lp2270
(lp2271
tp2272
a(L2553207239L
L3187408090L
(lp2273
(lp2274
Vesp_log_early_timestamp
p2275
atp2276
a(L2307427870L
L0L
(lp2277
(lp2278
tp2279
a(L1281346514L
L3785322319L
(lp2280
(lp2281
Vrtc_clk_8m_enable
p2282
atp2283
a(L3909119106L
L0L
(lp2284
(lp2285
tp2286
a(L2298857999L
L3187408090L
(lp2287
(lp2288
Vesp_log_early_timestamp
p2289
atp2290
a(L3304487880L
L0L
(lp2291
(lp2292
tp2293
a(L1641150486L
L0L
(lp2294
(lp2295
tp2296
a(L2026357443L
L3187408090L
(lp2297
(lp2298
Vesp_log_early_timestamp
p2299
atp2300
atp2301
sI1074244496
(Vwdt_hal_config_stage
p2302
(lp2303
(L331558507L
L0L
(lp2304
(lp2305
tp2306
a(L4279082939L
L0L
(lp2307
(lp2308
tp2309
a(L93674324L
L0L
(lp2310
(lp2311
tp2312
a(L2902417580L
L0L
(lp2313
(lp2314
tp2315
a(L1506709436L
L1443213481L
(lp2316
(lp2317
tp2318
a(L3020187L
L0L
(lp2319
(lp2320
tp2321
a(L94425498L
L3785322319L
(lp2322
(lp2323
Vabort
p2324
atp2325
a(L1999536000L
L1443213481L
(lp2326
(lp2327
tp2328
a(L3360570486L
L0L
(lp2329
(lp2330
tp2331
a(L2402105077L
L1443213481L
(lp2332
(lp2333
tp2334
a(L3297501927L
L1443213481L
(lp2335
(lp2336
tp2337
a(L4278159418L
L0L
(lp2338
(lp2339
tp2340
a(L93674324L
L0L
(lp2341
(lp2342
tp2343
a(L3020204L
L0L
(lp2344
(lp2345
tp2346
a(L2956541743L
L1443213481L
(lp2347
(lp2348
tp2349
a(L3020187L
L0L
(lp2350
(lp2351
tp2352
a(L106L
L0L
(lp2353
(lp2354
tp2355
a(L1473987957L
L1443213481L
(lp2356
(lp2357
tp2358
a(L927955509L
L1443213481L
(lp2359
(lp2360
tp2361
a(L3740367810L
L1443213481L
(lp2362
(lp2363
tp2364
atp2365
sI1074241168
(Vbootloader_console_deinit
p2366
(lp2367
(L1858531217L
L1443213481L
(lp2368
(lp2369
tp2370
atp2371
sI1074239120
(Vcache_ll_l1_enable_bus
p2372
(lp2373
(L318252209L
L1443213481L
(lp2374
(lp2375
tp2376
atp2377
sI1074237072
(Vupdate_rtc_retain_mem_crc
p2378
(lp2379
(L1614145834L
L2195759072L
(lp2380
(lp2381
tp2382
atp2383
sI1074241432
(Vprocess_image_header
p2384
(lp2385
(L3301900732L
L2218577417L
(lp2386
(lp2387
Vmemset
p2388
aVbootloader_flash_read
p2389
atp2390
a(L3020204L
L0L
(lp2391
(lp2392
tp2393
a(L4205021202L
L0L
(lp2394
(lp2395
tp2396
a(L321261932L
L0L
(lp2397
(lp2398
tp2399
a(L1161397362L
L3785322319L
(lp2400
(lp2401
Vbootloader_sha256_start
p2402
atp2403
a(L2062774299L
L3785322319L
(lp2404
(lp2405
Vbootloader_sha256_data
p2406
atp2407
a(L1291118193L
L0L
(lp2408
(lp2409
tp2410
a(L3028481L
L0L
(lp2411
(lp2412
tp2413
a(L559062533L
L3187408090L
(lp2414
(lp2415
Vesp_log_early_timestamp
p2416
atp2417
a(L147213506L
L1443213481L
(lp2418
(lp2419
tp2420
a(L2983970029L
L0L
(lp2421
(lp2422
tp2423
a(L4235213884L
L3785322319L
(lp2424
(lp2425
Vbootloader_common_check_chip_validity
p2426
atp2427
a(L4144303915L
L0L
(lp2428
(lp2429
tp2430
a(L3028481L
L0L
(lp2431
(lp2432
tp2433
a(L3714328738L
L3187408090L
(lp2434
(lp2435
Vesp_log_early_timestamp
p2436
atp2437
a(L2852701393L
L0L
(lp2438
(lp2439
tp2440
a(L2122516551L
L0L
(lp2441
(lp2442
tp2443
a(L3064492592L
L0L
(lp2444
(lp2445
tp2446
atp2447
sI1074247588
(Vrtc_clk_cal_ratio
p2448
(lp2449
(L3870710856L
L195123093L
(lp2450
(lp2451
Vrtc_clk_cal_internal
p2452
aV__udivdi3
p2453
atp2454
atp2455
sI1074241184
(V__assert_func
p2456
(lp2457
(L3115292802L
L2195759072L
(lp2458
(lp2459
tp2460
a(L106L
L0L
(lp2461
(lp2462
tp2463
atp2464
sI1074235296
(Vbootloader_flash_unlock
p2465
(lp2466
(L1368360454L
L242900614L
(lp2467
(lp2468
Vesp_rom_spiflash_wait_idle
p2469
atp2470
a(L1574074940L
L0L
(lp2471
(lp2472
tp2473
a(L1667462067L
L3785322319L
(lp2474
(lp2475
Vbootloader_execute_flash_command
p2476
atp2477
a(L106L
L0L
(lp2478
(lp2479
tp2480
a(L1013678540L
L0L
(lp2481
(lp2482
tp2483
a(L2529045083L
L0L
(lp2484
(lp2485
tp2486
a(L990750093L
L1832448559L
(lp2487
(lp2488
Vesp_rom_spiflash_wait_idle
p2489
aVbootloader_execute_flash_command
p2490
aVbootloader_execute_flash_command
p2491
atp2492
a(L993671302L
L1832448559L
(lp2493
(lp2494
Vesp_rom_spiflash_wait_idle
p2495
aVbootloader_execute_flash_command
p2496
aVbootloader_execute_flash_command
p2497
atp2498
a(L1209048744L
L1880226080L
(lp2499
(lp2500
Vesp_rom_spiflash_wait_idle
p2501
aVbootloader_execute_flash_command
p2502
atp2503
a(L3162775668L
L0L
(lp2504
(lp2505
tp2506
a(L2435612105L
L0L
(lp2507
(lp2508
tp2509
a(L3664359624L
L0L
(lp2510
(lp2511
tp2512
a(L2074930120L
L1880226080L
(lp2513
(lp2514
Vbootloader_execute_flash_command
p2515
aVbootloader_execute_flash_command
p2516
atp2517
a(L2125014318L
L0L
(lp2518
(lp2519
tp2520
a(L568821667L
L0L
(lp2521
(lp2522
tp2523
a(L1711531685L
L1880226080L
(lp2524
(lp2525
Vbootloader_execute_flash_command
p2526
aVbootloader_execute_flash_command
p2527
atp2528
a(L3658700047L
L0L
(lp2529
(lp2530
tp2531
a(L3269997774L
L0L
(lp2532
(lp2533
tp2534
a(L106L
L0L
(lp2535
(lp2536
tp2537
a(L2993202392L
L0L
(lp2538
(lp2539
tp2540
atp2541
sI1074236576
(Vesp_rom_set_cpu_ticks_per_us
p2542
(lp2543
(L396058732L
L2195759072L
(lp2544
(lp2545
tp2546
atp2547
sI1074268064
(Vbootloader_init
p2548
(lp2549
(L2778985116L
L362179215L
(lp2550
(lp2551
Vbootloader_init_mem
p2552
atp2553
a(L2588916198L
L2195759072L
(lp2554
(lp2555
tp2556
a(L2569579240L
L242900614L
(lp2557
(lp2558
V__assert_func
p2559
atp2560
a(L2041988382L
L2534110409L
(lp2561
(lp2562
tp2563
a(L2946990947L
L2195759072L
(lp2564
(lp2565
tp2566
a(L3813782018L
L0L
(lp2567
(lp2568
tp2569
a(L2946991009L
L2195759072L
(lp2570
(lp2571
tp2572
a(L3027019L
L0L
(lp2573
(lp2574
tp2575
a(L2946991040L
L2195759072L
(lp2576
(lp2577
tp2578
a(L4055793689L
L1832448559L
(lp2579
(lp2580
Vbootloader_clear_bss_section
p2581
aVbootloader_common_vddsdio_configure
p2582
aVbootloader_clock_get_rated_freq_mhz
p2583
atp2584
a(L106L
L0L
(lp2585
(lp2586
tp2587
a(L1943573098L
L2769615034L
(lp2588
(lp2589
Vbootloader_clock_configure
p2590
aVbootloader_console_init
p2591
aVbootloader_print_banner
p2592
aVbootloader_flash_update_id
p2593
aVbootloader_flash_xmc_startup
p2594
atp2595
a(L3014296803L
L3187408090L
(lp2596
(lp2597
Vesp_log_early_timestamp
p2598
atp2599
a(L4245842452L
L3187408090L
(lp2600
(lp2601
Vesp_log_early_timestamp
p2602
atp2603
a(L3360570486L
L0L
(lp2604
(lp2605
tp2606
a(L2444883382L
L3785322319L
(lp2607
(lp2608
Vbootloader_read_bootloader_header
p2609
atp2610
a(L2444883382L
L3785322319L
(lp2611
(lp2612
Vbootloader_check_bootloader_validity
p2613
atp2614
a(L2444883382L
L3785322319L
(lp2615
(lp2616
Vbootloader_init_spi_flash
p2617
atp2618
a(L1947007263L
L2195759072L
(lp2619
(lp2620
tp2621
a(L254817508L
L0L
(lp2622
(lp2623
tp2624
a(L93892250L
L0L
(lp2625
(lp2626
tp2627
a(L2915015718L
L0L
(lp2628
(lp2629
tp2630
a(L1460895057L
L2218577417L
(lp2631
(lp2632
Vbootloader_config_wdt
p2633
aVbootloader_enable_random
p2634
atp2635
a(L1895147938L
L0L
(lp2636
(lp2637
tp2638
a(L2680457259L
L0L
(lp2639
(lp2640
tp2641
a(L3027019L
L0L
(lp2642
(lp2643
tp2644
a(L97315L
L0L
(lp2645
(lp2646
tp2647
a(L3014296803L
L3187408090L
(lp2648
(lp2649
Vesp_log_early_timestamp
p2650
atp2651
a(L1766563386L
L3187408090L
(lp2652
(lp2653
Vesp_log_early_timestamp
p2654
atp2655
a(L3164960223L
L0L
(lp2656
(lp2657
tp2658
a(L1895147938L
L0L
(lp2659
(lp2660
tp2661
a(L156585483L
L1880226080L
(lp2662
(lp2663
Vwdt_reset_info_dump
p2664
aVwdt_reset_info_dump
p2665
atp2666
atp2667
sI1074268576
(Vbootloader_common_vddsdio_configure
p2668
(lp2669
(L1829974089L
L3785322319L
(lp2670
(lp2671
Vrtc_vddsdio_get_config
p2672
atp2673
a(L351649043L
L3833084538L
(lp2674
(lp2675
Vrtc_vddsdio_set_config
p2676
atp2677
a(L3360570486L
L0L
(lp2678
(lp2679
tp2680
atp2681
sI1074270880
(Vrtc_vddsdio_set_config
p2682
(lp2683
(L3557742407L
L1443213481L
(lp2684
(lp2685
tp2686
atp2687
sI1074237868
(Vbootloader_munmap
p2688
(lp2689
(L4096859803L
L2195759072L
(lp2690
(lp2691
tp2692
a(L4150885370L
L2624587680L
(lp2693
(lp2694
tp2695
a(L3360570486L
L0L
(lp2696
(lp2697
tp2698
atp2699
sI1074245804
(Vrtc_clk_slow_src_get
p2700
(lp2701
(L1566794270L
L1443213481L
(lp2702
(lp2703
tp2704
a(L3020187L
L0L
(lp2705
(lp2706
tp2707
a(L2902417580L
L0L
(lp2708
(lp2709
tp2710
a(L2258688485L
L0L
(lp2711
(lp2712
tp2713
a(L3360570486L
L0L
(lp2714
(lp2715
tp2716
atp2717
sI1074237096
(Vbootloader_common_ota_select_crc
p2718
(lp2719
(L2925798959L
L1443213481L
(lp2720
(lp2721
tp2722
atp2723
sI1074247080
(Vrtc_clk_apb_freq_get
p2724
(lp2725
(L189810653L
L1679261929L
(lp2726
(lp2727
tp2728
atp2729
sI1074236592
(Vesp_rom_uart_tx_wait_idle
p2730
(lp2731
(L3110839460L
L2534110409L
(lp2732
(lp2733
tp2734
a(L1301079727L
L0L
(lp2735
(lp2736
tp2737
a(L597952197L
L0L
(lp2738
(lp2739
tp2740
a(L1971823332L
L0L
(lp2741
(lp2742
tp2743
a(L3055926844L
L0L
(lp2744
(lp2745
tp2746
a(L3360570486L
L0L
(lp2747
(lp2748
tp2749
a(L3694491048L
L0L
(lp2750
(lp2751
tp2752
a(L106L
L0L
(lp2753
(lp2754
tp2755
atp2756
sI1074269360
(Vbootloader_flash_update_id
p2757
(lp2758
(L296988142L
L3833084538L
(lp2759
(lp2760
Vbootloader_read_flash_id
p2761
atp2762
atp2763
sI1074242236
(Vshould_load
p2764
(lp2765
(L4190720747L
L2534110409L
(lp2766
(lp2767
tp2768
a(L1182990556L
L0L
(lp2769
(lp2770
tp2771
a(L1744532171L
L1443213481L
(lp2772
(lp2773
tp2774
a(L2306467100L
L0L
(lp2775
(lp2776
tp2777
a(L4034276159L
L1443213481L
(lp2778
(lp2779
tp2780
a(L2258897019L
L0L
(lp2781
(lp2782
tp2783
a(L3781799363L
L0L
(lp2784
(lp2785
tp2786
a(L3028464L
L0L
(lp2787
(lp2788
tp2789
a(L166133047L
L2195759072L
(lp2790
(lp2791
tp2792
a(L4277114872L
L0L
(lp2793
(lp2794
tp2795
a(L2824381917L
L0L
(lp2796
(lp2797
tp2798
a(L1243412227L
L0L
(lp2799
(lp2800
tp2801
a(L2011157548L
L0L
(lp2802
(lp2803
tp2804
a(L3126521138L
L0L
(lp2805
(lp2806
tp2807
a(L1305407438L
L0L
(lp2808
(lp2809
tp2810
a(L1305407469L
L0L
(lp2811
(lp2812
tp2813
atp2814
sI1074237628
(Vspi_to_esp_err
p2815
(lp2816
(L2749733621L
L1443213481L
(lp2817
(lp2818
tp2819
a(L1872507229L
L1443213481L
(lp2820
(lp2821
tp2822
a(L3952441574L
L0L
(lp2823
(lp2824
tp2825
a(L3126521138L
L0L
(lp2826
(lp2827
tp2828
atp2829
sI1074237116
(Vbootloader_common_ota_select_valid
p2830
(lp2831
(L1563399710L
L3785322319L
(lp2832
(lp2833
Vbootloader_common_ota_select_invalid
p2834
atp2835
a(L3814720849L
L3785322319L
(lp2836
(lp2837
Vbootloader_common_ota_select_crc
p2838
atp2839
a(L3360570486L
L0L
(lp2840
(lp2841
tp2842
atp2843
sI1074241208
(Vabort
p2844
(lp2845
(L2564459292L
L1690040256L
(lp2846
(lp2847
tp2848
a(L409471316L
L0L
(lp2849
(lp2850
tp2851
a(L106L
L0L
(lp2852
(lp2853
tp2854
atp2855
sI1074238904
(Vcache_ll_l1_get_bus
p2856
(lp2857
(L2749735183L
L1443213481L
(lp2858
(lp2859
tp2860
a(L94425498L
L3785322319L
(lp2861
(lp2862
Vabort
p2863
atp2864
a(L1872514061L
L1443213481L
(lp2865
(lp2866
tp2867
a(L3824526338L
L1443213481L
(lp2868
(lp2869
tp2870
a(L892952750L
L0L
(lp2871
(lp2872
tp2873
a(L1182811810L
L0L
(lp2874
(lp2875
tp2876
a(L1101742417L
L0L
(lp2877
(lp2878
tp2879
a(L1100767927L
L0L
(lp2880
(lp2881
tp2882
a(L3360570486L
L0L
(lp2883
(lp2884
tp2885
a(L1872508791L
L1443213481L
(lp2886
(lp2887
tp2888
a(L2882938163L
L0L
(lp2889
(lp2890
tp2891
a(L2927201858L
L0L
(lp2892
(lp2893
tp2894
a(L2258718273L
L0L
(lp2895
(lp2896
tp2897
a(L2580713941L
L0L
(lp2898
(lp2899
tp2900
a(L1872508791L
L1443213481L
(lp2901
(lp2902
tp2903
a(L1872514061L
L1443213481L
(lp2904
(lp2905
tp2906
a(L1641149277L
L0L
(lp2907
(lp2908
tp2909
a(L1872508791L
L1443213481L
(lp2910
(lp2911
tp2912
a(L3027019L
L0L
(lp2913
(lp2914
tp2915
a(L1299866560L
L0L
(lp2916
(lp2917
tp2918
a(L1299866436L
L0L
(lp2919
(lp2920
tp2921
atp2922
sI1074246072
(Vrtc_clk_cpu_freq_get_config
p2923
(lp2924
(L4245581454L
L1443213481L
(lp2925
(lp2926
tp2927
a(L3020187L
L0L
(lp2928
(lp2929
tp2930
a(L3020187L
L0L
(lp2931
(lp2932
tp2933
a(L2734221335L
L242900614L
(lp2934
(lp2935
Vrtc_clk_xtal_freq_get
p2936
atp2937
a(L3789795478L
L0L
(lp2938
(lp2939
tp2940
a(L672805395L
L2704288053L
(lp2941
(lp2942
Vesp_log_early_timestamp
p2943
aVabort
p2944
atp2945
a(L3849169076L
L1443213481L
(lp2946
(lp2947
tp2948
a(L3020187L
L0L
(lp2949
(lp2950
tp2951
a(L3028481L
L0L
(lp2952
(lp2953
tp2954
a(L38508693L
L0L
(lp2955
(lp2956
tp2957
a(L187152368L
L0L
(lp2958
(lp2959
tp2960
a(L1161083655L
L0L
(lp2961
(lp2962
tp2963
a(L1395485899L
L0L
(lp2964
(lp2965
tp2966
a(L2070600034L
L0L
(lp2967
(lp2968
tp2969
atp2970
sI1074268872
(Vbootloader_random_enable
p2971
(lp2972
(L2397175084L
L664430240L
(lp2973
(lp2974
tp2975
atp2976
sI1074239172
(Vload_image
p2977
(lp2978
(L3963348381L
L473788538L
(lp2979
(lp2980
Vesp_log_early_timestamp
p2981
aVbootloader_random_disable
p2982
aVbootloader_ana_clock_glitch_reset_config
p2983
atp2984
a(L2261049225L
L0L
(lp2985
(lp2986
tp2987
a(L106L
L0L
(lp2988
(lp2989
tp2990
a(L4185838750L
L1624138773L
(lp2991
(lp2992
Vmmu_hal_unmap_all
p2993
aVcache_ll_l1_get_bus
p2994
aVcache_ll_l1_enable_bus
p2995
aVcache_ll_l1_get_bus
p2996
aVcache_ll_l1_enable_bus
p2997
aVcache_ll_l1_get_bus
p2998
aVcache_ll_l1_enable_bus
p2999
aVcache_ll_l1_get_bus
p3000
aVcache_ll_l1_enable_bus
p3001
aVbootloader_console_deinit
p3002
atp3003
a(L2843581588L
L1443213481L
(lp3004
(lp3005
tp3006
a(L2902417580L
L0L
(lp3007
(lp3008
tp3009
a(L3421811081L
L362179215L
(lp3010
(lp3011
Vesp_log_early_timestamp
p3012
atp3013
a(L2552261596L
L0L
(lp3014
(lp3015
tp3016
a(L670464924L
L2195759072L
(lp3017
(lp3018
tp3019
a(L3020204L
L0L
(lp3020
(lp3021
tp3022
a(L3421811081L
L362179215L
(lp3023
(lp3024
Vesp_log_early_timestamp
p3025
atp3026
a(L3291469664L
L0L
(lp3027
(lp3028
tp3029
a(L2591655545L
L0L
(lp3030
(lp3031
tp3032
atp3033
sI1074238404
(Vbootloader_mmap_get_free_pages
p3034
(lp3035
(L1496516875L
L0L
(lp3036
(lp3037
tp3038
atp3039
sI1074245060
(Vefuse_hal_get_rated_freq_mhz
p3040
(lp3041
(L1158870592L
L1443213481L
(lp3042
(lp3043
tp3044
a(L338960367L
L0L
(lp3045
(lp3046
tp3047
a(L3360570486L
L0L
(lp3048
(lp3049
tp3050
atp3051
sI1074247620
(Vrtc_clk_wait_for_slow_cycle
p3052
(lp3053
(L2844697221L
L2624587680L
(lp3054
(lp3055
tp3056
a(L287687718L
L0L
(lp3057
(lp3058
tp3059
a(L3360570486L
L0L
(lp3060
(lp3061
tp3062
a(L3843203427L
L1443213481L
(lp3063
(lp3064
tp3065
a(L1300789833L
L0L
(lp3066
(lp3067
tp3068
a(L1259765481L
L0L
(lp3069
(lp3070
tp3071
a(L17340776L
L1443213481L
(lp3072
(lp3073
tp3074
a(L329680227L
L3187408090L
(lp3075
(lp3076
Vesp_log_early_timestamp
p3077
atp3078
atp3079
sI1074267840
(Vwdt_reset_info_dump
p3080
(lp3081
(L4037458708L
L0L
(lp3082
(lp3083
tp3084
a(L2865144428L
L4200222560L
(lp3085
(lp3086
tp3087
a(L217258670L
L0L
(lp3088
(lp3089
tp3090
a(L1103285333L
L0L
(lp3091
(lp3092
tp3093
a(L3750088731L
L2147981551L
(lp3094
(lp3095
Vesp_log_early_timestamp
p3096
atp3097
a(L3245125974L
L1443213481L
(lp3098
(lp3099
tp3100
a(L2920131454L
L4200222560L
(lp3101
(lp3102
tp3103
a(L3355528239L
L2147981551L
(lp3104
(lp3105
Vesp_log_early_timestamp
p3106
atp3107
atp3108
sI1074268864
(Vbootloader_init_mem
p3109
(lp3110
(L1287383080L
L3785322319L
(lp3111
(lp3112
Vesp_cpu_configure_region_protection
p3113
atp3114
atp3115
sI1074269376
(Vbootloader_init_spi_flash
p3116
(lp3117
(L1876290435L
L1994585993L
(lp3118
(lp3119
Vbootloader_flash_gpio_config
p3120
aVbootloader_flash_dummy_config
p3121
aVbootloader_flash_cs_timing_config
p3122
aVbootloader_flash_unlock
p3123
atp3124
a(L499308289L
L1443213481L
(lp3125
(lp3126
tp3127
a(L1872507246L
L1443213481L
(lp3128
(lp3129
tp3130
a(L147213506L
L1443213481L
(lp3131
(lp3132
tp3133
a(L83726857L
L2426646996L
(lp3134
(lp3135
Vesp_log_early_timestamp
p3136
aVbootloader_flash_get_spi_mode
p3137
atp3138
a(L93674324L
L0L
(lp3139
(lp3140
tp3141
a(L4183135214L
L1443213481L
(lp3142
(lp3143
tp3144
a(L147213506L
L1443213481L
(lp3145
(lp3146
tp3147
a(L3875746660L
L362179215L
(lp3148
(lp3149
Vesp_log_early_timestamp
p3150
atp3151
a(L93674324L
L0L
(lp3152
(lp3153
tp3154
a(L4183135214L
L1443213481L
(lp3155
(lp3156
tp3157
a(L1872507229L
L1443213481L
(lp3158
(lp3159
tp3160
a(L268651496L
L1443213481L
(lp3161
(lp3162
tp3163
a(L1872507229L
L1443213481L
(lp3164
(lp3165
tp3166
a(L1872507229L
L1443213481L
(lp3167
(lp3168
tp3169
a(L268651496L
L1443213481L
(lp3170
(lp3171
tp3172
a(L1872515506L
L1443213481L
(lp3173
(lp3174
tp3175
a(L1005860105L
L3187408090L
(lp3176
(lp3177
Vesp_log_early_timestamp
p3178
atp3179
a(L93674324L
L0L
(lp3180
(lp3181
tp3182
a(L3422553167L
L0L
(lp3183
(lp3184
tp3185
a(L1707909459L
L0L
(lp3186
(lp3187
tp3188
a(L4101522284L
L0L
(lp3189
(lp3190
tp3191
a(L3944678822L
L2082837423L
(lp3192
(lp3193
Vbootloader_enable_wp
p3194
atp3195
a(L3907331784L
L0L
(lp3196
(lp3197
tp3198
atp3199
sI1074244812
(Vwdt_hal_write_protect_disable
p3200
(lp3201
(L3085072089L
L1443213481L
(lp3202
(lp3203
tp3204
a(L4195472003L
L0L
(lp3205
(lp3206
tp3207
a(L3360570486L
L0L
(lp3208
(lp3209
tp3210
a(L1210571996L
L0L
(lp3211
(lp3212
tp3213
atp3214
sI1074240972
(Vbootloader_sha256_finish
p3215
(lp3216
(L4066096136L
L0L
(lp3217
(lp3218
tp3219
a(L1697654722L
L2195759072L
(lp3220
(lp3221
tp3222
a(L2213948952L
L242900614L
(lp3223
(lp3224
V__assert_func
p3225
atp3226
a(L3020204L
L0L
(lp3227
(lp3228
tp3229
a(L2888288470L
L2534110409L
(lp3230
(lp3231
tp3232
a(L2534656226L
L0L
(lp3233
(lp3234
tp3235
a(L2740629735L
L4171435875L
(lp3236
(lp3237
Vbootloader_sha256_data
p3238
atp3239
a(L2946948570L
L2195759072L
(lp3240
(lp3241
tp3242
a(L354914383L
L2790500905L
(lp3243
(lp3244
V__bswapsi2
p3245
aVbootloader_sha256_data
p3246
atp3247
a(L2946948756L
L2195759072L
(lp3248
(lp3249
tp3250
a(L657425439L
L0L
(lp3251
(lp3252
tp3253
a(L4173600236L
L1443213481L
(lp3254
(lp3255
tp3256
a(L657425439L
L0L
(lp3257
(lp3258
tp3259
a(L2046284480L
L2195759072L
(lp3260
(lp3261
tp3262
a(L3616504601L
L4171435875L
(lp3263
(lp3264
V__bswapsi2
p3265
atp3266
a(L3347778L
L0L
(lp3267
(lp3268
tp3269
a(L3360570486L
L0L
(lp3270
(lp3271
tp3272
atp3273
sI1074238412
(Vbootloader_fill_random
p3274
(lp3275
(L3377511333L
L2195759072L
(lp3276
(lp3277
tp3278
a(L4033043682L
L4032149094L
(lp3279
(lp3280
V__assert_func
p3281
atp3282
a(L1882547218L
L0L
(lp3283
(lp3284
tp3285
a(L2910371777L
L0L
(lp3286
(lp3287
tp3288
a(L95634693L
L0L
(lp3289
(lp3290
tp3291
a(L3630908706L
L0L
(lp3292
(lp3293
tp3294
a(L160162640L
L0L
(lp3295
(lp3296
tp3297
a(L97689L
L0L
(lp3298
(lp3299
tp3300
a(L3360570486L
L0L
(lp3301
(lp3302
tp3303
atp3304
sI1074235596
(Vbootloader_flash_read_sfdp
p3305
(lp3306
(L711701400L
L0L
(lp3307
(lp3308
tp3309
a(L17919673L
L4032149094L
(lp3310
(lp3311
V__assert_func
p3312
atp3313
a(L3704332455L
L3785322319L
(lp3314
(lp3315
Vbootloader_flash_execute_command_common
p3316
atp3317
atp3318
sI1074247884
(Vesp_rom_spiflash_wait_idle
p3319
(lp3320
(L1698121947L
L1443213481L
(lp3321
(lp3322
tp3323
a(L2023766174L
L0L
(lp3324
(lp3325
tp3326
a(L147213506L
L1443213481L
(lp3327
(lp3328
tp3329
a(L3086959262L
L0L
(lp3330
(lp3331
tp3332
a(L4161019926L
L3785322319L
(lp3333
(lp3334
Vesp_rom_spiflash_read_status
p3335
atp3336
atp3337
sI1074235848
(Vbootloader_flash_cs_timing_config
p3338
(lp3339
(L1222249594L
L1690040256L
(lp3340
(lp3341
tp3342
atp3343
sI1074245832
(Vrtc_clk_slow_freq_get_hz
p3344
(lp3345
(L1826267122L
L3785322319L
(lp3346
(lp3347
Vrtc_clk_slow_src_get
p3348
atp3349
a(L1872507229L
L1443213481L
(lp3350
(lp3351
tp3352
a(L2221201615L
L1443213481L
(lp3353
(lp3354
tp3355
a(L3360570486L
L0L
(lp3356
(lp3357
tp3358
atp3359
sI1074268632
(Vbootloader_clock_configure
p3360
(lp3361
(L2559598596L
L1880226080L
(lp3362
(lp3363
Vesp_rom_uart_tx_wait_idle
p3364
aVefuse_hal_chip_revision
p3365
atp3366
a(L1757625900L
L1443213481L
(lp3367
(lp3368
tp3369
a(L741498227L
L1443213481L
(lp3370
(lp3371
tp3372
a(L106L
L0L
(lp3373
(lp3374
tp3375
a(L4228321918L
L1405109379L
(lp3376
(lp3377
Vrtc_clk_slow_src_get
p3378
aVrtc_clk_fast_src_get
p3379
aVrtc_clk_init
p3380
atp3381
a(L2538867838L
L2195759072L
(lp3382
(lp3383
tp3384
a(L1038013235L
L3833084538L
(lp3385
(lp3386
Vrtc_clk_apb_freq_get
p3387
atp3388
a(L106L
L0L
(lp3389
(lp3390
tp3391
a(L106L
L0L
(lp3392
(lp3393
tp3394
atp3395
sI1074240468
(Vbootloader_reset
p3396
(lp3397
(L479276581L
L2147981551L
(lp3398
(lp3399
Vbootloader_console_deinit
p3400
atp3401
a(L106L
L0L
(lp3402
(lp3403
tp3404
atp3405
sI1074247124
(Vrtc_clk_cal_internal
p3406
(lp3407
(L4103044880L
L1443213481L
(lp3408
(lp3409
tp3410
a(L3906046821L
L4032149094L
(lp3411
(lp3412
V__assert_func
p3413
atp3414
a(L3821006588L
L1443213481L
(lp3415
(lp3416
tp3417
a(L1673513644L
L0L
(lp3418
(lp3419
tp3420
a(L2719210992L
L4021370767L
(lp3421
(lp3422
Vrtc_clk_slow_src_get
p3423
atp3424
a(L3008910671L
L0L
(lp3425
(lp3426
tp3427
a(L97689L
L0L
(lp3428
(lp3429
tp3430
a(L1872507229L
L1443213481L
(lp3431
(lp3432
tp3433
a(L3028464L
L0L
(lp3434
(lp3435
tp3436
a(L3028481L
L0L
(lp3437
(lp3438
tp3439
a(L147213506L
L1443213481L
(lp3440
(lp3441
tp3442
a(L3455571058L
L1374507264L
(lp3443
(lp3444
V__udivdi3
p3445
aVrtc_clk_xtal_freq_get
p3446
atp3447
a(L2780079961L
L0L
(lp3448
(lp3449
tp3450
a(L4208562267L
L1443213481L
(lp3451
(lp3452
tp3453
a(L4114459891L
L3187408090L
(lp3454
(lp3455
Vesp_log_early_timestamp
p3456
atp3457
a(L2258688482L
L0L
(lp3458
(lp3459
tp3460
a(L3360570486L
L0L
(lp3461
(lp3462
tp3463
a(L3553505594L
L0L
(lp3464
(lp3465
tp3466
a(L403361192L
L0L
(lp3467
(lp3468
tp3469
a(L3243404432L
L3785322319L
(lp3470
(lp3471
Vrtc_clk_8m_enable
p3472
atp3473
a(L390546255L
L2195759072L
(lp3474
(lp3475
tp3476
a(L3586367509L
L1443213481L
(lp3477
(lp3478
tp3479
a(L2910371777L
L0L
(lp3480
(lp3481
tp3482
a(L2902417580L
L0L
(lp3483
(lp3484
tp3485
a(L3082259486L
L1443213481L
(lp3486
(lp3487
tp3488
a(L3020204L
L0L
(lp3489
(lp3490
tp3491
a(L603598685L
L1443213481L
(lp3492
(lp3493
tp3494
a(L3429540926L
L0L
(lp3495
(lp3496
tp3497
a(L3028464L
L0L
(lp3498
(lp3499
tp3500
a(L615477255L
L242900614L
(lp3501
(lp3502
Vrtc_clk_8m_enable
p3503
atp3504
atp3505
sI1074237392
(Vbootloader_common_get_active_otadata
p3506
(lp3507
(L3317503532L
L0L
(lp3508
(lp3509
tp3510
a(L2503049265L
L1832448559L
(lp3511
(lp3512
Vbootloader_common_ota_select_valid
p3513
aVbootloader_common_ota_select_valid
p3514
aVbootloader_common_select_otadata
p3515
atp3516
a(L735741265L
L0L
(lp3517
(lp3518
tp3519
atp3520
sI1074237660
(Vbootloader_mmap
p3521
(lp3522
(L3007611739L
L2195759072L
(lp3523
(lp3524
tp3525
a(L1328961945L
L2147981551L
(lp3526
(lp3527
Vesp_log_early_timestamp
p3528
atp3529
a(L1596194698L
L1443213481L
(lp3530
(lp3531
tp3532
a(L3729184599L
L0L
(lp3533
(lp3534
tp3535
a(L4163264550L
L3187408090L
(lp3536
(lp3537
Vesp_log_early_timestamp
p3538
atp3539
a(L2258688482L
L0L
(lp3540
(lp3541
tp3542
a(L3360570486L
L0L
(lp3543
(lp3544
tp3545
a(L3419814624L
L1443213481L
(lp3546
(lp3547
tp3548
a(L1441818867L
L1690040256L
(lp3549
(lp3550
tp3551
a(L3433564204L
L362179215L
(lp3552
(lp3553
Vesp_log_early_timestamp
p3554
atp3555
a(L2543114737L
L2147981551L
(lp3556
(lp3557
Vesp_log_early_timestamp
p3558
atp3559
a(L1137490703L
L2195759072L
(lp3560
(lp3561
tp3562
atp3563
sI1074240732
(Vindex_to_partition
p3564
(lp3565
(L4066096119L
L0L
(lp3566
(lp3567
tp3568
a(L1101255660L
L0L
(lp3569
(lp3570
tp3571
a(L1955702725L
L0L
(lp3572
(lp3573
tp3574
a(L3698927993L
L0L
(lp3575
(lp3576
tp3577
a(L2808906342L
L0L
(lp3578
(lp3579
tp3580
a(L4211744375L
L0L
(lp3581
(lp3582
tp3583
a(L3097778015L
L0L
(lp3584
(lp3585
tp3586
a(L1816235430L
L0L
(lp3587
(lp3588
tp3589
a(L2179185678L
L0L
(lp3590
(lp3591
tp3592
a(L3369319173L
L0L
(lp3593
(lp3594
tp3595
atp3596
sI1074236888
(Vefuse_hal_get_minor_chip_version
p3597
(lp3598
(L2292056065L
L1443213481L
(lp3599
(lp3600
tp3601
atp3602
sI1074239704
(Vbootloader_utility_load_partition_table
p3603
(lp3604
(L3401680957L
L3833084538L
(lp3605
(lp3606
Vbootloader_mmap
p3607
atp3608
a(L3861134865L
L2147981551L
(lp3609
(lp3610
Vesp_log_early_timestamp
p3611
atp3612
a(L2258688482L
L0L
(lp3613
(lp3614
tp3615
a(L3360570486L
L0L
(lp3616
(lp3617
tp3618
a(L2379286607L
L3785322319L
(lp3619
(lp3620
Vesp_partition_table_verify
p3621
atp3622
a(L2695471221L
L2147981551L
(lp3623
(lp3624
Vesp_log_early_timestamp
p3625
atp3626
a(L2693125842L
L403192672L
(lp3627
(lp3628
Vesp_log_early_timestamp
p3629
aVesp_log_early_timestamp
p3630
atp3631
a(L650140130L
L0L
(lp3632
(lp3633
tp3634
a(L2163909172L
L2801279232L
(lp3635
(lp3636
Vbootloader_munmap
p3637
aVesp_log_early_timestamp
p3638
atp3639
a(L521126897L
L0L
(lp3640
(lp3641
tp3642
a(L3028464L
L0L
(lp3643
(lp3644
tp3645
a(L106L
L0L
(lp3646
(lp3647
tp3648
a(L147213506L
L1443213481L
(lp3649
(lp3650
tp3651
a(L2919580219L
L2147981551L
(lp3652
(lp3653
Vesp_log_early_timestamp
p3654
atp3655
a(L3990577774L
L0L
(lp3656
(lp3657
tp3658
a(L3020187L
L0L
(lp3659
(lp3660
tp3661
a(L3201555411L
L1443213481L
(lp3662
(lp3663
tp3664
a(L1843602828L
L1443213481L
(lp3665
(lp3666
tp3667
a(L326114897L
L1443213481L
(lp3668
(lp3669
tp3670
a(L2487812812L
L1443213481L
(lp3671
(lp3672
tp3673
a(L3478727216L
L1443213481L
(lp3674
(lp3675
tp3676
a(L106L
L0L
(lp3677
(lp3678
tp3679
a(L93674324L
L0L
(lp3680
(lp3681
tp3682
a(L1872515523L
L1443213481L
(lp3683
(lp3684
tp3685
a(L1215408024L
L1443213481L
(lp3686
(lp3687
tp3688
a(L1872515506L
L1443213481L
(lp3689
(lp3690
tp3691
a(L106L
L0L
(lp3692
(lp3693
tp3694
a(L1872515506L
L1443213481L
(lp3695
(lp3696
tp3697
a(L106L
L0L
(lp3698
(lp3699
tp3700
a(L268651496L
L1443213481L
(lp3701
(lp3702
tp3703
atp3704
sI1074269928
(Vbootloader_enable_random
p3705
(lp3706
(L859804465L
L2704288053L
(lp3707
(lp3708
Vesp_log_early_timestamp
p3709
aVbootloader_random_enable
p3710
atp3711
atp3712
sI1074270952
(Vmpu_hal_set_region_access
p3713
(lp3714
(L3538356822L
L0L
(lp3715
(lp3716
tp3717
a(L93674324L
L0L
(lp3718
(lp3719
tp3720
a(L2910371777L
L0L
(lp3721
(lp3722
tp3723
a(L3472092938L
L0L
(lp3724
(lp3725
tp3726
a(L3020187L
L0L
(lp3727
(lp3728
tp3729
a(L3360570486L
L0L
(lp3730
(lp3731
tp3732
a(L2258718273L
L0L
(lp3733
(lp3734
tp3735
a(L3446648619L
L0L
(lp3736
(lp3737
tp3738
a(L3739532189L
L0L
(lp3739
(lp3740
tp3741
a(L1300789895L
L0L
(lp3742
(lp3743
tp3744
atp3745
sI1074245860
(Vrtc_clk_fast_src_set
p3746
(lp3747
(L1089140614L
L1443213481L
(lp3748
(lp3749
tp3750
a(L3020187L
L0L
(lp3751
(lp3752
tp3753
a(L3827921190L
L3785322319L
(lp3754
(lp3755
Vabort
p3756
atp3757
a(L2578095160L
L1443213481L
(lp3758
(lp3759
tp3760
a(L4159388630L
L1443213481L
(lp3761
(lp3762
tp3763
a(L300459962L
L0L
(lp3764
(lp3765
tp3766
atp3767
sI1074238176
(Vbootloader_flash_erase_sector
p3768
(lp3769
(L4129137686L
L1880226080L
(lp3770
(lp3771
Vesp_rom_spiflash_erase_sector
p3772
aVspi_to_esp_err
p3773
atp3774
atp3775
sI1074237920
(Vbootloader_flash_read
p3776
(lp3777
(L3022618172L
L0L
(lp3778
(lp3779
tp3780
a(L2493247481L
L2147981551L
(lp3781
(lp3782
Vesp_log_early_timestamp
p3783
atp3784
a(L852987398L
L1443213481L
(lp3785
(lp3786
tp3787
a(L1351513776L
L0L
(lp3788
(lp3789
tp3790
a(L1486740491L
L0L
(lp3791
(lp3792
tp3793
a(L4276228047L
L2147981551L
(lp3794
(lp3795
Vesp_log_early_timestamp
p3796
atp3797
a(L3283691850L
L0L
(lp3798
(lp3799
tp3800
a(L4276228016L
L2147981551L
(lp3801
(lp3802
Vesp_log_early_timestamp
p3803
atp3804
a(L3020204L
L0L
(lp3805
(lp3806
tp3807
a(L384130671L
L0L
(lp3808
(lp3809
tp3810
a(L97422L
L0L
(lp3811
(lp3812
tp3813
a(L515889772L
L2195759072L
(lp3814
(lp3815
tp3816
a(L3321969934L
L1690040256L
(lp3817
(lp3818
tp3819
a(L279744554L
L4032149094L
(lp3820
(lp3821
V__assert_func
p3822
atp3823
a(L4071371888L
L2534110409L
(lp3824
(lp3825
tp3826
a(L2438181396L
L1443213481L
(lp3827
(lp3828
tp3829
a(L1976506429L
L3635241909L
(lp3830
(lp3831
Vesp_rom_spiflash_read
p3832
aVspi_to_esp_err
p3833
atp3834
atp3835
sI1074237152
(Vbootloader_common_check_chip_validity
p3836
(lp3837
(L2080115690L
L0L
(lp3838
(lp3839
tp3840
a(L3255759481L
L3187408090L
(lp3841
(lp3842
Vesp_log_early_timestamp
p3843
atp3844
a(L1299867982L
L0L
(lp3845
(lp3846
tp3847
a(L3360570486L
L0L
(lp3848
(lp3849
tp3850
a(L521940037L
L3785322319L
(lp3851
(lp3852
Vefuse_hal_chip_revision
p3853
atp3854
a(L332291457L
L1443213481L
(lp3855
(lp3856
tp3857
a(L780168284L
L362179215L
(lp3858
(lp3859
Vesp_log_early_timestamp
p3860
atp3861
a(L3028464L
L0L
(lp3862
(lp3863
tp3864
a(L573448730L
L0L
(lp3865
(lp3866
tp3867
a(L106L
L0L
(lp3868
(lp3869
tp3870
a(L3027019L
L0L
(lp3871
(lp3872
tp3873
a(L106L
L0L
(lp3874
(lp3875
tp3876
a(L3212356251L
L3785322319L
(lp3877
(lp3878
Vefuse_hal_get_disable_wafer_version_major
p3879
atp3880
a(L2465410698L
L362179215L
(lp3881
(lp3882
Vesp_log_early_timestamp
p3883
atp3884
atp3885
sI1074269664
(Vbootloader_clear_bss_section
p3886
(lp3887
(L2193193874L
L4032149094L
(lp3888
(lp3889
Vmemset
p3890
atp3891
atp3892
sI1074240492
(Vbootloader_utility_load_boot_image
p3893
(lp3894
(L421993435L
L242900614L
(lp3895
(lp3896
Vmemset
p3897
atp3898
a(L2177418995L
L3785322319L
(lp3899
(lp3900
Vtry_load_partition
p3901
atp3902
a(L1305243774L
L3785322319L
(lp3903
(lp3904
Vload_image
p3905
atp3906
a(L4114459891L
L3187408090L
(lp3907
(lp3908
Vesp_log_early_timestamp
p3909
atp3910
a(L3827921190L
L3785322319L
(lp3911
(lp3912
Vbootloader_reset
p3913
atp3914
a(L1953693036L
L3785322319L
(lp3915
(lp3916
Vindex_to_partition
p3917
atp3918
a(L1204373741L
L3785322319L
(lp3919
(lp3920
Vtry_load_partition
p3921
atp3922
a(L1899865696L
L0L
(lp3923
(lp3924
tp3925
a(L2695355117L
L3785322319L
(lp3926
(lp3927
Vset_actual_ota_seq
p3928
atp3929
a(L1868897605L
L3785322319L
(lp3930
(lp3931
Vlog_invalid_app_partition
p3932
atp3933
a(L831650730L
L0L
(lp3934
(lp3935
tp3936
a(L3021737L
L0L
(lp3937
(lp3938
tp3939
a(L695456438L
L0L
(lp3940
(lp3941
tp3942
a(L315114854L
L3833084538L
(lp3943
(lp3944
Vtry_load_partition
p3945
atp3946
a(L89447667L
L2147981551L
(lp3947
(lp3948
Vesp_log_early_timestamp
p3949
atp3950
a(L2347390157L
L3785322319L
(lp3951
(lp3952
Vindex_to_partition
p3953
atp3954
a(L1204373741L
L3785322319L
(lp3955
(lp3956
Vtry_load_partition
p3957
atp3958
a(L3061261803L
L0L
(lp3959
(lp3960
tp3961
a(L3582858798L
L3785322319L
(lp3962
(lp3963
Vlog_invalid_app_partition
p3964
atp3965
a(L3581752791L
L2704288053L
(lp3966
(lp3967
Vesp_log_early_timestamp
p3968
aVmemset
p3969
atp3970
atp3971
sI1074244844
(Vwdt_hal_set_flashboot_en
p3972
(lp3973
(L2375320464L
L0L
(lp3974
(lp3975
tp3976
a(L3915867581L
L0L
(lp3977
(lp3978
tp3979
a(L3360570486L
L0L
(lp3980
(lp3981
tp3982
a(L3823116953L
L1443213481L
(lp3983
(lp3984
tp3985
atp3986
sI1074236904
(Vesp_dport_access_reg_read
p3987
(lp3988
(L1099794772L
L0L
(lp3989
(lp3990
tp3991
atp3992
sI1074241256
(Vbootloader_ana_clock_glitch_reset_config
p3993
(lp3994
(L2100504542L
L0L
(lp3995
(lp3996
tp3997
atp3998
sI1074245096
(Vrtc_clk_32k_enable_common
p3999
(lp4000
(L2821256590L
L2195759072L
(lp4001
(lp4002
tp4003
a(L97422L
L0L
(lp4004
(lp4005
tp4006
a(L2218417248L
L0L
(lp4007
(lp4008
tp4009
a(L339634797L
L1443213481L
(lp4010
(lp4011
tp4012
a(L51458120L
L0L
(lp4013
(lp4014
tp4015
atp4016
sI1074269688
(Vbootloader_read_bootloader_header
p4017
(lp4018
(L2948018849L
L242900614L
(lp4019
(lp4020
Vbootloader_flash_read
p4021
atp4022
a(L804259852L
L3187408090L
(lp4023
(lp4024
Vesp_log_early_timestamp
p4025
atp4026
a(L735741265L
L0L
(lp4027
(lp4028
tp4029
atp4030
sI1074236916
(Vis_xmc_chip_strict
p4031
(lp4032
(L1286841609L
L0L
(lp4033
(lp4034
tp4035
a(L2234016759L
L0L
(lp4036
(lp4037
tp4038
a(L1069027148L
L0L
(lp4039
(lp4040
tp4041
a(L3021749L
L0L
(lp4042
(lp4043
tp4044
a(L1900148749L
L0L
(lp4045
(lp4046
tp4047
a(L1936875721L
L0L
(lp4048
(lp4049
tp4050
a(L3356166509L
L0L
(lp4051
(lp4052
tp4053
a(L1937769451L
L0L
(lp4054
(lp4055
tp4056
a(L2137658907L
L0L
(lp4057
(lp4058
tp4059
a(L4265949734L
L0L
(lp4060
(lp4061
tp4062
a(L3360570486L
L0L
(lp4063
(lp4064
tp4065
atp4066
sI1074238196
(Vbootloader_flash_write
p4067
(lp4068
(L3770380603L
L0L
(lp4069
(lp4070
tp4071
a(L2654201950L
L2147981551L
(lp4072
(lp4073
Vesp_log_early_timestamp
p4074
atp4075
a(L4207910112L
L1443213481L
(lp4076
(lp4077
tp4078
a(L1610445075L
L0L
(lp4079
(lp4080
tp4081
a(L735741265L
L0L
(lp4082
(lp4083
tp4084
a(L3291333414L
L0L
(lp4085
(lp4086
tp4087
a(L416217162L
L2147981551L
(lp4088
(lp4089
Vesp_log_early_timestamp
p4090
atp4091
a(L3283691850L
L0L
(lp4092
(lp4093
tp4094
a(L212182276L
L3187408090L
(lp4095
(lp4096
Vesp_log_early_timestamp
p4097
atp4098
a(L3212356251L
L3785322319L
(lp4099
(lp4100
Vbootloader_flash_unlock
p4101
atp4102
a(L1799218633L
L0L
(lp4103
(lp4104
tp4105
a(L94425498L
L3785322319L
(lp4106
(lp4107
Vesp_rom_spiflash_write_encrypted
p4108
atp4109
a(L2927190544L
L3785322319L
(lp4110
(lp4111
Vspi_to_esp_err
p4112
atp4113
a(L2927190544L
L3785322319L
(lp4114
(lp4115
Vesp_rom_spiflash_write
p4116
atp4117
atp4118
sI1074248180
(Vesp_rom_spiflash_erase_sector
p4119
(lp4120
(L3892694408L
L1679261929L
(lp4121
(lp4122
tp4123
a(L2258688483L
L0L
(lp4124
(lp4125
tp4126
a(L3360570486L
L0L
(lp4127
(lp4128
tp4129
a(L3212356251L
L3785322319L
(lp4130
(lp4131
Vesp_rom_spiflash_enable_write
p4132
atp4133
a(L184152988L
L0L
(lp4134
(lp4135
tp4136
a(L1036552696L
L362179215L
(lp4137
(lp4138
Vesp_rom_spiflash_wait_idle
p4139
atp4140
a(L3333707777L
L0L
(lp4141
(lp4142
tp4143
a(L3582858798L
L3785322319L
(lp4144
(lp4145
Vesp_rom_spiflash_wait_idle
p4146
atp4147
atp4148
sI1074241264
(Vprocess_checksum
p4149
(lp4150
(L166193219L
L242900614L
(lp4151
(lp4152
Vmemset
p4153
atp4154
a(L3028481L
L0L
(lp4155
(lp4156
tp4157
a(L186886970L
L0L
(lp4158
(lp4159
tp4160
a(L2902417580L
L0L
(lp4161
(lp4162
tp4163
a(L3028481L
L0L
(lp4164
(lp4165
tp4166
a(L169792351L
L3187408090L
(lp4167
(lp4168
Vesp_log_early_timestamp
p4169
atp4170
a(L268651496L
L1443213481L
(lp4171
(lp4172
tp4173
a(L3236648107L
L3785322319L
(lp4174
(lp4175
Vbootloader_flash_read
p4176
atp4177
a(L735741265L
L0L
(lp4178
(lp4179
tp4180
a(L3020204L
L0L
(lp4181
(lp4182
tp4183
a(L2480703612L
L3785322319L
(lp4184
(lp4185
Vbootloader_sha256_data
p4186
atp4187
a(L3436105237L
L0L
(lp4188
(lp4189
tp4190
a(L106L
L0L
(lp4191
(lp4192
tp4193
atp4194
sI1074246396
(Vrtc_clk_cpu_freq_set_config
p4195
(lp4196
(L1040494747L
L3833084538L
(lp4197
(lp4198
Vrtc_clk_xtal_freq_get
p4199
atp4200
a(L2308773007L
L0L
(lp4201
(lp4202
tp4203
a(L3253451229L
L1880226080L
(lp4204
(lp4205
Vrtc_clk_cpu_freq_to_xtal
p4206
aVrtc_clk_wait_for_slow_cycle
p4207
atp4208
a(L2243645672L
L0L
(lp4209
(lp4210
tp4211
a(L4002786498L
L0L
(lp4212
(lp4213
tp4214
a(L2736411858L
L3785322319L
(lp4215
(lp4216
Vrtc_clk_cpu_freq_to_xtal
p4217
atp4218
a(L3360570486L
L0L
(lp4219
(lp4220
tp4221
a(L2755207760L
L1832448559L
(lp4222
(lp4223
Vrtc_clk_cpu_freq_to_xtal
p4224
aVrtc_clk_wait_for_slow_cycle
p4225
aVrtc_clk_bbpll_disable
p4226
atp4227
a(L3020187L
L0L
(lp4228
(lp4229
tp4230
a(L106L
L0L
(lp4231
(lp4232
tp4233
a(L2730236852L
L1156451872L
(lp4234
(lp4235
Vrtc_clk_wait_for_slow_cycle
p4236
aVrtc_clk_xtal_freq_get
p4237
atp4238
a(L106L
L0L
(lp4239
(lp4240
tp4241
a(L3776069396L
L1443213481L
(lp4242
(lp4243
tp4244
a(L83268611L
L0L
(lp4245
(lp4246
tp4247
a(L106L
L0L
(lp4248
(lp4249
tp4250
a(L82345090L
L0L
(lp4251
(lp4252
tp4253
a(L106L
L0L
(lp4254
(lp4255
tp4256
a(L2258718273L
L0L
(lp4257
(lp4258
tp4259
a(L3298883534L
L0L
(lp4260
(lp4261
tp4262
a(L3519990574L
L1443213481L
(lp4263
(lp4264
tp4265
a(L2508198718L
L1743007695L
(lp4266
(lp4267
Vrtc_clk_cpu_freq_to_pll_mhz
p4268
atp4269
a(L935233121L
L2534110409L
(lp4270
(lp4271
tp4272
a(L83268344L
L0L
(lp4273
(lp4274
tp4275
a(L82344823L
L0L
(lp4276
(lp4277
tp4278
a(L1569180676L
L0L
(lp4279
(lp4280
tp4281
a(L2258837488L
L0L
(lp4282
(lp4283
tp4284
a(L4233337962L
L1443213481L
(lp4285
(lp4286
tp4287
a(L1482311963L
L0L
(lp4288
(lp4289
tp4290
a(L133411965L
L0L
(lp4291
(lp4292
tp4293
a(L3673491036L
L0L
(lp4294
(lp4295
tp4296
a(L4197990447L
L0L
(lp4297
(lp4298
tp4299
a(L903154985L
L0L
(lp4300
(lp4301
tp4302
a(L3020187L
L0L
(lp4303
(lp4304
tp4305
a(L106L
L0L
(lp4306
(lp4307
tp4308
a(L1317698645L
L93324751L
(lp4309
(lp4310
Vesp_rom_set_cpu_ticks_per_us
p4311
atp4312
atp4313
sI1074247932
(Vesp_rom_spiflash_enable_write
p4314
(lp4315
(L2885777558L
L1303911398L
(lp4316
(lp4317
Vesp_rom_spiflash_wait_idle
p4318
atp4319
a(L3333707777L
L0L
(lp4320
(lp4321
tp4322
a(L2258688484L
L0L
(lp4323
(lp4324
tp4325
a(L99543895L
L0L
(lp4326
(lp4327
tp4328
a(L2993202392L
L0L
(lp4329
(lp4330
tp4331
a(L1265538927L
L242900614L
(lp4332
(lp4333
Vesp_rom_spiflash_read_status
p4334
atp4335
atp4336
sI1074237432
(Vbootloader_common_reset_rtc_retain_mem
p4337
(lp4338
(L2744385852L
L581251951L
(lp4339
(lp4340
Vmemset
p4341
atp4342
atp4343
ssS'functionsdups'
p4344
g11
((lp4345
tp4346
Rp4347
sS'immediatedups'
p4348
g11
((lp4349
tp4350
Rp4351
sS'functiondups'
p4352
g11
((lp4353
tp4354
Rp4355
sS'fuzzy'
p4356
(dp4357
L366261972L
I1074270284
sL4033782891L
I1074244844
sL1651792242L
I1074247932
sL1500945776L
I1074268064
sL800708016L
I1074239704
sL2092869556L
I1074248180
sL2539816556L
I1074236676
sL3032120501L
I1074246072
sL2641888616L
I1074247124
sL1962232032L
I1074245940
sL1348852091L
I1074248568
sL1485246373L
I1074241264
sL1247030641L
I1074268872
sL214341344L
I1074245012
sL3822220021L
I1074237432
sL1729011238L
I1074242236
sL1959102959L
I1074237660
sL2216531249L
I1074245832
sL2849727465L
I1074239172
sL1821770661L
I1074237868
sL332090111L
I1074236592
sL705724709L
I1074239568
sL282843886L
I1074237920
sL3703425408L
I1074245512
sL3530961461L
I1074270728
sL1210592366L
I1074245688
sL209111356L
I1074245860
sL2726707668L
I1074268576
sL2018002450L
I1074235696
sL994994961L
I1074238820
sL1155028103L
I1074270060
sL2806886186L
I1074268632
sL3715950101L
I1074244812
sL3274368577L
I1074239072
sL2452281182L
I1074247620
sL1122585247L
I1074243884
sL3659714901L
I1074241676
sL2752268667L
I1074245060
sL3428612389L
I1074247588
sL2376760616L
I1074243616
sL1898962604L
I1074238904
sL3223682214L
I1074248480
sL2532014945L
I1074237468
sL1772626723L
I1074235848
sL2471313117L
I1074240972
sL381028389L
I1074241184
sL3711025829L
I1074240492
sL3500016395L
I1074242364
sL797548049L
I1074240804
sL3374853808L
I1074269664
sL2835607711L
I1074270024
sL2095240828L
I1074234772
sL2182127758L
I1074270108
sL3221945515L
I1074246212
sL3525303483L
I1074245804
sL4242478965L
I1074238412
sL79921775L
I1074240368
sL579471141L
I1074269928
sL1096063205L
I1074236820
sL2906154889L
I1074247884
sL1065525808L
I1074236916
sL2038713658L
I1074247080
sL2100777096L
I1074267728
sL2688270468L
I1074269732
sL2708185770L
I1074241620
sL3890904617L
I1074246284
sL1605229163L
I1074240068
sL1332800441L
I1074237392
sL3183721996L
I1074235296
sL3558783183L
I1074238196
sL1377360842L
I1074245096
sL3300368739L
I1074267840
sL1161792488L
I1074241432
sL4091350277L
I1074247988
sL2871786995L
I1074269800
sL3578810761L
I1074235596
sL531949167L
I1074237152
sL1060788199L
I1074245980
sL1444874434L
I1074269956
sL2663898648L
I1074269688
sL627477382L
I1074235960
sL814911857L
I1074240824
sL3280013925L
I1074238492
sL1862804207L
I1074244496
sL1815510750L
I1074245232
sL963803290L
I1074246396
sL3420458249L
I1074247788
sL1872673135L
I1074240468
sL1214705044L
I1074236428
sL4155364446L
I1074237116
sL230862646L
I1074237628
sL1564551092L
I1074242148
sL1950296771L
I1074248316
sL1396037064L
I1074245452
sL1014311563L
I1074243104
sL1596982735L
I1074269376
ssb.