ccopy_reg
_reconstructor
p0
(crizzo
RizzoSignature
p1
c__builtin__
object
p2
Ntp3
Rp4
(dp5
S'formal'
p6
(dp7
L2005196428L
I1074245540
sL1741170115L
I1074238016
sL2087186284L
I1074236428
sL1913647619L
I1074269968
sL3984280162L
I1074244520
sL3746738248L
I1074239408
sL2628804010L
I1074270892
sL4213015302L
I1074243308
sL461860251L
I1074247328
sL286550283L
I1074270036
sL3976424482L
I1074234728
sL552298442L
I1074235296
sL2767810776L
I1074238036
sL2771134728L
I1074240216
sL2326361228L
I1074269388
sL2702580795L
I1074237392
sL2610420647L
I1074269812
sL2896295319L
I1074236916
sL25479346L
I1074240696
sL438696979L
I1074269940
sL1123431371L
I1074239528
sL1331791455L
I1074245632
sL1674148343L
I1074245688
sL1786019146L
I1074247768
sL4023292303L
I1074237468
sL3256726111L
I1074248096
sL2485902447L
I1074236756
sL723138898L
I1074238196
sL424336643L
I1074269676
sL366218909L
I1074270072
sL368505532L
I1074245964
sL848906711L
I1074248260
sL353716291L
I1074244720
sL1585823442L
I1074244620
sL1622896354L
I1074244648
sL3092620558L
I1074235696
sL2521269785L
I1074236996
sL730944497L
I1074239892
sL2189223198L
I1074240456
sL3580313603L
I1074241960
sL2493713350L
I1074245396
sL183144L
I1074238860
sL2930276314L
I1074235848
sL4161584248L
I1074268588
sL4175577751L
I1074244768
sL2723725103L
I1074240892
sL1633709340L
I1074245372
sL2813809866L
I1074236780
sL2366387314L
I1074270740
sL1330922710L
I1074246832
sL1731035566L
I1074236592
sL244922653L
I1074242828
sL2691843063L
I1074245992
sL3307282855L
I1074238176
sL127813144L
I1074243592
sL2834351222L
I1074244940
sL3065846068L
I1074235596
sL3553146178L
I1074267732
sL2195669076L
I1074245348
sL357647324L
I1074268884
sL3361686224L
I1074268644
sL3042952135L
I1074267724
sL3721992006L
I1074240908
sL1160735408L
I1074242088
sL1662035087L
I1074267840
sL3041505513L
I1074237500
sL4038945309L
I1074235648
sL1435968304L
I1074244804
sL4178015136L
I1074247568
sL1992104215L
I1074236888
sL1112935418L
I1074234772
sL4020657674L
I1074246104
sL2931540503L
I1074247712
sL1382567621L
I1074238252
sL105563623L
I1074240528
sL2997001746L
I1074237324
sL59949349L
I1074241156
sL1087228788L
I1074239012
sL76756778L
I1074240988
sL556795273L
I1074269744
sL2819127986L
I1074237048
sL3195929028L
I1074240192
sL3024810484L
I1074270296
sL1481764497L
I1074237028
sL1877634603L
I1074270964
sL2687718384L
I1074243324
sL2789355142L
I1074244204
sL1098683832L
I1074245160
sL3015462521L
I1074238660
sL3066643969L
I1074247296
sL2672235151L
I1074247496
sL886840080L
I1074237084
sL2062758462L
I1074236820
sL1347401601L
I1074240548
sL2248158928L
I1074238332
sL660825523L
I1074245220
sL3362774716L
I1074236676
sL3338519854L
I1074245920
sL2195659785L
I1074245568
sL540472814L
I1074247960
sL2263182908L
I1074238244
sL965583188L
I1074245780
sL114336524L
I1074269700
sL282668036L
I1074244552
sL963291061L
I1074248348
sL3630163135L
I1074236904
sL188664287L
I1074235264
sL2743385701L
I1074269372
sL2404540336L
I1074245512
sL3957931786L
I1074268064
sL2485146564L
I1074240932
sL692536993L
I1074237364
sL822000404L
I1074245648
sL921639684L
I1074235960
sL235684320L
I1074237760
sL3364903294L
I1074247664
sL675504051L
I1074236576
sL1817360290L
I1074241400
sL917018201L
I1074236988
sL237904351L
I1074241344
sL2758712477L
I1074241872
sL309068699L
I1074245100
sL1140246287L
I1074246788
sL2570362575L
I1074238744
sL3958998789L
I1074237708
sL4029637072L
I1074270120
ssS'immediates'
p8
(dp9
sS'formaldups'
p10
c__builtin__
set
p11
((lp12
tp13
Rp14
sS'stringdups'
p15
g11
((lp16
tp17
Rp18
sS'fuzzydups'
p19
g11
((lp20
tp21
Rp22
sS'strings'
p23
(dp24
sS'functions'
p25
(dp26
I1074236676
(Vesp_rom_uart_set_clock_baudrate
p27
(lp28
(L1471953879L
L1443213481L
(lp29
(lp30
tp31
a(L1872515506L
L1443213481L
(lp32
(lp33
tp34
a(L147213506L
L1443213481L
(lp35
(lp36
tp37
a(L3104172142L
L1443213481L
(lp38
(lp39
tp40
atp41
sI1074235648
(Vbootloader_read_flash_id
p42
(lp43
(L549578328L
L3785322319L
(lp44
(lp45
Vbootloader_execute_flash_command
p46
atp47
atp48
sI1074245632
(Vrtc_clk_fast_src_get
p49
(lp50
(L2217920473L
L1443213481L
(lp51
(lp52
tp53
atp54
sI1074267136
(V_init
p55
(lp56
(L3493042598L
L0L
(lp57
(lp58
tp59
atp60
sI1074237708
(Vbootloader_munmap
p61
(lp62
(L4096859803L
L2195759072L
(lp63
(lp64
tp65
a(L4150885370L
L2624587680L
(lp66
(lp67
tp68
a(L3360570486L
L0L
(lp69
(lp70
tp71
atp72
sI1074236428
(Vbootloader_flash_dummy_config
p73
(lp74
(L2633298977L
L1443213481L
(lp75
(lp76
tp77
a(L2761717557L
L0L
(lp78
(lp79
tp80
a(L1849044936L
L0L
(lp81
(lp82
tp83
a(L2198646520L
L2195759072L
(lp84
(lp85
tp86
a(L1857500547L
L1443213481L
(lp87
(lp88
tp89
a(L3020204L
L0L
(lp90
(lp91
tp92
a(L1610443405L
L0L
(lp93
(lp94
tp95
a(L4032120524L
L0L
(lp96
(lp97
tp98
a(L2336993863L
L0L
(lp99
(lp100
tp101
a(L1298875775L
L0L
(lp102
(lp103
tp104
a(L3880393601L
L0L
(lp105
(lp106
tp107
a(L2272848587L
L1443213481L
(lp108
(lp109
tp110
a(L1610443436L
L0L
(lp111
(lp112
tp113
atp114
sI1074242828
(Vimage_load
p115
(lp116
(L3048705773L
L0L
(lp117
(lp118
tp119
a(L3463713141L
L0L
(lp120
(lp121
tp122
a(L3309803581L
L0L
(lp123
(lp124
tp125
a(L256049682L
L0L
(lp126
(lp127
tp128
a(L1935188817L
L0L
(lp129
(lp130
tp131
a(L3028481L
L0L
(lp132
(lp133
tp134
a(L3021749L
L0L
(lp135
(lp136
tp137
a(L106L
L0L
(lp138
(lp139
tp140
a(L585264737L
L0L
(lp141
(lp142
tp143
a(L1145291904L
L3785322319L
(lp144
(lp145
Vprocess_image_header
p146
atp147
a(L823859500L
L0L
(lp148
(lp149
tp150
a(L3061291474L
L0L
(lp151
(lp152
tp153
a(L4106474008L
L3785322319L
(lp154
(lp155
Vprocess_segments
p156
atp157
a(L3868840998L
L0L
(lp158
(lp159
tp160
a(L2962085561L
L1443213481L
(lp161
(lp162
tp163
a(L1827898452L
L3785322319L
(lp164
(lp165
Vprocess_checksum
p166
atp167
a(L2214715179L
L3785322319L
(lp168
(lp169
Vprocess_appended_hash_and_sig
p170
atp171
a(L3028481L
L0L
(lp172
(lp173
tp174
a(L2902417580L
L0L
(lp175
(lp176
tp177
a(L3285560995L
L3785322319L
(lp178
(lp179
Vbootloader_sha256_finish
p180
atp181
a(L3946560000L
L0L
(lp182
(lp183
tp184
a(L93674324L
L0L
(lp185
(lp186
tp187
a(L2674734805L
L2195759072L
(lp188
(lp189
tp190
a(L1168805591L
L1443213481L
(lp191
(lp192
tp193
a(L1179424413L
L0L
(lp194
(lp195
tp196
a(L3928150917L
L0L
(lp197
(lp198
tp199
a(L106L
L0L
(lp200
(lp201
tp202
a(L3871473710L
L0L
(lp203
(lp204
tp205
a(L3884726427L
L0L
(lp206
(lp207
tp208
a(L106L
L0L
(lp209
(lp210
tp211
a(L3020187L
L0L
(lp212
(lp213
tp214
a(L1337906930L
L3187408090L
(lp215
(lp216
Vesp_log_early_timestamp
p217
atp218
a(L2868044067L
L0L
(lp219
(lp220
tp221
a(L1179764900L
L0L
(lp222
(lp223
tp224
a(L2332746046L
L3785322319L
(lp225
(lp226
Vbootloader_sha256_finish
p227
atp228
a(L3721568057L
L242900614L
(lp229
(lp230
Vmemset
p231
atp232
a(L3020204L
L0L
(lp233
(lp234
tp235
a(L3039742375L
L1443213481L
(lp236
(lp237
tp238
a(L106L
L0L
(lp239
(lp240
tp241
a(L3307179591L
L2839326997L
(lp242
(lp243
Vmemset
p244
aVbootloader_sha256_finish
p245
aVbootloader_debug_buffer
p246
aVmemcmp
p247
atp248
a(L3433271982L
L2266857161L
(lp249
(lp250
Vesp_log_early_timestamp
p251
aVbootloader_debug_buffer
p252
atp253
a(L3741653406L
L3785322319L
(lp254
(lp255
Vshould_load
p256
atp257
a(L2764257181L
L0L
(lp258
(lp259
tp260
a(L3338774213L
L0L
(lp261
(lp262
tp263
a(L193456747L
L1443213481L
(lp264
(lp265
tp266
a(L3349572949L
L0L
(lp267
(lp268
tp269
a(L2192292519L
L0L
(lp270
(lp271
tp272
a(L106L
L0L
(lp273
(lp274
tp275
a(L1702191967L
L1443213481L
(lp276
(lp277
tp278
a(L1299866312L
L0L
(lp279
(lp280
tp281
a(L3010020263L
L0L
(lp282
(lp283
tp284
atp285
sI1074244620
(Vwdt_hal_write_protect_enable
p286
(lp287
(L387778158L
L0L
(lp288
(lp289
tp290
a(L4195472003L
L0L
(lp291
(lp292
tp293
a(L3360570486L
L0L
(lp294
(lp295
tp296
a(L802523425L
L0L
(lp297
(lp298
tp299
atp300
sI1074269700
(Vbootloader_read_bootloader_header
p301
(lp302
(L2948018849L
L242900614L
(lp303
(lp304
Vbootloader_flash_read
p305
atp306
a(L804259852L
L3187408090L
(lp307
(lp308
Vesp_log_early_timestamp
p309
atp310
a(L735741265L
L0L
(lp311
(lp312
tp313
atp314
sI1074243592
(Vwdt_hal_init
p315
(lp316
(L1845705415L
L242900614L
(lp317
(lp318
Vmemset
p319
atp320
a(L106L
L0L
(lp321
(lp322
tp323
a(L147213506L
L1443213481L
(lp324
(lp325
tp326
a(L3076988543L
L0L
(lp327
(lp328
tp329
a(L746843176L
L3294285696L
(lp330
(lp331
tp332
a(L3028464L
L0L
(lp333
(lp334
tp335
a(L268651496L
L1443213481L
(lp336
(lp337
tp338
a(L213928354L
L1443213481L
(lp339
(lp340
tp341
a(L1646580088L
L3294285696L
(lp342
(lp343
tp344
a(L3360570486L
L0L
(lp345
(lp346
tp347
atp348
sI1074240520
(Vbootloader_debug_buffer
p349
(lp350
(L2100504542L
L0L
(lp351
(lp352
tp353
atp354
sI1074245396
(Vrtc_clk_slow_src_set
p355
(lp356
(L585347011L
L2195759072L
(lp357
(lp358
tp359
a(L3020187L
L0L
(lp360
(lp361
tp362
a(L3028481L
L0L
(lp363
(lp364
tp365
a(L487821223L
L0L
(lp366
(lp367
tp368
a(L4271877108L
L1443213481L
(lp369
(lp370
tp371
a(L1851908495L
L0L
(lp372
(lp373
tp374
a(L1099319264L
L1443213481L
(lp375
(lp376
tp377
a(L3138544334L
L0L
(lp378
(lp379
tp380
a(L94425498L
L3785322319L
(lp381
(lp382
Vabort
p383
atp384
atp385
sI1074240528
(Vbootloader_sha256_start
p386
(lp387
(L1737386262L
L2534110409L
(lp388
(lp389
tp390
atp391
sI1074245648
(Vrtc_clk_xtal_freq_get
p392
(lp393
(L3313072792L
L1443213481L
(lp394
(lp395
tp396
a(L2847936993L
L0L
(lp397
(lp398
tp399
a(L2252934062L
L1443213481L
(lp400
(lp401
tp402
a(L3360570486L
L0L
(lp403
(lp404
tp405
atp406
sI1074269968
(Vbootloader_print_banner
p407
(lp408
(L3569996224L
L1385564105L
(lp409
(lp410
Vesp_bootloader_get_description
p411
aVesp_log_early_timestamp
p412
aVesp_log_early_timestamp
p413
aVesp_log_early_timestamp
p414
atp415
atp416
sI1074237468
(Vspi_to_esp_err
p417
(lp418
(L2749733621L
L1443213481L
(lp419
(lp420
tp421
a(L1872507229L
L1443213481L
(lp422
(lp423
tp424
a(L3952441574L
L0L
(lp425
(lp426
tp427
a(L3126521138L
L0L
(lp428
(lp429
tp430
atp431
sI1074270740
(Vrtc_vddsdio_get_config
p432
(lp433
(L3097658956L
L1443213481L
(lp434
(lp435
tp436
a(L1750635626L
L0L
(lp437
(lp438
tp439
a(L3193418487L
L0L
(lp440
(lp441
tp442
a(L3511111289L
L1443213481L
(lp443
(lp444
tp445
a(L115635292L
L0L
(lp446
(lp447
tp448
a(L896053863L
L0L
(lp449
(lp450
tp451
a(L1306330959L
L0L
(lp452
(lp453
tp454
a(L1783408782L
L1443213481L
(lp455
(lp456
tp457
atp458
sI1074238744
(Vcache_ll_l1_get_bus
p459
(lp460
(L2749735183L
L1443213481L
(lp461
(lp462
tp463
a(L94425498L
L3785322319L
(lp464
(lp465
Vabort
p466
atp467
a(L1872514061L
L1443213481L
(lp468
(lp469
tp470
a(L3824526338L
L1443213481L
(lp471
(lp472
tp473
a(L892952750L
L0L
(lp474
(lp475
tp476
a(L1182811810L
L0L
(lp477
(lp478
tp479
a(L1101742417L
L0L
(lp480
(lp481
tp482
a(L1100767927L
L0L
(lp483
(lp484
tp485
a(L3360570486L
L0L
(lp486
(lp487
tp488
a(L1872508791L
L1443213481L
(lp489
(lp490
tp491
a(L2882938163L
L0L
(lp492
(lp493
tp494
a(L2927201858L
L0L
(lp495
(lp496
tp497
a(L2258718273L
L0L
(lp498
(lp499
tp500
a(L2580713941L
L0L
(lp501
(lp502
tp503
a(L1872508791L
L1443213481L
(lp504
(lp505
tp506
a(L1872514061L
L1443213481L
(lp507
(lp508
tp509
a(L1641149277L
L0L
(lp510
(lp511
tp512
a(L1872508791L
L1443213481L
(lp513
(lp514
tp515
a(L3027019L
L0L
(lp516
(lp517
tp518
a(L1299866560L
L0L
(lp519
(lp520
tp521
a(L1299866436L
L0L
(lp522
(lp523
tp524
atp525
sI1074247960
(Vesp_rom_spiflash_erase_sector
p526
(lp527
(L3892694408L
L1679261929L
(lp528
(lp529
tp530
a(L2258688483L
L0L
(lp531
(lp532
tp533
a(L3360570486L
L0L
(lp534
(lp535
tp536
a(L3212356251L
L3785322319L
(lp537
(lp538
Vesp_rom_spiflash_enable_write
p539
atp540
a(L184152988L
L0L
(lp541
(lp542
tp543
a(L1036552696L
L362179215L
(lp544
(lp545
Vesp_rom_spiflash_wait_idle
p546
atp547
a(L3333707777L
L0L
(lp548
(lp549
tp550
a(L3582858798L
L3785322319L
(lp551
(lp552
Vesp_rom_spiflash_wait_idle
p553
atp554
atp555
sI1074240548
(Vbootloader_sha256_data
p556
(lp557
(L4066096136L
L0L
(lp558
(lp559
tp560
a(L1697654611L
L2195759072L
(lp561
(lp562
tp563
a(L2213948952L
L242900614L
(lp564
(lp565
V__assert_func
p566
atp567
a(L498498478L
L0L
(lp568
(lp569
tp570
a(L3590389832L
L1443213481L
(lp571
(lp572
tp573
a(L2910371777L
L0L
(lp574
(lp575
tp576
a(L3360570486L
L0L
(lp577
(lp578
tp579
a(L1087685526L
L2195759072L
(lp580
(lp581
tp582
a(L426633611L
L1443213481L
(lp583
(lp584
tp585
a(L2584057186L
L1443213481L
(lp586
(lp587
tp588
a(L3342433287L
L1443213481L
(lp589
(lp590
tp591
a(L2526675390L
L242900614L
(lp592
(lp593
V__bswapsi2
p594
atp595
a(L942815853L
L2195759072L
(lp596
(lp597
tp598
a(L1872507229L
L1443213481L
(lp599
(lp600
tp601
a(L147213506L
L1443213481L
(lp602
(lp603
tp604
a(L3745004802L
L0L
(lp605
(lp606
tp607
atp608
sI1074239012
(Vload_image
p609
(lp610
(L3963348381L
L473788538L
(lp611
(lp612
Vesp_log_early_timestamp
p613
aVbootloader_random_disable
p614
aVbootloader_ana_clock_glitch_reset_config
p615
atp616
a(L2261049225L
L0L
(lp617
(lp618
tp619
a(L106L
L0L
(lp620
(lp621
tp622
a(L4185838750L
L1624138773L
(lp623
(lp624
Vmmu_hal_unmap_all
p625
aVcache_ll_l1_get_bus
p626
aVcache_ll_l1_enable_bus
p627
aVcache_ll_l1_get_bus
p628
aVcache_ll_l1_enable_bus
p629
aVcache_ll_l1_get_bus
p630
aVcache_ll_l1_enable_bus
p631
aVcache_ll_l1_get_bus
p632
aVcache_ll_l1_enable_bus
p633
aVbootloader_console_deinit
p634
atp635
a(L2843581588L
L1443213481L
(lp636
(lp637
tp638
a(L2902417580L
L0L
(lp639
(lp640
tp641
a(L3421811081L
L362179215L
(lp642
(lp643
Vesp_log_early_timestamp
p644
atp645
a(L2552261596L
L0L
(lp646
(lp647
tp648
a(L670464924L
L2195759072L
(lp649
(lp650
tp651
a(L3020204L
L0L
(lp652
(lp653
tp654
a(L3421811081L
L362179215L
(lp655
(lp656
Vesp_log_early_timestamp
p657
atp658
a(L3291469664L
L0L
(lp659
(lp660
tp661
a(L2591655545L
L0L
(lp662
(lp663
tp664
atp665
sI1074238244
(Vbootloader_mmap_get_free_pages
p666
(lp667
(L1496516875L
L0L
(lp668
(lp669
tp670
atp671
sI1074245920
(Vrtc_clk_xtal_freq_update
p672
(lp673
(L3023525581L
L2195759072L
(lp674
(lp675
tp676
a(L3509357017L
L0L
(lp677
(lp678
tp679
a(L2266180931L
L0L
(lp680
(lp681
tp682
atp683
sI1074247712
(Vesp_rom_spiflash_enable_write
p684
(lp685
(L2885777558L
L1303911398L
(lp686
(lp687
Vesp_rom_spiflash_wait_idle
p688
atp689
a(L3333707777L
L0L
(lp690
(lp691
tp692
a(L2258688484L
L0L
(lp693
(lp694
tp695
a(L99543895L
L0L
(lp696
(lp697
tp698
a(L2993202392L
L0L
(lp699
(lp700
tp701
a(L1265538927L
L242900614L
(lp702
(lp703
Vesp_rom_spiflash_read_status
p704
atp705
atp706
sI1074238252
(Vbootloader_fill_random
p707
(lp708
(L3377511333L
L2195759072L
(lp709
(lp710
tp711
a(L4033043682L
L4032149094L
(lp712
(lp713
V__assert_func
p714
atp715
a(L1882547218L
L0L
(lp716
(lp717
tp718
a(L2910371777L
L0L
(lp719
(lp720
tp721
a(L95634693L
L0L
(lp722
(lp723
tp724
a(L3630908706L
L0L
(lp725
(lp726
tp727
a(L160162640L
L0L
(lp728
(lp729
tp730
a(L97689L
L0L
(lp731
(lp732
tp733
a(L3360570486L
L0L
(lp734
(lp735
tp736
atp737
sI1074242088
(Vprocess_segments
p738
(lp739
(L1326203493L
L0L
(lp740
(lp741
tp742
a(L1640778736L
L0L
(lp743
(lp744
tp745
a(L3782401745L
L0L
(lp746
(lp747
tp748
a(L106L
L0L
(lp749
(lp750
tp751
a(L3028481L
L0L
(lp752
(lp753
tp754
a(L3014296803L
L3187408090L
(lp755
(lp756
Vesp_log_early_timestamp
p757
atp758
a(L761135359L
L3785322319L
(lp759
(lp760
Vbootloader_flash_read
p761
atp762
a(L3856957476L
L3187408090L
(lp763
(lp764
Vesp_log_early_timestamp
p765
atp766
a(L3871473710L
L0L
(lp767
(lp768
tp769
a(L219417435L
L0L
(lp770
(lp771
tp772
a(L616767314L
L3785322319L
(lp773
(lp774
Vbootloader_sha256_data
p775
atp776
a(L1599301852L
L1443213481L
(lp777
(lp778
tp779
a(L2258837437L
L0L
(lp780
(lp781
tp782
a(L1764156528L
L0L
(lp783
(lp784
tp785
a(L3028481L
L0L
(lp786
(lp787
tp788
a(L2231662647L
L3187408090L
(lp789
(lp790
Vesp_log_early_timestamp
p791
atp792
a(L268651496L
L1443213481L
(lp793
(lp794
tp795
a(L652851030L
L2195759072L
(lp796
(lp797
tp798
a(L3802069243L
L0L
(lp799
(lp800
tp801
a(L3696234693L
L1443213481L
(lp802
(lp803
tp804
a(L2258867228L
L0L
(lp805
(lp806
tp807
a(L2277415887L
L0L
(lp808
(lp809
tp810
a(L3177376558L
L0L
(lp811
(lp812
tp813
a(L3028481L
L0L
(lp814
(lp815
tp816
a(L3861001733L
L3187408090L
(lp817
(lp818
Vesp_log_early_timestamp
p819
atp820
a(L2640606608L
L0L
(lp821
(lp822
tp823
a(L3028481L
L0L
(lp824
(lp825
tp826
a(L3892729576L
L3833084538L
(lp827
(lp828
Vesp_log_early_timestamp
p829
atp830
a(L4033680444L
L404278070L
(lp831
(lp832
tp833
a(L2902417580L
L0L
(lp834
(lp835
tp836
a(L2902417580L
L0L
(lp837
(lp838
tp839
a(L1229952296L
L3785322319L
(lp840
(lp841
Vverify_load_addresses
p842
atp843
a(L3783935185L
L3785322319L
(lp844
(lp845
Vbootloader_mmap_get_free_pages
p846
atp847
a(L3028481L
L0L
(lp848
(lp849
tp850
a(L224879076L
L0L
(lp851
(lp852
tp853
a(L142590671L
L0L
(lp854
(lp855
tp856
a(L3028481L
L0L
(lp857
(lp858
tp859
a(L94425498L
L3785322319L
(lp860
(lp861
Vesp_log_early_timestamp
p862
atp863
a(L1961289970L
L1443213481L
(lp864
(lp865
tp866
a(L4085121624L
L3785322319L
(lp867
(lp868
Vshould_load
p869
atp870
a(L3028481L
L0L
(lp871
(lp872
tp873
a(L1038006420L
L3833084538L
(lp874
(lp875
Vesp_log_early_timestamp
p876
atp877
a(L106L
L0L
(lp878
(lp879
tp880
a(L3815630522L
L0L
(lp881
(lp882
tp883
a(L1646054028L
L3833084538L
(lp884
(lp885
Vesp_log_early_timestamp
p886
atp887
a(L2629678223L
L0L
(lp888
(lp889
tp890
a(L2684012095L
L0L
(lp891
(lp892
tp893
a(L3357777304L
L3785322319L
(lp894
(lp895
Vbootloader_mmap
p896
atp897
a(L3911420474L
L3187408090L
(lp898
(lp899
Vesp_log_early_timestamp
p900
atp901
a(L1698460186L
L0L
(lp902
(lp903
tp904
a(L3264682310L
L1443213481L
(lp905
(lp906
tp907
a(L4016429890L
L242900614L
(lp908
(lp909
Vmemcpy
p910
atp911
a(L1595421496L
L3785322319L
(lp912
(lp913
Vbootloader_munmap
p914
atp915
a(L2757579158L
L0L
(lp916
(lp917
tp918
a(L605525844L
L242900614L
(lp919
(lp920
Vbootloader_fill_random
p921
atp922
a(L3616854679L
L1443213481L
(lp923
(lp924
tp925
a(L3616854679L
L1443213481L
(lp926
(lp927
tp928
a(L3450268858L
L0L
(lp929
(lp930
tp931
a(L3021749L
L0L
(lp932
(lp933
tp934
a(L322434465L
L0L
(lp935
(lp936
tp937
a(L2494883302L
L0L
(lp938
(lp939
tp940
a(L2902417580L
L0L
(lp941
(lp942
tp943
a(L2213415704L
L1443213481L
(lp944
(lp945
tp946
a(L193456747L
L1443213481L
(lp947
(lp948
tp949
a(L1426980959L
L0L
(lp950
(lp951
tp952
a(L1841482652L
L0L
(lp953
(lp954
tp955
a(L653501462L
L0L
(lp956
(lp957
tp958
a(L3310548426L
L3785322319L
(lp959
(lp960
Vbootloader_sha256_data
p961
atp962
a(L90548756L
L0L
(lp963
(lp964
tp965
a(L1702191967L
L1443213481L
(lp966
(lp967
tp968
a(L2364005371L
L0L
(lp969
(lp970
tp971
atp972
sI1074239528
(Vbootloader_utility_load_partition_table
p973
(lp974
(L3401680957L
L3833084538L
(lp975
(lp976
Vbootloader_mmap
p977
atp978
a(L3861134865L
L2147981551L
(lp979
(lp980
Vesp_log_early_timestamp
p981
atp982
a(L2258688482L
L0L
(lp983
(lp984
tp985
a(L3360570486L
L0L
(lp986
(lp987
tp988
a(L2379286607L
L3785322319L
(lp989
(lp990
Vesp_partition_table_verify
p991
atp992
a(L2695471221L
L2147981551L
(lp993
(lp994
Vesp_log_early_timestamp
p995
atp996
a(L2693125842L
L403192672L
(lp997
(lp998
Vesp_log_early_timestamp
p999
aVesp_log_early_timestamp
p1000
atp1001
a(L650140130L
L0L
(lp1002
(lp1003
tp1004
a(L2163909172L
L2801279232L
(lp1005
(lp1006
Vbootloader_munmap
p1007
aVesp_log_early_timestamp
p1008
atp1009
a(L521126897L
L0L
(lp1010
(lp1011
tp1012
a(L3028464L
L0L
(lp1013
(lp1014
tp1015
a(L106L
L0L
(lp1016
(lp1017
tp1018
a(L147213506L
L1443213481L
(lp1019
(lp1020
tp1021
a(L2919580219L
L2147981551L
(lp1022
(lp1023
Vesp_log_early_timestamp
p1024
atp1025
a(L3990577774L
L0L
(lp1026
(lp1027
tp1028
a(L3020187L
L0L
(lp1029
(lp1030
tp1031
a(L3201555411L
L1443213481L
(lp1032
(lp1033
tp1034
a(L1843602828L
L1443213481L
(lp1035
(lp1036
tp1037
a(L326114897L
L1443213481L
(lp1038
(lp1039
tp1040
a(L2487812812L
L1443213481L
(lp1041
(lp1042
tp1043
a(L3478727216L
L1443213481L
(lp1044
(lp1045
tp1046
a(L106L
L0L
(lp1047
(lp1048
tp1049
a(L93674324L
L0L
(lp1050
(lp1051
tp1052
a(L1872515523L
L1443213481L
(lp1053
(lp1054
tp1055
a(L1215408024L
L1443213481L
(lp1056
(lp1057
tp1058
a(L1872515506L
L1443213481L
(lp1059
(lp1060
tp1061
a(L106L
L0L
(lp1062
(lp1063
tp1064
a(L1872515506L
L1443213481L
(lp1065
(lp1066
tp1067
a(L106L
L0L
(lp1068
(lp1069
tp1070
a(L268651496L
L1443213481L
(lp1071
(lp1072
tp1073
atp1074
sI1074244648
(Vwdt_hal_enable
p1075
(lp1076
(L2299130915L
L0L
(lp1077
(lp1078
tp1079
a(L165794138L
L0L
(lp1080
(lp1081
tp1082
a(L3360570486L
L0L
(lp1083
(lp1084
tp1085
a(L2847657174L
L0L
(lp1086
(lp1087
tp1088
atp1089
sI1074245160
(Vrtc_clk_32k_enable
p1090
(lp1091
(L753387299L
L0L
(lp1092
(lp1093
tp1094
a(L3776007933L
L3785322319L
(lp1095
(lp1096
Vrtc_clk_32k_enable_common
p1097
atp1098
a(L3496950L
L0L
(lp1099
(lp1100
tp1101
a(L707626330L
L2534110409L
(lp1102
(lp1103
tp1104
atp1105
sI1074235696
(Vbootloader_flash_xmc_startup
p1106
(lp1107
(L3433652179L
L242900614L
(lp1108
(lp1109
Vis_xmc_chip_strict
p1110
atp1111
a(L2258688482L
L0L
(lp1112
(lp1113
tp1114
a(L3360570486L
L0L
(lp1115
(lp1116
tp1117
a(L2860324232L
L3785322319L
(lp1118
(lp1119
Vbootloader_flash_read_sfdp
p1120
atp1121
a(L933155447L
L3609046414L
(lp1122
(lp1123
Vesp_log_early_timestamp
p1124
aVbootloader_execute_flash_command
p1125
aVbootloader_execute_flash_command
p1126
aVbootloader_execute_flash_command
p1127
aVbootloader_execute_flash_command
p1128
aVbootloader_read_flash_id
p1129
aVis_xmc_chip_strict
p1130
atp1131
a(L1000132677L
L3187408090L
(lp1132
(lp1133
Vesp_log_early_timestamp
p1134
atp1135
atp1136
sI1074269744
(Vbootloader_check_bootloader_validity
p1137
(lp1138
(L2945382592L
L1069700966L
(lp1139
(lp1140
Vefuse_hal_chip_revision
p1141
aVesp_log_early_timestamp
p1142
aVbootloader_common_check_chip_validity
p1143
atp1144
atp1145
sI1074236988
(Vefuse_hal_get_disable_wafer_version_major
p1146
(lp1147
(L4194175088L
L0L
(lp1148
(lp1149
tp1150
atp1151
sI1074237500
(Vbootloader_mmap
p1152
(lp1153
(L3007611739L
L2195759072L
(lp1154
(lp1155
tp1156
a(L1328961945L
L2147981551L
(lp1157
(lp1158
Vesp_log_early_timestamp
p1159
atp1160
a(L1596194698L
L1443213481L
(lp1161
(lp1162
tp1163
a(L3729184599L
L0L
(lp1164
(lp1165
tp1166
a(L4163264550L
L3187408090L
(lp1167
(lp1168
Vesp_log_early_timestamp
p1169
atp1170
a(L2258688482L
L0L
(lp1171
(lp1172
tp1173
a(L3360570486L
L0L
(lp1174
(lp1175
tp1176
a(L3419814624L
L1443213481L
(lp1177
(lp1178
tp1179
a(L1441818867L
L1690040256L
(lp1180
(lp1181
tp1182
a(L3433564204L
L362179215L
(lp1183
(lp1184
Vesp_log_early_timestamp
p1185
atp1186
a(L2543114737L
L2147981551L
(lp1187
(lp1188
Vesp_log_early_timestamp
p1189
atp1190
a(L1137490703L
L2195759072L
(lp1191
(lp1192
tp1193
atp1194
sI1074235960
(Vbootloader_flash_gpio_config
p1195
(lp1196
(L3362256192L
L3785322319L
(lp1197
(lp1198
Vbootloader_common_get_chip_ver_pkg
p1199
atp1200
a(L106L
L0L
(lp1201
(lp1202
tp1203
a(L1998579353L
L0L
(lp1204
(lp1205
tp1206
a(L106L
L0L
(lp1207
(lp1208
tp1209
a(L1839763068L
L1443213481L
(lp1210
(lp1211
tp1212
a(L2440320488L
L1396946377L
(lp1213
(lp1214
tp1215
a(L106L
L0L
(lp1216
(lp1217
tp1218
a(L4003626558L
L0L
(lp1219
(lp1220
tp1221
a(L2164907201L
L2534110409L
(lp1222
(lp1223
tp1224
a(L3360570486L
L0L
(lp1225
(lp1226
tp1227
atp1228
sI1074245688
(Vrtc_clk_cpu_freq_mhz_to_config
p1229
(lp1230
(L908718885L
L3785322319L
(lp1231
(lp1232
Vrtc_clk_xtal_freq_get
p1233
atp1234
a(L60460069L
L0L
(lp1235
(lp1236
tp1237
a(L3802072124L
L0L
(lp1238
(lp1239
tp1240
a(L3159006042L
L0L
(lp1241
(lp1242
tp1243
a(L3360570486L
L0L
(lp1244
(lp1245
tp1246
a(L895147205L
L0L
(lp1247
(lp1248
tp1249
a(L3970036657L
L0L
(lp1250
(lp1251
tp1252
a(L2731353429L
L0L
(lp1253
(lp1254
tp1255
a(L1555485793L
L0L
(lp1256
(lp1257
tp1258
a(L2258897023L
L0L
(lp1259
(lp1260
tp1261
a(L1947499251L
L0L
(lp1262
(lp1263
tp1264
a(L1306331021L
L0L
(lp1265
(lp1266
tp1267
atp1268
sI1074236996
(Vesp_log_early_timestamp
p1269
(lp1270
(L4015029253L
L1443213481L
(lp1271
(lp1272
tp1273
atp1274
sI1074248260
(Vesp_rom_spiflash_write_encrypted
p1275
(lp1276
(L1944247967L
L0L
(lp1277
(lp1278
tp1279
a(L3825342292L
L1443213481L
(lp1280
(lp1281
tp1282
a(L97689L
L0L
(lp1283
(lp1284
tp1285
a(L3061232074L
L0L
(lp1286
(lp1287
tp1288
a(L1562911102L
L1443213481L
(lp1289
(lp1290
tp1291
a(L1309309703L
L3785322319L
(lp1292
(lp1293
Vesp_rom_spiflash_write
p1294
atp1295
a(L2269233063L
L1443213481L
(lp1296
(lp1297
tp1298
a(L735741265L
L0L
(lp1299
(lp1300
tp1301
atp1302
sI1074267724
(Vesp_bootloader_get_description
p1303
(lp1304
(L2248573785L
L2195759072L
(lp1305
(lp1306
tp1307
atp1308
sI1074241344
(Vbootloader_util_regions_overlap
p1309
(lp1310
(L2762640130L
L0L
(lp1311
(lp1312
tp1313
a(L1697654632L
L2195759072L
(lp1314
(lp1315
tp1316
a(L2213948952L
L242900614L
(lp1317
(lp1318
V__assert_func
p1319
atp1320
a(L97642L
L0L
(lp1321
(lp1322
tp1323
a(L1087686177L
L2195759072L
(lp1324
(lp1325
tp1326
a(L366123053L
L0L
(lp1327
(lp1328
tp1329
a(L2258867228L
L0L
(lp1330
(lp1331
tp1332
a(L1253626734L
L0L
(lp1333
(lp1334
tp1335
a(L2258897019L
L0L
(lp1336
(lp1337
tp1338
a(L3109269495L
L0L
(lp1339
(lp1340
tp1341
atp1342
sI1074238016
(Vbootloader_flash_erase_sector
p1343
(lp1344
(L4129137686L
L1880226080L
(lp1345
(lp1346
Vesp_rom_spiflash_erase_sector
p1347
aVspi_to_esp_err
p1348
atp1349
atp1350
sI1074237760
(Vbootloader_flash_read
p1351
(lp1352
(L3022618172L
L0L
(lp1353
(lp1354
tp1355
a(L2493247481L
L2147981551L
(lp1356
(lp1357
Vesp_log_early_timestamp
p1358
atp1359
a(L852987398L
L1443213481L
(lp1360
(lp1361
tp1362
a(L1351513776L
L0L
(lp1363
(lp1364
tp1365
a(L1486740491L
L0L
(lp1366
(lp1367
tp1368
a(L4276228047L
L2147981551L
(lp1369
(lp1370
Vesp_log_early_timestamp
p1371
atp1372
a(L3283691850L
L0L
(lp1373
(lp1374
tp1375
a(L4276228016L
L2147981551L
(lp1376
(lp1377
Vesp_log_early_timestamp
p1378
atp1379
a(L3020204L
L0L
(lp1380
(lp1381
tp1382
a(L384130671L
L0L
(lp1383
(lp1384
tp1385
a(L97422L
L0L
(lp1386
(lp1387
tp1388
a(L515889772L
L2195759072L
(lp1389
(lp1390
tp1391
a(L3321969934L
L1690040256L
(lp1392
(lp1393
tp1394
a(L279744554L
L4032149094L
(lp1395
(lp1396
V__assert_func
p1397
atp1398
a(L4071371888L
L2534110409L
(lp1399
(lp1400
tp1401
a(L2438181396L
L1443213481L
(lp1402
(lp1403
tp1404
a(L1976506429L
L3635241909L
(lp1405
(lp1406
Vesp_rom_spiflash_read
p1407
aVspi_to_esp_err
p1408
atp1409
atp1410
sI1074244940
(Vrtc_clk_cpu_freq_to_pll_mhz
p1411
(lp1412
(L3231135830L
L0L
(lp1413
(lp1414
tp1415
a(L2102627717L
L2195759072L
(lp1416
(lp1417
tp1418
a(L2982280123L
L3380333161L
(lp1419
(lp1420
Vesp_rom_set_cpu_ticks_per_us
p1421
aVrtc_clk_wait_for_slow_cycle
p1422
atp1423
a(L708686908L
L1443213481L
(lp1424
(lp1425
tp1426
a(L3284807114L
L0L
(lp1427
(lp1428
tp1429
a(L94425498L
L3785322319L
(lp1430
(lp1431
Vabort
p1432
atp1433
a(L2258897019L
L0L
(lp1434
(lp1435
tp1436
a(L1113742378L
L0L
(lp1437
(lp1438
tp1439
a(L1306330990L
L0L
(lp1440
(lp1441
tp1442
atp1443
sI1074245964
(Vrtc_clk_apb_freq_update
p1444
(lp1445
(L3982322780L
L1443213481L
(lp1446
(lp1447
tp1448
atp1449
sI1074247496
(Vesp_efuse_utility_update_virt_blocks
p1450
(lp1451
(L2637312636L
L789321530L
(lp1452
(lp1453
Vesp_log_early_timestamp
p1454
atp1455
a(L3983579031L
L1690040256L
(lp1456
(lp1457
tp1458
a(L3021749L
L0L
(lp1459
(lp1460
tp1461
a(L2329022007L
L0L
(lp1462
(lp1463
tp1464
a(L3360570486L
L0L
(lp1465
(lp1466
tp1467
a(L2569287024L
L1443213481L
(lp1468
(lp1469
tp1470
atp1471
sI1074270296
(Vrtc_clk_init
p1472
(lp1473
(L1100006719L
L1443213481L
(lp1474
(lp1475
tp1476
a(L42671777L
L3785322319L
(lp1477
(lp1478
Vrtc_clk_cpu_freq_to_xtal
p1479
atp1480
a(L739905763L
L1743007695L
(lp1481
(lp1482
Vrtc_clk_xtal_freq_get
p1483
atp1484
a(L3028481L
L0L
(lp1485
(lp1486
tp1487
a(L4284274517L
L3785322319L
(lp1488
(lp1489
Vrtc_clk_xtal_freq_estimate
p1490
atp1491
a(L2576622952L
L3187408090L
(lp1492
(lp1493
Vesp_log_early_timestamp
p1494
atp1495
a(L1822030105L
L3065544262L
(lp1496
(lp1497
Vesp_rom_uart_tx_wait_idle
p1498
aVrtc_clk_xtal_freq_update
p1499
aVrtc_clk_apb_freq_update
p1500
aVrtc_clk_cpu_freq_get_config
p1501
aVrtc_clk_cpu_freq_mhz_to_config
p1502
atp1503
a(L521302419L
L2704288053L
(lp1504
(lp1505
Vesp_log_early_timestamp
p1506
aVabort
p1507
atp1508
a(L2902417580L
L0L
(lp1509
(lp1510
tp1511
a(L1899970065L
L0L
(lp1512
(lp1513
tp1514
a(L377687546L
L3785322319L
(lp1515
(lp1516
Vrtc_clk_xtal_freq_estimate
p1517
atp1518
a(L2163742247L
L3187408090L
(lp1519
(lp1520
Vesp_log_early_timestamp
p1521
atp1522
a(L299116989L
L2426646996L
(lp1523
(lp1524
Vrtc_clk_cpu_freq_set_config
p1525
aV__udivdi3
p1526
atp1527
a(L912310138L
L3785322319L
(lp1528
(lp1529
Vrtc_clk_32k_enable
p1530
atp1531
a(L3191820416L
L1832448559L
(lp1532
(lp1533
Vrtc_clk_8m_enable
p1534
aVrtc_clk_fast_src_set
p1535
aVrtc_clk_slow_src_set
p1536
atp1537
a(L1232958848L
L0L
(lp1538
(lp1539
tp1540
atp1541
sI1074238036
(Vbootloader_flash_write
p1542
(lp1543
(L3770380603L
L0L
(lp1544
(lp1545
tp1546
a(L2654201950L
L2147981551L
(lp1547
(lp1548
Vesp_log_early_timestamp
p1549
atp1550
a(L4207910112L
L1443213481L
(lp1551
(lp1552
tp1553
a(L1610445075L
L0L
(lp1554
(lp1555
tp1556
a(L735741265L
L0L
(lp1557
(lp1558
tp1559
a(L3291333414L
L0L
(lp1560
(lp1561
tp1562
a(L416217162L
L2147981551L
(lp1563
(lp1564
Vesp_log_early_timestamp
p1565
atp1566
a(L3283691850L
L0L
(lp1567
(lp1568
tp1569
a(L212182276L
L3187408090L
(lp1570
(lp1571
Vesp_log_early_timestamp
p1572
atp1573
a(L3212356251L
L3785322319L
(lp1574
(lp1575
Vbootloader_flash_unlock
p1576
atp1577
a(L1799218633L
L0L
(lp1578
(lp1579
tp1580
a(L94425498L
L3785322319L
(lp1581
(lp1582
Vesp_rom_spiflash_write_encrypted
p1583
atp1584
a(L2927190544L
L3785322319L
(lp1585
(lp1586
Vspi_to_esp_err
p1587
atp1588
a(L2927190544L
L3785322319L
(lp1589
(lp1590
Vesp_rom_spiflash_write
p1591
atp1592
atp1593
sI1074236756
(Vefuse_hal_chip_revision
p1594
(lp1595
(L2719302832L
L1880226080L
(lp1596
(lp1597
Vefuse_hal_get_major_chip_version
p1598
aVefuse_hal_get_minor_chip_version
p1599
atp1600
atp1601
sI1074241872
(Vprocess_appended_hash_and_sig
p1602
(lp1603
(L1668084157L
L0L
(lp1604
(lp1605
tp1606
a(L2910371777L
L0L
(lp1607
(lp1608
tp1609
a(L4285188111L
L0L
(lp1610
(lp1611
tp1612
a(L1151175705L
L0L
(lp1613
(lp1614
tp1615
a(L97689L
L0L
(lp1616
(lp1617
tp1618
a(L2250231589L
L3187408090L
(lp1619
(lp1620
Vesp_log_early_timestamp
p1621
atp1622
a(L268651496L
L1443213481L
(lp1623
(lp1624
tp1625
a(L1464893571L
L3785322319L
(lp1626
(lp1627
Vbootloader_flash_read
p1628
atp1629
a(L735741265L
L0L
(lp1630
(lp1631
tp1632
atp1633
sI1074267732
(Vcall_start_cpu0
p1634
(lp1635
(L342432055L
L1443213481L
(lp1636
(lp1637
tp1638
a(L4207910112L
L1443213481L
(lp1639
(lp1640
tp1641
a(L3212347974L
L3785322319L
(lp1642
(lp1643
Vbootloader_init
p1644
atp1645
a(L94425498L
L3785322319L
(lp1646
(lp1647
Vbootloader_reset
p1648
atp1649
a(L1872507246L
L1443213481L
(lp1650
(lp1651
tp1652
a(L4207910112L
L1443213481L
(lp1653
(lp1654
tp1655
a(L356913563L
L2218577417L
(lp1656
(lp1657
Vmemset
p1658
aVbootloader_utility_load_partition_table
p1659
atp1660
a(L3014296803L
L3187408090L
(lp1661
(lp1662
Vesp_log_early_timestamp
p1663
atp1664
a(L405422123L
L3785322319L
(lp1665
(lp1666
Vbootloader_utility_get_selected_boot_partition
p1667
atp1668
a(L2025208509L
L242900614L
(lp1669
(lp1670
Vbootloader_utility_load_boot_image
p1671
atp1672
atp1673
sI1074270036
(Vbootloader_console_init
p1674
(lp1675
(L3806010175L
L988378406L
(lp1676
(lp1677
Vesp_rom_uart_tx_wait_idle
p1678
aVrtc_clk_apb_freq_get
p1679
aVesp_rom_uart_set_clock_baudrate
p1680
atp1681
atp1682
sI1074247768
(Vesp_rom_spiflash_program_page_internal
p1683
(lp1684
(L2569069283L
L0L
(lp1685
(lp1686
tp1687
a(L2258688483L
L0L
(lp1688
(lp1689
tp1690
a(L3360570486L
L0L
(lp1691
(lp1692
tp1693
a(L2295540031L
L1443213481L
(lp1694
(lp1695
tp1696
a(L4235661475L
L3785322319L
(lp1697
(lp1698
Vesp_rom_spiflash_wait_idle
p1699
atp1700
a(L1299866312L
L0L
(lp1701
(lp1702
tp1703
a(L3212356251L
L3785322319L
(lp1704
(lp1705
Vesp_rom_spiflash_enable_write
p1706
atp1707
a(L1834262847L
L2195759072L
(lp1708
(lp1709
tp1710
a(L633937013L
L1443213481L
(lp1711
(lp1712
tp1713
a(L2953702749L
L0L
(lp1714
(lp1715
tp1716
a(L2989032L
L0L
(lp1717
(lp1718
tp1719
a(L1965622133L
L0L
(lp1720
(lp1721
tp1722
a(L809386272L
L2195759072L
(lp1723
(lp1724
tp1725
a(L1958113242L
L0L
(lp1726
(lp1727
tp1728
a(L106L
L0L
(lp1729
(lp1730
tp1731
a(L3112950080L
L0L
(lp1732
(lp1733
tp1734
a(L1868606439L
L0L
(lp1735
(lp1736
tp1737
a(L147213506L
L1443213481L
(lp1738
(lp1739
tp1740
a(L1933954923L
L0L
(lp1741
(lp1742
tp1743
a(L1147866918L
L0L
(lp1744
(lp1745
tp1746
a(L3871602522L
L0L
(lp1747
(lp1748
tp1749
atp1750
sI1074245220
(Vrtc_clk_8m_enable
p1751
(lp1752
(L2359152383L
L2195759072L
(lp1753
(lp1754
tp1755
a(L2145669267L
L1443213481L
(lp1756
(lp1757
tp1758
a(L2151320156L
L0L
(lp1759
(lp1760
tp1761
a(L1262936142L
L1443213481L
(lp1762
(lp1763
tp1764
a(L3360570486L
L0L
(lp1765
(lp1766
tp1767
a(L1318267208L
L0L
(lp1768
(lp1769
tp1770
a(L1085208965L
L1443213481L
(lp1771
(lp1772
tp1773
atp1774
sI1074237028
(Vbootloader_common_ota_select_crc
p1775
(lp1776
(L2925798959L
L1443213481L
(lp1777
(lp1778
tp1779
atp1780
sI1074244204
(Vwdt_hal_config_stage
p1781
(lp1782
(L331558507L
L0L
(lp1783
(lp1784
tp1785
a(L4279082939L
L0L
(lp1786
(lp1787
tp1788
a(L93674324L
L0L
(lp1789
(lp1790
tp1791
a(L2902417580L
L0L
(lp1792
(lp1793
tp1794
a(L1506709436L
L1443213481L
(lp1795
(lp1796
tp1797
a(L3020187L
L0L
(lp1798
(lp1799
tp1800
a(L94425498L
L3785322319L
(lp1801
(lp1802
Vabort
p1803
atp1804
a(L1999536000L
L1443213481L
(lp1805
(lp1806
tp1807
a(L3360570486L
L0L
(lp1808
(lp1809
tp1810
a(L2402105077L
L1443213481L
(lp1811
(lp1812
tp1813
a(L3297501927L
L1443213481L
(lp1814
(lp1815
tp1816
a(L4278159418L
L0L
(lp1817
(lp1818
tp1819
a(L93674324L
L0L
(lp1820
(lp1821
tp1822
a(L3020204L
L0L
(lp1823
(lp1824
tp1825
a(L2956541743L
L1443213481L
(lp1826
(lp1827
tp1828
a(L3020187L
L0L
(lp1829
(lp1830
tp1831
a(L106L
L0L
(lp1832
(lp1833
tp1834
a(L1473987957L
L1443213481L
(lp1835
(lp1836
tp1837
a(L927955509L
L1443213481L
(lp1838
(lp1839
tp1840
a(L3740367810L
L1443213481L
(lp1841
(lp1842
tp1843
atp1844
sI1074236780
(Vefuse_hal_flash_encryption_enabled
p1845
(lp1846
(L221474917L
L1443213481L
(lp1847
(lp1848
tp1849
a(L2910371777L
L0L
(lp1850
(lp1851
tp1852
a(L3360570486L
L0L
(lp1853
(lp1854
tp1855
a(L3016870L
L0L
(lp1856
(lp1857
tp1858
a(L3745038218L
L0L
(lp1859
(lp1860
tp1861
a(L957607403L
L0L
(lp1862
(lp1863
tp1864
atp1865
sI1074234728
(Vbootloader_common_get_chip_ver_pkg
p1866
(lp1867
(L3197874814L
L1443213481L
(lp1868
(lp1869
tp1870
atp1871
sI1074245992
(Vrtc_clk_cpu_freq_to_xtal
p1872
(lp1873
(L767415990L
L3785322319L
(lp1874
(lp1875
Vesp_rom_set_cpu_ticks_per_us
p1876
atp1877
a(L94425498L
L3785322319L
(lp1878
(lp1879
Vabort
p1880
atp1881
a(L749912951L
L671729222L
(lp1882
(lp1883
Vrtc_clk_apb_freq_update
p1884
atp1885
a(L2258867230L
L0L
(lp1886
(lp1887
tp1888
a(L1803595874L
L2195759072L
(lp1889
(lp1890
tp1891
atp1892
sI1074270072
(Vesp_cpu_configure_region_protection
p1893
(lp1894
(L3233924472L
L581251951L
(lp1895
(lp1896
Vmemcpy
p1897
atp1898
a(L180431425L
L3785322319L
(lp1899
(lp1900
Vmpu_hal_set_region_access
p1901
atp1902
a(L2537388152L
L3785322319L
(lp1903
(lp1904
Vmpu_hal_set_region_access
p1905
atp1906
atp1907
sI1074244720
(Vmmu_hal_unmap_all
p1908
(lp1909
(L3970138582L
L1443213481L
(lp1910
(lp1911
tp1912
a(L2010554219L
L0L
(lp1913
(lp1914
tp1915
a(L147213506L
L1443213481L
(lp1916
(lp1917
tp1918
a(L3212334523L
L0L
(lp1919
(lp1920
tp1921
a(L2010554219L
L0L
(lp1922
(lp1923
tp1924
a(L3360570486L
L0L
(lp1925
(lp1926
tp1927
atp1928
sI1074240892
(Vbootloader_console_deinit
p1929
(lp1930
(L1858531217L
L1443213481L
(lp1931
(lp1932
tp1933
atp1934
sI1074238332
(Vbootloader_random_disable
p1935
(lp1936
(L482324986L
L2935979744L
(lp1937
(lp1938
tp1939
atp1940
sI1074269812
(Vbootloader_config_wdt
p1941
(lp1942
(L3447475412L
L603716358L
(lp1943
(lp1944
Vwdt_hal_write_protect_disable
p1945
aVwdt_hal_set_flashboot_en
p1946
aVwdt_hal_write_protect_enable
p1947
aVwdt_hal_init
p1948
aVrtc_clk_slow_freq_get_hz
p1949
aVwdt_hal_write_protect_disable
p1950
aV__udivdi3
p1951
aVwdt_hal_config_stage
p1952
aVwdt_hal_enable
p1953
aVwdt_hal_write_protect_enable
p1954
aVwdt_hal_write_protect_disable
p1955
aVwdt_hal_set_flashboot_en
p1956
aVwdt_hal_write_protect_enable
p1957
atp1958
atp1959
sI1074237048
(Vbootloader_common_ota_select_valid
p1960
(lp1961
(L1563399710L
L3785322319L
(lp1962
(lp1963
Vbootloader_common_ota_select_invalid
p1964
atp1965
a(L3814720849L
L3785322319L
(lp1966
(lp1967
Vbootloader_common_ota_select_crc
p1968
atp1969
a(L3360570486L
L0L
(lp1970
(lp1971
tp1972
atp1973
sI1074241400
(Vverify_load_addresses
p1974
(lp1975
(L2764487219L
L0L
(lp1976
(lp1977
tp1978
a(L106L
L0L
(lp1979
(lp1980
tp1981
a(L97642L
L0L
(lp1982
(lp1983
tp1984
a(L1682572953L
L4032149094L
(lp1985
(lp1986
V__assert_func
p1987
atp1988
a(L371731316L
L2195759072L
(lp1989
(lp1990
tp1991
a(L106L
L0L
(lp1992
(lp1993
tp1994
a(L3747671351L
L2195759072L
(lp1995
(lp1996
tp1997
a(L106L
L0L
(lp1998
(lp1999
tp2000
a(L159211233L
L4171435875L
(lp2001
(lp2002
Vbootloader_util_regions_overlap
p2003
atp2004
a(L3369736729L
L581251951L
(lp2005
(lp2006
Vbootloader_util_regions_overlap
p2007
atp2008
a(L3028481L
L0L
(lp2009
(lp2010
tp2011
a(L129067213L
L242900614L
(lp2012
(lp2013
Vbootloader_util_regions_overlap
p2014
atp2015
a(L51970127L
L2534110409L
(lp2016
(lp2017
tp2018
a(L3212477138L
L1443213481L
(lp2019
(lp2020
tp2021
a(L1032381749L
L0L
(lp2022
(lp2023
tp2024
a(L2837304413L
L0L
(lp2025
(lp2026
tp2027
a(L677569396L
L3785322319L
(lp2028
(lp2029
Vverify_load_addresses
p2030
atp2031
a(L1351513776L
L0L
(lp2032
(lp2033
tp2034
a(L956755582L
L0L
(lp2035
(lp2036
tp2037
a(L1550159667L
L1443213481L
(lp2038
(lp2039
tp2040
a(L2297907636L
L2195759072L
(lp2041
(lp2042
tp2043
a(L106L
L0L
(lp2044
(lp2045
tp2046
a(L1378880375L
L2195759072L
(lp2047
(lp2048
tp2049
a(L106L
L0L
(lp2050
(lp2051
tp2052
a(L1933245593L
L581251951L
(lp2053
(lp2054
Vbootloader_util_regions_overlap
p2055
atp2056
a(L3028481L
L0L
(lp2057
(lp2058
tp2059
a(L2219806806L
L581251951L
(lp2060
(lp2061
Vbootloader_util_regions_overlap
p2062
atp2063
a(L3186102034L
L1690040256L
(lp2064
(lp2065
tp2066
a(L1284972329L
L1443213481L
(lp2067
(lp2068
tp2069
a(L3236457224L
L1443213481L
(lp2070
(lp2071
tp2072
a(L2743341656L
L0L
(lp2073
(lp2074
tp2075
a(L182882711L
L0L
(lp2076
(lp2077
tp2078
a(L2268367078L
L2195759072L
(lp2079
(lp2080
tp2081
a(L297163306L
L0L
(lp2082
(lp2083
tp2084
a(L1900059593L
L0L
(lp2085
(lp2086
tp2087
a(L376010266L
L2534110409L
(lp2088
(lp2089
tp2090
a(L1319531632L
L1443213481L
(lp2091
(lp2092
tp2093
a(L3929371936L
L0L
(lp2094
(lp2095
tp2096
a(L147213506L
L1443213481L
(lp2097
(lp2098
tp2099
a(L4072848040L
L0L
(lp2100
(lp2101
tp2102
a(L106L
L0L
(lp2103
(lp2104
tp2105
a(L268651496L
L1443213481L
(lp2106
(lp2107
tp2108
a(L147213506L
L1443213481L
(lp2109
(lp2110
tp2111
a(L3020204L
L0L
(lp2112
(lp2113
tp2114
a(L885671544L
L2275292552L
(lp2115
(lp2116
Vesp_log_early_timestamp
p2117
atp2118
a(L1303560396L
L0L
(lp2119
(lp2120
tp2121
a(L268651496L
L1443213481L
(lp2122
(lp2123
tp2124
a(L1303560427L
L0L
(lp2125
(lp2126
tp2127
atp2128
sI1074241156
(Vprocess_image_header
p2129
(lp2130
(L3301900732L
L2218577417L
(lp2131
(lp2132
Vmemset
p2133
aVbootloader_flash_read
p2134
atp2135
a(L3020204L
L0L
(lp2136
(lp2137
tp2138
a(L4205021202L
L0L
(lp2139
(lp2140
tp2141
a(L321261932L
L0L
(lp2142
(lp2143
tp2144
a(L1161397362L
L3785322319L
(lp2145
(lp2146
Vbootloader_sha256_start
p2147
atp2148
a(L2062774299L
L3785322319L
(lp2149
(lp2150
Vbootloader_sha256_data
p2151
atp2152
a(L1291118193L
L0L
(lp2153
(lp2154
tp2155
a(L3028481L
L0L
(lp2156
(lp2157
tp2158
a(L559062533L
L3187408090L
(lp2159
(lp2160
Vesp_log_early_timestamp
p2161
atp2162
a(L147213506L
L1443213481L
(lp2163
(lp2164
tp2165
a(L2983970029L
L0L
(lp2166
(lp2167
tp2168
a(L4235213884L
L3785322319L
(lp2169
(lp2170
Vbootloader_common_check_chip_validity
p2171
atp2172
a(L4144303915L
L0L
(lp2173
(lp2174
tp2175
a(L3028481L
L0L
(lp2176
(lp2177
tp2178
a(L3714328738L
L3187408090L
(lp2179
(lp2180
Vesp_log_early_timestamp
p2181
atp2182
a(L2852701393L
L0L
(lp2183
(lp2184
tp2185
a(L2122516551L
L0L
(lp2186
(lp2187
tp2188
a(L3064492592L
L0L
(lp2189
(lp2190
tp2191
atp2192
sI1074246788
(Vrtc_clk_apb_freq_get
p2193
(lp2194
(L189810653L
L1679261929L
(lp2195
(lp2196
tp2197
atp2198
sI1074235264
(Vbootloader_execute_flash_command
p2199
(lp2200
(L2481595632L
L3785322319L
(lp2201
(lp2202
Vbootloader_flash_execute_command_common
p2203
atp2204
atp2205
sI1074247296
(Vrtc_clk_cal_ratio
p2206
(lp2207
(L3870710856L
L195123093L
(lp2208
(lp2209
Vrtc_clk_cal_internal
p2210
aV__udivdi3
p2211
atp2212
atp2213
sI1074240908
(V__assert_func
p2214
(lp2215
(L3115292802L
L2195759072L
(lp2216
(lp2217
tp2218
a(L106L
L0L
(lp2219
(lp2220
tp2221
atp2222
sI1074238860
(Vtry_load_partition
p2223
(lp2224
(L1263750142L
L0L
(lp2225
(lp2226
tp2227
a(L2258688482L
L0L
(lp2228
(lp2229
tp2230
a(L3360570486L
L0L
(lp2231
(lp2232
tp2233
a(L530241438L
L3785322319L
(lp2234
(lp2235
Vbootloader_load_image
p2236
atp2237
a(L4168266278L
L3187408090L
(lp2238
(lp2239
Vesp_log_early_timestamp
p2240
atp2241
atp2242
sI1074237324
(Vbootloader_common_get_active_otadata
p2243
(lp2244
(L3317503532L
L0L
(lp2245
(lp2246
tp2247
a(L2503049265L
L1832448559L
(lp2248
(lp2249
Vbootloader_common_ota_select_valid
p2250
aVbootloader_common_ota_select_valid
p2251
aVbootloader_common_select_otadata
p2252
atp2253
a(L735741265L
L0L
(lp2254
(lp2255
tp2256
atp2257
sI1074249100
(V_fini
p2258
(lp2259
(L3493042598L
L0L
(lp2260
(lp2261
tp2262
atp2263
sI1074234760
(Vesp_flash_encryption_enabled
p2264
(lp2265
(L376617603L
L3785322319L
(lp2266
(lp2267
Vefuse_hal_flash_encryption_enabled
p2268
atp2269
atp2270
sI1074245512
(Vrtc_clk_slow_src_get
p2271
(lp2272
(L1566794270L
L1443213481L
(lp2273
(lp2274
tp2275
a(L3020187L
L0L
(lp2276
(lp2277
tp2278
a(L2902417580L
L0L
(lp2279
(lp2280
tp2281
a(L2258688485L
L0L
(lp2282
(lp2283
tp2284
a(L3360570486L
L0L
(lp2285
(lp2286
tp2287
atp2288
sI1074247560
(Vesp_efuse_init_virtual_mode_in_ram
p2289
(lp2290
(L1287383080L
L3785322319L
(lp2291
(lp2292
Vesp_efuse_utility_update_virt_blocks
p2293
atp2294
atp2295
sI1074239892
(Vbootloader_utility_get_selected_boot_partition
p2296
(lp2297
(L2938832293L
L0L
(lp2298
(lp2299
tp2300
a(L2250662613L
L1443213481L
(lp2301
(lp2302
tp2303
a(L3987062097L
L2147981551L
(lp2304
(lp2305
Vesp_log_early_timestamp
p2306
atp2307
a(L558289164L
L1443213481L
(lp2308
(lp2309
tp2310
a(L3360570486L
L0L
(lp2311
(lp2312
tp2313
a(L3118387733L
L3785322319L
(lp2314
(lp2315
Vbootloader_mmap
p2316
atp2317
a(L3080008394L
L2147981551L
(lp2318
(lp2319
Vesp_log_early_timestamp
p2320
atp2321
a(L937961821L
L2410515468L
(lp2322
(lp2323
Vmemcpy
p2324
aVmemcpy
p2325
aVbootloader_munmap
p2326
aVbootloader_common_ota_select_invalid
p2327
atp2328
a(L2911028409L
L0L
(lp2329
(lp2330
tp2331
a(L726754926L
L3785322319L
(lp2332
(lp2333
Vbootloader_common_get_active_otadata
p2334
atp2335
a(L106L
L0L
(lp2336
(lp2337
tp2338
a(L4179097382L
L0L
(lp2339
(lp2340
tp2341
a(L788494392L
L3785322319L
(lp2342
(lp2343
Vbootloader_common_ota_select_invalid
p2344
atp2345
a(L638952356L
L1443213481L
(lp2346
(lp2347
tp2348
a(L1522345576L
L3833084538L
(lp2349
(lp2350
Vesp_log_early_timestamp
p2351
atp2352
a(L4207910112L
L1443213481L
(lp2353
(lp2354
tp2355
a(L1641201884L
L0L
(lp2356
(lp2357
tp2358
a(L3196944801L
L2147981551L
(lp2359
(lp2360
Vesp_log_early_timestamp
p2361
atp2362
a(L2302032704L
L0L
(lp2363
(lp2364
tp2365
a(L1173788779L
L3785322319L
(lp2366
(lp2367
Vbootloader_common_ota_select_crc
p2368
atp2369
a(L178397698L
L1443213481L
(lp2370
(lp2371
tp2372
a(L1324800084L
L3785322319L
(lp2373
(lp2374
Vbootloader_common_ota_select_crc
p2375
atp2376
a(L1299866312L
L0L
(lp2377
(lp2378
tp2379
a(L2704362655L
L1443213481L
(lp2380
(lp2381
tp2382
a(L344024800L
L3833084538L
(lp2383
(lp2384
Vesp_log_early_timestamp
p2385
atp2386
a(L1194215008L
L3833084538L
(lp2387
(lp2388
Vesp_log_early_timestamp
p2389
atp2390
atp2391
sI1074236820
(Vefuse_hal_get_major_chip_version
p2392
(lp2393
(L1572156932L
L2195759072L
(lp2394
(lp2395
tp2396
a(L894792960L
L0L
(lp2397
(lp2398
tp2399
a(L724635033L
L0L
(lp2400
(lp2401
tp2402
a(L3360570486L
L0L
(lp2403
(lp2404
tp2405
atp2406
sI1074234772
(Vbootloader_flash_execute_command_common
p2407
(lp2408
(L1988465817L
L0L
(lp2409
(lp2410
tp2411
a(L2946944720L
L2195759072L
(lp2412
(lp2413
tp2414
a(L2213948952L
L242900614L
(lp2415
(lp2416
V__assert_func
p2417
atp2418
a(L3021749L
L0L
(lp2419
(lp2420
tp2421
a(L1160973241L
L2195759072L
(lp2422
(lp2423
tp2424
a(L2792673601L
L1679261929L
(lp2425
(lp2426
tp2427
a(L3792188146L
L0L
(lp2428
(lp2429
tp2430
a(L4024113366L
L0L
(lp2431
(lp2432
tp2433
a(L3275299125L
L1443213481L
(lp2434
(lp2435
tp2436
a(L2232084959L
L2534110409L
(lp2437
(lp2438
tp2439
a(L1099389923L
L0L
(lp2440
(lp2441
tp2442
a(L857553440L
L2195759072L
(lp2443
(lp2444
tp2445
a(L3877681344L
L0L
(lp2446
(lp2447
tp2448
a(L73134175L
L1443213481L
(lp2449
(lp2450
tp2451
a(L1270255739L
L0L
(lp2452
(lp2453
tp2454
a(L3691039583L
L0L
(lp2455
(lp2456
tp2457
a(L3411317116L
L0L
(lp2458
(lp2459
tp2460
a(L3360570486L
L0L
(lp2461
(lp2462
tp2463
atp2464
sI1074245780
(Vrtc_clk_cpu_freq_get_config
p2465
(lp2466
(L4245581454L
L1443213481L
(lp2467
(lp2468
tp2469
a(L3020187L
L0L
(lp2470
(lp2471
tp2472
a(L3020187L
L0L
(lp2473
(lp2474
tp2475
a(L2734221335L
L242900614L
(lp2476
(lp2477
Vrtc_clk_xtal_freq_get
p2478
atp2479
a(L3789795478L
L0L
(lp2480
(lp2481
tp2482
a(L672805395L
L2704288053L
(lp2483
(lp2484
Vesp_log_early_timestamp
p2485
aVabort
p2486
atp2487
a(L3849169076L
L1443213481L
(lp2488
(lp2489
tp2490
a(L3020187L
L0L
(lp2491
(lp2492
tp2493
a(L3028481L
L0L
(lp2494
(lp2495
tp2496
a(L38508693L
L0L
(lp2497
(lp2498
tp2499
a(L187152368L
L0L
(lp2500
(lp2501
tp2502
a(L1161083655L
L0L
(lp2503
(lp2504
tp2505
a(L1395485899L
L0L
(lp2506
(lp2507
tp2508
a(L2070600034L
L0L
(lp2509
(lp2510
tp2511
atp2512
sI1074247568
(Vesp_rom_spiflash_read_status
p2513
(lp2514
(L3588638125L
L1443213481L
(lp2515
(lp2516
tp2517
a(L4250092034L
L2534110409L
(lp2518
(lp2519
tp2520
a(L4159619641L
L0L
(lp2521
(lp2522
tp2523
a(L2392720019L
L0L
(lp2524
(lp2525
tp2526
a(L2258688487L
L0L
(lp2527
(lp2528
tp2529
a(L4159619145L
L0L
(lp2530
(lp2531
tp2532
a(L3241763332L
L1443213481L
(lp2533
(lp2534
tp2535
a(L3117156279L
L0L
(lp2536
(lp2537
tp2538
a(L2123059967L
L0L
(lp2539
(lp2540
tp2541
a(L582177370L
L0L
(lp2542
(lp2543
tp2544
atp2545
sI1074237084
(Vbootloader_common_check_chip_validity
p2546
(lp2547
(L2080115690L
L0L
(lp2548
(lp2549
tp2550
a(L3255759481L
L3187408090L
(lp2551
(lp2552
Vesp_log_early_timestamp
p2553
atp2554
a(L1299867982L
L0L
(lp2555
(lp2556
tp2557
a(L3360570486L
L0L
(lp2558
(lp2559
tp2560
a(L521940037L
L3785322319L
(lp2561
(lp2562
Vefuse_hal_chip_revision
p2563
atp2564
a(L332291457L
L1443213481L
(lp2565
(lp2566
tp2567
a(L780168284L
L362179215L
(lp2568
(lp2569
Vesp_log_early_timestamp
p2570
atp2571
a(L3028464L
L0L
(lp2572
(lp2573
tp2574
a(L573448730L
L0L
(lp2575
(lp2576
tp2577
a(L106L
L0L
(lp2578
(lp2579
tp2580
a(L3027019L
L0L
(lp2581
(lp2582
tp2583
a(L106L
L0L
(lp2584
(lp2585
tp2586
a(L3212356251L
L3785322319L
(lp2587
(lp2588
Vefuse_hal_get_disable_wafer_version_major
p2589
atp2590
a(L2465410698L
L362179215L
(lp2591
(lp2592
Vesp_log_early_timestamp
p2593
atp2594
atp2595
sI1074248348
(Vesp_rom_spiflash_read
p2596
(lp2597
(L1499485309L
L1690040256L
(lp2598
(lp2599
tp2600
a(L3114780042L
L1679261929L
(lp2601
(lp2602
tp2603
a(L2860271684L
L0L
(lp2604
(lp2605
tp2606
a(L1872504408L
L1443213481L
(lp2607
(lp2608
tp2609
a(L106L
L0L
(lp2610
(lp2611
tp2612
a(L633884026L
L0L
(lp2613
(lp2614
tp2615
a(L106L
L0L
(lp2616
(lp2617
tp2618
a(L1100272902L
L1443213481L
(lp2619
(lp2620
tp2621
a(L1372101025L
L1690040256L
(lp2622
(lp2623
tp2624
a(L974197278L
L2195759072L
(lp2625
(lp2626
tp2627
a(L336550648L
L0L
(lp2628
(lp2629
tp2630
a(L3167414617L
L1443213481L
(lp2631
(lp2632
tp2633
a(L106L
L0L
(lp2634
(lp2635
tp2636
a(L3138763340L
L362179215L
(lp2637
(lp2638
Vesp_rom_spiflash_wait_idle
p2639
atp2640
a(L3021737L
L0L
(lp2641
(lp2642
tp2643
a(L106L
L0L
(lp2644
(lp2645
tp2646
a(L1868280504L
L0L
(lp2647
(lp2648
tp2649
a(L106L
L0L
(lp2650
(lp2651
tp2652
a(L750281353L
L0L
(lp2653
(lp2654
tp2655
a(L3897437082L
L0L
(lp2656
(lp2657
tp2658
a(L4122060822L
L0L
(lp2659
(lp2660
tp2661
a(L483218220L
L1443213481L
(lp2662
(lp2663
tp2664
a(L2989032L
L0L
(lp2665
(lp2666
tp2667
a(L3819849625L
L0L
(lp2668
(lp2669
tp2670
a(L1082031446L
L2195759072L
(lp2671
(lp2672
tp2673
a(L1872504408L
L1443213481L
(lp2674
(lp2675
tp2676
a(L147213506L
L1443213481L
(lp2677
(lp2678
tp2679
a(L2062799182L
L2534110409L
(lp2680
(lp2681
tp2682
a(L2921907736L
L0L
(lp2683
(lp2684
tp2685
a(L3677617742L
L1443213481L
(lp2686
(lp2687
tp2688
a(L2483025066L
L1679261929L
(lp2689
(lp2690
tp2691
a(L2136664087L
L1443213481L
(lp2692
(lp2693
tp2694
a(L3000478599L
L2195759072L
(lp2695
(lp2696
tp2697
a(L3333707777L
L0L
(lp2698
(lp2699
tp2700
a(L3251955268L
L0L
(lp2701
(lp2702
tp2703
a(L3418540920L
L0L
(lp2704
(lp2705
tp2706
a(L4183823801L
L1443213481L
(lp2707
(lp2708
tp2709
a(L97689L
L0L
(lp2710
(lp2711
tp2712
a(L2258897019L
L0L
(lp2713
(lp2714
tp2715
a(L4014024819L
L0L
(lp2716
(lp2717
tp2718
a(L3621567083L
L0L
(lp2719
(lp2720
tp2721
atp2722
sI1074270120
(Vrtc_clk_xtal_freq_estimate
p2723
(lp2724
(L1823831978L
L1880226080L
(lp2725
(lp2726
Vrtc_clk_8m_enabled
p2727
aVrtc_clk_8md256_enabled
p2728
atp2729
a(L2449794434L
L3785322319L
(lp2730
(lp2731
Vrtc_clk_8m_enable
p2732
atp2733
a(L3726876033L
L2704288053L
(lp2734
(lp2735
Vrtc_clk_cal_ratio
p2736
aV__udivdi3
p2737
atp2738
a(L3934977694L
L0L
(lp2739
(lp2740
tp2741
a(L3955289886L
L0L
(lp2742
(lp2743
tp2744
a(L2553207239L
L3187408090L
(lp2745
(lp2746
Vesp_log_early_timestamp
p2747
atp2748
a(L2307427870L
L0L
(lp2749
(lp2750
tp2751
a(L1281346514L
L3785322319L
(lp2752
(lp2753
Vrtc_clk_8m_enable
p2754
atp2755
a(L3909119106L
L0L
(lp2756
(lp2757
tp2758
a(L2298857999L
L3187408090L
(lp2759
(lp2760
Vesp_log_early_timestamp
p2761
atp2762
a(L3304487880L
L0L
(lp2763
(lp2764
tp2765
a(L1641150486L
L0L
(lp2766
(lp2767
tp2768
a(L2026357443L
L3187408090L
(lp2769
(lp2770
Vesp_log_early_timestamp
p2771
atp2772
atp2773
sI1074240932
(Vabort
p2774
(lp2775
(L2564459292L
L1690040256L
(lp2776
(lp2777
tp2778
a(L409471316L
L0L
(lp2779
(lp2780
tp2781
a(L106L
L0L
(lp2782
(lp2783
tp2784
atp2785
sI1074245540
(Vrtc_clk_slow_freq_get_hz
p2786
(lp2787
(L1826267122L
L3785322319L
(lp2788
(lp2789
Vrtc_clk_slow_src_get
p2790
atp2791
a(L1872507229L
L1443213481L
(lp2792
(lp2793
tp2794
a(L2221201615L
L1443213481L
(lp2795
(lp2796
tp2797
a(L3360570486L
L0L
(lp2798
(lp2799
tp2800
atp2801
sI1074268588
(Vbootloader_common_vddsdio_configure
p2802
(lp2803
(L1829974089L
L3785322319L
(lp2804
(lp2805
Vrtc_vddsdio_get_config
p2806
atp2807
a(L351649043L
L3833084538L
(lp2808
(lp2809
Vrtc_vddsdio_set_config
p2810
atp2811
a(L3360570486L
L0L
(lp2812
(lp2813
tp2814
atp2815
sI1074270892
(Vrtc_vddsdio_set_config
p2816
(lp2817
(L3557742407L
L1443213481L
(lp2818
(lp2819
tp2820
atp2821
sI1074244768
(Vefuse_hal_get_rated_freq_mhz
p2822
(lp2823
(L1158870592L
L1443213481L
(lp2824
(lp2825
tp2826
a(L338960367L
L0L
(lp2827
(lp2828
tp2829
a(L3360570486L
L0L
(lp2830
(lp2831
tp2832
atp2833
sI1074235296
(Vbootloader_flash_unlock
p2834
(lp2835
(L1368360454L
L242900614L
(lp2836
(lp2837
Vesp_rom_spiflash_wait_idle
p2838
atp2839
a(L1574074940L
L0L
(lp2840
(lp2841
tp2842
a(L1667462067L
L3785322319L
(lp2843
(lp2844
Vbootloader_execute_flash_command
p2845
atp2846
a(L106L
L0L
(lp2847
(lp2848
tp2849
a(L1013678540L
L0L
(lp2850
(lp2851
tp2852
a(L2529045083L
L0L
(lp2853
(lp2854
tp2855
a(L990750093L
L1832448559L
(lp2856
(lp2857
Vesp_rom_spiflash_wait_idle
p2858
aVbootloader_execute_flash_command
p2859
aVbootloader_execute_flash_command
p2860
atp2861
a(L993671302L
L1832448559L
(lp2862
(lp2863
Vesp_rom_spiflash_wait_idle
p2864
aVbootloader_execute_flash_command
p2865
aVbootloader_execute_flash_command
p2866
atp2867
a(L1209048744L
L1880226080L
(lp2868
(lp2869
Vesp_rom_spiflash_wait_idle
p2870
aVbootloader_execute_flash_command
p2871
atp2872
a(L3162775668L
L0L
(lp2873
(lp2874
tp2875
a(L2435612105L
L0L
(lp2876
(lp2877
tp2878
a(L3664359624L
L0L
(lp2879
(lp2880
tp2881
a(L2074930120L
L1880226080L
(lp2882
(lp2883
Vbootloader_execute_flash_command
p2884
aVbootloader_execute_flash_command
p2885
atp2886
a(L2125014318L
L0L
(lp2887
(lp2888
tp2889
a(L568821667L
L0L
(lp2890
(lp2891
tp2892
a(L1711531685L
L1880226080L
(lp2893
(lp2894
Vbootloader_execute_flash_command
p2895
aVbootloader_execute_flash_command
p2896
atp2897
a(L3658700047L
L0L
(lp2898
(lp2899
tp2900
a(L3269997774L
L0L
(lp2901
(lp2902
tp2903
a(L106L
L0L
(lp2904
(lp2905
tp2906
a(L2993202392L
L0L
(lp2907
(lp2908
tp2909
atp2910
sI1074236576
(Vesp_rom_set_cpu_ticks_per_us
p2911
(lp2912
(L396058732L
L2195759072L
(lp2913
(lp2914
tp2915
atp2916
sI1074247328
(Vrtc_clk_wait_for_slow_cycle
p2917
(lp2918
(L2844697221L
L2624587680L
(lp2919
(lp2920
tp2921
a(L287687718L
L0L
(lp2922
(lp2923
tp2924
a(L3360570486L
L0L
(lp2925
(lp2926
tp2927
a(L3843203427L
L1443213481L
(lp2928
(lp2929
tp2930
a(L1300789833L
L0L
(lp2931
(lp2932
tp2933
a(L1259765481L
L0L
(lp2934
(lp2935
tp2936
a(L17340776L
L1443213481L
(lp2937
(lp2938
tp2939
a(L329680227L
L3187408090L
(lp2940
(lp2941
Vesp_log_early_timestamp
p2942
atp2943
atp2944
sI1074248096
(Vesp_rom_spiflash_write
p2945
(lp2946
(L924384987L
L1679261929L
(lp2947
(lp2948
tp2949
a(L2258688483L
L0L
(lp2950
(lp2951
tp2952
a(L3360570486L
L0L
(lp2953
(lp2954
tp2955
a(L3368132847L
L0L
(lp2956
(lp2957
tp2958
a(L3106685981L
L0L
(lp2959
(lp2960
tp2961
a(L3488660639L
L3785322319L
(lp2962
(lp2963
Vesp_rom_spiflash_program_page_internal
p2964
atp2965
a(L3543402353L
L3785322319L
(lp2966
(lp2967
Vesp_rom_spiflash_program_page_internal
p2968
atp2969
a(L4222526342L
L0L
(lp2970
(lp2971
tp2972
a(L2004208511L
L0L
(lp2973
(lp2974
tp2975
a(L564470656L
L0L
(lp2976
(lp2977
tp2978
a(L441922648L
L3785322319L
(lp2979
(lp2980
Vesp_rom_spiflash_program_page_internal
p2981
atp2982
a(L2302069176L
L0L
(lp2983
(lp2984
tp2985
atp2986
sI1074268064
(Vbootloader_init
p2987
(lp2988
(L2778985116L
L362179215L
(lp2989
(lp2990
Vbootloader_init_mem
p2991
atp2992
a(L2588916198L
L2195759072L
(lp2993
(lp2994
tp2995
a(L2569579240L
L242900614L
(lp2996
(lp2997
V__assert_func
p2998
atp2999
a(L2041988382L
L2534110409L
(lp3000
(lp3001
tp3002
a(L2946990947L
L2195759072L
(lp3003
(lp3004
tp3005
a(L3813782018L
L0L
(lp3006
(lp3007
tp3008
a(L2946991009L
L2195759072L
(lp3009
(lp3010
tp3011
a(L3027019L
L0L
(lp3012
(lp3013
tp3014
a(L2946991040L
L2195759072L
(lp3015
(lp3016
tp3017
a(L2837004294L
L2320897574L
(lp3018
(lp3019
Vbootloader_clear_bss_section
p3020
aVesp_log_early_timestamp
p3021
aVesp_efuse_init_virtual_mode_in_ram
p3022
aVbootloader_common_vddsdio_configure
p3023
aVbootloader_clock_get_rated_freq_mhz
p3024
atp3025
a(L106L
L0L
(lp3026
(lp3027
tp3028
a(L2155383020L
L2769615034L
(lp3029
(lp3030
Vbootloader_clock_configure
p3031
aVbootloader_console_init
p3032
aVbootloader_print_banner
p3033
aVbootloader_flash_update_id
p3034
aVbootloader_flash_xmc_startup
p3035
atp3036
a(L3618643828L
L2147981551L
(lp3037
(lp3038
Vesp_log_early_timestamp
p3039
atp3040
a(L2631278383L
L2147981551L
(lp3041
(lp3042
Vesp_log_early_timestamp
p3043
atp3044
a(L3360570486L
L0L
(lp3045
(lp3046
tp3047
a(L2444883382L
L3785322319L
(lp3048
(lp3049
Vbootloader_read_bootloader_header
p3050
atp3051
a(L2444883382L
L3785322319L
(lp3052
(lp3053
Vbootloader_check_bootloader_validity
p3054
atp3055
a(L2444883382L
L3785322319L
(lp3056
(lp3057
Vbootloader_init_spi_flash
p3058
atp3059
a(L3038588834L
L2195759072L
(lp3060
(lp3061
tp3062
a(L254817508L
L0L
(lp3063
(lp3064
tp3065
a(L93892250L
L0L
(lp3066
(lp3067
tp3068
a(L2915015718L
L0L
(lp3069
(lp3070
tp3071
a(L3811827751L
L2218577417L
(lp3072
(lp3073
Vbootloader_config_wdt
p3074
aVbootloader_enable_random
p3075
atp3076
a(L1895147938L
L0L
(lp3077
(lp3078
tp3079
a(L2483943754L
L0L
(lp3080
(lp3081
tp3082
a(L3027019L
L0L
(lp3083
(lp3084
tp3085
a(L97315L
L0L
(lp3086
(lp3087
tp3088
a(L3618643828L
L2147981551L
(lp3089
(lp3090
Vesp_log_early_timestamp
p3091
atp3092
a(L526484596L
L2147981551L
(lp3093
(lp3094
Vesp_log_early_timestamp
p3095
atp3096
a(L1873516030L
L0L
(lp3097
(lp3098
tp3099
a(L1895147938L
L0L
(lp3100
(lp3101
tp3102
a(L156585483L
L1880226080L
(lp3103
(lp3104
Vwdt_reset_info_dump
p3105
aVwdt_reset_info_dump
p3106
atp3107
atp3108
sI1074244520
(Vwdt_hal_write_protect_disable
p3109
(lp3110
(L3085072089L
L1443213481L
(lp3111
(lp3112
tp3113
a(L4195472003L
L0L
(lp3114
(lp3115
tp3116
a(L3360570486L
L0L
(lp3117
(lp3118
tp3119
a(L1210571996L
L0L
(lp3120
(lp3121
tp3122
atp3123
sI1074241960
(Vshould_load
p3124
(lp3125
(L4190720747L
L2534110409L
(lp3126
(lp3127
tp3128
a(L1182990556L
L0L
(lp3129
(lp3130
tp3131
a(L1744532171L
L1443213481L
(lp3132
(lp3133
tp3134
a(L2306467100L
L0L
(lp3135
(lp3136
tp3137
a(L4034276159L
L1443213481L
(lp3138
(lp3139
tp3140
a(L2258897019L
L0L
(lp3141
(lp3142
tp3143
a(L3781799363L
L0L
(lp3144
(lp3145
tp3146
a(L3028464L
L0L
(lp3147
(lp3148
tp3149
a(L166133047L
L2195759072L
(lp3150
(lp3151
tp3152
a(L4277114872L
L0L
(lp3153
(lp3154
tp3155
a(L2824381917L
L0L
(lp3156
(lp3157
tp3158
a(L1243412227L
L0L
(lp3159
(lp3160
tp3161
a(L2011157548L
L0L
(lp3162
(lp3163
tp3164
a(L3126521138L
L0L
(lp3165
(lp3166
tp3167
a(L1305407438L
L0L
(lp3168
(lp3169
tp3170
a(L1305407469L
L0L
(lp3171
(lp3172
tp3173
atp3174
sI1074237364
(Vbootloader_common_ota_select_invalid
p3175
(lp3176
(L4027567199L
L0L
(lp3177
(lp3178
tp3179
a(L3397985842L
L0L
(lp3180
(lp3181
tp3182
a(L2258867228L
L0L
(lp3183
(lp3184
tp3185
a(L3785235668L
L0L
(lp3186
(lp3187
tp3188
atp3189
sI1074269372
(Vbootloader_flash_update_id
p3190
(lp3191
(L296988142L
L3833084538L
(lp3192
(lp3193
Vbootloader_read_flash_id
p3194
atp3195
atp3196
sI1074236592
(Vesp_rom_uart_tx_wait_idle
p3197
(lp3198
(L3110839460L
L2534110409L
(lp3199
(lp3200
tp3201
a(L1301079727L
L0L
(lp3202
(lp3203
tp3204
a(L597952197L
L0L
(lp3205
(lp3206
tp3207
a(L1971823332L
L0L
(lp3208
(lp3209
tp3210
a(L3055926844L
L0L
(lp3211
(lp3212
tp3213
a(L3360570486L
L0L
(lp3214
(lp3215
tp3216
a(L3694491048L
L0L
(lp3217
(lp3218
tp3219
a(L106L
L0L
(lp3220
(lp3221
tp3222
atp3223
sI1074239408
(Vset_actual_ota_seq
p3224
(lp3225
(L4094723830L
L0L
(lp3226
(lp3227
tp3228
a(L3504298995L
L2195759072L
(lp3229
(lp3230
tp3231
a(L3856681007L
L961634322L
(lp3232
(lp3233
Vmemset
p3234
aVbootloader_common_ota_select_crc
p3235
aVesp_flash_encryption_enabled
p3236
aVbootloader_flash_erase_sector
p3237
atp3238
a(L2768623893L
L3785322319L
(lp3239
(lp3240
Vbootloader_flash_write
p3241
atp3242
a(L3693339703L
L2147981551L
(lp3243
(lp3244
Vesp_log_early_timestamp
p3245
atp3246
a(L3903819434L
L2147981551L
(lp3247
(lp3248
Vesp_log_early_timestamp
p3249
atp3250
a(L3360570486L
L0L
(lp3251
(lp3252
tp3253
atp3254
sI1074246832
(Vrtc_clk_cal_internal
p3255
(lp3256
(L4103044880L
L1443213481L
(lp3257
(lp3258
tp3259
a(L3906046821L
L4032149094L
(lp3260
(lp3261
V__assert_func
p3262
atp3263
a(L3821006588L
L1443213481L
(lp3264
(lp3265
tp3266
a(L1673513644L
L0L
(lp3267
(lp3268
tp3269
a(L2719210992L
L4021370767L
(lp3270
(lp3271
Vrtc_clk_slow_src_get
p3272
atp3273
a(L3008910671L
L0L
(lp3274
(lp3275
tp3276
a(L97689L
L0L
(lp3277
(lp3278
tp3279
a(L1872507229L
L1443213481L
(lp3280
(lp3281
tp3282
a(L3028464L
L0L
(lp3283
(lp3284
tp3285
a(L3028481L
L0L
(lp3286
(lp3287
tp3288
a(L147213506L
L1443213481L
(lp3289
(lp3290
tp3291
a(L3455571058L
L1374507264L
(lp3292
(lp3293
V__udivdi3
p3294
aVrtc_clk_xtal_freq_get
p3295
atp3296
a(L2780079961L
L0L
(lp3297
(lp3298
tp3299
a(L4208562267L
L1443213481L
(lp3300
(lp3301
tp3302
a(L4114459891L
L3187408090L
(lp3303
(lp3304
Vesp_log_early_timestamp
p3305
atp3306
a(L2258688482L
L0L
(lp3307
(lp3308
tp3309
a(L3360570486L
L0L
(lp3310
(lp3311
tp3312
a(L3553505594L
L0L
(lp3313
(lp3314
tp3315
a(L403361192L
L0L
(lp3316
(lp3317
tp3318
a(L3243404432L
L3785322319L
(lp3319
(lp3320
Vrtc_clk_8m_enable
p3321
atp3322
a(L390546255L
L2195759072L
(lp3323
(lp3324
tp3325
a(L3586367509L
L1443213481L
(lp3326
(lp3327
tp3328
a(L2910371777L
L0L
(lp3329
(lp3330
tp3331
a(L2902417580L
L0L
(lp3332
(lp3333
tp3334
a(L3082259486L
L1443213481L
(lp3335
(lp3336
tp3337
a(L3020204L
L0L
(lp3338
(lp3339
tp3340
a(L603598685L
L1443213481L
(lp3341
(lp3342
tp3343
a(L3429540926L
L0L
(lp3344
(lp3345
tp3346
a(L3028464L
L0L
(lp3347
(lp3348
tp3349
a(L615477255L
L242900614L
(lp3350
(lp3351
Vrtc_clk_8m_enable
p3352
atp3353
atp3354
sI1074238908
(Vcache_ll_l1_enable_bus
p3355
(lp3356
(L318252209L
L1443213481L
(lp3357
(lp3358
tp3359
atp3360
sI1074240696
(Vbootloader_sha256_finish
p3361
(lp3362
(L4066096136L
L0L
(lp3363
(lp3364
tp3365
a(L1697654722L
L2195759072L
(lp3366
(lp3367
tp3368
a(L2213948952L
L242900614L
(lp3369
(lp3370
V__assert_func
p3371
atp3372
a(L3020204L
L0L
(lp3373
(lp3374
tp3375
a(L2888288470L
L2534110409L
(lp3376
(lp3377
tp3378
a(L2534656226L
L0L
(lp3379
(lp3380
tp3381
a(L2740629735L
L4171435875L
(lp3382
(lp3383
Vbootloader_sha256_data
p3384
atp3385
a(L2946948570L
L2195759072L
(lp3386
(lp3387
tp3388
a(L354914383L
L2790500905L
(lp3389
(lp3390
V__bswapsi2
p3391
aVbootloader_sha256_data
p3392
atp3393
a(L2946948756L
L2195759072L
(lp3394
(lp3395
tp3396
a(L657425439L
L0L
(lp3397
(lp3398
tp3399
a(L4173600236L
L1443213481L
(lp3400
(lp3401
tp3402
a(L657425439L
L0L
(lp3403
(lp3404
tp3405
a(L2046284480L
L2195759072L
(lp3406
(lp3407
tp3408
a(L3616504601L
L4171435875L
(lp3409
(lp3410
V__bswapsi2
p3411
atp3412
a(L3347778L
L0L
(lp3413
(lp3414
tp3415
a(L3360570486L
L0L
(lp3416
(lp3417
tp3418
atp3419
sI1074238648
(Vbootloader_clock_get_rated_freq_mhz
p3420
(lp3421
(L376617603L
L3785322319L
(lp3422
(lp3423
Vefuse_hal_get_rated_freq_mhz
p3424
atp3425
atp3426
sI1074238660
(Vlog_invalid_app_partition
p3427
(lp3428
(L2157385331L
L2195759072L
(lp3429
(lp3430
tp3431
a(L3028464L
L0L
(lp3432
(lp3433
tp3434
a(L1760520779L
L3833084538L
(lp3435
(lp3436
Vesp_log_early_timestamp
p3437
atp3438
a(L4207910112L
L1443213481L
(lp3439
(lp3440
tp3441
a(L3360570486L
L0L
(lp3442
(lp3443
tp3444
a(L3212513603L
L3833084538L
(lp3445
(lp3446
Vesp_log_early_timestamp
p3447
atp3448
a(L431938678L
L2147981551L
(lp3449
(lp3450
Vesp_log_early_timestamp
p3451
atp3452
atp3453
sI1074244804
(Vrtc_clk_32k_enable_common
p3454
(lp3455
(L2821256590L
L2195759072L
(lp3456
(lp3457
tp3458
a(L97422L
L0L
(lp3459
(lp3460
tp3461
a(L2218417248L
L0L
(lp3462
(lp3463
tp3464
a(L339634797L
L1443213481L
(lp3465
(lp3466
tp3467
a(L51458120L
L0L
(lp3468
(lp3469
tp3470
atp3471
sI1074268876
(Vbootloader_init_mem
p3472
(lp3473
(L1287383080L
L3785322319L
(lp3474
(lp3475
Vesp_cpu_configure_region_protection
p3476
atp3477
atp3478
sI1074269388
(Vbootloader_init_spi_flash
p3479
(lp3480
(L1876290435L
L1994585993L
(lp3481
(lp3482
Vbootloader_flash_gpio_config
p3483
aVbootloader_flash_dummy_config
p3484
aVbootloader_flash_cs_timing_config
p3485
aVbootloader_flash_unlock
p3486
atp3487
a(L499308289L
L1443213481L
(lp3488
(lp3489
tp3490
a(L1872507246L
L1443213481L
(lp3491
(lp3492
tp3493
a(L147213506L
L1443213481L
(lp3494
(lp3495
tp3496
a(L83726857L
L2426646996L
(lp3497
(lp3498
Vesp_log_early_timestamp
p3499
aVbootloader_flash_get_spi_mode
p3500
atp3501
a(L93674324L
L0L
(lp3502
(lp3503
tp3504
a(L4183135214L
L1443213481L
(lp3505
(lp3506
tp3507
a(L147213506L
L1443213481L
(lp3508
(lp3509
tp3510
a(L3875746660L
L362179215L
(lp3511
(lp3512
Vesp_log_early_timestamp
p3513
atp3514
a(L93674324L
L0L
(lp3515
(lp3516
tp3517
a(L4183135214L
L1443213481L
(lp3518
(lp3519
tp3520
a(L1872507229L
L1443213481L
(lp3521
(lp3522
tp3523
a(L268651496L
L1443213481L
(lp3524
(lp3525
tp3526
a(L1872507229L
L1443213481L
(lp3527
(lp3528
tp3529
a(L1872507229L
L1443213481L
(lp3530
(lp3531
tp3532
a(L268651496L
L1443213481L
(lp3533
(lp3534
tp3535
a(L1872515506L
L1443213481L
(lp3536
(lp3537
tp3538
a(L1005860105L
L3187408090L
(lp3539
(lp3540
Vesp_log_early_timestamp
p3541
atp3542
a(L93674324L
L0L
(lp3543
(lp3544
tp3545
a(L3422553167L
L0L
(lp3546
(lp3547
tp3548
a(L1707909459L
L0L
(lp3549
(lp3550
tp3551
a(L4101522284L
L0L
(lp3552
(lp3553
tp3554
a(L3944678822L
L2082837423L
(lp3555
(lp3556
Vbootloader_enable_wp
p3557
atp3558
a(L3907331784L
L0L
(lp3559
(lp3560
tp3561
atp3562
sI1074240192
(Vbootloader_reset
p3563
(lp3564
(L479276581L
L2147981551L
(lp3565
(lp3566
Vbootloader_console_deinit
p3567
atp3568
a(L106L
L0L
(lp3569
(lp3570
tp3571
atp3572
sI1074245568
(Vrtc_clk_fast_src_set
p3573
(lp3574
(L1089140614L
L1443213481L
(lp3575
(lp3576
tp3577
a(L3020187L
L0L
(lp3578
(lp3579
tp3580
a(L3827921190L
L3785322319L
(lp3581
(lp3582
Vabort
p3583
atp3584
a(L2578095160L
L1443213481L
(lp3585
(lp3586
tp3587
a(L4159388630L
L1443213481L
(lp3588
(lp3589
tp3590
a(L300459962L
L0L
(lp3591
(lp3592
tp3593
atp3594
sI1074267840
(Vwdt_reset_info_dump
p3595
(lp3596
(L4037458708L
L0L
(lp3597
(lp3598
tp3599
a(L2865144428L
L4200222560L
(lp3600
(lp3601
tp3602
a(L217258670L
L0L
(lp3603
(lp3604
tp3605
a(L1103285333L
L0L
(lp3606
(lp3607
tp3608
a(L3750088731L
L2147981551L
(lp3609
(lp3610
Vesp_log_early_timestamp
p3611
atp3612
a(L3245125974L
L1443213481L
(lp3613
(lp3614
tp3615
a(L2920131454L
L4200222560L
(lp3616
(lp3617
tp3618
a(L3355528239L
L2147981551L
(lp3619
(lp3620
Vesp_log_early_timestamp
p3621
atp3622
atp3623
sI1074235596
(Vbootloader_flash_read_sfdp
p3624
(lp3625
(L711701400L
L0L
(lp3626
(lp3627
tp3628
a(L17919673L
L4032149094L
(lp3629
(lp3630
V__assert_func
p3631
atp3632
a(L3704332455L
L3785322319L
(lp3633
(lp3634
Vbootloader_flash_execute_command_common
p3635
atp3636
atp3637
sI1074235848
(Vbootloader_flash_cs_timing_config
p3638
(lp3639
(L1222249594L
L1690040256L
(lp3640
(lp3641
tp3642
atp3643
sI1074240456
(Vindex_to_partition
p3644
(lp3645
(L4066096119L
L0L
(lp3646
(lp3647
tp3648
a(L1101255660L
L0L
(lp3649
(lp3650
tp3651
a(L1955702725L
L0L
(lp3652
(lp3653
tp3654
a(L3698927993L
L0L
(lp3655
(lp3656
tp3657
a(L2808906342L
L0L
(lp3658
(lp3659
tp3660
a(L4211744375L
L0L
(lp3661
(lp3662
tp3663
a(L3097778015L
L0L
(lp3664
(lp3665
tp3666
a(L1816235430L
L0L
(lp3667
(lp3668
tp3669
a(L2179185678L
L0L
(lp3670
(lp3671
tp3672
a(L3369319173L
L0L
(lp3673
(lp3674
tp3675
atp3676
sI1074244552
(Vwdt_hal_set_flashboot_en
p3677
(lp3678
(L2375320464L
L0L
(lp3679
(lp3680
tp3681
a(L3915867581L
L0L
(lp3682
(lp3683
tp3684
a(L3360570486L
L0L
(lp3685
(lp3686
tp3687
a(L3823116953L
L1443213481L
(lp3688
(lp3689
tp3690
atp3691
sI1074240980
(Vbootloader_ana_clock_glitch_reset_config
p3692
(lp3693
(L2100504542L
L0L
(lp3694
(lp3695
tp3696
atp3697
sI1074237392
(Vbootloader_common_select_otadata
p3698
(lp3699
(L4071767857L
L0L
(lp3700
(lp3701
tp3702
a(L1999329187L
L0L
(lp3703
(lp3704
tp3705
a(L3846398843L
L0L
(lp3706
(lp3707
tp3708
a(L2501968171L
L0L
(lp3709
(lp3710
tp3711
a(L3360570486L
L0L
(lp3712
(lp3713
tp3714
a(L2045232488L
L0L
(lp3715
(lp3716
tp3717
a(L1243525916L
L0L
(lp3718
(lp3719
tp3720
a(L3094144427L
L0L
(lp3721
(lp3722
tp3723
a(L2399509845L
L0L
(lp3724
(lp3725
tp3726
a(L1641201884L
L0L
(lp3727
(lp3728
tp3729
atp3730
sI1074240988
(Vprocess_checksum
p3731
(lp3732
(L166193219L
L242900614L
(lp3733
(lp3734
Vmemset
p3735
atp3736
a(L3028481L
L0L
(lp3737
(lp3738
tp3739
a(L186886970L
L0L
(lp3740
(lp3741
tp3742
a(L2902417580L
L0L
(lp3743
(lp3744
tp3745
a(L3028481L
L0L
(lp3746
(lp3747
tp3748
a(L169792351L
L3187408090L
(lp3749
(lp3750
Vesp_log_early_timestamp
p3751
atp3752
a(L268651496L
L1443213481L
(lp3753
(lp3754
tp3755
a(L3236648107L
L3785322319L
(lp3756
(lp3757
Vbootloader_flash_read
p3758
atp3759
a(L735741265L
L0L
(lp3760
(lp3761
tp3762
a(L3020204L
L0L
(lp3763
(lp3764
tp3765
a(L2480703612L
L3785322319L
(lp3766
(lp3767
Vbootloader_sha256_data
p3768
atp3769
a(L3436105237L
L0L
(lp3770
(lp3771
tp3772
a(L106L
L0L
(lp3773
(lp3774
tp3775
atp3776
sI1074268884
(Vbootloader_random_enable
p3777
(lp3778
(L2397175084L
L664430240L
(lp3779
(lp3780
tp3781
atp3782
sI1074236888
(Vefuse_hal_get_minor_chip_version
p3783
(lp3784
(L2292056065L
L1443213481L
(lp3785
(lp3786
tp3787
atp3788
sI1074240216
(Vbootloader_utility_load_boot_image
p3789
(lp3790
(L421993435L
L242900614L
(lp3791
(lp3792
Vmemset
p3793
atp3794
a(L2177418995L
L3785322319L
(lp3795
(lp3796
Vtry_load_partition
p3797
atp3798
a(L1305243774L
L3785322319L
(lp3799
(lp3800
Vload_image
p3801
atp3802
a(L4114459891L
L3187408090L
(lp3803
(lp3804
Vesp_log_early_timestamp
p3805
atp3806
a(L3827921190L
L3785322319L
(lp3807
(lp3808
Vbootloader_reset
p3809
atp3810
a(L1953693036L
L3785322319L
(lp3811
(lp3812
Vindex_to_partition
p3813
atp3814
a(L1204373741L
L3785322319L
(lp3815
(lp3816
Vtry_load_partition
p3817
atp3818
a(L1899865696L
L0L
(lp3819
(lp3820
tp3821
a(L2695355117L
L3785322319L
(lp3822
(lp3823
Vset_actual_ota_seq
p3824
atp3825
a(L1868897605L
L3785322319L
(lp3826
(lp3827
Vlog_invalid_app_partition
p3828
atp3829
a(L831650730L
L0L
(lp3830
(lp3831
tp3832
a(L3021737L
L0L
(lp3833
(lp3834
tp3835
a(L695456438L
L0L
(lp3836
(lp3837
tp3838
a(L315114854L
L3833084538L
(lp3839
(lp3840
Vtry_load_partition
p3841
atp3842
a(L89447667L
L2147981551L
(lp3843
(lp3844
Vesp_log_early_timestamp
p3845
atp3846
a(L2347390157L
L3785322319L
(lp3847
(lp3848
Vindex_to_partition
p3849
atp3850
a(L1204373741L
L3785322319L
(lp3851
(lp3852
Vtry_load_partition
p3853
atp3854
a(L3061261803L
L0L
(lp3855
(lp3856
tp3857
a(L3582858798L
L3785322319L
(lp3858
(lp3859
Vlog_invalid_app_partition
p3860
atp3861
a(L3581752791L
L2704288053L
(lp3862
(lp3863
Vesp_log_early_timestamp
p3864
aVmemset
p3865
atp3866
atp3867
sI1074246104
(Vrtc_clk_cpu_freq_set_config
p3868
(lp3869
(L1040494747L
L3833084538L
(lp3870
(lp3871
Vrtc_clk_xtal_freq_get
p3872
atp3873
a(L2308773007L
L0L
(lp3874
(lp3875
tp3876
a(L3253451229L
L1880226080L
(lp3877
(lp3878
Vrtc_clk_cpu_freq_to_xtal
p3879
aVrtc_clk_wait_for_slow_cycle
p3880
atp3881
a(L2243645672L
L0L
(lp3882
(lp3883
tp3884
a(L4002786498L
L0L
(lp3885
(lp3886
tp3887
a(L2736411858L
L3785322319L
(lp3888
(lp3889
Vrtc_clk_cpu_freq_to_xtal
p3890
atp3891
a(L3360570486L
L0L
(lp3892
(lp3893
tp3894
a(L2755207760L
L1832448559L
(lp3895
(lp3896
Vrtc_clk_cpu_freq_to_xtal
p3897
aVrtc_clk_wait_for_slow_cycle
p3898
aVrtc_clk_bbpll_disable
p3899
atp3900
a(L3020187L
L0L
(lp3901
(lp3902
tp3903
a(L106L
L0L
(lp3904
(lp3905
tp3906
a(L2730236852L
L1156451872L
(lp3907
(lp3908
Vrtc_clk_wait_for_slow_cycle
p3909
aVrtc_clk_xtal_freq_get
p3910
atp3911
a(L106L
L0L
(lp3912
(lp3913
tp3914
a(L3776069396L
L1443213481L
(lp3915
(lp3916
tp3917
a(L83268611L
L0L
(lp3918
(lp3919
tp3920
a(L106L
L0L
(lp3921
(lp3922
tp3923
a(L82345090L
L0L
(lp3924
(lp3925
tp3926
a(L106L
L0L
(lp3927
(lp3928
tp3929
a(L2258718273L
L0L
(lp3930
(lp3931
tp3932
a(L3298883534L
L0L
(lp3933
(lp3934
tp3935
a(L3519990574L
L1443213481L
(lp3936
(lp3937
tp3938
a(L2508198718L
L1743007695L
(lp3939
(lp3940
Vrtc_clk_cpu_freq_to_pll_mhz
p3941
atp3942
a(L935233121L
L2534110409L
(lp3943
(lp3944
tp3945
a(L83268344L
L0L
(lp3946
(lp3947
tp3948
a(L82344823L
L0L
(lp3949
(lp3950
tp3951
a(L1569180676L
L0L
(lp3952
(lp3953
tp3954
a(L2258837488L
L0L
(lp3955
(lp3956
tp3957
a(L4233337962L
L1443213481L
(lp3958
(lp3959
tp3960
a(L1482311963L
L0L
(lp3961
(lp3962
tp3963
a(L133411965L
L0L
(lp3964
(lp3965
tp3966
a(L3673491036L
L0L
(lp3967
(lp3968
tp3969
a(L4197990447L
L0L
(lp3970
(lp3971
tp3972
a(L903154985L
L0L
(lp3973
(lp3974
tp3975
a(L3020187L
L0L
(lp3976
(lp3977
tp3978
a(L106L
L0L
(lp3979
(lp3980
tp3981
a(L1317698645L
L93324751L
(lp3982
(lp3983
Vesp_rom_set_cpu_ticks_per_us
p3984
atp3985
atp3986
sI1074245348
(Vrtc_clk_8m_enabled
p3987
(lp3988
(L563532105L
L1443213481L
(lp3989
(lp3990
tp3991
atp3992
sI1074269676
(Vbootloader_clear_bss_section
p3993
(lp3994
(L2193193874L
L4032149094L
(lp3995
(lp3996
Vmemset
p3997
atp3998
atp3999
sI1074238176
(Vbootloader_enable_wp
p4000
(lp4001
(L1117825804L
L3785322319L
(lp4002
(lp4003
Vbootloader_execute_flash_command
p4004
atp4005
atp4006
sI1074243308
(Vbootloader_load_image
p4007
(lp4008
(L1155870502L
L3785322319L
(lp4009
(lp4010
Vimage_load
p4011
atp4012
atp4013
sI1074245100
(Vrtc_clk_bbpll_disable
p4014
(lp4015
(L3512291683L
L1690040256L
(lp4016
(lp4017
tp4018
a(L2472207241L
L0L
(lp4019
(lp4020
tp4021
a(L3360570486L
L0L
(lp4022
(lp4023
tp4024
atp4025
sI1074268644
(Vbootloader_clock_configure
p4026
(lp4027
(L2559598596L
L1880226080L
(lp4028
(lp4029
Vesp_rom_uart_tx_wait_idle
p4030
aVefuse_hal_chip_revision
p4031
atp4032
a(L1757625900L
L1443213481L
(lp4033
(lp4034
tp4035
a(L741498227L
L1443213481L
(lp4036
(lp4037
tp4038
a(L106L
L0L
(lp4039
(lp4040
tp4041
a(L4228321918L
L1405109379L
(lp4042
(lp4043
Vrtc_clk_slow_src_get
p4044
aVrtc_clk_fast_src_get
p4045
aVrtc_clk_init
p4046
atp4047
a(L2538867838L
L2195759072L
(lp4048
(lp4049
tp4050
a(L1038013235L
L3833084538L
(lp4051
(lp4052
Vrtc_clk_apb_freq_get
p4053
atp4054
a(L106L
L0L
(lp4055
(lp4056
tp4057
a(L106L
L0L
(lp4058
(lp4059
tp4060
atp4061
sI1074236904
(Vesp_dport_access_reg_read
p4062
(lp4063
(L1099794772L
L0L
(lp4064
(lp4065
tp4066
atp4067
sI1074236916
(Vis_xmc_chip_strict
p4068
(lp4069
(L1286841609L
L0L
(lp4070
(lp4071
tp4072
a(L2234016759L
L0L
(lp4073
(lp4074
tp4075
a(L1069027148L
L0L
(lp4076
(lp4077
tp4078
a(L3021749L
L0L
(lp4079
(lp4080
tp4081
a(L1900148749L
L0L
(lp4082
(lp4083
tp4084
a(L1936875721L
L0L
(lp4085
(lp4086
tp4087
a(L3356166509L
L0L
(lp4088
(lp4089
tp4090
a(L1937769451L
L0L
(lp4091
(lp4092
tp4093
a(L2137658907L
L0L
(lp4094
(lp4095
tp4096
a(L4265949734L
L0L
(lp4097
(lp4098
tp4099
a(L3360570486L
L0L
(lp4100
(lp4101
tp4102
atp4103
sI1074238196
(Vbootloader_flash_get_spi_mode
p4104
(lp4105
(L1418320346L
L1443213481L
(lp4106
(lp4107
tp4108
a(L2046153171L
L0L
(lp4109
(lp4110
tp4111
a(L893866618L
L0L
(lp4112
(lp4113
tp4114
a(L894790139L
L0L
(lp4115
(lp4116
tp4117
a(L822032846L
L0L
(lp4118
(lp4119
tp4120
a(L3360570486L
L0L
(lp4121
(lp4122
tp4123
atp4124
sI1074238960
(Vcache_ll_l1_enable_bus
p4125
(lp4126
(L318252209L
L1443213481L
(lp4127
(lp4128
tp4129
atp4130
sI1074247664
(Vesp_rom_spiflash_wait_idle
p4131
(lp4132
(L1698121947L
L1443213481L
(lp4133
(lp4134
tp4135
a(L2023766174L
L0L
(lp4136
(lp4137
tp4138
a(L147213506L
L1443213481L
(lp4139
(lp4140
tp4141
a(L3086959262L
L0L
(lp4142
(lp4143
tp4144
a(L4161019926L
L3785322319L
(lp4145
(lp4146
Vesp_rom_spiflash_read_status
p4147
atp4148
atp4149
sI1074243324
(Vesp_partition_table_verify
p4150
(lp4151
(L44179228L
L1443213481L
(lp4152
(lp4153
tp4154
a(L3031150553L
L1443213481L
(lp4155
(lp4156
tp4157
a(L1184829782L
L0L
(lp4158
(lp4159
tp4160
a(L3020204L
L0L
(lp4161
(lp4162
tp4163
a(L26389654L
L3187408090L
(lp4164
(lp4165
Vesp_log_early_timestamp
p4166
atp4167
a(L1235012963L
L0L
(lp4168
(lp4169
tp4170
a(L3190337587L
L0L
(lp4171
(lp4172
tp4173
a(L2069928857L
L0L
(lp4174
(lp4175
tp4176
a(L2902417580L
L0L
(lp4177
(lp4178
tp4179
a(L2543114737L
L2147981551L
(lp4180
(lp4181
Vesp_log_early_timestamp
p4182
atp4183
a(L1715222413L
L1443213481L
(lp4184
(lp4185
tp4186
a(L3020204L
L0L
(lp4187
(lp4188
tp4189
a(L3020204L
L0L
(lp4190
(lp4191
tp4192
a(L1328961945L
L2147981551L
(lp4193
(lp4194
Vesp_log_early_timestamp
p4195
atp4196
a(L4207910112L
L1443213481L
(lp4197
(lp4198
tp4199
a(L1235012932L
L0L
(lp4200
(lp4201
tp4202
a(L458256366L
L4021370767L
(lp4203
(lp4204
Vmemcmp
p4205
atp4206
a(L3020204L
L0L
(lp4207
(lp4208
tp4209
a(L2543114737L
L2147981551L
(lp4210
(lp4211
Vesp_log_early_timestamp
p4212
atp4213
a(L1305407469L
L0L
(lp4214
(lp4215
tp4216
a(L1167861556L
L0L
(lp4217
(lp4218
tp4219
a(L818997085L
L0L
(lp4220
(lp4221
tp4222
a(L3360570486L
L0L
(lp4223
(lp4224
tp4225
a(L3020204L
L0L
(lp4226
(lp4227
tp4228
a(L3999534504L
L3187408090L
(lp4229
(lp4230
Vesp_log_early_timestamp
p4231
atp4232
atp4233
sI1074245372
(Vrtc_clk_8md256_enabled
p4234
(lp4235
(L4014027530L
L1443213481L
(lp4236
(lp4237
tp4238
atp4239
sI1074269940
(Vbootloader_enable_random
p4240
(lp4241
(L859804465L
L2704288053L
(lp4242
(lp4243
Vesp_log_early_timestamp
p4244
aVbootloader_random_enable
p4245
atp4246
atp4247
sI1074270964
(Vmpu_hal_set_region_access
p4248
(lp4249
(L3538356822L
L0L
(lp4250
(lp4251
tp4252
a(L93674324L
L0L
(lp4253
(lp4254
tp4255
a(L2910371777L
L0L
(lp4256
(lp4257
tp4258
a(L3472092938L
L0L
(lp4259
(lp4260
tp4261
a(L3020187L
L0L
(lp4262
(lp4263
tp4264
a(L3360570486L
L0L
(lp4265
(lp4266
tp4267
a(L2258718273L
L0L
(lp4268
(lp4269
tp4270
a(L3446648619L
L0L
(lp4271
(lp4272
tp4273
a(L3739532189L
L0L
(lp4274
(lp4275
tp4276
a(L1300789895L
L0L
(lp4277
(lp4278
tp4279
atp4280
ssS'functionsdups'
p4281
g11
((lp4282
tp4283
Rp4284
sS'immediatedups'
p4285
g11
((lp4286
tp4287
Rp4288
sS'functiondups'
p4289
g11
((lp4290
tp4291
Rp4292
sS'fuzzy'
p4293
(dp4294
L366261972L
I1074270296
sL2376760616L
I1074243324
sL1898962604L
I1074238744
sL3223682214L
I1074248260
sL4033782891L
I1074244552
sL1651792242L
I1074247712
sL800708016L
I1074239528
sL2092869556L
I1074247960
sL1772626723L
I1074235848
sL2539816556L
I1074236676
sL3032120501L
I1074245780
sL2471313117L
I1074240696
sL2641888616L
I1074246832
sL381028389L
I1074240908
sL3711025829L
I1074240216
sL3500016395L
I1074242088
sL1962232032L
I1074245648
sL797548049L
I1074240528
sL3374853808L
I1074269676
sL2859057779L
I1074269372
sL2835607711L
I1074270036
sL2095240828L
I1074234772
sL1348852091L
I1074248348
sL2182127758L
I1074270120
sL3221945515L
I1074245920
sL1485246373L
I1074240988
sL3525303483L
I1074245512
sL1247030641L
I1074268884
sL214341344L
I1074244720
sL1729011238L
I1074241960
sL1959102959L
I1074237500
sL4242478965L
I1074238252
sL2216531249L
I1074245540
sL579471141L
I1074269940
sL1096063205L
I1074236820
sL2906154889L
I1074247664
sL1065525808L
I1074236916
sL2849727465L
I1074239012
sL1821770661L
I1074237708
sL332090111L
I1074236592
sL282843886L
I1074237760
sL3703425408L
I1074245220
sL2038713658L
I1074246788
sL2688270468L
I1074269744
sL3683660112L
I1074247496
sL2708185770L
I1074241344
sL3890904617L
I1074245992
sL3530961461L
I1074270740
sL1605229163L
I1074239892
sL1210592366L
I1074245396
sL1332800441L
I1074237324
sL209111356L
I1074245568
sL3183721996L
I1074235296
sL3558783183L
I1074238036
sL1377360842L
I1074244804
sL2726707668L
I1074268588
sL3300368739L
I1074267840
sL1161792488L
I1074241156
sL4091350277L
I1074247768
sL2871786995L
I1074269812
sL3578810761L
I1074235596
sL2018002450L
I1074235696
sL531949167L
I1074237084
sL1060788199L
I1074245688
sL1444874434L
I1074269968
sL994994961L
I1074238660
sL2663898648L
I1074269700
sL1155028103L
I1074270072
sL627477382L
I1074235960
sL814911857L
I1074240548
sL3280013925L
I1074238332
sL1862804207L
I1074244204
sL2806886186L
I1074268644
sL1815510750L
I1074244940
sL963803290L
I1074246104
sL3715950101L
I1074244520
sL3420458249L
I1074247568
sL1814626880L
I1074268064
sL3274368577L
I1074238860
sL3246158480L
I1074239408
sL1872673135L
I1074240192
sL1214705044L
I1074236428
sL4155364446L
I1074237048
sL755401973L
I1074267732
sL230862646L
I1074237468
sL2452281182L
I1074247328
sL1564551092L
I1074241872
sL1122585247L
I1074243592
sL3659714901L
I1074241400
sL2752268667L
I1074244768
sL3428612389L
I1074247296
sL1950296771L
I1074248096
sL1396037064L
I1074245160
sL1014311563L
I1074242828
sL1596982735L
I1074269388
ssb.