ccopy_reg
_reconstructor
p0
(crizzo
RizzoSignature
p1
c__builtin__
object
p2
Ntp3
Rp4
(dp5
S'formal'
p6
(dp7
L4225157591L
I1074238812
sL2005196428L
I1074245416
sL2087186284L
I1074236400
sL1741170115L
I1074237984
sL1913647619L
I1074269744
sL3984280162L
I1074244416
sL3746738248L
I1074239292
sL2628804010L
I1074270668
sL4213015302L
I1074243204
sL461860251L
I1074247204
sL286550283L
I1074269812
sL3976424482L
I1074234700
sL552298442L
I1074235268
sL2767810776L
I1074238004
sL2771134728L
I1074240112
sL2326361228L
I1074269164
sL2702580795L
I1074237360
sL2610420647L
I1074269588
sL2896295319L
I1074236884
sL25479346L
I1074240592
sL438696979L
I1074269716
sL1331791455L
I1074245508
sL1674148343L
I1074245564
sL1786019146L
I1074247572
sL4023292303L
I1074237436
sL3879881731L
I1074267788
sL3256726111L
I1074247900
sL2485902447L
I1074236724
sL723138898L
I1074238164
sL424336643L
I1074269452
sL366218909L
I1074269848
sL368505532L
I1074245840
sL1450005286L
I1074238760
sL332506269L
I1074239412
sL848906711L
I1074248064
sL1585823442L
I1074244516
sL1622896354L
I1074244544
sL3092620558L
I1074235668
sL2521269785L
I1074236964
sL2189223198L
I1074240352
sL3580313603L
I1074241856
sL2493713350L
I1074245272
sL183144L
I1074238712
sL2930276314L
I1074235820
sL4161584248L
I1074268364
sL4175577751L
I1074244644
sL2723725103L
I1074240788
sL1633709340L
I1074245248
sL2813809866L
I1074236748
sL2366387314L
I1074270516
sL1330922710L
I1074246708
sL1731035566L
I1074236560
sL676927194L
I1074268652
sL244922653L
I1074242724
sL2691843063L
I1074245868
sL3307282855L
I1074238144
sL127813144L
I1074243488
sL2834351222L
I1074244816
sL3065846068L
I1074235568
sL3553146178L
I1074267680
sL2195669076L
I1074245224
sL357647324L
I1074268660
sL1772514345L
I1074238928
sL3361686224L
I1074268420
sL3042952135L
I1074267672
sL3721992006L
I1074240804
sL1160735408L
I1074241984
sL4038945309L
I1074235620
sL3041505513L
I1074237468
sL1435968304L
I1074244680
sL4178015136L
I1074247372
sL1992104215L
I1074236856
sL1112935418L
I1074234744
sL4020657674L
I1074245980
sL2931540503L
I1074247516
sL1382567621L
I1074238220
sL105563623L
I1074240424
sL2997001746L
I1074237292
sL59949349L
I1074241052
sL76756778L
I1074240884
sL556795273L
I1074269520
sL2819127986L
I1074237016
sL3195929028L
I1074240088
sL3024810484L
I1074270072
sL3300909439L
I1074236548
sL1481764497L
I1074236996
sL1877634603L
I1074270740
sL2687718384L
I1074243220
sL2789355142L
I1074244100
sL1098683832L
I1074245036
sL3015462521L
I1074238628
sL3066643969L
I1074247172
sL886840080L
I1074237052
sL2062758462L
I1074236788
sL828360338L
I1074239780
sL1347401601L
I1074240444
sL2248158928L
I1074238300
sL660825523L
I1074245096
sL3362774716L
I1074236644
sL3338519854L
I1074245796
sL2195659785L
I1074245444
sL540472814L
I1074247764
sL2263182908L
I1074238212
sL965583188L
I1074245656
sL114336524L
I1074269476
sL282668036L
I1074244448
sL963291061L
I1074248152
sL3630163135L
I1074236872
sL188664287L
I1074235236
sL2743385701L
I1074269148
sL2404540336L
I1074245388
sL2485146564L
I1074240828
sL692536993L
I1074237332
sL822000404L
I1074245524
sL921639684L
I1074235932
sL235684320L
I1074237728
sL3364903294L
I1074247468
sL1817360290L
I1074241296
sL917018201L
I1074236956
sL237904351L
I1074241240
sL2758712477L
I1074241768
sL309068699L
I1074244976
sL1140246287L
I1074246664
sL960642745L
I1074244616
sL3958998789L
I1074237676
sL4029637072L
I1074269896
ssS'immediates'
p8
(dp9
sS'formaldups'
p10
c__builtin__
set
p11
((lp12
tp13
Rp14
sS'stringdups'
p15
g11
((lp16
tp17
Rp18
sS'fuzzydups'
p19
g11
((lp20
tp21
Rp22
sS'strings'
p23
(dp24
sS'functions'
p25
(dp26
I1074244100
(Vwdt_hal_config_stage
p27
(lp28
(L331558507L
L0L
(lp29
(lp30
tp31
a(L4279082939L
L0L
(lp32
(lp33
tp34
a(L93674324L
L0L
(lp35
(lp36
tp37
a(L2902417580L
L0L
(lp38
(lp39
tp40
a(L1506709436L
L1443213481L
(lp41
(lp42
tp43
a(L3020187L
L0L
(lp44
(lp45
tp46
a(L94425498L
L3785322319L
(lp47
(lp48
Vabort
p49
atp50
a(L1999536000L
L1443213481L
(lp51
(lp52
tp53
a(L3360570486L
L0L
(lp54
(lp55
tp56
a(L2402105077L
L1443213481L
(lp57
(lp58
tp59
a(L3297501927L
L1443213481L
(lp60
(lp61
tp62
a(L4278159418L
L0L
(lp63
(lp64
tp65
a(L93674324L
L0L
(lp66
(lp67
tp68
a(L3020204L
L0L
(lp69
(lp70
tp71
a(L2956541743L
L1443213481L
(lp72
(lp73
tp74
a(L3020187L
L0L
(lp75
(lp76
tp77
a(L106L
L0L
(lp78
(lp79
tp80
a(L1473987957L
L1443213481L
(lp81
(lp82
tp83
a(L927955509L
L1443213481L
(lp84
(lp85
tp86
a(L3740367810L
L1443213481L
(lp87
(lp88
tp89
atp90
sI1074238212
(Vbootloader_mmap_get_free_pages
p91
(lp92
(L1496516875L
L0L
(lp93
(lp94
tp95
atp96
sI1074247172
(Vrtc_clk_cal_ratio
p97
(lp98
(L3870710856L
L195123093L
(lp99
(lp100
Vrtc_clk_cal_internal
p101
aV__udivdi3
p102
atp103
atp104
sI1074269452
(Vbootloader_clear_bss_section
p105
(lp106
(L2193193874L
L4032149094L
(lp107
(lp108
Vmemset
p109
atp110
atp111
sI1074267136
(V_init
p112
(lp113
(L3493042598L
L0L
(lp114
(lp115
tp116
atp117
sI1074238220
(Vbootloader_fill_random
p118
(lp119
(L3377511333L
L2195759072L
(lp120
(lp121
tp122
a(L4033043682L
L4032149094L
(lp123
(lp124
V__assert_func
p125
atp126
a(L1882547218L
L0L
(lp127
(lp128
tp129
a(L2910371777L
L0L
(lp130
(lp131
tp132
a(L95634693L
L0L
(lp133
(lp134
tp135
a(L3630908706L
L0L
(lp136
(lp137
tp138
a(L160162640L
L0L
(lp139
(lp140
tp141
a(L97689L
L0L
(lp142
(lp143
tp144
a(L3360570486L
L0L
(lp145
(lp146
tp147
atp148
sI1074245388
(Vrtc_clk_slow_src_get
p149
(lp150
(L1566794270L
L1443213481L
(lp151
(lp152
tp153
a(L3020187L
L0L
(lp154
(lp155
tp156
a(L2902417580L
L0L
(lp157
(lp158
tp159
a(L2258688485L
L0L
(lp160
(lp161
tp162
a(L3360570486L
L0L
(lp163
(lp164
tp165
atp166
sI1074268420
(Vbootloader_clock_configure
p167
(lp168
(L2559598596L
L1880226080L
(lp169
(lp170
Vesp_rom_uart_tx_wait_idle
p171
aVefuse_hal_chip_revision
p172
atp173
a(L1757625900L
L1443213481L
(lp174
(lp175
tp176
a(L741498227L
L1443213481L
(lp177
(lp178
tp179
a(L106L
L0L
(lp180
(lp181
tp182
a(L4228321918L
L1405109379L
(lp183
(lp184
Vrtc_clk_slow_src_get
p185
aVrtc_clk_fast_src_get
p186
aVrtc_clk_init
p187
atp188
a(L2538867838L
L2195759072L
(lp189
(lp190
tp191
a(L1038013235L
L3833084538L
(lp192
(lp193
Vrtc_clk_apb_freq_get
p194
atp195
a(L106L
L0L
(lp196
(lp197
tp198
a(L106L
L0L
(lp199
(lp200
tp201
atp202
sI1074244616
(Vmmu_hal_unmap_all
p203
(lp204
(L3970138582L
L1443213481L
(lp205
(lp206
tp207
a(L2010554219L
L0L
(lp208
(lp209
tp210
a(L3360570486L
L0L
(lp211
(lp212
tp213
atp214
sI1074246664
(Vrtc_clk_apb_freq_get
p215
(lp216
(L189810653L
L1679261929L
(lp217
(lp218
tp219
atp220
sI1074267672
(Vesp_bootloader_get_description
p221
(lp222
(L2248573785L
L2195759072L
(lp223
(lp224
tp225
atp226
sI1074240788
(Vbootloader_console_deinit
p227
(lp228
(L1858531217L
L1443213481L
(lp229
(lp230
tp231
atp232
sI1074235668
(Vbootloader_flash_xmc_startup
p233
(lp234
(L3433652179L
L242900614L
(lp235
(lp236
Vis_xmc_chip_strict
p237
atp238
a(L2258688482L
L0L
(lp239
(lp240
tp241
a(L3360570486L
L0L
(lp242
(lp243
tp244
a(L2860324232L
L3785322319L
(lp245
(lp246
Vbootloader_flash_read_sfdp
p247
atp248
a(L933155447L
L3609046414L
(lp249
(lp250
Vesp_log_early_timestamp
p251
aVbootloader_execute_flash_command
p252
aVbootloader_execute_flash_command
p253
aVbootloader_execute_flash_command
p254
aVbootloader_execute_flash_command
p255
aVbootloader_read_flash_id
p256
aVis_xmc_chip_strict
p257
atp258
a(L1000132677L
L3187408090L
(lp259
(lp260
Vesp_log_early_timestamp
p261
atp262
atp263
sI1074241296
(Vverify_load_addresses
p264
(lp265
(L2764487219L
L0L
(lp266
(lp267
tp268
a(L106L
L0L
(lp269
(lp270
tp271
a(L97642L
L0L
(lp272
(lp273
tp274
a(L1682572953L
L4032149094L
(lp275
(lp276
V__assert_func
p277
atp278
a(L371731316L
L2195759072L
(lp279
(lp280
tp281
a(L106L
L0L
(lp282
(lp283
tp284
a(L3747671351L
L2195759072L
(lp285
(lp286
tp287
a(L106L
L0L
(lp288
(lp289
tp290
a(L159211233L
L4171435875L
(lp291
(lp292
Vbootloader_util_regions_overlap
p293
atp294
a(L3369736729L
L581251951L
(lp295
(lp296
Vbootloader_util_regions_overlap
p297
atp298
a(L3028481L
L0L
(lp299
(lp300
tp301
a(L129067213L
L242900614L
(lp302
(lp303
Vbootloader_util_regions_overlap
p304
atp305
a(L51970127L
L2534110409L
(lp306
(lp307
tp308
a(L3212477138L
L1443213481L
(lp309
(lp310
tp311
a(L1032381749L
L0L
(lp312
(lp313
tp314
a(L2837304413L
L0L
(lp315
(lp316
tp317
a(L677569396L
L3785322319L
(lp318
(lp319
Vverify_load_addresses
p320
atp321
a(L1351513776L
L0L
(lp322
(lp323
tp324
a(L956755582L
L0L
(lp325
(lp326
tp327
a(L1550159667L
L1443213481L
(lp328
(lp329
tp330
a(L2297907636L
L2195759072L
(lp331
(lp332
tp333
a(L106L
L0L
(lp334
(lp335
tp336
a(L1378880375L
L2195759072L
(lp337
(lp338
tp339
a(L106L
L0L
(lp340
(lp341
tp342
a(L1933245593L
L581251951L
(lp343
(lp344
Vbootloader_util_regions_overlap
p345
atp346
a(L3028481L
L0L
(lp347
(lp348
tp349
a(L2219806806L
L581251951L
(lp350
(lp351
Vbootloader_util_regions_overlap
p352
atp353
a(L3186102034L
L1690040256L
(lp354
(lp355
tp356
a(L1284972329L
L1443213481L
(lp357
(lp358
tp359
a(L3236457224L
L1443213481L
(lp360
(lp361
tp362
a(L2743341656L
L0L
(lp363
(lp364
tp365
a(L182882711L
L0L
(lp366
(lp367
tp368
a(L2268367078L
L2195759072L
(lp369
(lp370
tp371
a(L297163306L
L0L
(lp372
(lp373
tp374
a(L1900059593L
L0L
(lp375
(lp376
tp377
a(L376010266L
L2534110409L
(lp378
(lp379
tp380
a(L1319531632L
L1443213481L
(lp381
(lp382
tp383
a(L3929371936L
L0L
(lp384
(lp385
tp386
a(L147213506L
L1443213481L
(lp387
(lp388
tp389
a(L4072848040L
L0L
(lp390
(lp391
tp392
a(L106L
L0L
(lp393
(lp394
tp395
a(L268651496L
L1443213481L
(lp396
(lp397
tp398
a(L147213506L
L1443213481L
(lp399
(lp400
tp401
a(L3020204L
L0L
(lp402
(lp403
tp404
a(L885671544L
L2275292552L
(lp405
(lp406
Vesp_log_early_timestamp
p407
atp408
a(L1303560396L
L0L
(lp409
(lp410
tp411
a(L268651496L
L1443213481L
(lp412
(lp413
tp414
a(L1303560427L
L0L
(lp415
(lp416
tp417
atp418
sI1074237468
(Vbootloader_mmap
p419
(lp420
(L3007611739L
L2195759072L
(lp421
(lp422
tp423
a(L1328961945L
L2147981551L
(lp424
(lp425
Vesp_log_early_timestamp
p426
atp427
a(L1596194698L
L1443213481L
(lp428
(lp429
tp430
a(L3729184599L
L0L
(lp431
(lp432
tp433
a(L4163264550L
L3187408090L
(lp434
(lp435
Vesp_log_early_timestamp
p436
atp437
a(L2258688482L
L0L
(lp438
(lp439
tp440
a(L3360570486L
L0L
(lp441
(lp442
tp443
a(L3419814624L
L1443213481L
(lp444
(lp445
tp446
a(L1441818867L
L1690040256L
(lp447
(lp448
tp449
a(L3433564204L
L362179215L
(lp450
(lp451
Vesp_log_early_timestamp
p452
atp453
a(L2543114737L
L2147981551L
(lp454
(lp455
Vesp_log_early_timestamp
p456
atp457
a(L1137490703L
L2195759072L
(lp458
(lp459
tp460
atp461
sI1074236956
(Vefuse_hal_get_disable_wafer_version_major
p462
(lp463
(L4194175088L
L0L
(lp464
(lp465
tp466
atp467
sI1074235932
(Vbootloader_flash_gpio_config
p468
(lp469
(L3362256192L
L3785322319L
(lp470
(lp471
Vbootloader_common_get_chip_ver_pkg
p472
atp473
a(L106L
L0L
(lp474
(lp475
tp476
a(L1998579353L
L0L
(lp477
(lp478
tp479
a(L106L
L0L
(lp480
(lp481
tp482
a(L1839763068L
L1443213481L
(lp483
(lp484
tp485
a(L2440320488L
L1396946377L
(lp486
(lp487
tp488
a(L106L
L0L
(lp489
(lp490
tp491
a(L4003626558L
L0L
(lp492
(lp493
tp494
a(L2164907201L
L2534110409L
(lp495
(lp496
tp497
a(L3360570486L
L0L
(lp498
(lp499
tp500
atp501
sI1074241052
(Vprocess_image_header
p502
(lp503
(L3301900732L
L2218577417L
(lp504
(lp505
Vmemset
p506
aVbootloader_flash_read
p507
atp508
a(L3020204L
L0L
(lp509
(lp510
tp511
a(L4205021202L
L0L
(lp512
(lp513
tp514
a(L321261932L
L0L
(lp515
(lp516
tp517
a(L1161397362L
L3785322319L
(lp518
(lp519
Vbootloader_sha256_start
p520
atp521
a(L2062774299L
L3785322319L
(lp522
(lp523
Vbootloader_sha256_data
p524
atp525
a(L1291118193L
L0L
(lp526
(lp527
tp528
a(L3028481L
L0L
(lp529
(lp530
tp531
a(L559062533L
L3187408090L
(lp532
(lp533
Vesp_log_early_timestamp
p534
atp535
a(L147213506L
L1443213481L
(lp536
(lp537
tp538
a(L2983970029L
L0L
(lp539
(lp540
tp541
a(L4235213884L
L3785322319L
(lp542
(lp543
Vbootloader_common_check_chip_validity
p544
atp545
a(L4144303915L
L0L
(lp546
(lp547
tp548
a(L3028481L
L0L
(lp549
(lp550
tp551
a(L3714328738L
L3187408090L
(lp552
(lp553
Vesp_log_early_timestamp
p554
atp555
a(L2852701393L
L0L
(lp556
(lp557
tp558
a(L2122516551L
L0L
(lp559
(lp560
tp561
a(L3064492592L
L0L
(lp562
(lp563
tp564
atp565
sI1074269716
(Vbootloader_enable_random
p566
(lp567
(L859804465L
L2704288053L
(lp568
(lp569
Vesp_log_early_timestamp
p570
aVbootloader_random_enable
p571
atp572
atp573
sI1074270740
(Vmpu_hal_set_region_access
p574
(lp575
(L3538356822L
L0L
(lp576
(lp577
tp578
a(L93674324L
L0L
(lp579
(lp580
tp581
a(L2910371777L
L0L
(lp582
(lp583
tp584
a(L3472092938L
L0L
(lp585
(lp586
tp587
a(L3020187L
L0L
(lp588
(lp589
tp590
a(L3360570486L
L0L
(lp591
(lp592
tp593
a(L2258718273L
L0L
(lp594
(lp595
tp596
a(L3446648619L
L0L
(lp597
(lp598
tp599
a(L3739532189L
L0L
(lp600
(lp601
tp602
a(L1300789895L
L0L
(lp603
(lp604
tp605
atp606
sI1074245656
(Vrtc_clk_cpu_freq_get_config
p607
(lp608
(L4245581454L
L1443213481L
(lp609
(lp610
tp611
a(L3020187L
L0L
(lp612
(lp613
tp614
a(L3020187L
L0L
(lp615
(lp616
tp617
a(L2734221335L
L242900614L
(lp618
(lp619
Vrtc_clk_xtal_freq_get
p620
atp621
a(L3789795478L
L0L
(lp622
(lp623
tp624
a(L672805395L
L2704288053L
(lp625
(lp626
Vesp_log_early_timestamp
p627
aVabort
p628
atp629
a(L3849169076L
L1443213481L
(lp630
(lp631
tp632
a(L3020187L
L0L
(lp633
(lp634
tp635
a(L3028481L
L0L
(lp636
(lp637
tp638
a(L38508693L
L0L
(lp639
(lp640
tp641
a(L187152368L
L0L
(lp642
(lp643
tp644
a(L1161083655L
L0L
(lp645
(lp646
tp647
a(L1395485899L
L0L
(lp648
(lp649
tp650
a(L2070600034L
L0L
(lp651
(lp652
tp653
atp654
sI1074244644
(Vefuse_hal_get_rated_freq_mhz
p655
(lp656
(L1158870592L
L1443213481L
(lp657
(lp658
tp659
a(L338960367L
L0L
(lp660
(lp661
tp662
a(L3360570486L
L0L
(lp663
(lp664
tp665
atp666
sI1074240804
(V__assert_func
p667
(lp668
(L3115292802L
L2195759072L
(lp669
(lp670
tp671
a(L106L
L0L
(lp672
(lp673
tp674
atp675
sI1074239780
(Vbootloader_utility_get_selected_boot_partition
p676
(lp677
(L2938832293L
L0L
(lp678
(lp679
tp680
a(L2250662613L
L1443213481L
(lp681
(lp682
tp683
a(L3987062097L
L2147981551L
(lp684
(lp685
Vesp_log_early_timestamp
p686
atp687
a(L558289164L
L1443213481L
(lp688
(lp689
tp690
a(L3360570486L
L0L
(lp691
(lp692
tp693
a(L3118387733L
L3785322319L
(lp694
(lp695
Vbootloader_mmap
p696
atp697
a(L3080008394L
L2147981551L
(lp698
(lp699
Vesp_log_early_timestamp
p700
atp701
a(L937961821L
L2410515468L
(lp702
(lp703
Vmemcpy
p704
aVmemcpy
p705
aVbootloader_munmap
p706
aVbootloader_common_ota_select_invalid
p707
atp708
a(L2911028409L
L0L
(lp709
(lp710
tp711
a(L726754926L
L3785322319L
(lp712
(lp713
Vbootloader_common_get_active_otadata
p714
atp715
a(L106L
L0L
(lp716
(lp717
tp718
a(L4179097382L
L0L
(lp719
(lp720
tp721
a(L788494392L
L3785322319L
(lp722
(lp723
Vbootloader_common_ota_select_invalid
p724
atp725
a(L638952356L
L1443213481L
(lp726
(lp727
tp728
a(L1522345576L
L3833084538L
(lp729
(lp730
Vesp_log_early_timestamp
p731
atp732
a(L4207910112L
L1443213481L
(lp733
(lp734
tp735
a(L1641201884L
L0L
(lp736
(lp737
tp738
a(L3196944801L
L2147981551L
(lp739
(lp740
Vesp_log_early_timestamp
p741
atp742
a(L2302032704L
L0L
(lp743
(lp744
tp745
a(L1173788779L
L3785322319L
(lp746
(lp747
Vbootloader_common_ota_select_crc
p748
atp749
a(L178397698L
L1443213481L
(lp750
(lp751
tp752
a(L1324800084L
L3785322319L
(lp753
(lp754
Vbootloader_common_ota_select_crc
p755
atp756
a(L1299866312L
L0L
(lp757
(lp758
tp759
a(L2704362655L
L1443213481L
(lp760
(lp761
tp762
a(L2384714272L
L3833084538L
(lp763
(lp764
Vesp_log_early_timestamp
p765
atp766
a(L1194215008L
L3833084538L
(lp767
(lp768
Vesp_log_early_timestamp
p769
atp770
atp771
sI1074236964
(Vesp_log_early_timestamp
p772
(lp773
(L4015029253L
L1443213481L
(lp774
(lp775
tp776
atp777
sI1074247204
(Vrtc_clk_wait_for_slow_cycle
p778
(lp779
(L2844697221L
L2624587680L
(lp780
(lp781
tp782
a(L287687718L
L0L
(lp783
(lp784
tp785
a(L3360570486L
L0L
(lp786
(lp787
tp788
a(L3843203427L
L1443213481L
(lp789
(lp790
tp791
a(L1300789833L
L0L
(lp792
(lp793
tp794
a(L1259765481L
L0L
(lp795
(lp796
tp797
a(L17340776L
L1443213481L
(lp798
(lp799
tp800
a(L329680227L
L3187408090L
(lp801
(lp802
Vesp_log_early_timestamp
p803
atp804
atp805
sI1074237984
(Vbootloader_flash_erase_sector
p806
(lp807
(L4129137686L
L1880226080L
(lp808
(lp809
Vesp_rom_spiflash_erase_sector
p810
aVspi_to_esp_err
p811
atp812
atp813
sI1074237728
(Vbootloader_flash_read
p814
(lp815
(L3022618172L
L0L
(lp816
(lp817
tp818
a(L2493247481L
L2147981551L
(lp819
(lp820
Vesp_log_early_timestamp
p821
atp822
a(L852987398L
L1443213481L
(lp823
(lp824
tp825
a(L1351513776L
L0L
(lp826
(lp827
tp828
a(L1486740491L
L0L
(lp829
(lp830
tp831
a(L4276228047L
L2147981551L
(lp832
(lp833
Vesp_log_early_timestamp
p834
atp835
a(L3283691850L
L0L
(lp836
(lp837
tp838
a(L4276228016L
L2147981551L
(lp839
(lp840
Vesp_log_early_timestamp
p841
atp842
a(L3020204L
L0L
(lp843
(lp844
tp845
a(L384130671L
L0L
(lp846
(lp847
tp848
a(L97422L
L0L
(lp849
(lp850
tp851
a(L515889772L
L2195759072L
(lp852
(lp853
tp854
a(L3321969934L
L1690040256L
(lp855
(lp856
tp857
a(L279744554L
L4032149094L
(lp858
(lp859
V__assert_func
p860
atp861
a(L4071371888L
L2534110409L
(lp862
(lp863
tp864
a(L2438181396L
L1443213481L
(lp865
(lp866
tp867
a(L1976506429L
L3635241909L
(lp868
(lp869
Vesp_rom_spiflash_read
p870
aVspi_to_esp_err
p871
atp872
atp873
sI1074267680
(Vcall_start_cpu0
p874
(lp875
(L342432055L
L1443213481L
(lp876
(lp877
tp878
a(L4207910112L
L1443213481L
(lp879
(lp880
tp881
a(L3212347974L
L3785322319L
(lp882
(lp883
Vbootloader_init
p884
atp885
a(L94425498L
L3785322319L
(lp886
(lp887
Vbootloader_reset
p888
atp889
a(L1872507246L
L1443213481L
(lp890
(lp891
tp892
a(L4207910112L
L1443213481L
(lp893
(lp894
tp895
a(L356913563L
L2218577417L
(lp896
(lp897
Vmemset
p898
aVbootloader_utility_load_partition_table
p899
atp900
a(L3014296803L
L3187408090L
(lp901
(lp902
Vesp_log_early_timestamp
p903
atp904
a(L405422123L
L3785322319L
(lp905
(lp906
Vbootloader_utility_get_selected_boot_partition
p907
atp908
a(L2025208509L
L242900614L
(lp909
(lp910
Vbootloader_utility_load_boot_image
p911
atp912
atp913
sI1074247468
(Vesp_rom_spiflash_wait_idle
p914
(lp915
(L1698121947L
L1443213481L
(lp916
(lp917
tp918
a(L2023766174L
L0L
(lp919
(lp920
tp921
a(L147213506L
L1443213481L
(lp922
(lp923
tp924
a(L3086959262L
L0L
(lp925
(lp926
tp927
a(L4161019926L
L3785322319L
(lp928
(lp929
Vesp_rom_spiflash_read_status
p930
atp931
atp932
sI1074269476
(Vbootloader_read_bootloader_header
p933
(lp934
(L2948018849L
L242900614L
(lp935
(lp936
Vbootloader_flash_read
p937
atp938
a(L804259852L
L3187408090L
(lp939
(lp940
Vesp_log_early_timestamp
p941
atp942
a(L735741265L
L0L
(lp943
(lp944
tp945
atp946
sI1074238760
(Vcache_ll_l1_enable_bus
p947
(lp948
(L318252209L
L1443213481L
(lp949
(lp950
tp951
atp952
sI1074245416
(Vrtc_clk_slow_freq_get_hz
p953
(lp954
(L1826267122L
L3785322319L
(lp955
(lp956
Vrtc_clk_slow_src_get
p957
atp958
a(L1872507229L
L1443213481L
(lp959
(lp960
tp961
a(L2221201615L
L1443213481L
(lp962
(lp963
tp964
a(L3360570486L
L0L
(lp965
(lp966
tp967
atp968
sI1074238004
(Vbootloader_flash_write
p969
(lp970
(L3770380603L
L0L
(lp971
(lp972
tp973
a(L2654201950L
L2147981551L
(lp974
(lp975
Vesp_log_early_timestamp
p976
atp977
a(L4207910112L
L1443213481L
(lp978
(lp979
tp980
a(L1610445075L
L0L
(lp981
(lp982
tp983
a(L735741265L
L0L
(lp984
(lp985
tp986
a(L3291333414L
L0L
(lp987
(lp988
tp989
a(L416217162L
L2147981551L
(lp990
(lp991
Vesp_log_early_timestamp
p992
atp993
a(L3283691850L
L0L
(lp994
(lp995
tp996
a(L212182276L
L3187408090L
(lp997
(lp998
Vesp_log_early_timestamp
p999
atp1000
a(L3212356251L
L3785322319L
(lp1001
(lp1002
Vbootloader_flash_unlock
p1003
atp1004
a(L1799218633L
L0L
(lp1005
(lp1006
tp1007
a(L94425498L
L3785322319L
(lp1008
(lp1009
Vesp_rom_spiflash_write_encrypted
p1010
atp1011
a(L2927190544L
L3785322319L
(lp1012
(lp1013
Vspi_to_esp_err
p1014
atp1015
a(L2927190544L
L3785322319L
(lp1016
(lp1017
Vesp_rom_spiflash_write
p1018
atp1019
atp1020
sI1074236724
(Vefuse_hal_chip_revision
p1021
(lp1022
(L2719302832L
L1880226080L
(lp1023
(lp1024
Vefuse_hal_get_major_chip_version
p1025
aVefuse_hal_get_minor_chip_version
p1026
atp1027
atp1028
sI1074246708
(Vrtc_clk_cal_internal
p1029
(lp1030
(L4103044880L
L1443213481L
(lp1031
(lp1032
tp1033
a(L3906046821L
L4032149094L
(lp1034
(lp1035
V__assert_func
p1036
atp1037
a(L3821006588L
L1443213481L
(lp1038
(lp1039
tp1040
a(L1673513644L
L0L
(lp1041
(lp1042
tp1043
a(L2719210992L
L4021370767L
(lp1044
(lp1045
Vrtc_clk_slow_src_get
p1046
atp1047
a(L3008910671L
L0L
(lp1048
(lp1049
tp1050
a(L97689L
L0L
(lp1051
(lp1052
tp1053
a(L1872507229L
L1443213481L
(lp1054
(lp1055
tp1056
a(L3028464L
L0L
(lp1057
(lp1058
tp1059
a(L3028481L
L0L
(lp1060
(lp1061
tp1062
a(L147213506L
L1443213481L
(lp1063
(lp1064
tp1065
a(L3455571058L
L1374507264L
(lp1066
(lp1067
V__udivdi3
p1068
aVrtc_clk_xtal_freq_get
p1069
atp1070
a(L2780079961L
L0L
(lp1071
(lp1072
tp1073
a(L4208562267L
L1443213481L
(lp1074
(lp1075
tp1076
a(L4114459891L
L3187408090L
(lp1077
(lp1078
Vesp_log_early_timestamp
p1079
atp1080
a(L2258688482L
L0L
(lp1081
(lp1082
tp1083
a(L3360570486L
L0L
(lp1084
(lp1085
tp1086
a(L3553505594L
L0L
(lp1087
(lp1088
tp1089
a(L403361192L
L0L
(lp1090
(lp1091
tp1092
a(L3243404432L
L3785322319L
(lp1093
(lp1094
Vrtc_clk_8m_enable
p1095
atp1096
a(L390546255L
L2195759072L
(lp1097
(lp1098
tp1099
a(L3586367509L
L1443213481L
(lp1100
(lp1101
tp1102
a(L2910371777L
L0L
(lp1103
(lp1104
tp1105
a(L2902417580L
L0L
(lp1106
(lp1107
tp1108
a(L3082259486L
L1443213481L
(lp1109
(lp1110
tp1111
a(L3020204L
L0L
(lp1112
(lp1113
tp1114
a(L603598685L
L1443213481L
(lp1115
(lp1116
tp1117
a(L3429540926L
L0L
(lp1118
(lp1119
tp1120
a(L3028464L
L0L
(lp1121
(lp1122
tp1123
a(L615477255L
L242900614L
(lp1124
(lp1125
Vrtc_clk_8m_enable
p1126
atp1127
atp1128
sI1074269744
(Vbootloader_print_banner
p1129
(lp1130
(L3569996224L
L1385564105L
(lp1131
(lp1132
Vesp_bootloader_get_description
p1133
aVesp_log_early_timestamp
p1134
aVesp_log_early_timestamp
p1135
aVesp_log_early_timestamp
p1136
atp1137
atp1138
sI1074240828
(Vabort
p1139
(lp1140
(L2564459292L
L1690040256L
(lp1141
(lp1142
tp1143
a(L409471316L
L0L
(lp1144
(lp1145
tp1146
a(L106L
L0L
(lp1147
(lp1148
tp1149
atp1150
sI1074239292
(Vset_actual_ota_seq
p1151
(lp1152
(L4094723830L
L0L
(lp1153
(lp1154
tp1155
a(L3504298995L
L2195759072L
(lp1156
(lp1157
tp1158
a(L3856681007L
L961634322L
(lp1159
(lp1160
Vmemset
p1161
aVbootloader_common_ota_select_crc
p1162
aVesp_flash_encryption_enabled
p1163
aVbootloader_flash_erase_sector
p1164
atp1165
a(L2768623893L
L3785322319L
(lp1166
(lp1167
Vbootloader_flash_write
p1168
atp1169
a(L3693339703L
L2147981551L
(lp1170
(lp1171
Vesp_log_early_timestamp
p1172
atp1173
a(L3903819434L
L2147981551L
(lp1174
(lp1175
Vesp_log_early_timestamp
p1176
atp1177
a(L3360570486L
L0L
(lp1178
(lp1179
tp1180
atp1181
sI1074270516
(Vrtc_vddsdio_get_config
p1182
(lp1183
(L3097658956L
L1443213481L
(lp1184
(lp1185
tp1186
a(L1750635626L
L0L
(lp1187
(lp1188
tp1189
a(L3193418487L
L0L
(lp1190
(lp1191
tp1192
a(L3511111289L
L1443213481L
(lp1193
(lp1194
tp1195
a(L115635292L
L0L
(lp1196
(lp1197
tp1198
a(L896053863L
L0L
(lp1199
(lp1200
tp1201
a(L1306330959L
L0L
(lp1202
(lp1203
tp1204
a(L1783408782L
L1443213481L
(lp1205
(lp1206
tp1207
atp1208
sI1074236996
(Vbootloader_common_ota_select_crc
p1209
(lp1210
(L2925798959L
L1443213481L
(lp1211
(lp1212
tp1213
atp1214
sI1074245444
(Vrtc_clk_fast_src_set
p1215
(lp1216
(L1089140614L
L1443213481L
(lp1217
(lp1218
tp1219
a(L3020187L
L0L
(lp1220
(lp1221
tp1222
a(L3827921190L
L3785322319L
(lp1223
(lp1224
Vabort
p1225
atp1226
a(L2578095160L
L1443213481L
(lp1227
(lp1228
tp1229
a(L4159388630L
L1443213481L
(lp1230
(lp1231
tp1232
a(L300459962L
L0L
(lp1233
(lp1234
tp1235
atp1236
sI1074244416
(Vwdt_hal_write_protect_disable
p1237
(lp1238
(L3085072089L
L1443213481L
(lp1239
(lp1240
tp1241
a(L4195472003L
L0L
(lp1242
(lp1243
tp1244
a(L3360570486L
L0L
(lp1245
(lp1246
tp1247
a(L1210571996L
L0L
(lp1248
(lp1249
tp1250
atp1251
sI1074241856
(Vshould_load
p1252
(lp1253
(L4190720747L
L2534110409L
(lp1254
(lp1255
tp1256
a(L1182990556L
L0L
(lp1257
(lp1258
tp1259
a(L1744532171L
L1443213481L
(lp1260
(lp1261
tp1262
a(L2306467100L
L0L
(lp1263
(lp1264
tp1265
a(L4034276159L
L1443213481L
(lp1266
(lp1267
tp1268
a(L2258897019L
L0L
(lp1269
(lp1270
tp1271
a(L3781799363L
L0L
(lp1272
(lp1273
tp1274
a(L3028464L
L0L
(lp1275
(lp1276
tp1277
a(L166133047L
L2195759072L
(lp1278
(lp1279
tp1280
a(L4277114872L
L0L
(lp1281
(lp1282
tp1283
a(L2824381917L
L0L
(lp1284
(lp1285
tp1286
a(L1243412227L
L0L
(lp1287
(lp1288
tp1289
a(L2011157548L
L0L
(lp1290
(lp1291
tp1292
a(L3126521138L
L0L
(lp1293
(lp1294
tp1295
a(L1305407438L
L0L
(lp1296
(lp1297
tp1298
a(L1305407469L
L0L
(lp1299
(lp1300
tp1301
atp1302
sI1074236748
(Vefuse_hal_flash_encryption_enabled
p1303
(lp1304
(L221474917L
L1443213481L
(lp1305
(lp1306
tp1307
a(L2910371777L
L0L
(lp1308
(lp1309
tp1310
a(L3360570486L
L0L
(lp1311
(lp1312
tp1313
a(L3016870L
L0L
(lp1314
(lp1315
tp1316
a(L3745038218L
L0L
(lp1317
(lp1318
tp1319
a(L957607403L
L0L
(lp1320
(lp1321
tp1322
atp1323
sI1074234700
(Vbootloader_common_get_chip_ver_pkg
p1324
(lp1325
(L3197874814L
L1443213481L
(lp1326
(lp1327
tp1328
atp1329
sI1074244680
(Vrtc_clk_32k_enable_common
p1330
(lp1331
(L2821256590L
L2195759072L
(lp1332
(lp1333
tp1334
a(L97422L
L0L
(lp1335
(lp1336
tp1337
a(L2218417248L
L0L
(lp1338
(lp1339
tp1340
a(L339634797L
L1443213481L
(lp1341
(lp1342
tp1343
a(L51458120L
L0L
(lp1344
(lp1345
tp1346
atp1347
sI1074247764
(Vesp_rom_spiflash_erase_sector
p1348
(lp1349
(L3892694408L
L1679261929L
(lp1350
(lp1351
tp1352
a(L2258688483L
L0L
(lp1353
(lp1354
tp1355
a(L3360570486L
L0L
(lp1356
(lp1357
tp1358
a(L3212356251L
L3785322319L
(lp1359
(lp1360
Vesp_rom_spiflash_enable_write
p1361
atp1362
a(L184152988L
L0L
(lp1363
(lp1364
tp1365
a(L1036552696L
L362179215L
(lp1366
(lp1367
Vesp_rom_spiflash_wait_idle
p1368
atp1369
a(L3333707777L
L0L
(lp1370
(lp1371
tp1372
a(L3582858798L
L3785322319L
(lp1373
(lp1374
Vesp_rom_spiflash_wait_idle
p1375
atp1376
atp1377
sI1074240592
(Vbootloader_sha256_finish
p1378
(lp1379
(L4066096136L
L0L
(lp1380
(lp1381
tp1382
a(L1697654722L
L2195759072L
(lp1383
(lp1384
tp1385
a(L2213948952L
L242900614L
(lp1386
(lp1387
V__assert_func
p1388
atp1389
a(L3020204L
L0L
(lp1390
(lp1391
tp1392
a(L2888288470L
L2534110409L
(lp1393
(lp1394
tp1395
a(L2534656226L
L0L
(lp1396
(lp1397
tp1398
a(L2740629735L
L4171435875L
(lp1399
(lp1400
Vbootloader_sha256_data
p1401
atp1402
a(L2946948570L
L2195759072L
(lp1403
(lp1404
tp1405
a(L354914383L
L2790500905L
(lp1406
(lp1407
V__bswapsi2
p1408
aVbootloader_sha256_data
p1409
atp1410
a(L2946948756L
L2195759072L
(lp1411
(lp1412
tp1413
a(L657425439L
L0L
(lp1414
(lp1415
tp1416
a(L4173600236L
L1443213481L
(lp1417
(lp1418
tp1419
a(L657425439L
L0L
(lp1420
(lp1421
tp1422
a(L2046284480L
L2195759072L
(lp1423
(lp1424
tp1425
a(L3616504601L
L4171435875L
(lp1426
(lp1427
V__bswapsi2
p1428
atp1429
a(L3347778L
L0L
(lp1430
(lp1431
tp1432
a(L3360570486L
L0L
(lp1433
(lp1434
tp1435
atp1436
sI1074269520
(Vbootloader_check_bootloader_validity
p1437
(lp1438
(L2945382592L
L1069700966L
(lp1439
(lp1440
Vefuse_hal_chip_revision
p1441
aVesp_log_early_timestamp
p1442
aVbootloader_common_check_chip_validity
p1443
atp1444
atp1445
sI1074238300
(Vbootloader_random_disable
p1446
(lp1447
(L482324986L
L2935979744L
(lp1448
(lp1449
tp1450
atp1451
sI1074238812
(Vcache_ll_l1_get_bus
p1452
(lp1453
(L2749735183L
L1443213481L
(lp1454
(lp1455
tp1456
a(L94425498L
L3785322319L
(lp1457
(lp1458
Vabort
p1459
atp1460
a(L1872514061L
L1443213481L
(lp1461
(lp1462
tp1463
a(L2895466817L
L1443213481L
(lp1464
(lp1465
tp1466
a(L892952750L
L0L
(lp1467
(lp1468
tp1469
a(L1182811810L
L0L
(lp1470
(lp1471
tp1472
a(L4062036744L
L0L
(lp1473
(lp1474
tp1475
a(L3360570486L
L0L
(lp1476
(lp1477
tp1478
a(L1872508791L
L1443213481L
(lp1479
(lp1480
tp1481
a(L3007055246L
L0L
(lp1482
(lp1483
tp1484
a(L3069752967L
L0L
(lp1485
(lp1486
tp1487
a(L2258867228L
L0L
(lp1488
(lp1489
tp1490
a(L1087012479L
L0L
(lp1491
(lp1492
tp1493
a(L4059034926L
L0L
(lp1494
(lp1495
tp1496
a(L1872508791L
L1443213481L
(lp1497
(lp1498
tp1499
a(L1872514061L
L1443213481L
(lp1500
(lp1501
tp1502
a(L1641149277L
L0L
(lp1503
(lp1504
tp1505
a(L1872508791L
L1443213481L
(lp1506
(lp1507
tp1508
a(L899412127L
L0L
(lp1509
(lp1510
tp1511
a(L106L
L0L
(lp1512
(lp1513
tp1514
a(L1299866436L
L0L
(lp1515
(lp1516
tp1517
atp1518
sI1074245980
(Vrtc_clk_cpu_freq_set_config
p1519
(lp1520
(L1040494747L
L3833084538L
(lp1521
(lp1522
Vrtc_clk_xtal_freq_get
p1523
atp1524
a(L2308773007L
L0L
(lp1525
(lp1526
tp1527
a(L3253451229L
L1880226080L
(lp1528
(lp1529
Vrtc_clk_cpu_freq_to_xtal
p1530
aVrtc_clk_wait_for_slow_cycle
p1531
atp1532
a(L2243645672L
L0L
(lp1533
(lp1534
tp1535
a(L4002786498L
L0L
(lp1536
(lp1537
tp1538
a(L2736411858L
L3785322319L
(lp1539
(lp1540
Vrtc_clk_cpu_freq_to_xtal
p1541
atp1542
a(L3360570486L
L0L
(lp1543
(lp1544
tp1545
a(L2755207760L
L1832448559L
(lp1546
(lp1547
Vrtc_clk_cpu_freq_to_xtal
p1548
aVrtc_clk_wait_for_slow_cycle
p1549
aVrtc_clk_bbpll_disable
p1550
atp1551
a(L3020187L
L0L
(lp1552
(lp1553
tp1554
a(L106L
L0L
(lp1555
(lp1556
tp1557
a(L2730236852L
L1156451872L
(lp1558
(lp1559
Vrtc_clk_wait_for_slow_cycle
p1560
aVrtc_clk_xtal_freq_get
p1561
atp1562
a(L106L
L0L
(lp1563
(lp1564
tp1565
a(L3776069396L
L1443213481L
(lp1566
(lp1567
tp1568
a(L83268611L
L0L
(lp1569
(lp1570
tp1571
a(L106L
L0L
(lp1572
(lp1573
tp1574
a(L82345090L
L0L
(lp1575
(lp1576
tp1577
a(L106L
L0L
(lp1578
(lp1579
tp1580
a(L2258718273L
L0L
(lp1581
(lp1582
tp1583
a(L3298883534L
L0L
(lp1584
(lp1585
tp1586
a(L3519990574L
L1443213481L
(lp1587
(lp1588
tp1589
a(L2508198718L
L1743007695L
(lp1590
(lp1591
Vrtc_clk_cpu_freq_to_pll_mhz
p1592
atp1593
a(L935233121L
L2534110409L
(lp1594
(lp1595
tp1596
a(L83268344L
L0L
(lp1597
(lp1598
tp1599
a(L82344823L
L0L
(lp1600
(lp1601
tp1602
a(L1569180676L
L0L
(lp1603
(lp1604
tp1605
a(L2258837488L
L0L
(lp1606
(lp1607
tp1608
a(L4233337962L
L1443213481L
(lp1609
(lp1610
tp1611
a(L1482311963L
L0L
(lp1612
(lp1613
tp1614
a(L133411965L
L0L
(lp1615
(lp1616
tp1617
a(L3673491036L
L0L
(lp1618
(lp1619
tp1620
a(L4197990447L
L0L
(lp1621
(lp1622
tp1623
a(L903154985L
L0L
(lp1624
(lp1625
tp1626
a(L3020187L
L0L
(lp1627
(lp1628
tp1629
a(L106L
L0L
(lp1630
(lp1631
tp1632
a(L1317698645L
L93324751L
(lp1633
(lp1634
Vesp_rom_set_cpu_ticks_per_us
p1635
atp1636
atp1637
sI1074247516
(Vesp_rom_spiflash_enable_write
p1638
(lp1639
(L2885777558L
L1303911398L
(lp1640
(lp1641
Vesp_rom_spiflash_wait_idle
p1642
atp1643
a(L3333707777L
L0L
(lp1644
(lp1645
tp1646
a(L2258688484L
L0L
(lp1647
(lp1648
tp1649
a(L99543895L
L0L
(lp1650
(lp1651
tp1652
a(L2993202392L
L0L
(lp1653
(lp1654
tp1655
a(L1265538927L
L242900614L
(lp1656
(lp1657
Vesp_rom_spiflash_read_status
p1658
atp1659
atp1660
sI1074240088
(Vbootloader_reset
p1661
(lp1662
(L479276581L
L2147981551L
(lp1663
(lp1664
Vbootloader_console_deinit
p1665
atp1666
a(L106L
L0L
(lp1667
(lp1668
tp1669
atp1670
sI1074237016
(Vbootloader_common_ota_select_valid
p1671
(lp1672
(L1563399710L
L3785322319L
(lp1673
(lp1674
Vbootloader_common_ota_select_invalid
p1675
atp1676
a(L3814720849L
L3785322319L
(lp1677
(lp1678
Vbootloader_common_ota_select_crc
p1679
atp1680
a(L3360570486L
L0L
(lp1681
(lp1682
tp1683
atp1684
sI1074235236
(Vbootloader_execute_flash_command
p1685
(lp1686
(L2481595632L
L3785322319L
(lp1687
(lp1688
Vbootloader_flash_execute_command_common
p1689
atp1690
atp1691
sI1074240352
(Vindex_to_partition
p1692
(lp1693
(L4066096119L
L0L
(lp1694
(lp1695
tp1696
a(L1101255660L
L0L
(lp1697
(lp1698
tp1699
a(L1955702725L
L0L
(lp1700
(lp1701
tp1702
a(L3698927993L
L0L
(lp1703
(lp1704
tp1705
a(L2808906342L
L0L
(lp1706
(lp1707
tp1708
a(L4211744375L
L0L
(lp1709
(lp1710
tp1711
a(L3097778015L
L0L
(lp1712
(lp1713
tp1714
a(L1816235430L
L0L
(lp1715
(lp1716
tp1717
a(L2179185678L
L0L
(lp1718
(lp1719
tp1720
a(L3369319173L
L0L
(lp1721
(lp1722
tp1723
atp1724
sI1074244448
(Vwdt_hal_set_flashboot_en
p1725
(lp1726
(L2375320464L
L0L
(lp1727
(lp1728
tp1729
a(L3915867581L
L0L
(lp1730
(lp1731
tp1732
a(L3360570486L
L0L
(lp1733
(lp1734
tp1735
a(L3823116953L
L1443213481L
(lp1736
(lp1737
tp1738
atp1739
sI1074240876
(Vbootloader_ana_clock_glitch_reset_config
p1740
(lp1741
(L2100504542L
L0L
(lp1742
(lp1743
tp1744
atp1745
sI1074237292
(Vbootloader_common_get_active_otadata
p1746
(lp1747
(L3317503532L
L0L
(lp1748
(lp1749
tp1750
a(L2503049265L
L1832448559L
(lp1751
(lp1752
Vbootloader_common_ota_select_valid
p1753
aVbootloader_common_ota_select_valid
p1754
aVbootloader_common_select_otadata
p1755
atp1756
a(L735741265L
L0L
(lp1757
(lp1758
tp1759
atp1760
sI1074234732
(Vesp_flash_encryption_enabled
p1761
(lp1762
(L376617603L
L3785322319L
(lp1763
(lp1764
Vefuse_hal_flash_encryption_enabled
p1765
atp1766
atp1767
sI1074245224
(Vrtc_clk_8m_enabled
p1768
(lp1769
(L563532105L
L1443213481L
(lp1770
(lp1771
tp1772
atp1773
sI1074270072
(Vrtc_clk_init
p1774
(lp1775
(L1100006719L
L1443213481L
(lp1776
(lp1777
tp1778
a(L42671777L
L3785322319L
(lp1779
(lp1780
Vrtc_clk_cpu_freq_to_xtal
p1781
atp1782
a(L739905763L
L1743007695L
(lp1783
(lp1784
Vrtc_clk_xtal_freq_get
p1785
atp1786
a(L3028481L
L0L
(lp1787
(lp1788
tp1789
a(L4284274517L
L3785322319L
(lp1790
(lp1791
Vrtc_clk_xtal_freq_estimate
p1792
atp1793
a(L2576622952L
L3187408090L
(lp1794
(lp1795
Vesp_log_early_timestamp
p1796
atp1797
a(L1822030105L
L3065544262L
(lp1798
(lp1799
Vesp_rom_uart_tx_wait_idle
p1800
aVrtc_clk_xtal_freq_update
p1801
aVrtc_clk_apb_freq_update
p1802
aVrtc_clk_cpu_freq_get_config
p1803
aVrtc_clk_cpu_freq_mhz_to_config
p1804
atp1805
a(L521302419L
L2704288053L
(lp1806
(lp1807
Vesp_log_early_timestamp
p1808
aVabort
p1809
atp1810
a(L2902417580L
L0L
(lp1811
(lp1812
tp1813
a(L1899970065L
L0L
(lp1814
(lp1815
tp1816
a(L377687546L
L3785322319L
(lp1817
(lp1818
Vrtc_clk_xtal_freq_estimate
p1819
atp1820
a(L2163742247L
L3187408090L
(lp1821
(lp1822
Vesp_log_early_timestamp
p1823
atp1824
a(L299116989L
L2426646996L
(lp1825
(lp1826
Vrtc_clk_cpu_freq_set_config
p1827
aV__udivdi3
p1828
atp1829
a(L912310138L
L3785322319L
(lp1830
(lp1831
Vrtc_clk_32k_enable
p1832
atp1833
a(L3191820416L
L1832448559L
(lp1834
(lp1835
Vrtc_clk_8m_enable
p1836
aVrtc_clk_fast_src_set
p1837
aVrtc_clk_slow_src_set
p1838
atp1839
a(L1232958848L
L0L
(lp1840
(lp1841
tp1842
atp1843
sI1074236788
(Vefuse_hal_get_major_chip_version
p1844
(lp1845
(L1572156932L
L2195759072L
(lp1846
(lp1847
tp1848
a(L894792960L
L0L
(lp1849
(lp1850
tp1851
a(L724635033L
L0L
(lp1852
(lp1853
tp1854
a(L3360570486L
L0L
(lp1855
(lp1856
tp1857
atp1858
sI1074240884
(Vprocess_checksum
p1859
(lp1860
(L166193219L
L242900614L
(lp1861
(lp1862
Vmemset
p1863
atp1864
a(L3028481L
L0L
(lp1865
(lp1866
tp1867
a(L186886970L
L0L
(lp1868
(lp1869
tp1870
a(L2902417580L
L0L
(lp1871
(lp1872
tp1873
a(L3028481L
L0L
(lp1874
(lp1875
tp1876
a(L169792351L
L3187408090L
(lp1877
(lp1878
Vesp_log_early_timestamp
p1879
atp1880
a(L268651496L
L1443213481L
(lp1881
(lp1882
tp1883
a(L3236648107L
L3785322319L
(lp1884
(lp1885
Vbootloader_flash_read
p1886
atp1887
a(L735741265L
L0L
(lp1888
(lp1889
tp1890
a(L3020204L
L0L
(lp1891
(lp1892
tp1893
a(L2480703612L
L3785322319L
(lp1894
(lp1895
Vbootloader_sha256_data
p1896
atp1897
a(L3436105237L
L0L
(lp1898
(lp1899
tp1900
a(L106L
L0L
(lp1901
(lp1902
tp1903
atp1904
sI1074240112
(Vbootloader_utility_load_boot_image
p1905
(lp1906
(L421993435L
L242900614L
(lp1907
(lp1908
Vmemset
p1909
atp1910
a(L2177418995L
L3785322319L
(lp1911
(lp1912
Vtry_load_partition
p1913
atp1914
a(L1305243774L
L3785322319L
(lp1915
(lp1916
Vload_image
p1917
atp1918
a(L4114459891L
L3187408090L
(lp1919
(lp1920
Vesp_log_early_timestamp
p1921
atp1922
a(L3827921190L
L3785322319L
(lp1923
(lp1924
Vbootloader_reset
p1925
atp1926
a(L1953693036L
L3785322319L
(lp1927
(lp1928
Vindex_to_partition
p1929
atp1930
a(L1204373741L
L3785322319L
(lp1931
(lp1932
Vtry_load_partition
p1933
atp1934
a(L1899865696L
L0L
(lp1935
(lp1936
tp1937
a(L2695355117L
L3785322319L
(lp1938
(lp1939
Vset_actual_ota_seq
p1940
atp1941
a(L1868897605L
L3785322319L
(lp1942
(lp1943
Vlog_invalid_app_partition
p1944
atp1945
a(L831650730L
L0L
(lp1946
(lp1947
tp1948
a(L3021737L
L0L
(lp1949
(lp1950
tp1951
a(L695456438L
L0L
(lp1952
(lp1953
tp1954
a(L315114854L
L3833084538L
(lp1955
(lp1956
Vtry_load_partition
p1957
atp1958
a(L89447667L
L2147981551L
(lp1959
(lp1960
Vesp_log_early_timestamp
p1961
atp1962
a(L2347390157L
L3785322319L
(lp1963
(lp1964
Vindex_to_partition
p1965
atp1966
a(L1204373741L
L3785322319L
(lp1967
(lp1968
Vtry_load_partition
p1969
atp1970
a(L3061261803L
L0L
(lp1971
(lp1972
tp1973
a(L3582858798L
L3785322319L
(lp1974
(lp1975
Vlog_invalid_app_partition
p1976
atp1977
a(L3581752791L
L2704288053L
(lp1978
(lp1979
Vesp_log_early_timestamp
p1980
aVmemset
p1981
atp1982
atp1983
sI1074244976
(Vrtc_clk_bbpll_disable
p1984
(lp1985
(L3512291683L
L1690040256L
(lp1986
(lp1987
tp1988
a(L2472207241L
L0L
(lp1989
(lp1990
tp1991
a(L3360570486L
L0L
(lp1992
(lp1993
tp1994
atp1995
sI1074237052
(Vbootloader_common_check_chip_validity
p1996
(lp1997
(L2080115690L
L0L
(lp1998
(lp1999
tp2000
a(L3255759481L
L3187408090L
(lp2001
(lp2002
Vesp_log_early_timestamp
p2003
atp2004
a(L1299867982L
L0L
(lp2005
(lp2006
tp2007
a(L3360570486L
L0L
(lp2008
(lp2009
tp2010
a(L521940037L
L3785322319L
(lp2011
(lp2012
Vefuse_hal_chip_revision
p2013
atp2014
a(L332291457L
L1443213481L
(lp2015
(lp2016
tp2017
a(L780168284L
L362179215L
(lp2018
(lp2019
Vesp_log_early_timestamp
p2020
atp2021
a(L3028464L
L0L
(lp2022
(lp2023
tp2024
a(L573448730L
L0L
(lp2025
(lp2026
tp2027
a(L106L
L0L
(lp2028
(lp2029
tp2030
a(L3027019L
L0L
(lp2031
(lp2032
tp2033
a(L106L
L0L
(lp2034
(lp2035
tp2036
a(L3212356251L
L3785322319L
(lp2037
(lp2038
Vefuse_hal_get_disable_wafer_version_major
p2039
atp2040
a(L2465410698L
L362179215L
(lp2041
(lp2042
Vesp_log_early_timestamp
p2043
atp2044
atp2045
sI1074269812
(Vbootloader_console_init
p2046
(lp2047
(L3806010175L
L988378406L
(lp2048
(lp2049
Vesp_rom_uart_tx_wait_idle
p2050
aVrtc_clk_apb_freq_get
p2051
aVesp_rom_uart_set_clock_baudrate
p2052
atp2053
atp2054
sI1074234744
(Vbootloader_flash_execute_command_common
p2055
(lp2056
(L1988465817L
L0L
(lp2057
(lp2058
tp2059
a(L2946944720L
L2195759072L
(lp2060
(lp2061
tp2062
a(L2213948952L
L242900614L
(lp2063
(lp2064
V__assert_func
p2065
atp2066
a(L3021749L
L0L
(lp2067
(lp2068
tp2069
a(L1160973241L
L2195759072L
(lp2070
(lp2071
tp2072
a(L2792673601L
L1679261929L
(lp2073
(lp2074
tp2075
a(L3792188146L
L0L
(lp2076
(lp2077
tp2078
a(L4024113366L
L0L
(lp2079
(lp2080
tp2081
a(L3275299125L
L1443213481L
(lp2082
(lp2083
tp2084
a(L2232084959L
L2534110409L
(lp2085
(lp2086
tp2087
a(L1099389923L
L0L
(lp2088
(lp2089
tp2090
a(L857553440L
L2195759072L
(lp2091
(lp2092
tp2093
a(L3877681344L
L0L
(lp2094
(lp2095
tp2096
a(L73134175L
L1443213481L
(lp2097
(lp2098
tp2099
a(L1270255739L
L0L
(lp2100
(lp2101
tp2102
a(L3691039583L
L0L
(lp2103
(lp2104
tp2105
a(L3411317116L
L0L
(lp2106
(lp2107
tp2108
a(L3360570486L
L0L
(lp2109
(lp2110
tp2111
atp2112
sI1074243204
(Vbootloader_load_image
p2113
(lp2114
(L1155870502L
L3785322319L
(lp2115
(lp2116
Vimage_load
p2117
atp2118
atp2119
sI1074236548
(Vesp_rom_set_cpu_ticks_per_us
p2120
(lp2121
(L2671138469L
L1443213481L
(lp2122
(lp2123
tp2124
atp2125
sI1074235268
(Vbootloader_flash_unlock
p2126
(lp2127
(L1368360454L
L242900614L
(lp2128
(lp2129
Vesp_rom_spiflash_wait_idle
p2130
atp2131
a(L1574074940L
L0L
(lp2132
(lp2133
tp2134
a(L1667462067L
L3785322319L
(lp2135
(lp2136
Vbootloader_execute_flash_command
p2137
atp2138
a(L106L
L0L
(lp2139
(lp2140
tp2141
a(L1013678540L
L0L
(lp2142
(lp2143
tp2144
a(L2529045083L
L0L
(lp2145
(lp2146
tp2147
a(L990750093L
L1832448559L
(lp2148
(lp2149
Vesp_rom_spiflash_wait_idle
p2150
aVbootloader_execute_flash_command
p2151
aVbootloader_execute_flash_command
p2152
atp2153
a(L993671302L
L1832448559L
(lp2154
(lp2155
Vesp_rom_spiflash_wait_idle
p2156
aVbootloader_execute_flash_command
p2157
aVbootloader_execute_flash_command
p2158
atp2159
a(L1209048744L
L1880226080L
(lp2160
(lp2161
Vesp_rom_spiflash_wait_idle
p2162
aVbootloader_execute_flash_command
p2163
atp2164
a(L3162775668L
L0L
(lp2165
(lp2166
tp2167
a(L2435612105L
L0L
(lp2168
(lp2169
tp2170
a(L3664359624L
L0L
(lp2171
(lp2172
tp2173
a(L2074930120L
L1880226080L
(lp2174
(lp2175
Vbootloader_execute_flash_command
p2176
aVbootloader_execute_flash_command
p2177
atp2178
a(L2125014318L
L0L
(lp2179
(lp2180
tp2181
a(L568821667L
L0L
(lp2182
(lp2183
tp2184
a(L1711531685L
L1880226080L
(lp2185
(lp2186
Vbootloader_execute_flash_command
p2187
aVbootloader_execute_flash_command
p2188
atp2189
a(L3658700047L
L0L
(lp2190
(lp2191
tp2192
a(L3269997774L
L0L
(lp2193
(lp2194
tp2195
a(L106L
L0L
(lp2196
(lp2197
tp2198
a(L2993202392L
L0L
(lp2199
(lp2200
tp2201
atp2202
sI1074245508
(Vrtc_clk_fast_src_get
p2203
(lp2204
(L2217920473L
L1443213481L
(lp2205
(lp2206
tp2207
atp2208
sI1074267788
(Vbootloader_init
p2209
(lp2210
(L2778985116L
L362179215L
(lp2211
(lp2212
Vbootloader_init_mem
p2213
atp2214
a(L2588916198L
L2195759072L
(lp2215
(lp2216
tp2217
a(L2569579240L
L242900614L
(lp2218
(lp2219
V__assert_func
p2220
atp2221
a(L2041988382L
L2534110409L
(lp2222
(lp2223
tp2224
a(L2946990947L
L2195759072L
(lp2225
(lp2226
tp2227
a(L3813782018L
L0L
(lp2228
(lp2229
tp2230
a(L2946991009L
L2195759072L
(lp2231
(lp2232
tp2233
a(L3027019L
L0L
(lp2234
(lp2235
tp2236
a(L2946991040L
L2195759072L
(lp2237
(lp2238
tp2239
a(L231109807L
L1832448559L
(lp2240
(lp2241
Vbootloader_clear_bss_section
p2242
aVbootloader_common_vddsdio_configure
p2243
aVbootloader_clock_get_rated_freq_mhz
p2244
atp2245
a(L704471746L
L3801032783L
(lp2246
(lp2247
Vbootloader_clock_configure
p2248
aVbootloader_console_init
p2249
aVbootloader_print_banner
p2250
aVbootloader_flash_update_id
p2251
aVbootloader_flash_xmc_startup
p2252
atp2253
a(L3014296803L
L3187408090L
(lp2254
(lp2255
Vesp_log_early_timestamp
p2256
atp2257
a(L4245842452L
L3187408090L
(lp2258
(lp2259
Vesp_log_early_timestamp
p2260
atp2261
a(L3360570486L
L0L
(lp2262
(lp2263
tp2264
a(L2444883382L
L3785322319L
(lp2265
(lp2266
Vbootloader_read_bootloader_header
p2267
atp2268
a(L2444883382L
L3785322319L
(lp2269
(lp2270
Vbootloader_check_bootloader_validity
p2271
atp2272
a(L2444883382L
L3785322319L
(lp2273
(lp2274
Vbootloader_init_spi_flash
p2275
atp2276
a(L1231697567L
L2195759072L
(lp2277
(lp2278
tp2279
a(L3289072036L
L0L
(lp2280
(lp2281
tp2282
a(L3016266L
L0L
(lp2283
(lp2284
tp2285
a(L106L
L0L
(lp2286
(lp2287
tp2288
a(L3027019L
L0L
(lp2289
(lp2290
tp2291
a(L106L
L0L
(lp2292
(lp2293
tp2294
a(L1460895057L
L2218577417L
(lp2295
(lp2296
Vbootloader_config_wdt
p2297
aVbootloader_enable_random
p2298
atp2299
a(L1895147938L
L0L
(lp2300
(lp2301
tp2302
a(L2303211161L
L0L
(lp2303
(lp2304
tp2305
a(L106L
L0L
(lp2306
(lp2307
tp2308
a(L3027019L
L0L
(lp2309
(lp2310
tp2311
a(L97315L
L0L
(lp2312
(lp2313
tp2314
a(L106L
L0L
(lp2315
(lp2316
tp2317
a(L2993276994L
L3187408090L
(lp2318
(lp2319
Vesp_log_early_timestamp
p2320
atp2321
a(L106L
L0L
(lp2322
(lp2323
tp2324
a(L130705695L
L0L
(lp2325
(lp2326
tp2327
a(L362903958L
L0L
(lp2328
(lp2329
tp2330
a(L434980089L
L3695866153L
(lp2331
(lp2332
tp2333
a(L362391907L
L0L
(lp2334
(lp2335
tp2336
a(L3342615532L
L3187408090L
(lp2337
(lp2338
Vesp_log_early_timestamp
p2339
atp2340
a(L1596194698L
L1443213481L
(lp2341
(lp2342
tp2343
a(L362903958L
L0L
(lp2344
(lp2345
tp2346
a(L106L
L0L
(lp2347
(lp2348
tp2349
a(L3014296803L
L3187408090L
(lp2350
(lp2351
Vesp_log_early_timestamp
p2352
atp2353
a(L541866494L
L3187408090L
(lp2354
(lp2355
Vesp_log_early_timestamp
p2356
atp2357
atp2358
sI1074245248
(Vrtc_clk_8md256_enabled
p2359
(lp2360
(L4014027530L
L1443213481L
(lp2361
(lp2362
tp2363
atp2364
sI1074248064
(Vesp_rom_spiflash_write_encrypted
p2365
(lp2366
(L1944247967L
L0L
(lp2367
(lp2368
tp2369
a(L3825342292L
L1443213481L
(lp2370
(lp2371
tp2372
a(L97689L
L0L
(lp2373
(lp2374
tp2375
a(L3061232074L
L0L
(lp2376
(lp2377
tp2378
a(L1562911102L
L1443213481L
(lp2379
(lp2380
tp2381
a(L1309309703L
L3785322319L
(lp2382
(lp2383
Vesp_rom_spiflash_write
p2384
atp2385
a(L2269233063L
L1443213481L
(lp2386
(lp2387
tp2388
a(L735741265L
L0L
(lp2389
(lp2390
tp2391
atp2392
sI1074269848
(Vesp_cpu_configure_region_protection
p2393
(lp2394
(L3233924472L
L581251951L
(lp2395
(lp2396
Vmemcpy
p2397
atp2398
a(L180431425L
L3785322319L
(lp2399
(lp2400
Vmpu_hal_set_region_access
p2401
atp2402
a(L2537388152L
L3785322319L
(lp2403
(lp2404
Vmpu_hal_set_region_access
p2405
atp2406
atp2407
sI1074237332
(Vbootloader_common_ota_select_invalid
p2408
(lp2409
(L4027567199L
L0L
(lp2410
(lp2411
tp2412
a(L3397985842L
L0L
(lp2413
(lp2414
tp2415
a(L2258867228L
L0L
(lp2416
(lp2417
tp2418
a(L3785235668L
L0L
(lp2419
(lp2420
tp2421
atp2422
sI1074243220
(Vesp_partition_table_verify
p2423
(lp2424
(L44179228L
L1443213481L
(lp2425
(lp2426
tp2427
a(L3031150553L
L1443213481L
(lp2428
(lp2429
tp2430
a(L1184829782L
L0L
(lp2431
(lp2432
tp2433
a(L3020204L
L0L
(lp2434
(lp2435
tp2436
a(L26389654L
L3187408090L
(lp2437
(lp2438
Vesp_log_early_timestamp
p2439
atp2440
a(L1235012963L
L0L
(lp2441
(lp2442
tp2443
a(L3190337587L
L0L
(lp2444
(lp2445
tp2446
a(L2069928857L
L0L
(lp2447
(lp2448
tp2449
a(L2902417580L
L0L
(lp2450
(lp2451
tp2452
a(L2543114737L
L2147981551L
(lp2453
(lp2454
Vesp_log_early_timestamp
p2455
atp2456
a(L1715222413L
L1443213481L
(lp2457
(lp2458
tp2459
a(L3020204L
L0L
(lp2460
(lp2461
tp2462
a(L3020204L
L0L
(lp2463
(lp2464
tp2465
a(L1328961945L
L2147981551L
(lp2466
(lp2467
Vesp_log_early_timestamp
p2468
atp2469
a(L4207910112L
L1443213481L
(lp2470
(lp2471
tp2472
a(L1235012932L
L0L
(lp2473
(lp2474
tp2475
a(L458256366L
L4021370767L
(lp2476
(lp2477
Vmemcmp
p2478
atp2479
a(L3020204L
L0L
(lp2480
(lp2481
tp2482
a(L2543114737L
L2147981551L
(lp2483
(lp2484
Vesp_log_early_timestamp
p2485
atp2486
a(L1305407469L
L0L
(lp2487
(lp2488
tp2489
a(L1167861556L
L0L
(lp2490
(lp2491
tp2492
a(L818997085L
L0L
(lp2493
(lp2494
tp2495
a(L3360570486L
L0L
(lp2496
(lp2497
tp2498
a(L3020204L
L0L
(lp2499
(lp2500
tp2501
a(L3999534504L
L3187408090L
(lp2502
(lp2503
Vesp_log_early_timestamp
p2504
atp2505
atp2506
sI1074245524
(Vrtc_clk_xtal_freq_get
p2507
(lp2508
(L3313072792L
L1443213481L
(lp2509
(lp2510
tp2511
a(L2847936993L
L0L
(lp2512
(lp2513
tp2514
a(L2252934062L
L1443213481L
(lp2515
(lp2516
tp2517
a(L3360570486L
L0L
(lp2518
(lp2519
tp2520
atp2521
sI1074247572
(Vesp_rom_spiflash_program_page_internal
p2522
(lp2523
(L2569069283L
L0L
(lp2524
(lp2525
tp2526
a(L2258688483L
L0L
(lp2527
(lp2528
tp2529
a(L3360570486L
L0L
(lp2530
(lp2531
tp2532
a(L2295540031L
L1443213481L
(lp2533
(lp2534
tp2535
a(L4235661475L
L3785322319L
(lp2536
(lp2537
Vesp_rom_spiflash_wait_idle
p2538
atp2539
a(L1299866312L
L0L
(lp2540
(lp2541
tp2542
a(L3212356251L
L3785322319L
(lp2543
(lp2544
Vesp_rom_spiflash_enable_write
p2545
atp2546
a(L1834262847L
L2195759072L
(lp2547
(lp2548
tp2549
a(L633937013L
L1443213481L
(lp2550
(lp2551
tp2552
a(L2953702749L
L0L
(lp2553
(lp2554
tp2555
a(L2989032L
L0L
(lp2556
(lp2557
tp2558
a(L1965622133L
L0L
(lp2559
(lp2560
tp2561
a(L809386272L
L2195759072L
(lp2562
(lp2563
tp2564
a(L1958113242L
L0L
(lp2565
(lp2566
tp2567
a(L106L
L0L
(lp2568
(lp2569
tp2570
a(L3112950080L
L0L
(lp2571
(lp2572
tp2573
a(L1868606439L
L0L
(lp2574
(lp2575
tp2576
a(L147213506L
L1443213481L
(lp2577
(lp2578
tp2579
a(L1933954923L
L0L
(lp2580
(lp2581
tp2582
a(L1147866918L
L0L
(lp2583
(lp2584
tp2585
a(L3871602522L
L0L
(lp2586
(lp2587
tp2588
atp2589
sI1074236560
(Vesp_rom_uart_tx_wait_idle
p2590
(lp2591
(L3110839460L
L2534110409L
(lp2592
(lp2593
tp2594
a(L1301079727L
L0L
(lp2595
(lp2596
tp2597
a(L597952197L
L0L
(lp2598
(lp2599
tp2600
a(L1971823332L
L0L
(lp2601
(lp2602
tp2603
a(L3055926844L
L0L
(lp2604
(lp2605
tp2606
a(L3360570486L
L0L
(lp2607
(lp2608
tp2609
a(L3694491048L
L0L
(lp2610
(lp2611
tp2612
a(L106L
L0L
(lp2613
(lp2614
tp2615
atp2616
sI1074269588
(Vbootloader_config_wdt
p2617
(lp2618
(L3447475412L
L603716358L
(lp2619
(lp2620
Vwdt_hal_write_protect_disable
p2621
aVwdt_hal_set_flashboot_en
p2622
aVwdt_hal_write_protect_enable
p2623
aVwdt_hal_init
p2624
aVrtc_clk_slow_freq_get_hz
p2625
aVwdt_hal_write_protect_disable
p2626
aV__udivdi3
p2627
aVwdt_hal_config_stage
p2628
aVwdt_hal_enable
p2629
aVwdt_hal_write_protect_enable
p2630
aVwdt_hal_write_protect_disable
p2631
aVwdt_hal_set_flashboot_en
p2632
aVwdt_hal_write_protect_enable
p2633
atp2634
atp2635
sI1074245272
(Vrtc_clk_slow_src_set
p2636
(lp2637
(L585347011L
L2195759072L
(lp2638
(lp2639
tp2640
a(L3020187L
L0L
(lp2641
(lp2642
tp2643
a(L3028481L
L0L
(lp2644
(lp2645
tp2646
a(L487821223L
L0L
(lp2647
(lp2648
tp2649
a(L4271877108L
L1443213481L
(lp2650
(lp2651
tp2652
a(L1851908495L
L0L
(lp2653
(lp2654
tp2655
a(L1099319264L
L1443213481L
(lp2656
(lp2657
tp2658
a(L3138544334L
L0L
(lp2659
(lp2660
tp2661
a(L94425498L
L3785322319L
(lp2662
(lp2663
Vabort
p2664
atp2665
atp2666
sI1074238616
(Vbootloader_clock_get_rated_freq_mhz
p2667
(lp2668
(L376617603L
L3785322319L
(lp2669
(lp2670
Vefuse_hal_get_rated_freq_mhz
p2671
atp2672
atp2673
sI1074244516
(Vwdt_hal_write_protect_enable
p2674
(lp2675
(L387778158L
L0L
(lp2676
(lp2677
tp2678
a(L4195472003L
L0L
(lp2679
(lp2680
tp2681
a(L3360570486L
L0L
(lp2682
(lp2683
tp2684
a(L802523425L
L0L
(lp2685
(lp2686
tp2687
atp2688
sI1074242724
(Vimage_load
p2689
(lp2690
(L3048705773L
L0L
(lp2691
(lp2692
tp2693
a(L3463713141L
L0L
(lp2694
(lp2695
tp2696
a(L3309803581L
L0L
(lp2697
(lp2698
tp2699
a(L256049682L
L0L
(lp2700
(lp2701
tp2702
a(L1935188817L
L0L
(lp2703
(lp2704
tp2705
a(L3028481L
L0L
(lp2706
(lp2707
tp2708
a(L3021749L
L0L
(lp2709
(lp2710
tp2711
a(L106L
L0L
(lp2712
(lp2713
tp2714
a(L585264737L
L0L
(lp2715
(lp2716
tp2717
a(L1145291904L
L3785322319L
(lp2718
(lp2719
Vprocess_image_header
p2720
atp2721
a(L823859500L
L0L
(lp2722
(lp2723
tp2724
a(L3061291474L
L0L
(lp2725
(lp2726
tp2727
a(L4106474008L
L3785322319L
(lp2728
(lp2729
Vprocess_segments
p2730
atp2731
a(L3868840998L
L0L
(lp2732
(lp2733
tp2734
a(L2962085561L
L1443213481L
(lp2735
(lp2736
tp2737
a(L1827898452L
L3785322319L
(lp2738
(lp2739
Vprocess_checksum
p2740
atp2741
a(L2214715179L
L3785322319L
(lp2742
(lp2743
Vprocess_appended_hash_and_sig
p2744
atp2745
a(L3028481L
L0L
(lp2746
(lp2747
tp2748
a(L2902417580L
L0L
(lp2749
(lp2750
tp2751
a(L3285560995L
L3785322319L
(lp2752
(lp2753
Vbootloader_sha256_finish
p2754
atp2755
a(L3946560000L
L0L
(lp2756
(lp2757
tp2758
a(L93674324L
L0L
(lp2759
(lp2760
tp2761
a(L2674734805L
L2195759072L
(lp2762
(lp2763
tp2764
a(L1168805591L
L1443213481L
(lp2765
(lp2766
tp2767
a(L1179424413L
L0L
(lp2768
(lp2769
tp2770
a(L3928150917L
L0L
(lp2771
(lp2772
tp2773
a(L106L
L0L
(lp2774
(lp2775
tp2776
a(L3871473710L
L0L
(lp2777
(lp2778
tp2779
a(L3884726427L
L0L
(lp2780
(lp2781
tp2782
a(L106L
L0L
(lp2783
(lp2784
tp2785
a(L3020187L
L0L
(lp2786
(lp2787
tp2788
a(L1337906930L
L3187408090L
(lp2789
(lp2790
Vesp_log_early_timestamp
p2791
atp2792
a(L2868044067L
L0L
(lp2793
(lp2794
tp2795
a(L1179764900L
L0L
(lp2796
(lp2797
tp2798
a(L2332746046L
L3785322319L
(lp2799
(lp2800
Vbootloader_sha256_finish
p2801
atp2802
a(L3721568057L
L242900614L
(lp2803
(lp2804
Vmemset
p2805
atp2806
a(L3020204L
L0L
(lp2807
(lp2808
tp2809
a(L3039742375L
L1443213481L
(lp2810
(lp2811
tp2812
a(L106L
L0L
(lp2813
(lp2814
tp2815
a(L3307179591L
L2839326997L
(lp2816
(lp2817
Vmemset
p2818
aVbootloader_sha256_finish
p2819
aVbootloader_debug_buffer
p2820
aVmemcmp
p2821
atp2822
a(L3433271982L
L2266857161L
(lp2823
(lp2824
Vesp_log_early_timestamp
p2825
aVbootloader_debug_buffer
p2826
atp2827
a(L3741653406L
L3785322319L
(lp2828
(lp2829
Vshould_load
p2830
atp2831
a(L2764257181L
L0L
(lp2832
(lp2833
tp2834
a(L3338774213L
L0L
(lp2835
(lp2836
tp2837
a(L193456747L
L1443213481L
(lp2838
(lp2839
tp2840
a(L3349572949L
L0L
(lp2841
(lp2842
tp2843
a(L2192292519L
L0L
(lp2844
(lp2845
tp2846
a(L106L
L0L
(lp2847
(lp2848
tp2849
a(L1702191967L
L1443213481L
(lp2850
(lp2851
tp2852
a(L1299866312L
L0L
(lp2853
(lp2854
tp2855
a(L3010020263L
L0L
(lp2856
(lp2857
tp2858
atp2859
sI1074238628
(Vlog_invalid_app_partition
p2860
(lp2861
(L2157385331L
L2195759072L
(lp2862
(lp2863
tp2864
a(L3028464L
L0L
(lp2865
(lp2866
tp2867
a(L1760520779L
L3833084538L
(lp2868
(lp2869
Vesp_log_early_timestamp
p2870
atp2871
a(L4207910112L
L1443213481L
(lp2872
(lp2873
tp2874
a(L3360570486L
L0L
(lp2875
(lp2876
tp2877
a(L3212513603L
L3833084538L
(lp2878
(lp2879
Vesp_log_early_timestamp
p2880
atp2881
a(L431938678L
L2147981551L
(lp2882
(lp2883
Vesp_log_early_timestamp
p2884
atp2885
atp2886
sI1074245796
(Vrtc_clk_xtal_freq_update
p2887
(lp2888
(L3023525581L
L2195759072L
(lp2889
(lp2890
tp2891
a(L3509357017L
L0L
(lp2892
(lp2893
tp2894
a(L2266180931L
L0L
(lp2895
(lp2896
tp2897
atp2898
sI1074240416
(Vbootloader_debug_buffer
p2899
(lp2900
(L2100504542L
L0L
(lp2901
(lp2902
tp2903
atp2904
sI1074243488
(Vwdt_hal_init
p2905
(lp2906
(L1845705415L
L242900614L
(lp2907
(lp2908
Vmemset
p2909
atp2910
a(L106L
L0L
(lp2911
(lp2912
tp2913
a(L147213506L
L1443213481L
(lp2914
(lp2915
tp2916
a(L3076988543L
L0L
(lp2917
(lp2918
tp2919
a(L746843176L
L3294285696L
(lp2920
(lp2921
tp2922
a(L3028464L
L0L
(lp2923
(lp2924
tp2925
a(L268651496L
L1443213481L
(lp2926
(lp2927
tp2928
a(L213928354L
L1443213481L
(lp2929
(lp2930
tp2931
a(L1646580088L
L3294285696L
(lp2932
(lp2933
tp2934
a(L3360570486L
L0L
(lp2935
(lp2936
tp2937
atp2938
sI1074235820
(Vbootloader_flash_cs_timing_config
p2939
(lp2940
(L1222249594L
L1690040256L
(lp2941
(lp2942
tp2943
atp2944
sI1074245036
(Vrtc_clk_32k_enable
p2945
(lp2946
(L753387299L
L0L
(lp2947
(lp2948
tp2949
a(L3776007933L
L3785322319L
(lp2950
(lp2951
Vrtc_clk_32k_enable_common
p2952
atp2953
a(L3496950L
L0L
(lp2954
(lp2955
tp2956
a(L707626330L
L2534110409L
(lp2957
(lp2958
tp2959
atp2960
sI1074240424
(Vbootloader_sha256_start
p2961
(lp2962
(L1737386262L
L2534110409L
(lp2963
(lp2964
tp2965
atp2966
sI1074239412
(Vbootloader_utility_load_partition_table
p2967
(lp2968
(L3401680957L
L3833084538L
(lp2969
(lp2970
Vbootloader_mmap
p2971
atp2972
a(L3861134865L
L2147981551L
(lp2973
(lp2974
Vesp_log_early_timestamp
p2975
atp2976
a(L2258688482L
L0L
(lp2977
(lp2978
tp2979
a(L3360570486L
L0L
(lp2980
(lp2981
tp2982
a(L2379286607L
L3785322319L
(lp2983
(lp2984
Vesp_partition_table_verify
p2985
atp2986
a(L2695471221L
L2147981551L
(lp2987
(lp2988
Vesp_log_early_timestamp
p2989
atp2990
a(L186702866L
L403192672L
(lp2991
(lp2992
Vesp_log_early_timestamp
p2993
aVesp_log_early_timestamp
p2994
atp2995
a(L650140130L
L0L
(lp2996
(lp2997
tp2998
a(L2163909172L
L2801279232L
(lp2999
(lp3000
Vbootloader_munmap
p3001
aVesp_log_early_timestamp
p3002
atp3003
a(L521126897L
L0L
(lp3004
(lp3005
tp3006
a(L3028464L
L0L
(lp3007
(lp3008
tp3009
a(L106L
L0L
(lp3010
(lp3011
tp3012
a(L147213506L
L1443213481L
(lp3013
(lp3014
tp3015
a(L2919580219L
L2147981551L
(lp3016
(lp3017
Vesp_log_early_timestamp
p3018
atp3019
a(L3990577774L
L0L
(lp3020
(lp3021
tp3022
a(L3020187L
L0L
(lp3023
(lp3024
tp3025
a(L3201555411L
L1443213481L
(lp3026
(lp3027
tp3028
a(L1843602828L
L1443213481L
(lp3029
(lp3030
tp3031
a(L326114897L
L1443213481L
(lp3032
(lp3033
tp3034
a(L2487812812L
L1443213481L
(lp3035
(lp3036
tp3037
a(L3478727216L
L1443213481L
(lp3038
(lp3039
tp3040
a(L106L
L0L
(lp3041
(lp3042
tp3043
a(L93674324L
L0L
(lp3044
(lp3045
tp3046
a(L1872515523L
L1443213481L
(lp3047
(lp3048
tp3049
a(L1215408024L
L1443213481L
(lp3050
(lp3051
tp3052
a(L1872515506L
L1443213481L
(lp3053
(lp3054
tp3055
a(L106L
L0L
(lp3056
(lp3057
tp3058
a(L1872515506L
L1443213481L
(lp3059
(lp3060
tp3061
a(L106L
L0L
(lp3062
(lp3063
tp3064
a(L268651496L
L1443213481L
(lp3065
(lp3066
tp3067
atp3068
sI1074235568
(Vbootloader_flash_read_sfdp
p3069
(lp3070
(L711701400L
L0L
(lp3071
(lp3072
tp3073
a(L17919673L
L4032149094L
(lp3074
(lp3075
V__assert_func
p3076
atp3077
a(L3704332455L
L3785322319L
(lp3078
(lp3079
Vbootloader_flash_execute_command_common
p3080
atp3081
atp3082
sI1074237360
(Vbootloader_common_select_otadata
p3083
(lp3084
(L4071767857L
L0L
(lp3085
(lp3086
tp3087
a(L1999329187L
L0L
(lp3088
(lp3089
tp3090
a(L3846398843L
L0L
(lp3091
(lp3092
tp3093
a(L2501968171L
L0L
(lp3094
(lp3095
tp3096
a(L3360570486L
L0L
(lp3097
(lp3098
tp3099
a(L2045232488L
L0L
(lp3100
(lp3101
tp3102
a(L1243525916L
L0L
(lp3103
(lp3104
tp3105
a(L3094144427L
L0L
(lp3106
(lp3107
tp3108
a(L2399509845L
L0L
(lp3109
(lp3110
tp3111
a(L1641201884L
L0L
(lp3112
(lp3113
tp3114
atp3115
sI1074240444
(Vbootloader_sha256_data
p3116
(lp3117
(L4066096136L
L0L
(lp3118
(lp3119
tp3120
a(L1697654611L
L2195759072L
(lp3121
(lp3122
tp3123
a(L2213948952L
L242900614L
(lp3124
(lp3125
V__assert_func
p3126
atp3127
a(L498498478L
L0L
(lp3128
(lp3129
tp3130
a(L3590389832L
L1443213481L
(lp3131
(lp3132
tp3133
a(L2910371777L
L0L
(lp3134
(lp3135
tp3136
a(L3360570486L
L0L
(lp3137
(lp3138
tp3139
a(L1087685526L
L2195759072L
(lp3140
(lp3141
tp3142
a(L426633611L
L1443213481L
(lp3143
(lp3144
tp3145
a(L2584057186L
L1443213481L
(lp3146
(lp3147
tp3148
a(L3342433287L
L1443213481L
(lp3149
(lp3150
tp3151
a(L2526675390L
L242900614L
(lp3152
(lp3153
V__bswapsi2
p3154
atp3155
a(L942815853L
L2195759072L
(lp3156
(lp3157
tp3158
a(L1872507229L
L1443213481L
(lp3159
(lp3160
tp3161
a(L147213506L
L1443213481L
(lp3162
(lp3163
tp3164
a(L3745004802L
L0L
(lp3165
(lp3166
tp3167
atp3168
sI1074245564
(Vrtc_clk_cpu_freq_mhz_to_config
p3169
(lp3170
(L908718885L
L3785322319L
(lp3171
(lp3172
Vrtc_clk_xtal_freq_get
p3173
atp3174
a(L60460069L
L0L
(lp3175
(lp3176
tp3177
a(L3802072124L
L0L
(lp3178
(lp3179
tp3180
a(L3159006042L
L0L
(lp3181
(lp3182
tp3183
a(L3360570486L
L0L
(lp3184
(lp3185
tp3186
a(L895147205L
L0L
(lp3187
(lp3188
tp3189
a(L3970036657L
L0L
(lp3190
(lp3191
tp3192
a(L2731353429L
L0L
(lp3193
(lp3194
tp3195
a(L1555485793L
L0L
(lp3196
(lp3197
tp3198
a(L2258897023L
L0L
(lp3199
(lp3200
tp3201
a(L1947499251L
L0L
(lp3202
(lp3203
tp3204
a(L1306331021L
L0L
(lp3205
(lp3206
tp3207
atp3208
sI1074236856
(Vefuse_hal_get_minor_chip_version
p3209
(lp3210
(L2292056065L
L1443213481L
(lp3211
(lp3212
tp3213
atp3214
sI1074269896
(Vrtc_clk_xtal_freq_estimate
p3215
(lp3216
(L1823831978L
L1880226080L
(lp3217
(lp3218
Vrtc_clk_8m_enabled
p3219
aVrtc_clk_8md256_enabled
p3220
atp3221
a(L2449794434L
L3785322319L
(lp3222
(lp3223
Vrtc_clk_8m_enable
p3224
atp3225
a(L3726876033L
L2704288053L
(lp3226
(lp3227
Vrtc_clk_cal_ratio
p3228
aV__udivdi3
p3229
atp3230
a(L3934977694L
L0L
(lp3231
(lp3232
tp3233
a(L3955289886L
L0L
(lp3234
(lp3235
tp3236
a(L2553207239L
L3187408090L
(lp3237
(lp3238
Vesp_log_early_timestamp
p3239
atp3240
a(L2307427870L
L0L
(lp3241
(lp3242
tp3243
a(L1281346514L
L3785322319L
(lp3244
(lp3245
Vrtc_clk_8m_enable
p3246
atp3247
a(L3909119106L
L0L
(lp3248
(lp3249
tp3250
a(L2298857999L
L3187408090L
(lp3251
(lp3252
Vesp_log_early_timestamp
p3253
atp3254
a(L3304487880L
L0L
(lp3255
(lp3256
tp3257
a(L1641150486L
L0L
(lp3258
(lp3259
tp3260
a(L2026357443L
L3187408090L
(lp3261
(lp3262
Vesp_log_early_timestamp
p3263
atp3264
atp3265
sI1074268364
(Vbootloader_common_vddsdio_configure
p3266
(lp3267
(L1829974089L
L3785322319L
(lp3268
(lp3269
Vrtc_vddsdio_get_config
p3270
atp3271
a(L351649043L
L3833084538L
(lp3272
(lp3273
Vrtc_vddsdio_set_config
p3274
atp3275
a(L3360570486L
L0L
(lp3276
(lp3277
tp3278
atp3279
sI1074270668
(Vrtc_vddsdio_set_config
p3280
(lp3281
(L3557742407L
L1443213481L
(lp3282
(lp3283
tp3284
atp3285
sI1074241984
(Vprocess_segments
p3286
(lp3287
(L1326203493L
L0L
(lp3288
(lp3289
tp3290
a(L1640778736L
L0L
(lp3291
(lp3292
tp3293
a(L3782401745L
L0L
(lp3294
(lp3295
tp3296
a(L106L
L0L
(lp3297
(lp3298
tp3299
a(L3028481L
L0L
(lp3300
(lp3301
tp3302
a(L3014296803L
L3187408090L
(lp3303
(lp3304
Vesp_log_early_timestamp
p3305
atp3306
a(L761135359L
L3785322319L
(lp3307
(lp3308
Vbootloader_flash_read
p3309
atp3310
a(L3856957476L
L3187408090L
(lp3311
(lp3312
Vesp_log_early_timestamp
p3313
atp3314
a(L3871473710L
L0L
(lp3315
(lp3316
tp3317
a(L219417435L
L0L
(lp3318
(lp3319
tp3320
a(L616767314L
L3785322319L
(lp3321
(lp3322
Vbootloader_sha256_data
p3323
atp3324
a(L1599301852L
L1443213481L
(lp3325
(lp3326
tp3327
a(L2258837437L
L0L
(lp3328
(lp3329
tp3330
a(L1764156528L
L0L
(lp3331
(lp3332
tp3333
a(L3028481L
L0L
(lp3334
(lp3335
tp3336
a(L2231662647L
L3187408090L
(lp3337
(lp3338
Vesp_log_early_timestamp
p3339
atp3340
a(L268651496L
L1443213481L
(lp3341
(lp3342
tp3343
a(L652851030L
L2195759072L
(lp3344
(lp3345
tp3346
a(L3802069243L
L0L
(lp3347
(lp3348
tp3349
a(L3696234693L
L1443213481L
(lp3350
(lp3351
tp3352
a(L2258867228L
L0L
(lp3353
(lp3354
tp3355
a(L2277415887L
L0L
(lp3356
(lp3357
tp3358
a(L3177376558L
L0L
(lp3359
(lp3360
tp3361
a(L3028481L
L0L
(lp3362
(lp3363
tp3364
a(L3861001733L
L3187408090L
(lp3365
(lp3366
Vesp_log_early_timestamp
p3367
atp3368
a(L2640606608L
L0L
(lp3369
(lp3370
tp3371
a(L3028481L
L0L
(lp3372
(lp3373
tp3374
a(L3892729576L
L3833084538L
(lp3375
(lp3376
Vesp_log_early_timestamp
p3377
atp3378
a(L4033680444L
L404278070L
(lp3379
(lp3380
tp3381
a(L2902417580L
L0L
(lp3382
(lp3383
tp3384
a(L2902417580L
L0L
(lp3385
(lp3386
tp3387
a(L1229952296L
L3785322319L
(lp3388
(lp3389
Vverify_load_addresses
p3390
atp3391
a(L3783935185L
L3785322319L
(lp3392
(lp3393
Vbootloader_mmap_get_free_pages
p3394
atp3395
a(L3028481L
L0L
(lp3396
(lp3397
tp3398
a(L224879076L
L0L
(lp3399
(lp3400
tp3401
a(L142590671L
L0L
(lp3402
(lp3403
tp3404
a(L3028481L
L0L
(lp3405
(lp3406
tp3407
a(L94425498L
L3785322319L
(lp3408
(lp3409
Vesp_log_early_timestamp
p3410
atp3411
a(L1961289970L
L1443213481L
(lp3412
(lp3413
tp3414
a(L4085121624L
L3785322319L
(lp3415
(lp3416
Vshould_load
p3417
atp3418
a(L3028481L
L0L
(lp3419
(lp3420
tp3421
a(L1038006420L
L3833084538L
(lp3422
(lp3423
Vesp_log_early_timestamp
p3424
atp3425
a(L106L
L0L
(lp3426
(lp3427
tp3428
a(L3815630522L
L0L
(lp3429
(lp3430
tp3431
a(L1646054028L
L3833084538L
(lp3432
(lp3433
Vesp_log_early_timestamp
p3434
atp3435
a(L2629678223L
L0L
(lp3436
(lp3437
tp3438
a(L2684012095L
L0L
(lp3439
(lp3440
tp3441
a(L3357777304L
L3785322319L
(lp3442
(lp3443
Vbootloader_mmap
p3444
atp3445
a(L3911420474L
L3187408090L
(lp3446
(lp3447
Vesp_log_early_timestamp
p3448
atp3449
a(L1698460186L
L0L
(lp3450
(lp3451
tp3452
a(L3264682310L
L1443213481L
(lp3453
(lp3454
tp3455
a(L4016429890L
L242900614L
(lp3456
(lp3457
Vmemcpy
p3458
atp3459
a(L1595421496L
L3785322319L
(lp3460
(lp3461
Vbootloader_munmap
p3462
atp3463
a(L2757579158L
L0L
(lp3464
(lp3465
tp3466
a(L605525844L
L242900614L
(lp3467
(lp3468
Vbootloader_fill_random
p3469
atp3470
a(L3616854679L
L1443213481L
(lp3471
(lp3472
tp3473
a(L3616854679L
L1443213481L
(lp3474
(lp3475
tp3476
a(L3450268858L
L0L
(lp3477
(lp3478
tp3479
a(L3021749L
L0L
(lp3480
(lp3481
tp3482
a(L322434465L
L0L
(lp3483
(lp3484
tp3485
a(L2494883302L
L0L
(lp3486
(lp3487
tp3488
a(L2902417580L
L0L
(lp3489
(lp3490
tp3491
a(L2213415704L
L1443213481L
(lp3492
(lp3493
tp3494
a(L193456747L
L1443213481L
(lp3495
(lp3496
tp3497
a(L1426980959L
L0L
(lp3498
(lp3499
tp3500
a(L1841482652L
L0L
(lp3501
(lp3502
tp3503
a(L653501462L
L0L
(lp3504
(lp3505
tp3506
a(L3310548426L
L3785322319L
(lp3507
(lp3508
Vbootloader_sha256_data
p3509
atp3510
a(L90548756L
L0L
(lp3511
(lp3512
tp3513
a(L1702191967L
L1443213481L
(lp3514
(lp3515
tp3516
a(L2364005371L
L0L
(lp3517
(lp3518
tp3519
atp3520
sI1074238144
(Vbootloader_enable_wp
p3521
(lp3522
(L1117825804L
L3785322319L
(lp3523
(lp3524
Vbootloader_execute_flash_command
p3525
atp3526
atp3527
sI1074244544
(Vwdt_hal_enable
p3528
(lp3529
(L2299130915L
L0L
(lp3530
(lp3531
tp3532
a(L165794138L
L0L
(lp3533
(lp3534
tp3535
a(L3360570486L
L0L
(lp3536
(lp3537
tp3538
a(L2847657174L
L0L
(lp3539
(lp3540
tp3541
atp3542
sI1074247372
(Vesp_rom_spiflash_read_status
p3543
(lp3544
(L3588638125L
L1443213481L
(lp3545
(lp3546
tp3547
a(L4250092034L
L2534110409L
(lp3548
(lp3549
tp3550
a(L4159619641L
L0L
(lp3551
(lp3552
tp3553
a(L2392720019L
L0L
(lp3554
(lp3555
tp3556
a(L2258688487L
L0L
(lp3557
(lp3558
tp3559
a(L4159619145L
L0L
(lp3560
(lp3561
tp3562
a(L3241763332L
L1443213481L
(lp3563
(lp3564
tp3565
a(L3117156279L
L0L
(lp3566
(lp3567
tp3568
a(L2123059967L
L0L
(lp3569
(lp3570
tp3571
a(L582177370L
L0L
(lp3572
(lp3573
tp3574
atp3575
sI1074236872
(Vesp_dport_access_reg_read
p3576
(lp3577
(L1099794772L
L0L
(lp3578
(lp3579
tp3580
atp3581
sI1074248904
(V_fini
p3582
(lp3583
(L3493042598L
L0L
(lp3584
(lp3585
tp3586
atp3587
sI1074236884
(Vis_xmc_chip_strict
p3588
(lp3589
(L1286841609L
L0L
(lp3590
(lp3591
tp3592
a(L2234016759L
L0L
(lp3593
(lp3594
tp3595
a(L1069027148L
L0L
(lp3596
(lp3597
tp3598
a(L3021749L
L0L
(lp3599
(lp3600
tp3601
a(L1900148749L
L0L
(lp3602
(lp3603
tp3604
a(L1936875721L
L0L
(lp3605
(lp3606
tp3607
a(L3356166509L
L0L
(lp3608
(lp3609
tp3610
a(L1937769451L
L0L
(lp3611
(lp3612
tp3613
a(L2137658907L
L0L
(lp3614
(lp3615
tp3616
a(L4265949734L
L0L
(lp3617
(lp3618
tp3619
a(L3360570486L
L0L
(lp3620
(lp3621
tp3622
atp3623
sI1074238164
(Vbootloader_flash_get_spi_mode
p3624
(lp3625
(L1418320346L
L1443213481L
(lp3626
(lp3627
tp3628
a(L2046153171L
L0L
(lp3629
(lp3630
tp3631
a(L893866618L
L0L
(lp3632
(lp3633
tp3634
a(L894790139L
L0L
(lp3635
(lp3636
tp3637
a(L822032846L
L0L
(lp3638
(lp3639
tp3640
a(L3360570486L
L0L
(lp3641
(lp3642
tp3643
atp3644
sI1074269148
(Vbootloader_flash_update_id
p3645
(lp3646
(L296988142L
L3833084538L
(lp3647
(lp3648
Vbootloader_read_flash_id
p3649
atp3650
atp3651
sI1074238928
(Vload_image
p3652
(lp3653
(L2489779285L
L473788538L
(lp3654
(lp3655
Vesp_log_early_timestamp
p3656
aVbootloader_random_disable
p3657
aVbootloader_ana_clock_glitch_reset_config
p3658
atp3659
a(L2118498116L
L0L
(lp3660
(lp3661
tp3662
a(L106L
L0L
(lp3663
(lp3664
tp3665
a(L3830318930L
L1630967381L
(lp3666
(lp3667
Vmmu_hal_unmap_all
p3668
aVcache_ll_l1_get_bus
p3669
aVcache_ll_l1_enable_bus
p3670
aVcache_ll_l1_get_bus
p3671
aVcache_ll_l1_enable_bus
p3672
aVbootloader_console_deinit
p3673
atp3674
a(L2843581588L
L1443213481L
(lp3675
(lp3676
tp3677
a(L2902417580L
L0L
(lp3678
(lp3679
tp3680
a(L3421811081L
L362179215L
(lp3681
(lp3682
Vesp_log_early_timestamp
p3683
atp3684
a(L2668023328L
L0L
(lp3685
(lp3686
tp3687
a(L670464924L
L2195759072L
(lp3688
(lp3689
tp3690
a(L3020204L
L0L
(lp3691
(lp3692
tp3693
a(L3421811081L
L362179215L
(lp3694
(lp3695
Vesp_log_early_timestamp
p3696
atp3697
a(L263320866L
L0L
(lp3698
(lp3699
tp3700
a(L3049851575L
L0L
(lp3701
(lp3702
tp3703
atp3704
sI1074244816
(Vrtc_clk_cpu_freq_to_pll_mhz
p3705
(lp3706
(L3231135830L
L0L
(lp3707
(lp3708
tp3709
a(L2102627717L
L2195759072L
(lp3710
(lp3711
tp3712
a(L2982280123L
L3380333161L
(lp3713
(lp3714
Vesp_rom_set_cpu_ticks_per_us
p3715
aVrtc_clk_wait_for_slow_cycle
p3716
atp3717
a(L708686908L
L1443213481L
(lp3718
(lp3719
tp3720
a(L3284807114L
L0L
(lp3721
(lp3722
tp3723
a(L94425498L
L3785322319L
(lp3724
(lp3725
Vabort
p3726
atp3727
a(L2258897019L
L0L
(lp3728
(lp3729
tp3730
a(L1113742378L
L0L
(lp3731
(lp3732
tp3733
a(L1306330990L
L0L
(lp3734
(lp3735
tp3736
atp3737
sI1074245840
(Vrtc_clk_apb_freq_update
p3738
(lp3739
(L3982322780L
L1443213481L
(lp3740
(lp3741
tp3742
atp3743
sI1074247900
(Vesp_rom_spiflash_write
p3744
(lp3745
(L924384987L
L1679261929L
(lp3746
(lp3747
tp3748
a(L2258688483L
L0L
(lp3749
(lp3750
tp3751
a(L3360570486L
L0L
(lp3752
(lp3753
tp3754
a(L3368132847L
L0L
(lp3755
(lp3756
tp3757
a(L3106685981L
L0L
(lp3758
(lp3759
tp3760
a(L3488660639L
L3785322319L
(lp3761
(lp3762
Vesp_rom_spiflash_program_page_internal
p3763
atp3764
a(L3543402353L
L3785322319L
(lp3765
(lp3766
Vesp_rom_spiflash_program_page_internal
p3767
atp3768
a(L4222526342L
L0L
(lp3769
(lp3770
tp3771
a(L2004208511L
L0L
(lp3772
(lp3773
tp3774
a(L564470656L
L0L
(lp3775
(lp3776
tp3777
a(L441922648L
L3785322319L
(lp3778
(lp3779
Vesp_rom_spiflash_program_page_internal
p3780
atp3781
a(L2302069176L
L0L
(lp3782
(lp3783
tp3784
atp3785
sI1074241240
(Vbootloader_util_regions_overlap
p3786
(lp3787
(L2762640130L
L0L
(lp3788
(lp3789
tp3790
a(L1697654632L
L2195759072L
(lp3791
(lp3792
tp3793
a(L2213948952L
L242900614L
(lp3794
(lp3795
V__assert_func
p3796
atp3797
a(L97642L
L0L
(lp3798
(lp3799
tp3800
a(L1087686177L
L2195759072L
(lp3801
(lp3802
tp3803
a(L366123053L
L0L
(lp3804
(lp3805
tp3806
a(L2258867228L
L0L
(lp3807
(lp3808
tp3809
a(L1253626734L
L0L
(lp3810
(lp3811
tp3812
a(L2258897019L
L0L
(lp3813
(lp3814
tp3815
a(L3109269495L
L0L
(lp3816
(lp3817
tp3818
atp3819
sI1074248152
(Vesp_rom_spiflash_read
p3820
(lp3821
(L1499485309L
L1690040256L
(lp3822
(lp3823
tp3824
a(L3114780042L
L1679261929L
(lp3825
(lp3826
tp3827
a(L2860271684L
L0L
(lp3828
(lp3829
tp3830
a(L1872504408L
L1443213481L
(lp3831
(lp3832
tp3833
a(L106L
L0L
(lp3834
(lp3835
tp3836
a(L633884026L
L0L
(lp3837
(lp3838
tp3839
a(L106L
L0L
(lp3840
(lp3841
tp3842
a(L1100272902L
L1443213481L
(lp3843
(lp3844
tp3845
a(L1372101025L
L1690040256L
(lp3846
(lp3847
tp3848
a(L974197278L
L2195759072L
(lp3849
(lp3850
tp3851
a(L336550648L
L0L
(lp3852
(lp3853
tp3854
a(L3167414617L
L1443213481L
(lp3855
(lp3856
tp3857
a(L106L
L0L
(lp3858
(lp3859
tp3860
a(L3138763340L
L362179215L
(lp3861
(lp3862
Vesp_rom_spiflash_wait_idle
p3863
atp3864
a(L3021737L
L0L
(lp3865
(lp3866
tp3867
a(L106L
L0L
(lp3868
(lp3869
tp3870
a(L1868280504L
L0L
(lp3871
(lp3872
tp3873
a(L106L
L0L
(lp3874
(lp3875
tp3876
a(L750281353L
L0L
(lp3877
(lp3878
tp3879
a(L3897437082L
L0L
(lp3880
(lp3881
tp3882
a(L4122060822L
L0L
(lp3883
(lp3884
tp3885
a(L483218220L
L1443213481L
(lp3886
(lp3887
tp3888
a(L2989032L
L0L
(lp3889
(lp3890
tp3891
a(L3819849625L
L0L
(lp3892
(lp3893
tp3894
a(L1082031446L
L2195759072L
(lp3895
(lp3896
tp3897
a(L1872504408L
L1443213481L
(lp3898
(lp3899
tp3900
a(L147213506L
L1443213481L
(lp3901
(lp3902
tp3903
a(L2062799182L
L2534110409L
(lp3904
(lp3905
tp3906
a(L2921907736L
L0L
(lp3907
(lp3908
tp3909
a(L3677617742L
L1443213481L
(lp3910
(lp3911
tp3912
a(L2483025066L
L1679261929L
(lp3913
(lp3914
tp3915
a(L2136664087L
L1443213481L
(lp3916
(lp3917
tp3918
a(L3000478599L
L2195759072L
(lp3919
(lp3920
tp3921
a(L3333707777L
L0L
(lp3922
(lp3923
tp3924
a(L3251955268L
L0L
(lp3925
(lp3926
tp3927
a(L3418540920L
L0L
(lp3928
(lp3929
tp3930
a(L4183823801L
L1443213481L
(lp3931
(lp3932
tp3933
a(L97689L
L0L
(lp3934
(lp3935
tp3936
a(L2258897019L
L0L
(lp3937
(lp3938
tp3939
a(L4014024819L
L0L
(lp3940
(lp3941
tp3942
a(L3621567083L
L0L
(lp3943
(lp3944
tp3945
atp3946
sI1074235620
(Vbootloader_read_flash_id
p3947
(lp3948
(L549578328L
L3785322319L
(lp3949
(lp3950
Vbootloader_execute_flash_command
p3951
atp3952
atp3953
sI1074236644
(Vesp_rom_uart_set_clock_baudrate
p3954
(lp3955
(L1471953879L
L1443213481L
(lp3956
(lp3957
tp3958
a(L1872515506L
L1443213481L
(lp3959
(lp3960
tp3961
a(L147213506L
L1443213481L
(lp3962
(lp3963
tp3964
a(L3104172142L
L1443213481L
(lp3965
(lp3966
tp3967
atp3968
sI1074268652
(Vbootloader_init_mem
p3969
(lp3970
(L1287383080L
L3785322319L
(lp3971
(lp3972
Vesp_cpu_configure_region_protection
p3973
atp3974
atp3975
sI1074269164
(Vbootloader_init_spi_flash
p3976
(lp3977
(L1876290435L
L1994585993L
(lp3978
(lp3979
Vbootloader_flash_gpio_config
p3980
aVbootloader_flash_dummy_config
p3981
aVbootloader_flash_cs_timing_config
p3982
aVbootloader_flash_unlock
p3983
atp3984
a(L499308289L
L1443213481L
(lp3985
(lp3986
tp3987
a(L1872507246L
L1443213481L
(lp3988
(lp3989
tp3990
a(L147213506L
L1443213481L
(lp3991
(lp3992
tp3993
a(L83726857L
L2426646996L
(lp3994
(lp3995
Vesp_log_early_timestamp
p3996
aVbootloader_flash_get_spi_mode
p3997
atp3998
a(L93674324L
L0L
(lp3999
(lp4000
tp4001
a(L4183135214L
L1443213481L
(lp4002
(lp4003
tp4004
a(L147213506L
L1443213481L
(lp4005
(lp4006
tp4007
a(L3875746660L
L362179215L
(lp4008
(lp4009
Vesp_log_early_timestamp
p4010
atp4011
a(L93674324L
L0L
(lp4012
(lp4013
tp4014
a(L4183135214L
L1443213481L
(lp4015
(lp4016
tp4017
a(L1872507229L
L1443213481L
(lp4018
(lp4019
tp4020
a(L268651496L
L1443213481L
(lp4021
(lp4022
tp4023
a(L1872507229L
L1443213481L
(lp4024
(lp4025
tp4026
a(L1872507229L
L1443213481L
(lp4027
(lp4028
tp4029
a(L268651496L
L1443213481L
(lp4030
(lp4031
tp4032
a(L1872515506L
L1443213481L
(lp4033
(lp4034
tp4035
a(L1005860105L
L3187408090L
(lp4036
(lp4037
Vesp_log_early_timestamp
p4038
atp4039
a(L93674324L
L0L
(lp4040
(lp4041
tp4042
a(L3422553167L
L0L
(lp4043
(lp4044
tp4045
a(L1707909459L
L0L
(lp4046
(lp4047
tp4048
a(L4101522284L
L0L
(lp4049
(lp4050
tp4051
a(L3944678822L
L2082837423L
(lp4052
(lp4053
Vbootloader_enable_wp
p4054
atp4055
a(L3907331784L
L0L
(lp4056
(lp4057
tp4058
atp4059
sI1074237676
(Vbootloader_munmap
p4060
(lp4061
(L4096859803L
L2195759072L
(lp4062
(lp4063
tp4064
a(L4150885370L
L2624587680L
(lp4065
(lp4066
tp4067
a(L3360570486L
L0L
(lp4068
(lp4069
tp4070
atp4071
sI1074245868
(Vrtc_clk_cpu_freq_to_xtal
p4072
(lp4073
(L767415990L
L3785322319L
(lp4074
(lp4075
Vesp_rom_set_cpu_ticks_per_us
p4076
atp4077
a(L94425498L
L3785322319L
(lp4078
(lp4079
Vabort
p4080
atp4081
a(L749912951L
L671729222L
(lp4082
(lp4083
Vrtc_clk_apb_freq_update
p4084
atp4085
a(L2258867230L
L0L
(lp4086
(lp4087
tp4088
a(L1803595874L
L2195759072L
(lp4089
(lp4090
tp4091
atp4092
sI1074245096
(Vrtc_clk_8m_enable
p4093
(lp4094
(L2359152383L
L2195759072L
(lp4095
(lp4096
tp4097
a(L2145669267L
L1443213481L
(lp4098
(lp4099
tp4100
a(L2151320156L
L0L
(lp4101
(lp4102
tp4103
a(L1262936142L
L1443213481L
(lp4104
(lp4105
tp4106
a(L3360570486L
L0L
(lp4107
(lp4108
tp4109
a(L1318267208L
L0L
(lp4110
(lp4111
tp4112
a(L1085208965L
L1443213481L
(lp4113
(lp4114
tp4115
atp4116
sI1074241768
(Vprocess_appended_hash_and_sig
p4117
(lp4118
(L1668084157L
L0L
(lp4119
(lp4120
tp4121
a(L2910371777L
L0L
(lp4122
(lp4123
tp4124
a(L4285188111L
L0L
(lp4125
(lp4126
tp4127
a(L1151175705L
L0L
(lp4128
(lp4129
tp4130
a(L97689L
L0L
(lp4131
(lp4132
tp4133
a(L2250231589L
L3187408090L
(lp4134
(lp4135
Vesp_log_early_timestamp
p4136
atp4137
a(L268651496L
L1443213481L
(lp4138
(lp4139
tp4140
a(L1464893571L
L3785322319L
(lp4141
(lp4142
Vbootloader_flash_read
p4143
atp4144
a(L735741265L
L0L
(lp4145
(lp4146
tp4147
atp4148
sI1074236400
(Vbootloader_flash_dummy_config
p4149
(lp4150
(L2633298977L
L1443213481L
(lp4151
(lp4152
tp4153
a(L2761717557L
L0L
(lp4154
(lp4155
tp4156
a(L1849044936L
L0L
(lp4157
(lp4158
tp4159
a(L2198646520L
L2195759072L
(lp4160
(lp4161
tp4162
a(L1857500547L
L1443213481L
(lp4163
(lp4164
tp4165
a(L3020204L
L0L
(lp4166
(lp4167
tp4168
a(L1610443405L
L0L
(lp4169
(lp4170
tp4171
a(L4032120524L
L0L
(lp4172
(lp4173
tp4174
a(L2336993863L
L0L
(lp4175
(lp4176
tp4177
a(L1298875775L
L0L
(lp4178
(lp4179
tp4180
a(L3880393601L
L0L
(lp4181
(lp4182
tp4183
a(L2272848587L
L1443213481L
(lp4184
(lp4185
tp4186
a(L1610443436L
L0L
(lp4187
(lp4188
tp4189
atp4190
sI1074237436
(Vspi_to_esp_err
p4191
(lp4192
(L2749733621L
L1443213481L
(lp4193
(lp4194
tp4195
a(L1872507229L
L1443213481L
(lp4196
(lp4197
tp4198
a(L3952441574L
L0L
(lp4199
(lp4200
tp4201
a(L3126521138L
L0L
(lp4202
(lp4203
tp4204
atp4205
sI1074268660
(Vbootloader_random_enable
p4206
(lp4207
(L2397175084L
L664430240L
(lp4208
(lp4209
tp4210
atp4211
sI1074238712
(Vtry_load_partition
p4212
(lp4213
(L1263750142L
L0L
(lp4214
(lp4215
tp4216
a(L2258688482L
L0L
(lp4217
(lp4218
tp4219
a(L3360570486L
L0L
(lp4220
(lp4221
tp4222
a(L530241438L
L3785322319L
(lp4223
(lp4224
Vbootloader_load_image
p4225
atp4226
a(L4168266278L
L3187408090L
(lp4227
(lp4228
Vesp_log_early_timestamp
p4229
atp4230
atp4231
ssS'functionsdups'
p4232
g11
((lp4233
tp4234
Rp4235
sS'immediatedups'
p4236
g11
((lp4237
tp4238
Rp4239
sS'functiondups'
p4240
g11
((lp4241
tp4242
Rp4243
sS'fuzzy'
p4244
(dp4245
L366261972L
I1074270072
sL2376760616L
I1074243220
sL3223682214L
I1074248064
sL2312909273L
I1074238928
sL4033782891L
I1074244448
sL1651792242L
I1074247516
sL800708016L
I1074239412
sL2092869556L
I1074247764
sL1772626723L
I1074235820
sL2539816556L
I1074236644
sL3032120501L
I1074245656
sL2471313117L
I1074240592
sL2641888616L
I1074246708
sL381028389L
I1074240804
sL3711025829L
I1074240112
sL3500016395L
I1074241984
sL1962232032L
I1074245524
sL797548049L
I1074240424
sL3374853808L
I1074269452
sL2859057779L
I1074269148
sL2835607711L
I1074269812
sL2095240828L
I1074234744
sL1348852091L
I1074248152
sL2182127758L
I1074269896
sL3221945515L
I1074245796
sL1485246373L
I1074240884
sL3525303483L
I1074245388
sL1247030641L
I1074268660
sL1729011238L
I1074241856
sL1959102959L
I1074237468
sL4242478965L
I1074238220
sL2216531249L
I1074245416
sL579471141L
I1074269716
sL1096063205L
I1074236788
sL2906154889L
I1074247468
sL1065525808L
I1074236884
sL1821770661L
I1074237676
sL332090111L
I1074236560
sL282843886L
I1074237728
sL3769292310L
I1074238812
sL3703425408L
I1074245096
sL2038713658L
I1074246664
sL2688270468L
I1074269520
sL2708185770L
I1074241240
sL3890904617L
I1074245868
sL3530961461L
I1074270516
sL1605229163L
I1074239780
sL1210592366L
I1074245272
sL1332800441L
I1074237292
sL209111356L
I1074245444
sL3183721996L
I1074235268
sL3558783183L
I1074238004
sL1377360842L
I1074244680
sL2726707668L
I1074268364
sL1161792488L
I1074241052
sL4091350277L
I1074247572
sL2766287930L
I1074267788
sL2871786995L
I1074269588
sL3578810761L
I1074235568
sL2018002450L
I1074235668
sL531949167L
I1074237052
sL1060788199L
I1074245564
sL1444874434L
I1074269744
sL994994961L
I1074238628
sL2663898648L
I1074269476
sL1155028103L
I1074269848
sL627477382L
I1074235932
sL814911857L
I1074240444
sL3280013925L
I1074238300
sL1862804207L
I1074244100
sL2806886186L
I1074268420
sL1815510750L
I1074244816
sL963803290L
I1074245980
sL3715950101L
I1074244416
sL3420458249L
I1074247372
sL3274368577L
I1074238712
sL3246158480L
I1074239292
sL1872673135L
I1074240088
sL1214705044L
I1074236400
sL4155364446L
I1074237016
sL755401973L
I1074267680
sL230862646L
I1074237436
sL2452281182L
I1074247204
sL1564551092L
I1074241768
sL2367595883L
I1074267672
sL1122585247L
I1074243488
sL3659714901L
I1074241296
sL3428612389L
I1074247172
sL1950296771L
I1074247900
sL1396037064L
I1074245036
sL1014311563L
I1074242724
sL1596982735L
I1074269164
ssb.