ccopy_reg
_reconstructor
p0
(crizzo
RizzoSignature
p1
c__builtin__
object
p2
Ntp3
Rp4
(dp5
S'formal'
p6
(dp7
L1353357995L
I1074240740
sL538301463L
I1074241704
sL2382735105L
I1074245284
sL2504164679L
I1074245664
sL1958505659L
I1074240504
sL66386684L
I1074269708
sL1741170115L
I1074237920
sL50067959L
I1074240012
sL3505757179L
I1074234700
sL1065111407L
I1074241160
sL1412552226L
I1074247016
sL475533132L
I1074238700
sL3325222694L
I1074268912
sL3657255400L
I1074245392
sL1127322148L
I1074269552
sL138009647L
I1074234740
sL4160769560L
I1074269416
sL4154259590L
I1074245104
sL4213015302L
I1074243052
sL1938580887L
I1074247048
sL1457770435L
I1074268616
sL3230852531L
I1074238188
sL2538469989L
I1074239668
sL3860623157L
I1074247344
sL1458472899L
I1074236624
sL2702580795L
I1074237284
sL847002958L
I1074244856
sL2896295319L
I1074236824
sL2285799430L
I1074244496
sL1716532329L
I1074244468
sL672637994L
I1074269484
sL1674148343L
I1074245432
sL255886463L
I1074241612
sL3697809751L
I1074241216
sL3919037653L
I1074247404
sL2485902447L
I1074236704
sL737793983L
I1074238824
sL1769470527L
I1074238600
sL3447792584L
I1074240348
sL1585823442L
I1074244368
sL1622896354L
I1074244396
sL3138286928L
I1074244536
sL426938157L
I1074235252
sL878917889L
I1074238108
sL4122732502L
I1074247984
sL560179469L
I1074243356
sL3906855341L
I1074244916
sL1527972706L
I1074270620
sL1568446217L
I1074236528
sL3545471526L
I1074246580
sL1586703846L
I1074269840
sL3476917835L
I1074236984
sL3321477504L
I1074238648
sL2656948774L
I1074245152
sL3739625373L
I1074245312
sL3309529149L
I1074270460
sL1056742531L
I1074236380
sL602601834L
I1074269680
sL1712221327L
I1074247896
sL426984944L
I1074236896
sL676927194L
I1074268904
sL2277098556L
I1074236796
sL2013050233L
I1074247296
sL3307282855L
I1074238080
sL2070883305L
I1074239304
sL867037988L
I1074239184
sL911764690L
I1074237616
sL2880449850L
I1074244700
sL1043339424L
I1074240252
sL2520359596L
I1074267139
sL1687894276L
I1074244268
sL4038945309L
I1074235596
sL696241373L
I1074237668
sL1436975365L
I1074269756
sL518463041L
I1074235800
sL2626436395L
I1074236928
sL3634983438L
I1074245736
sL2997001746L
I1074237216
sL2363736404L
I1074243068
sL3600274720L
I1074269400
sL811402724L
I1074270024
sL2819127986L
I1074236948
sL149978958L
I1074236560
sL3635595533L
I1074245852
sL1877634603L
I1074270692
sL1541017880L
I1074269440
sL3518743416L
I1074238516
sL3013768289L
I1074245524
sL3379108269L
I1074243952
sL3020283585L
I1074244564
sL3459889393L
I1074244300
sL1333097661L
I1074268672
sL790507223L
I1074236728
sL1612748271L
I1074242552
sL1168915326L
I1074235544
sL873382621L
I1074235912
sL404293581L
I1074237360
sL1177322488L
I1074267784
sL2263182908L
I1074238100
sL3344055947L
I1074247596
sL700866072L
I1074237940
sL3630163135L
I1074236812
sL2955219653L
I1074245128
sL69257664L
I1074269792
sL188664287L
I1074235220
sL2587289812L
I1074235644
sL2882203945L
I1074247208
sL3406554863L
I1074240968
sL1310161138L
I1074239980
sL692536993L
I1074237256
sL2983885629L
I1074241832
sL729611412L
I1074245708
sL3795520467L
I1074246536
sL437787634L
I1074244976
sL3004414718L
I1074240328
sL3855719998L
I1074245376
sL3149616203L
I1074240700
sL523032543L
I1074240796
sL2644930142L
I1074240716
sL3378550681L
I1074247732
sL3018942732L
I1074267676
sL906556151L
I1074237392
ssS'immediates'
p8
(dp9
sS'formaldups'
p10
c__builtin__
set
p11
((lp12
tp13
Rp14
sS'stringdups'
p15
g11
((lp16
tp17
Rp18
sS'fuzzydups'
p19
g11
((lp20
tp21
Rp22
sS'strings'
p23
(dp24
sS'functions'
p25
(dp26
I1074269708
(Vbootloader_print_banner
p27
(lp28
(L870272932L
L1880226080L
(lp29
(lp30
Vesp_log_early_timestamp
p31
aVesp_log_early_timestamp
p32
atp33
atp34
sI1074236928
(Vbootloader_common_ota_select_crc
p35
(lp36
(L3214440559L
L0L
(lp37
(lp38
tp39
atp40
sI1074245376
(Vrtc_clk_fast_src_get
p41
(lp42
(L3842566286L
L0L
(lp43
(lp44
tp45
atp46
sI1074267136
(V_init
p47
(lp48
(L3493042598L
L0L
(lp49
(lp50
tp51
atp52
sI1074268672
(Vbootloader_clock_configure
p53
(lp54
(L2559598596L
L1880226080L
(lp55
(lp56
Vesp_rom_uart_tx_wait_idle
p57
aVefuse_hal_chip_revision
p58
atp59
a(L2957267460L
L0L
(lp60
(lp61
tp62
a(L883406775L
L0L
(lp63
(lp64
tp65
a(L106L
L0L
(lp66
(lp67
tp68
a(L1418262256L
L1832448559L
(lp69
(lp70
Vrtc_clk_slow_src_get
p71
aVrtc_clk_fast_src_get
p72
aVrtc_clk_init
p73
atp74
a(L3184814094L
L0L
(lp75
(lp76
tp77
a(L1022947098L
L3785322319L
(lp78
(lp79
Vrtc_clk_apb_freq_get
p80
atp81
a(L106L
L0L
(lp82
(lp83
tp84
a(L106L
L0L
(lp85
(lp86
tp87
atp88
sI1074269440
(Vbootloader_read_bootloader_header
p89
(lp90
(L820832178L
L3785322319L
(lp91
(lp92
Vbootloader_flash_read
p93
atp94
a(L3109664945L
L3785322319L
(lp95
(lp96
Vesp_log_early_timestamp
p97
atp98
a(L735741265L
L0L
(lp99
(lp100
tp101
atp102
sI1074240012
(Vbootloader_utility_load_boot_image
p103
(lp104
(L3470766666L
L0L
(lp105
(lp106
tp107
a(L2177418995L
L3785322319L
(lp108
(lp109
Vtry_load_partition
p110
atp111
a(L1305243774L
L3785322319L
(lp112
(lp113
Vload_image
p114
atp115
a(L797802654L
L3785322319L
(lp116
(lp117
Vesp_log_early_timestamp
p118
atp119
a(L3827921190L
L3785322319L
(lp120
(lp121
Vbootloader_reset
p122
atp123
a(L1953693036L
L3785322319L
(lp124
(lp125
Vindex_to_partition
p126
atp127
a(L1204373741L
L3785322319L
(lp128
(lp129
Vtry_load_partition
p130
atp131
a(L1899865696L
L0L
(lp132
(lp133
tp134
a(L2695355117L
L3785322319L
(lp135
(lp136
Vset_actual_ota_seq
p137
atp138
a(L1868897605L
L3785322319L
(lp139
(lp140
Vlog_invalid_app_partition
p141
atp142
a(L831650730L
L0L
(lp143
(lp144
tp145
a(L3021737L
L0L
(lp146
(lp147
tp148
a(L695456438L
L0L
(lp149
(lp150
tp151
a(L1129532116L
L3785322319L
(lp152
(lp153
Vtry_load_partition
p154
atp155
a(L262273580L
L3785322319L
(lp156
(lp157
Vesp_log_early_timestamp
p158
atp159
a(L2347390157L
L3785322319L
(lp160
(lp161
Vindex_to_partition
p162
atp163
a(L1204373741L
L3785322319L
(lp164
(lp165
Vtry_load_partition
p166
atp167
a(L3061261803L
L0L
(lp168
(lp169
tp170
a(L3582858798L
L3785322319L
(lp171
(lp172
Vlog_invalid_app_partition
p173
atp174
a(L2297316652L
L3785322319L
(lp175
(lp176
Vesp_log_early_timestamp
p177
atp178
atp179
sI1074267139
(V_text_start
p180
(lp181
(L1817914933L
L0L
(lp182
(lp183
tp184
a(L1573981697L
L0L
(lp185
(lp186
tp187
atp188
sI1074245128
(Vrtc_clk_8md256_enabled
p189
(lp190
(L3269698613L
L0L
(lp191
(lp192
tp193
atp194
sI1074235912
(Vbootloader_flash_gpio_config
p195
(lp196
(L3448878117L
L3785322319L
(lp197
(lp198
Vbootloader_common_get_chip_ver_pkg
p199
atp200
a(L106L
L0L
(lp201
(lp202
tp203
a(L1998579353L
L0L
(lp204
(lp205
tp206
a(L106L
L0L
(lp207
(lp208
tp209
a(L1029428446L
L0L
(lp210
(lp211
tp212
a(L4242290324L
L0L
(lp213
(lp214
tp215
a(L106L
L0L
(lp216
(lp217
tp218
a(L4003626558L
L0L
(lp219
(lp220
tp221
a(L1553523094L
L0L
(lp222
(lp223
tp224
a(L3360570486L
L0L
(lp225
(lp226
tp227
atp228
sI1074240788
(Vbootloader_ana_clock_glitch_reset_config
p229
(lp230
(L2100504542L
L0L
(lp231
(lp232
tp233
atp234
sI1074236948
(Vbootloader_common_ota_select_valid
p235
(lp236
(L1563399710L
L3785322319L
(lp237
(lp238
Vbootloader_common_ota_select_invalid
p239
atp240
a(L3814720849L
L3785322319L
(lp241
(lp242
Vbootloader_common_ota_select_crc
p243
atp244
a(L3360570486L
L0L
(lp245
(lp246
tp247
atp248
sI1074267676
(Vcall_start_cpu0
p249
(lp250
(L1137852827L
L0L
(lp251
(lp252
tp253
a(L549459388L
L0L
(lp254
(lp255
tp256
a(L3212347974L
L3785322319L
(lp257
(lp258
Vbootloader_init
p259
atp260
a(L94425498L
L3785322319L
(lp261
(lp262
Vbootloader_reset
p263
atp264
a(L1122046408L
L0L
(lp265
(lp266
tp267
a(L4099474112L
L0L
(lp268
(lp269
tp270
a(L3015046664L
L3785322319L
(lp271
(lp272
Vbootloader_utility_load_partition_table
p273
atp274
a(L2761094216L
L3785322319L
(lp275
(lp276
Vesp_log_early_timestamp
p277
atp278
a(L405422123L
L3785322319L
(lp279
(lp280
Vbootloader_utility_get_selected_boot_partition
p281
atp282
a(L2055385849L
L3785322319L
(lp283
(lp284
Vbootloader_utility_load_boot_image
p285
atp286
atp287
sI1074244368
(Vwdt_hal_write_protect_enable
p288
(lp289
(L387778158L
L0L
(lp290
(lp291
tp292
a(L4195472003L
L0L
(lp293
(lp294
tp295
a(L3360570486L
L0L
(lp296
(lp297
tp298
a(L802523425L
L0L
(lp299
(lp300
tp301
atp302
sI1074245392
(Vrtc_clk_xtal_freq_get
p303
(lp304
(L1141112989L
L0L
(lp305
(lp306
tp307
a(L2847936993L
L0L
(lp308
(lp309
tp310
a(L210824888L
L0L
(lp311
(lp312
tp313
a(L3360570486L
L0L
(lp314
(lp315
tp316
atp317
sI1074240796
(Vprocess_checksum
p318
(lp319
(L1375822962L
L0L
(lp320
(lp321
tp322
a(L2910371777L
L0L
(lp323
(lp324
tp325
a(L186886970L
L0L
(lp326
(lp327
tp328
a(L2910371777L
L0L
(lp329
(lp330
tp331
a(L3020204L
L0L
(lp332
(lp333
tp334
a(L2480703612L
L3785322319L
(lp335
(lp336
Vbootloader_sha256_data
p337
atp338
a(L4179073442L
L0L
(lp339
(lp340
tp341
a(L1811888222L
L3785322319L
(lp342
(lp343
Vbootloader_flash_read
p344
atp345
a(L3126521138L
L0L
(lp346
(lp347
tp348
a(L4138627793L
L0L
(lp349
(lp350
tp351
a(L2773027492L
L3785322319L
(lp352
(lp353
Vesp_log_early_timestamp
p354
atp355
atp356
sI1074243356
(Vwdt_hal_init
p357
(lp358
(L3764531458L
L0L
(lp359
(lp360
tp361
a(L745008699L
L0L
(lp362
(lp363
tp364
a(L2805934244L
L0L
(lp365
(lp366
tp367
a(L3115097993L
L0L
(lp368
(lp369
tp370
a(L1129008730L
L0L
(lp371
(lp372
tp373
a(L3360570486L
L0L
(lp374
(lp375
tp376
a(L3022237171L
L0L
(lp377
(lp378
tp379
atp380
sI1074269484
(Vbootloader_check_bootloader_validity
p381
(lp382
(L2851797904L
L1832448559L
(lp383
(lp384
Vefuse_hal_chip_revision
p385
aVesp_log_early_timestamp
p386
aVbootloader_common_check_chip_validity
p387
atp388
atp389
sI1074237216
(Vbootloader_common_get_active_otadata
p390
(lp391
(L3317503532L
L0L
(lp392
(lp393
tp394
a(L2503049265L
L1832448559L
(lp395
(lp396
Vbootloader_common_ota_select_valid
p397
aVbootloader_common_ota_select_valid
p398
aVbootloader_common_select_otadata
p399
atp400
a(L735741265L
L0L
(lp401
(lp402
tp403
atp404
sI1074236704
(Vefuse_hal_chip_revision
p405
(lp406
(L2719302832L
L1880226080L
(lp407
(lp408
Vefuse_hal_get_major_chip_version
p409
aVefuse_hal_get_minor_chip_version
p410
atp411
atp412
sI1074245152
(Vrtc_clk_slow_src_set
p413
(lp414
(L3908197081L
L0L
(lp415
(lp416
tp417
a(L3020187L
L0L
(lp418
(lp419
tp420
a(L3028481L
L0L
(lp421
(lp422
tp423
a(L487821223L
L0L
(lp424
(lp425
tp426
a(L3646845957L
L0L
(lp427
(lp428
tp429
a(L1851908495L
L0L
(lp430
(lp431
tp432
a(L382170874L
L0L
(lp433
(lp434
tp435
a(L3138544334L
L0L
(lp436
(lp437
tp438
a(L94425498L
L3785322319L
(lp439
(lp440
Vabort
p441
atp442
atp443
sI1074245664
(Vrtc_clk_xtal_freq_update
p444
(lp445
(L1106391585L
L0L
(lp446
(lp447
tp448
a(L3509357017L
L0L
(lp449
(lp450
tp451
a(L2266180931L
L0L
(lp452
(lp453
tp454
atp455
sI1074248736
(V_fini
p456
(lp457
(L3493042598L
L0L
(lp458
(lp459
tp460
atp461
sI1074244396
(Vwdt_hal_enable
p462
(lp463
(L2299130915L
L0L
(lp464
(lp465
tp466
a(L165794138L
L0L
(lp467
(lp468
tp469
a(L3360570486L
L0L
(lp470
(lp471
tp472
a(L2847657174L
L0L
(lp473
(lp474
tp475
atp476
sI1074238504
(Vbootloader_clock_get_rated_freq_mhz
p477
(lp478
(L376617603L
L3785322319L
(lp479
(lp480
Vefuse_hal_get_rated_freq_mhz
p481
atp482
atp483
sI1074241832
(Vprocess_segments
p484
(lp485
(L1018786970L
L0L
(lp486
(lp487
tp488
a(L3285816417L
L0L
(lp489
(lp490
tp491
a(L3782401745L
L0L
(lp492
(lp493
tp494
a(L106L
L0L
(lp495
(lp496
tp497
a(L2411199274L
L0L
(lp498
(lp499
tp500
a(L4117665002L
L3785322319L
(lp501
(lp502
Vesp_log_early_timestamp
p503
atp504
a(L3085209925L
L3785322319L
(lp505
(lp506
Vbootloader_flash_read
p507
atp508
a(L1087579859L
L3785322319L
(lp509
(lp510
Vesp_log_early_timestamp
p511
atp512
a(L3871473710L
L0L
(lp513
(lp514
tp515
a(L234193771L
L0L
(lp516
(lp517
tp518
a(L1635713494L
L3785322319L
(lp519
(lp520
Vbootloader_sha256_data
p521
atp522
a(L165187679L
L0L
(lp523
(lp524
tp525
a(L334484485L
L0L
(lp526
(lp527
tp528
a(L82090599L
L0L
(lp529
(lp530
tp531
a(L3802067325L
L0L
(lp532
(lp533
tp534
a(L3592389343L
L0L
(lp535
(lp536
tp537
a(L2258867228L
L0L
(lp538
(lp539
tp540
a(L1255782415L
L0L
(lp541
(lp542
tp543
a(L1756760227L
L0L
(lp544
(lp545
tp546
a(L1849436849L
L0L
(lp547
(lp548
tp549
a(L826339533L
L3785322319L
(lp550
(lp551
Vesp_log_early_timestamp
p552
atp553
a(L3601900694L
L0L
(lp554
(lp555
tp556
a(L568254494L
L0L
(lp557
(lp558
tp559
a(L2335135265L
L3785322319L
(lp560
(lp561
Vesp_log_early_timestamp
p562
atp563
a(L1973629750L
L3785322319L
(lp564
(lp565
Vverify_load_addresses
p566
atp567
a(L106L
L0L
(lp568
(lp569
tp570
a(L914132342L
L0L
(lp571
(lp572
tp573
a(L291460350L
L0L
(lp574
(lp575
tp576
a(L4151532718L
L3785322319L
(lp577
(lp578
Vbootloader_mmap
p579
atp580
a(L3116602434L
L3785322319L
(lp581
(lp582
Vesp_log_early_timestamp
p583
atp584
a(L2994776696L
L0L
(lp585
(lp586
tp587
a(L599962516L
L0L
(lp588
(lp589
tp590
a(L1652679798L
L3785322319L
(lp591
(lp592
Vbootloader_munmap
p593
atp594
a(L2993622008L
L0L
(lp595
(lp596
tp597
a(L1216016797L
L3785322319L
(lp598
(lp599
Vbootloader_fill_random
p600
atp601
a(L3570641403L
L0L
(lp602
(lp603
tp604
a(L3574335487L
L0L
(lp605
(lp606
tp607
a(L3450268858L
L0L
(lp608
(lp609
tp610
a(L3021749L
L0L
(lp611
(lp612
tp613
a(L1609678444L
L0L
(lp614
(lp615
tp616
a(L1777728568L
L0L
(lp617
(lp618
tp619
a(L3020204L
L0L
(lp620
(lp621
tp622
a(L1312354573L
L0L
(lp623
(lp624
tp625
a(L2076461546L
L0L
(lp626
(lp627
tp628
a(L3844184503L
L0L
(lp629
(lp630
tp631
a(L1749969336L
L0L
(lp632
(lp633
tp634
a(L670934548L
L0L
(lp635
(lp636
tp637
a(L781506066L
L3785322319L
(lp638
(lp639
Vbootloader_sha256_data
p640
atp641
a(L90548756L
L0L
(lp642
(lp643
tp644
a(L4195963580L
L0L
(lp645
(lp646
tp647
a(L2422333549L
L0L
(lp648
(lp649
tp650
a(L3132743422L
L0L
(lp651
(lp652
tp653
a(L249537906L
L3785322319L
(lp654
(lp655
Vshould_load
p656
atp657
a(L2378267508L
L0L
(lp658
(lp659
tp660
a(L3098292588L
L3785322319L
(lp661
(lp662
Vesp_log_early_timestamp
p663
atp664
a(L1263395604L
L0L
(lp665
(lp666
tp667
a(L307916924L
L0L
(lp668
(lp669
tp670
a(L1359732895L
L0L
(lp671
(lp672
tp673
a(L81630008L
L0L
(lp674
(lp675
tp676
a(L2742376716L
L0L
(lp677
(lp678
tp679
a(L3786494677L
L3785322319L
(lp680
(lp681
Vbootloader_mmap_get_free_pages
p682
atp683
a(L2685118414L
L0L
(lp684
(lp685
tp686
a(L2091285670L
L0L
(lp687
(lp688
tp689
atp690
sI1074247208
(Vesp_rom_spiflash_read_status
p691
(lp692
(L2938520357L
L0L
(lp693
(lp694
tp695
a(L1182811815L
L0L
(lp696
(lp697
tp698
a(L487786002L
L0L
(lp699
(lp700
tp701
a(L106L
L0L
(lp702
(lp703
tp704
a(L2000875779L
L0L
(lp705
(lp706
tp707
a(L3274807848L
L0L
(lp708
(lp709
tp710
a(L2123059967L
L0L
(lp711
(lp712
tp713
a(L3146966332L
L0L
(lp714
(lp715
tp716
a(L2392720019L
L0L
(lp717
(lp718
tp719
atp720
sI1074244916
(Vrtc_clk_32k_enable
p721
(lp722
(L753387299L
L0L
(lp723
(lp724
tp725
a(L3776007933L
L3785322319L
(lp726
(lp727
Vrtc_clk_32k_enable_common
p728
atp729
a(L3496950L
L0L
(lp730
(lp731
tp732
a(L2119050555L
L0L
(lp733
(lp734
tp735
atp736
sI1074238516
(Vlog_invalid_app_partition
p737
(lp738
(L3121159614L
L0L
(lp739
(lp740
tp741
a(L3028464L
L0L
(lp742
(lp743
tp744
a(L1381405837L
L3785322319L
(lp745
(lp746
Vesp_log_early_timestamp
p747
atp748
a(L3833270346L
L0L
(lp749
(lp750
tp751
a(L3360570486L
L0L
(lp752
(lp753
tp754
a(L3430459325L
L3785322319L
(lp755
(lp756
Vesp_log_early_timestamp
p757
atp758
a(L3309219235L
L3785322319L
(lp759
(lp760
Vesp_log_early_timestamp
p761
atp762
atp763
sI1074247732
(Vesp_rom_spiflash_write
p764
(lp765
(L62871884L
L0L
(lp766
(lp767
tp768
a(L2258688483L
L0L
(lp769
(lp770
tp771
a(L3360570486L
L0L
(lp772
(lp773
tp774
a(L3368132847L
L0L
(lp775
(lp776
tp777
a(L3106685981L
L0L
(lp778
(lp779
tp780
a(L3488660639L
L3785322319L
(lp781
(lp782
Vesp_rom_spiflash_program_page_internal
p783
atp784
a(L3543402353L
L3785322319L
(lp785
(lp786
Vesp_rom_spiflash_program_page_internal
p787
atp788
a(L4222526342L
L0L
(lp789
(lp790
tp791
a(L2004208511L
L0L
(lp792
(lp793
tp794
a(L564470656L
L0L
(lp795
(lp796
tp797
a(L2988842384L
L3785322319L
(lp798
(lp799
Vesp_rom_spiflash_program_page_internal
p800
atp801
a(L2302069176L
L0L
(lp802
(lp803
tp804
atp805
sI1074269756
(Vbootloader_console_init
p806
(lp807
(L2954440351L
L1832448559L
(lp808
(lp809
Vesp_rom_uart_tx_wait_idle
p810
aVrtc_clk_apb_freq_get
p811
aVesp_rom_uart_set_clock_baudrate
p812
atp813
atp814
sI1074247984
(Vesp_rom_spiflash_read
p815
(lp816
(L3103566547L
L0L
(lp817
(lp818
tp819
a(L2597740137L
L0L
(lp820
(lp821
tp822
a(L340311750L
L0L
(lp823
(lp824
tp825
a(L2355528925L
L0L
(lp826
(lp827
tp828
a(L106L
L0L
(lp829
(lp830
tp831
a(L633884026L
L0L
(lp832
(lp833
tp834
a(L106L
L0L
(lp835
(lp836
tp837
a(L582979172L
L0L
(lp838
(lp839
tp840
a(L3496316668L
L0L
(lp841
(lp842
tp843
a(L507635883L
L0L
(lp844
(lp845
tp846
a(L336550648L
L0L
(lp847
(lp848
tp849
a(L2122946069L
L0L
(lp850
(lp851
tp852
a(L106L
L0L
(lp853
(lp854
tp855
a(L807430825L
L3785322319L
(lp856
(lp857
Vesp_rom_spiflash_wait_idle
p858
atp859
a(L3021737L
L0L
(lp860
(lp861
tp862
a(L106L
L0L
(lp863
(lp864
tp865
a(L1868280504L
L0L
(lp866
(lp867
tp868
a(L106L
L0L
(lp869
(lp870
tp871
a(L3347303182L
L0L
(lp872
(lp873
tp874
a(L1221163038L
L0L
(lp875
(lp876
tp877
a(L4122060822L
L0L
(lp878
(lp879
tp880
a(L3793304644L
L0L
(lp881
(lp882
tp883
a(L2989032L
L0L
(lp884
(lp885
tp886
a(L3819849625L
L0L
(lp887
(lp888
tp889
a(L224514718L
L0L
(lp890
(lp891
tp892
a(L893190794L
L0L
(lp893
(lp894
tp895
a(L3901821471L
L0L
(lp896
(lp897
tp898
a(L418095393L
L0L
(lp899
(lp900
tp901
a(L2921907736L
L0L
(lp902
(lp903
tp904
a(L4023125337L
L0L
(lp905
(lp906
tp907
a(L259008507L
L0L
(lp908
(lp909
tp910
a(L3207784758L
L0L
(lp911
(lp912
tp913
a(L219350779L
L0L
(lp914
(lp915
tp916
a(L781550816L
L0L
(lp917
(lp918
tp919
a(L2687789892L
L0L
(lp920
(lp921
tp922
a(L1405253496L
L0L
(lp923
(lp924
tp925
a(L910618439L
L0L
(lp926
(lp927
tp928
a(L97689L
L0L
(lp929
(lp930
tp931
a(L1183020347L
L0L
(lp932
(lp933
tp934
a(L4014024819L
L0L
(lp935
(lp936
tp937
a(L3621567083L
L0L
(lp938
(lp939
tp940
atp941
sI1074236984
(Vbootloader_common_check_chip_validity
p942
(lp943
(L392423210L
L0L
(lp944
(lp945
tp946
a(L62642320L
L3785322319L
(lp947
(lp948
Vesp_log_early_timestamp
p949
atp950
a(L522103407L
L3785322319L
(lp951
(lp952
Vefuse_hal_chip_revision
p953
atp954
a(L106L
L0L
(lp955
(lp956
tp957
a(L1989150608L
L0L
(lp958
(lp959
tp960
a(L720806035L
L3785322319L
(lp961
(lp962
Vesp_log_early_timestamp
p963
atp964
a(L3028464L
L0L
(lp965
(lp966
tp967
a(L1397322129L
L0L
(lp968
(lp969
tp970
a(L3021749L
L0L
(lp971
(lp972
tp973
a(L3790510041L
L3785322319L
(lp974
(lp975
Vesp_log_early_timestamp
p976
atp977
a(L1299867982L
L0L
(lp978
(lp979
tp980
a(L3360570486L
L0L
(lp981
(lp982
tp983
atp984
sI1074236728
(Vefuse_hal_get_major_chip_version
p985
(lp986
(L1242126302L
L0L
(lp987
(lp988
tp989
a(L894792960L
L0L
(lp990
(lp991
tp992
a(L3783348505L
L0L
(lp993
(lp994
tp995
a(L3360570486L
L0L
(lp996
(lp997
tp998
atp999
sI1074245432
(Vrtc_clk_cpu_freq_mhz_to_config
p1000
(lp1001
(L908718885L
L3785322319L
(lp1002
(lp1003
Vrtc_clk_xtal_freq_get
p1004
atp1005
a(L60460069L
L0L
(lp1006
(lp1007
tp1008
a(L3802072124L
L0L
(lp1009
(lp1010
tp1011
a(L3159006042L
L0L
(lp1012
(lp1013
tp1014
a(L3360570486L
L0L
(lp1015
(lp1016
tp1017
a(L895147205L
L0L
(lp1018
(lp1019
tp1020
a(L3970036657L
L0L
(lp1021
(lp1022
tp1023
a(L2731353429L
L0L
(lp1024
(lp1025
tp1026
a(L1555485793L
L0L
(lp1027
(lp1028
tp1029
a(L2258897023L
L0L
(lp1030
(lp1031
tp1032
a(L1947499251L
L0L
(lp1033
(lp1034
tp1035
a(L1306331021L
L0L
(lp1036
(lp1037
tp1038
atp1039
sI1074270024
(Vrtc_clk_init
p1040
(lp1041
(L3257766843L
L0L
(lp1042
(lp1043
tp1044
a(L42671777L
L3785322319L
(lp1045
(lp1046
Vrtc_clk_cpu_freq_to_xtal
p1047
atp1048
a(L521702948L
L3785322319L
(lp1049
(lp1050
Vrtc_clk_xtal_freq_get
p1051
atp1052
a(L89029051L
L0L
(lp1053
(lp1054
tp1055
a(L4187693717L
L3785322319L
(lp1056
(lp1057
Vrtc_clk_xtal_freq_estimate
p1058
atp1059
a(L3453651218L
L3785322319L
(lp1060
(lp1061
Vesp_log_early_timestamp
p1062
atp1063
a(L3816753179L
L1157885199L
(lp1064
(lp1065
Vesp_rom_uart_tx_wait_idle
p1066
aVrtc_clk_xtal_freq_update
p1067
aVrtc_clk_apb_freq_update
p1068
aVrtc_clk_cpu_freq_get_config
p1069
aVrtc_clk_cpu_freq_mhz_to_config
p1070
atp1071
a(L1095609107L
L1880226080L
(lp1072
(lp1073
Vesp_log_early_timestamp
p1074
aVabort
p1075
atp1076
a(L3028481L
L0L
(lp1077
(lp1078
tp1079
a(L4070631611L
L3785322319L
(lp1080
(lp1081
Vrtc_clk_xtal_freq_estimate
p1082
atp1083
a(L2374665319L
L3785322319L
(lp1084
(lp1085
Vesp_log_early_timestamp
p1086
atp1087
a(L2048189144L
L3785322319L
(lp1088
(lp1089
Vrtc_clk_cpu_freq_set_config
p1090
atp1091
a(L912310138L
L3785322319L
(lp1092
(lp1093
Vrtc_clk_32k_enable
p1094
atp1095
a(L3191820416L
L1832448559L
(lp1096
(lp1097
Vrtc_clk_8m_enable
p1098
aVrtc_clk_fast_src_set
p1099
aVrtc_clk_slow_src_set
p1100
atp1101
a(L1232958848L
L0L
(lp1102
(lp1103
tp1104
atp1105
sI1074240320
(Vbootloader_debug_buffer
p1106
(lp1107
(L2100504542L
L0L
(lp1108
(lp1109
tp1110
atp1111
sI1074241612
(Vprocess_appended_hash_and_sig
p1112
(lp1113
(L1668084157L
L0L
(lp1114
(lp1115
tp1116
a(L2910371777L
L0L
(lp1117
(lp1118
tp1119
a(L1591589631L
L0L
(lp1120
(lp1121
tp1122
a(L2551256078L
L0L
(lp1123
(lp1124
tp1125
a(L3258290317L
L0L
(lp1126
(lp1127
tp1128
a(L3771738553L
L3785322319L
(lp1129
(lp1130
Vesp_log_early_timestamp
p1131
atp1132
a(L2268304300L
L3785322319L
(lp1133
(lp1134
Vbootloader_flash_read
p1135
atp1136
a(L3871473710L
L0L
(lp1137
(lp1138
tp1139
atp1140
sI1074234700
(Vesp_flash_encryption_enabled
p1141
(lp1142
(L2932383536L
L0L
(lp1143
(lp1144
tp1145
a(L2910371777L
L0L
(lp1146
(lp1147
tp1148
a(L3360570486L
L0L
(lp1149
(lp1150
tp1151
a(L3016870L
L0L
(lp1152
(lp1153
tp1154
a(L3745038218L
L0L
(lp1155
(lp1156
tp1157
a(L957607403L
L0L
(lp1158
(lp1159
tp1160
atp1161
sI1074245708
(Vrtc_clk_apb_freq_update
p1162
(lp1163
(L3678163707L
L0L
(lp1164
(lp1165
tp1166
atp1167
sI1074240328
(Vbootloader_sha256_start
p1168
(lp1169
(L2264643577L
L0L
(lp1170
(lp1171
tp1172
atp1173
sI1074239304
(Vbootloader_utility_load_partition_table
p1174
(lp1175
(L973068460L
L3785322319L
(lp1176
(lp1177
Vbootloader_mmap
p1178
atp1179
a(L3088277257L
L3785322319L
(lp1180
(lp1181
Vesp_log_early_timestamp
p1182
atp1183
a(L2258688482L
L0L
(lp1184
(lp1185
tp1186
a(L3360570486L
L0L
(lp1187
(lp1188
tp1189
a(L2182773102L
L3785322319L
(lp1190
(lp1191
Vesp_partition_table_verify
p1192
atp1193
a(L3965874490L
L3785322319L
(lp1194
(lp1195
Vesp_log_early_timestamp
p1196
atp1197
a(L3107449462L
L1880226080L
(lp1198
(lp1199
Vesp_log_early_timestamp
p1200
aVesp_log_early_timestamp
p1201
atp1202
a(L650140130L
L0L
(lp1203
(lp1204
tp1205
a(L3545232956L
L1880226080L
(lp1206
(lp1207
Vbootloader_munmap
p1208
aVesp_log_early_timestamp
p1209
atp1210
a(L521126897L
L0L
(lp1211
(lp1212
tp1213
a(L3028464L
L0L
(lp1214
(lp1215
tp1216
a(L106L
L0L
(lp1217
(lp1218
tp1219
a(L1403802542L
L0L
(lp1220
(lp1221
tp1222
a(L609579173L
L3785322319L
(lp1223
(lp1224
Vesp_log_early_timestamp
p1225
atp1226
a(L3990577774L
L0L
(lp1227
(lp1228
tp1229
a(L3020187L
L0L
(lp1230
(lp1231
tp1232
a(L2278500994L
L0L
(lp1233
(lp1234
tp1235
a(L4208505160L
L0L
(lp1236
(lp1237
tp1238
a(L1859217719L
L0L
(lp1239
(lp1240
tp1241
a(L2546691122L
L0L
(lp1242
(lp1243
tp1244
a(L3794036362L
L0L
(lp1245
(lp1246
tp1247
a(L106L
L0L
(lp1248
(lp1249
tp1250
a(L93674324L
L0L
(lp1251
(lp1252
tp1253
a(L1601771625L
L0L
(lp1254
(lp1255
tp1256
a(L1938133259L
L0L
(lp1257
(lp1258
tp1259
a(L1590689356L
L0L
(lp1260
(lp1261
tp1262
a(L106L
L0L
(lp1263
(lp1264
tp1265
a(L924822438L
L0L
(lp1266
(lp1267
tp1268
a(L106L
L0L
(lp1269
(lp1270
tp1271
a(L568228547L
L0L
(lp1272
(lp1273
tp1274
atp1275
sI1074237256
(Vbootloader_common_ota_select_invalid
p1276
(lp1277
(L4027567199L
L0L
(lp1278
(lp1279
tp1280
a(L3397985842L
L0L
(lp1281
(lp1282
tp1283
a(L2258867228L
L0L
(lp1284
(lp1285
tp1286
a(L3785235668L
L0L
(lp1287
(lp1288
tp1289
atp1290
sI1074235220
(Vbootloader_execute_flash_command
p1291
(lp1292
(L2481595632L
L3785322319L
(lp1293
(lp1294
Vbootloader_flash_execute_command_common
p1295
atp1296
atp1297
sI1074244700
(Vrtc_clk_cpu_freq_to_pll_mhz
p1298
(lp1299
(L1393544349L
L0L
(lp1300
(lp1301
tp1302
a(L405771233L
L0L
(lp1303
(lp1304
tp1305
a(L2930829064L
L0L
(lp1306
(lp1307
tp1308
a(L3298441904L
L0L
(lp1309
(lp1310
tp1311
a(L3680579786L
L0L
(lp1312
(lp1313
tp1314
a(L1298905564L
L0L
(lp1315
(lp1316
tp1317
a(L68193075L
L3785322319L
(lp1318
(lp1319
Vrtc_clk_wait_for_slow_cycle
p1320
atp1321
a(L1611366957L
L0L
(lp1322
(lp1323
tp1324
a(L1611366988L
L0L
(lp1325
(lp1326
tp1327
a(L94425498L
L3785322319L
(lp1328
(lp1329
Vabort
p1330
atp1331
atp1332
sI1074240348
(Vbootloader_sha256_data
p1333
(lp1334
(L4066096136L
L0L
(lp1335
(lp1336
tp1337
a(L685117705L
L0L
(lp1338
(lp1339
tp1340
a(L3769576247L
L3785322319L
(lp1341
(lp1342
V__assert_func
p1343
atp1344
a(L498498478L
L0L
(lp1345
(lp1346
tp1347
a(L602312388L
L0L
(lp1348
(lp1349
tp1350
a(L2910371777L
L0L
(lp1351
(lp1352
tp1353
a(L3360570486L
L0L
(lp1354
(lp1355
tp1356
a(L1325583653L
L0L
(lp1357
(lp1358
tp1359
a(L541898147L
L0L
(lp1360
(lp1361
tp1362
a(L618796780L
L0L
(lp1363
(lp1364
tp1365
a(L1414169690L
L0L
(lp1366
(lp1367
tp1368
a(L1684964552L
L0L
(lp1369
(lp1370
tp1371
a(L2032890799L
L0L
(lp1372
(lp1373
tp1374
a(L3028464L
L0L
(lp1375
(lp1376
tp1377
a(L4085763523L
L0L
(lp1378
(lp1379
tp1380
a(L2133453165L
L0L
(lp1381
(lp1382
tp1383
atp1384
sI1074237284
(Vbootloader_common_select_otadata
p1385
(lp1386
(L4071767857L
L0L
(lp1387
(lp1388
tp1389
a(L1999329187L
L0L
(lp1390
(lp1391
tp1392
a(L3846398843L
L0L
(lp1393
(lp1394
tp1395
a(L2501968171L
L0L
(lp1396
(lp1397
tp1398
a(L3360570486L
L0L
(lp1399
(lp1400
tp1401
a(L2045232488L
L0L
(lp1402
(lp1403
tp1404
a(L1243525916L
L0L
(lp1405
(lp1406
tp1407
a(L3094144427L
L0L
(lp1408
(lp1409
tp1410
a(L2399509845L
L0L
(lp1411
(lp1412
tp1413
a(L1641201884L
L0L
(lp1414
(lp1415
tp1416
atp1417
sI1074269792
(Vesp_cpu_configure_region_protection
p1418
(lp1419
(L2999243978L
L0L
(lp1420
(lp1421
tp1422
a(L180431425L
L3785322319L
(lp1423
(lp1424
Vmpu_hal_set_region_access
p1425
atp1426
a(L2537388152L
L3785322319L
(lp1427
(lp1428
Vmpu_hal_set_region_access
p1429
atp1430
atp1431
sI1074238824
(Vload_image
p1432
(lp1433
(L830442693L
L1832448559L
(lp1434
(lp1435
Vesp_log_early_timestamp
p1436
aVbootloader_random_disable
p1437
aVbootloader_ana_clock_glitch_reset_config
p1438
atp1439
a(L2118498116L
L0L
(lp1440
(lp1441
tp1442
a(L106L
L0L
(lp1443
(lp1444
tp1445
a(L3832824599L
L267944800L
(lp1446
(lp1447
Vmmu_hal_init
p1448
aVcache_ll_l1_get_bus
p1449
aVcache_ll_l1_enable_bus
p1450
aVcache_ll_l1_get_bus
p1451
aVcache_ll_l1_enable_bus
p1452
aVbootloader_console_deinit
p1453
atp1454
a(L746432701L
L0L
(lp1455
(lp1456
tp1457
a(L2902417580L
L0L
(lp1458
(lp1459
tp1460
a(L449339665L
L3785322319L
(lp1461
(lp1462
Vesp_log_early_timestamp
p1463
atp1464
a(L123149282L
L0L
(lp1465
(lp1466
tp1467
a(L1797968990L
L0L
(lp1468
(lp1469
tp1470
a(L3020204L
L0L
(lp1471
(lp1472
tp1473
a(L657080895L
L3785322319L
(lp1474
(lp1475
Vesp_log_early_timestamp
p1476
atp1477
a(L2799711271L
L0L
(lp1478
(lp1479
tp1480
a(L1272997171L
L0L
(lp1481
(lp1482
tp1483
atp1484
sI1074245736
(Vrtc_clk_cpu_freq_to_xtal
p1485
(lp1486
(L3556237429L
L0L
(lp1487
(lp1488
tp1489
a(L94425498L
L3785322319L
(lp1490
(lp1491
Vabort
p1492
atp1493
a(L1625957017L
L3785322319L
(lp1494
(lp1495
Vrtc_clk_apb_freq_update
p1496
atp1497
a(L2258867232L
L0L
(lp1498
(lp1499
tp1500
a(L1889460029L
L0L
(lp1501
(lp1502
tp1503
atp1504
sI1074247016
(Vrtc_clk_cal_ratio
p1505
(lp1506
(L517834709L
L3785322319L
(lp1507
(lp1508
Vrtc_clk_cal_internal
p1509
atp1510
atp1511
sI1074234740
(Vbootloader_flash_execute_command_common
p1512
(lp1513
(L3865052895L
L0L
(lp1514
(lp1515
tp1516
a(L3287175998L
L0L
(lp1517
(lp1518
tp1519
a(L4121451103L
L3785322319L
(lp1520
(lp1521
V__assert_func
p1522
atp1523
a(L3021749L
L0L
(lp1524
(lp1525
tp1526
a(L3999871974L
L0L
(lp1527
(lp1528
tp1529
a(L543316797L
L0L
(lp1530
(lp1531
tp1532
a(L2091933878L
L0L
(lp1533
(lp1534
tp1535
a(L1702379862L
L0L
(lp1536
(lp1537
tp1538
a(L3432464320L
L0L
(lp1539
(lp1540
tp1541
a(L3539375712L
L0L
(lp1542
(lp1543
tp1544
a(L3244449450L
L0L
(lp1545
(lp1546
tp1547
a(L4233404408L
L0L
(lp1548
(lp1549
tp1550
a(L2990329343L
L0L
(lp1551
(lp1552
tp1553
a(L2051090536L
L0L
(lp1554
(lp1555
tp1556
a(L3333696662L
L0L
(lp1557
(lp1558
tp1559
a(L963425213L
L0L
(lp1560
(lp1561
tp1562
a(L339491738L
L0L
(lp1563
(lp1564
tp1565
a(L3360570486L
L0L
(lp1566
(lp1567
tp1568
atp1569
sI1074235252
(Vbootloader_flash_unlock
p1570
(lp1571
(L2142380611L
L3785322319L
(lp1572
(lp1573
Vesp_rom_spiflash_wait_idle
p1574
atp1575
a(L4212373562L
L0L
(lp1576
(lp1577
tp1578
a(L4292483033L
L3785322319L
(lp1579
(lp1580
Vbootloader_execute_flash_command
p1581
atp1582
a(L106L
L0L
(lp1583
(lp1584
tp1585
a(L1303560644L
L0L
(lp1586
(lp1587
tp1588
a(L610618440L
L0L
(lp1589
(lp1590
tp1591
a(L106L
L0L
(lp1592
(lp1593
tp1594
a(L345249462L
L0L
(lp1595
(lp1596
tp1597
a(L106L
L0L
(lp1598
(lp1599
tp1600
a(L1024465569L
L0L
(lp1601
(lp1602
tp1603
a(L106L
L0L
(lp1604
(lp1605
tp1606
a(L1481761147L
L1880226080L
(lp1607
(lp1608
Vbootloader_execute_flash_command
p1609
aVbootloader_execute_flash_command
p1610
atp1611
a(L2258807654L
L0L
(lp1612
(lp1613
tp1614
a(L489806350L
L1832448559L
(lp1615
(lp1616
Vesp_rom_spiflash_wait_idle
p1617
aVbootloader_execute_flash_command
p1618
aVbootloader_execute_flash_command
p1619
atp1620
a(L879744646L
L1832448559L
(lp1621
(lp1622
Vesp_rom_spiflash_wait_idle
p1623
aVbootloader_execute_flash_command
p1624
aVbootloader_execute_flash_command
p1625
atp1626
a(L1840772931L
L1880226080L
(lp1627
(lp1628
Vesp_rom_spiflash_wait_idle
p1629
aVbootloader_execute_flash_command
p1630
atp1631
a(L2993202392L
L0L
(lp1632
(lp1633
tp1634
a(L508800419L
L1880226080L
(lp1635
(lp1636
Vbootloader_execute_flash_command
p1637
aVbootloader_execute_flash_command
p1638
atp1639
a(L1303560369L
L0L
(lp1640
(lp1641
tp1642
a(L1596544945L
L0L
(lp1643
(lp1644
tp1645
a(L97689L
L0L
(lp1646
(lp1647
tp1648
a(L106L
L0L
(lp1649
(lp1650
tp1651
atp1652
sI1074244468
(Vmmu_hal_init
p1653
(lp1654
(L1381828061L
L0L
(lp1655
(lp1656
tp1657
a(L2010554219L
L0L
(lp1658
(lp1659
tp1660
a(L3360570486L
L0L
(lp1661
(lp1662
tp1663
atp1664
sI1074244976
(Vrtc_clk_8m_enable
p1665
(lp1666
(L1611379971L
L0L
(lp1667
(lp1668
tp1669
a(L1216742732L
L0L
(lp1670
(lp1671
tp1672
a(L2151320156L
L0L
(lp1673
(lp1674
tp1675
a(L711175840L
L0L
(lp1676
(lp1677
tp1678
a(L3360570486L
L0L
(lp1679
(lp1680
tp1681
a(L1318267208L
L0L
(lp1682
(lp1683
tp1684
a(L2724162565L
L0L
(lp1685
(lp1686
tp1687
atp1688
sI1074243952
(Vwdt_hal_config_stage
p1689
(lp1690
(L331558507L
L0L
(lp1691
(lp1692
tp1693
a(L4279082939L
L0L
(lp1694
(lp1695
tp1696
a(L93674324L
L0L
(lp1697
(lp1698
tp1699
a(L2902417580L
L0L
(lp1700
(lp1701
tp1702
a(L1485495983L
L0L
(lp1703
(lp1704
tp1705
a(L3020187L
L0L
(lp1706
(lp1707
tp1708
a(L94425498L
L3785322319L
(lp1709
(lp1710
Vabort
p1711
atp1712
a(L2718517169L
L0L
(lp1713
(lp1714
tp1715
a(L3360570486L
L0L
(lp1716
(lp1717
tp1718
a(L1996799187L
L0L
(lp1719
(lp1720
tp1721
a(L2771194801L
L0L
(lp1722
(lp1723
tp1724
a(L4278159418L
L0L
(lp1725
(lp1726
tp1727
a(L93674324L
L0L
(lp1728
(lp1729
tp1730
a(L3020204L
L0L
(lp1731
(lp1732
tp1733
a(L3391750594L
L0L
(lp1734
(lp1735
tp1736
a(L3020187L
L0L
(lp1737
(lp1738
tp1739
a(L106L
L0L
(lp1740
(lp1741
tp1742
a(L239610384L
L0L
(lp1743
(lp1744
tp1745
a(L831450820L
L0L
(lp1746
(lp1747
tp1748
a(L3340783449L
L0L
(lp1749
(lp1750
tp1751
atp1752
sI1074236528
(Vbootloader_common_get_chip_ver_pkg
p1753
(lp1754
(L2886103845L
L0L
(lp1755
(lp1756
tp1757
atp1758
sI1074269552
(Vbootloader_config_wdt
p1759
(lp1760
(L2487236811L
L505859776L
(lp1761
(lp1762
Vwdt_hal_write_protect_disable
p1763
aVwdt_hal_set_flashboot_en
p1764
aVwdt_hal_write_protect_enable
p1765
aVwdt_hal_init
p1766
aVrtc_clk_slow_freq_get_hz
p1767
aVwdt_hal_write_protect_disable
p1768
aVwdt_hal_config_stage
p1769
aVwdt_hal_enable
p1770
aVwdt_hal_write_protect_enable
p1771
aVwdt_hal_write_protect_disable
p1772
aVwdt_hal_set_flashboot_en
p1773
aVwdt_hal_write_protect_enable
p1774
atp1775
atp1776
sI1074236796
(Vefuse_hal_get_minor_chip_version
p1777
(lp1778
(L1213965243L
L0L
(lp1779
(lp1780
tp1781
atp1782
sI1074267784
(Vbootloader_init
p1783
(lp1784
(L979987266L
L3785322319L
(lp1785
(lp1786
Vbootloader_init_mem
p1787
atp1788
a(L2806068302L
L0L
(lp1789
(lp1790
tp1791
a(L3038495368L
L3785322319L
(lp1792
(lp1793
V__assert_func
p1794
atp1795
a(L132773206L
L0L
(lp1796
(lp1797
tp1798
a(L481867486L
L0L
(lp1799
(lp1800
tp1801
a(L3813782018L
L0L
(lp1802
(lp1803
tp1804
a(L2681362207L
L0L
(lp1805
(lp1806
tp1807
a(L3027019L
L0L
(lp1808
(lp1809
tp1810
a(L4255298090L
L0L
(lp1811
(lp1812
tp1813
a(L3806739037L
L1832448559L
(lp1814
(lp1815
Vbootloader_clear_bss_section
p1816
aVbootloader_common_vddsdio_configure
p1817
aVbootloader_clock_get_rated_freq_mhz
p1818
atp1819
a(L3987130017L
L1157885199L
(lp1820
(lp1821
Vbootloader_clock_configure
p1822
aVbootloader_console_init
p1823
aVbootloader_print_banner
p1824
aVbootloader_flash_update_id
p1825
aVbootloader_flash_xmc_startup
p1826
atp1827
a(L1649921053L
L3785322319L
(lp1828
(lp1829
Vesp_log_early_timestamp
p1830
atp1831
a(L4106882949L
L3785322319L
(lp1832
(lp1833
Vesp_log_early_timestamp
p1834
atp1835
a(L3360570486L
L0L
(lp1836
(lp1837
tp1838
a(L2444883382L
L3785322319L
(lp1839
(lp1840
Vbootloader_read_bootloader_header
p1841
atp1842
a(L2444883382L
L3785322319L
(lp1843
(lp1844
Vbootloader_check_bootloader_validity
p1845
atp1846
a(L1599107887L
L2485746240L
(lp1847
(lp1848
Vbootloader_flash_gpio_config
p1849
aVbootloader_flash_dummy_config
p1850
aVbootloader_flash_cs_timing_config
p1851
aVbootloader_flash_unlock
p1852
atp1853
a(L46769618L
L0L
(lp1854
(lp1855
tp1856
a(L2155035293L
L0L
(lp1857
(lp1858
tp1859
a(L1404489684L
L0L
(lp1860
(lp1861
tp1862
a(L2565660313L
L3785322319L
(lp1863
(lp1864
Vesp_log_early_timestamp
p1865
atp1866
a(L4219340557L
L0L
(lp1867
(lp1868
tp1869
a(L4223034641L
L0L
(lp1870
(lp1871
tp1872
a(L4262746044L
L0L
(lp1873
(lp1874
tp1875
a(L4244275624L
L0L
(lp1876
(lp1877
tp1878
a(L1404489750L
L0L
(lp1879
(lp1880
tp1881
a(L3229250057L
L3785322319L
(lp1882
(lp1883
Vesp_log_early_timestamp
p1884
atp1885
a(L93837694L
L0L
(lp1886
(lp1887
tp1888
a(L106L
L0L
(lp1889
(lp1890
tp1891
a(L2691044167L
L0L
(lp1892
(lp1893
tp1894
a(L1503970806L
L0L
(lp1895
(lp1896
tp1897
a(L3902505714L
L0L
(lp1898
(lp1899
tp1900
a(L1410183748L
L3785322319L
(lp1901
(lp1902
Vesp_log_early_timestamp
p1903
atp1904
a(L93837694L
L0L
(lp1905
(lp1906
tp1907
a(L106L
L0L
(lp1908
(lp1909
tp1910
a(L3029526157L
L0L
(lp1911
(lp1912
tp1913
a(L2772639124L
L0L
(lp1914
(lp1915
tp1916
a(L2807278488L
L0L
(lp1917
(lp1918
tp1919
a(L35894901L
L3785322319L
(lp1920
(lp1921
Vbootloader_enable_wp
p1922
atp1923
a(L4208056626L
L0L
(lp1924
(lp1925
tp1926
a(L1895147922L
L0L
(lp1927
(lp1928
tp1929
a(L2282749240L
L3785322319L
(lp1930
(lp1931
Vesp_log_early_timestamp
p1932
atp1933
a(L3835578646L
L0L
(lp1934
(lp1935
tp1936
a(L3616321095L
L0L
(lp1937
(lp1938
tp1939
a(L106L
L0L
(lp1940
(lp1941
tp1942
a(L2693598428L
L0L
(lp1943
(lp1944
tp1945
a(L106L
L0L
(lp1946
(lp1947
tp1948
a(L2848225485L
L3785322319L
(lp1949
(lp1950
Vesp_log_early_timestamp
p1951
atp1952
a(L462441895L
L0L
(lp1953
(lp1954
tp1955
a(L2552296161L
L0L
(lp1956
(lp1957
tp1958
a(L3945228369L
L3785322319L
(lp1959
(lp1960
Vesp_log_early_timestamp
p1961
atp1962
a(L722191531L
L0L
(lp1963
(lp1964
tp1965
a(L1503962529L
L0L
(lp1966
(lp1967
tp1968
a(L106L
L0L
(lp1969
(lp1970
tp1971
a(L718593200L
L0L
(lp1972
(lp1973
tp1974
a(L1767021965L
L0L
(lp1975
(lp1976
tp1977
a(L3028481L
L0L
(lp1978
(lp1979
tp1980
a(L932857825L
L1880226080L
(lp1981
(lp1982
Vbootloader_config_wdt
p1983
aVbootloader_enable_random
p1984
atp1985
a(L2321903297L
L3785322319L
(lp1986
(lp1987
Vesp_log_early_timestamp
p1988
atp1989
atp1990
sI1074238080
(Vbootloader_enable_wp
p1991
(lp1992
(L1117825804L
L3785322319L
(lp1993
(lp1994
Vbootloader_execute_flash_command
p1995
atp1996
atp1997
sI1074247296
(Vesp_rom_spiflash_wait_idle
p1998
(lp1999
(L3233077282L
L0L
(lp2000
(lp2001
tp2002
a(L2023766174L
L0L
(lp2003
(lp2004
tp2005
a(L2805935263L
L0L
(lp2006
(lp2007
tp2008
a(L3086959262L
L0L
(lp2009
(lp2010
tp2011
a(L4161019926L
L3785322319L
(lp2012
(lp2013
Vesp_rom_spiflash_read_status
p2014
atp2015
atp2016
sI1074236812
(Vesp_dport_access_reg_read
p2017
(lp2018
(L1099794772L
L0L
(lp2019
(lp2020
tp2021
atp2022
sI1074241160
(Vbootloader_util_regions_overlap
p2023
(lp2024
(L2762640130L
L0L
(lp2025
(lp2026
tp2027
a(L2817547429L
L0L
(lp2028
(lp2029
tp2030
a(L986602140L
L3785322319L
(lp2031
(lp2032
V__assert_func
p2033
atp2034
a(L97642L
L0L
(lp2035
(lp2036
tp2037
a(L2008543729L
L0L
(lp2038
(lp2039
tp2040
a(L366123053L
L0L
(lp2041
(lp2042
tp2043
a(L2258867228L
L0L
(lp2044
(lp2045
tp2046
a(L1253626734L
L0L
(lp2047
(lp2048
tp2049
a(L2258897019L
L0L
(lp2050
(lp2051
tp2052
a(L3109269495L
L0L
(lp2053
(lp2054
tp2055
atp2056
sI1074238600
(Vtry_load_partition
p2057
(lp2058
(L1263750142L
L0L
(lp2059
(lp2060
tp2061
a(L2258688482L
L0L
(lp2062
(lp2063
tp2064
a(L3360570486L
L0L
(lp2065
(lp2066
tp2067
a(L530241438L
L3785322319L
(lp2068
(lp2069
Vbootloader_load_image
p2070
atp2071
a(L3254536474L
L3785322319L
(lp2072
(lp2073
Vesp_log_early_timestamp
p2074
atp2075
atp2076
sI1074246536
(Vrtc_clk_apb_freq_get
p2077
(lp2078
(L756535420L
L0L
(lp2079
(lp2080
tp2081
atp2082
sI1074247048
(Vrtc_clk_wait_for_slow_cycle
p2083
(lp2084
(L863334013L
L0L
(lp2085
(lp2086
tp2087
a(L287687718L
L0L
(lp2088
(lp2089
tp2090
a(L3360570486L
L0L
(lp2091
(lp2092
tp2093
a(L2237399032L
L0L
(lp2094
(lp2095
tp2096
a(L2994547433L
L0L
(lp2097
(lp2098
tp2099
a(L100177629L
L0L
(lp2100
(lp2101
tp2102
a(L2895687099L
L3785322319L
(lp2103
(lp2104
Vesp_log_early_timestamp
p2105
atp2106
atp2107
sI1074238100
(Vbootloader_mmap_get_free_pages
p2108
(lp2109
(L1496516875L
L0L
(lp2110
(lp2111
tp2112
atp2113
sI1074245524
(Vrtc_clk_cpu_freq_get_config
p2114
(lp2115
(L4203396962L
L0L
(lp2116
(lp2117
tp2118
a(L3020187L
L0L
(lp2119
(lp2120
tp2121
a(L3020187L
L0L
(lp2122
(lp2123
tp2124
a(L2325136122L
L3785322319L
(lp2125
(lp2126
Vrtc_clk_xtal_freq_get
p2127
atp2128
a(L3789795478L
L0L
(lp2129
(lp2130
tp2131
a(L2453536501L
L1880226080L
(lp2132
(lp2133
Vesp_log_early_timestamp
p2134
aVabort
p2135
atp2136
a(L3185329647L
L0L
(lp2137
(lp2138
tp2139
a(L3020187L
L0L
(lp2140
(lp2141
tp2142
a(L3028481L
L0L
(lp2143
(lp2144
tp2145
a(L38508693L
L0L
(lp2146
(lp2147
tp2148
a(L187152368L
L0L
(lp2149
(lp2150
tp2151
a(L1161083655L
L0L
(lp2152
(lp2153
tp2154
a(L1395485899L
L0L
(lp2155
(lp2156
tp2157
a(L2070600034L
L0L
(lp2158
(lp2159
tp2160
atp2161
sI1074270620
(Vrtc_vddsdio_set_config
p2162
(lp2163
(L2860798767L
L0L
(lp2164
(lp2165
tp2166
atp2167
sI1074244496
(Vefuse_hal_get_rated_freq_mhz
p2168
(lp2169
(L3936657855L
L0L
(lp2170
(lp2171
tp2172
a(L3671388797L
L0L
(lp2173
(lp2174
tp2175
a(L3360570486L
L0L
(lp2176
(lp2177
tp2178
atp2179
sI1074236560
(Vesp_rom_uart_tx_wait_idle
p2180
(lp2181
(L3957152286L
L0L
(lp2182
(lp2183
tp2184
a(L1301079727L
L0L
(lp2185
(lp2186
tp2187
a(L3597746521L
L0L
(lp2188
(lp2189
tp2190
a(L3694491048L
L0L
(lp2191
(lp2192
tp2193
a(L3055926844L
L0L
(lp2194
(lp2195
tp2196
a(L3360570486L
L0L
(lp2197
(lp2198
tp2199
atp2200
sI1074269840
(Vrtc_clk_xtal_freq_estimate
p2201
(lp2202
(L3845076426L
L1880226080L
(lp2203
(lp2204
Vrtc_clk_8m_enabled
p2205
aVrtc_clk_8md256_enabled
p2206
atp2207
a(L2449794434L
L3785322319L
(lp2208
(lp2209
Vrtc_clk_8m_enable
p2210
atp2211
a(L522902415L
L3785322319L
(lp2212
(lp2213
Vrtc_clk_cal_ratio
p2214
atp2215
a(L1894802584L
L0L
(lp2216
(lp2217
tp2218
a(L1915120046L
L0L
(lp2219
(lp2220
tp2221
a(L2740879690L
L0L
(lp2222
(lp2223
tp2224
a(L1059750288L
L3785322319L
(lp2225
(lp2226
Vrtc_clk_8m_enable
p2227
atp2228
a(L1679414345L
L3785322319L
(lp2229
(lp2230
Vesp_log_early_timestamp
p2231
atp2232
a(L2894376164L
L0L
(lp2233
(lp2234
tp2235
a(L1641150486L
L0L
(lp2236
(lp2237
tp2238
a(L4203785635L
L3785322319L
(lp2239
(lp2240
Vesp_log_early_timestamp
p2241
atp2242
a(L1887308851L
L3785322319L
(lp2243
(lp2244
Vesp_log_early_timestamp
p2245
atp2246
atp2247
sI1074238108
(Vbootloader_fill_random
p2248
(lp2249
(L1233865241L
L0L
(lp2250
(lp2251
tp2252
a(L2195342884L
L3785322319L
(lp2253
(lp2254
V__assert_func
p2255
atp2256
a(L1882547218L
L0L
(lp2257
(lp2258
tp2259
a(L2910371777L
L0L
(lp2260
(lp2261
tp2262
a(L95634693L
L0L
(lp2263
(lp2264
tp2265
a(L3630908706L
L0L
(lp2266
(lp2267
tp2268
a(L160162640L
L0L
(lp2269
(lp2270
tp2271
a(L97689L
L0L
(lp2272
(lp2273
tp2274
a(L3360570486L
L0L
(lp2275
(lp2276
tp2277
atp2278
sI1074236824
(Vis_xmc_chip_strict
p2279
(lp2280
(L1286841609L
L0L
(lp2281
(lp2282
tp2283
a(L2234016759L
L0L
(lp2284
(lp2285
tp2286
a(L1069027148L
L0L
(lp2287
(lp2288
tp2289
a(L3021749L
L0L
(lp2290
(lp2291
tp2292
a(L1900148749L
L0L
(lp2293
(lp2294
tp2295
a(L1936875721L
L0L
(lp2296
(lp2297
tp2298
a(L3356166509L
L0L
(lp2299
(lp2300
tp2301
a(L1937769451L
L0L
(lp2302
(lp2303
tp2304
a(L2137658907L
L0L
(lp2305
(lp2306
tp2307
a(L4265949734L
L0L
(lp2308
(lp2309
tp2310
a(L3360570486L
L0L
(lp2311
(lp2312
tp2313
atp2314
sI1074235800
(Vbootloader_flash_cs_timing_config
p2315
(lp2316
(L1940014330L
L0L
(lp2317
(lp2318
tp2319
atp2320
sI1074235544
(Vbootloader_flash_read_sfdp
p2321
(lp2322
(L711701400L
L0L
(lp2323
(lp2324
tp2325
a(L3334003234L
L3785322319L
(lp2326
(lp2327
V__assert_func
p2328
atp2329
a(L3704332455L
L3785322319L
(lp2330
(lp2331
Vbootloader_flash_execute_command_common
p2332
atp2333
atp2334
sI1074245272
(Vrtc_clk_slow_src_get
p2335
(lp2336
(L376617603L
L3785322319L
(lp2337
(lp2338
Vclk_ll_rtc_slow_get_src
p2339
atp2340
atp2341
sI1074245284
(Vrtc_clk_slow_freq_get_hz
p2342
(lp2343
(L1826267122L
L3785322319L
(lp2344
(lp2345
Vclk_ll_rtc_slow_get_src
p2346
atp2347
a(L4155162468L
L0L
(lp2348
(lp2349
tp2350
a(L3631005815L
L0L
(lp2351
(lp2352
tp2353
a(L702740037L
L0L
(lp2354
(lp2355
tp2356
a(L3360570486L
L0L
(lp2357
(lp2358
tp2359
atp2360
sI1074244268
(Vwdt_hal_write_protect_disable
p2361
(lp2362
(L3345031483L
L0L
(lp2363
(lp2364
tp2365
a(L4195472003L
L0L
(lp2366
(lp2367
tp2368
a(L3360570486L
L0L
(lp2369
(lp2370
tp2371
a(L1210571996L
L0L
(lp2372
(lp2373
tp2374
atp2375
sI1074247596
(Vesp_rom_spiflash_erase_sector
p2376
(lp2377
(L961165081L
L0L
(lp2378
(lp2379
tp2380
a(L2258688483L
L0L
(lp2381
(lp2382
tp2383
a(L3360570486L
L0L
(lp2384
(lp2385
tp2386
a(L3212356251L
L3785322319L
(lp2387
(lp2388
Vesp_rom_spiflash_enable_write
p2389
atp2390
a(L184152988L
L0L
(lp2391
(lp2392
tp2393
a(L3309930221L
L3785322319L
(lp2394
(lp2395
Vesp_rom_spiflash_wait_idle
p2396
atp2397
a(L3333707777L
L0L
(lp2398
(lp2399
tp2400
a(L3582858798L
L3785322319L
(lp2401
(lp2402
Vesp_rom_spiflash_wait_idle
p2403
atp2404
atp2405
sI1074241704
(Vshould_load
p2406
(lp2407
(L602112478L
L0L
(lp2408
(lp2409
tp2410
a(L1182990556L
L0L
(lp2411
(lp2412
tp2413
a(L1188500889L
L0L
(lp2414
(lp2415
tp2416
a(L2306467100L
L0L
(lp2417
(lp2418
tp2419
a(L524505062L
L0L
(lp2420
(lp2421
tp2422
a(L2258897019L
L0L
(lp2423
(lp2424
tp2425
a(L3781799363L
L0L
(lp2426
(lp2427
tp2428
a(L3028464L
L0L
(lp2429
(lp2430
tp2431
a(L4261461776L
L0L
(lp2432
(lp2433
tp2434
a(L4277114872L
L0L
(lp2435
(lp2436
tp2437
a(L2824381917L
L0L
(lp2438
(lp2439
tp2440
a(L1243412227L
L0L
(lp2441
(lp2442
tp2443
a(L2011157548L
L0L
(lp2444
(lp2445
tp2446
a(L3126521138L
L0L
(lp2447
(lp2448
tp2449
a(L1305407438L
L0L
(lp2450
(lp2451
tp2452
a(L1305407469L
L0L
(lp2453
(lp2454
tp2455
atp2456
sI1074239668
(Vbootloader_utility_get_selected_boot_partition
p2457
(lp2458
(L2184143128L
L0L
(lp2459
(lp2460
tp2461
a(L3559256264L
L0L
(lp2462
(lp2463
tp2464
a(L32932585L
L3785322319L
(lp2465
(lp2466
Vesp_log_early_timestamp
p2467
atp2468
a(L194246498L
L0L
(lp2469
(lp2470
tp2471
a(L3360570486L
L0L
(lp2472
(lp2473
tp2474
a(L1375577398L
L3785322319L
(lp2475
(lp2476
Vbootloader_mmap
p2477
atp2478
a(L4068126365L
L3785322319L
(lp2479
(lp2480
Vesp_log_early_timestamp
p2481
atp2482
a(L2427574825L
L1880226080L
(lp2483
(lp2484
Vbootloader_munmap
p2485
aVbootloader_common_ota_select_invalid
p2486
atp2487
a(L1103573946L
L0L
(lp2488
(lp2489
tp2490
a(L1876835593L
L3785322319L
(lp2491
(lp2492
Vbootloader_common_get_active_otadata
p2493
atp2494
a(L106L
L0L
(lp2495
(lp2496
tp2497
a(L569346373L
L0L
(lp2498
(lp2499
tp2500
a(L788494392L
L3785322319L
(lp2501
(lp2502
Vbootloader_common_ota_select_invalid
p2503
atp2504
a(L1444904757L
L0L
(lp2505
(lp2506
tp2507
a(L1514422684L
L3785322319L
(lp2508
(lp2509
Vesp_log_early_timestamp
p2510
atp2511
a(L4022331949L
L3785322319L
(lp2512
(lp2513
Vesp_log_early_timestamp
p2514
atp2515
a(L505081345L
L0L
(lp2516
(lp2517
tp2518
a(L919052234L
L3785322319L
(lp2519
(lp2520
Vbootloader_common_ota_select_crc
p2521
atp2522
a(L2287680455L
L0L
(lp2523
(lp2524
tp2525
a(L3542558037L
L3785322319L
(lp2526
(lp2527
Vbootloader_common_ota_select_crc
p2528
atp2529
a(L1299866312L
L0L
(lp2530
(lp2531
tp2532
a(L1279036405L
L0L
(lp2533
(lp2534
tp2535
a(L4436813L
L3785322319L
(lp2536
(lp2537
Vesp_log_early_timestamp
p2538
atp2539
a(L2867263840L
L0L
(lp2540
(lp2541
tp2542
a(L4142614521L
L3785322319L
(lp2543
(lp2544
Vesp_log_early_timestamp
p2545
atp2546
atp2547
sI1074246580
(Vrtc_clk_cal_internal
p2548
(lp2549
(L3164614328L
L0L
(lp2550
(lp2551
tp2552
a(L1007251055L
L3785322319L
(lp2553
(lp2554
V__assert_func
p2555
atp2556
a(L437537178L
L0L
(lp2557
(lp2558
tp2559
a(L54826884L
L0L
(lp2560
(lp2561
tp2562
a(L234746575L
L0L
(lp2563
(lp2564
tp2565
a(L861896856L
L3785322319L
(lp2566
(lp2567
Vrtc_clk_8m_enable
p2568
atp2569
a(L1572704853L
L3785322319L
(lp2570
(lp2571
Vrtc_clk_slow_src_get
p2572
atp2573
a(L1211065969L
L0L
(lp2574
(lp2575
tp2576
a(L97689L
L0L
(lp2577
(lp2578
tp2579
a(L1700160711L
L0L
(lp2580
(lp2581
tp2582
a(L3028464L
L0L
(lp2583
(lp2584
tp2585
a(L3028481L
L0L
(lp2586
(lp2587
tp2588
a(L3450258728L
L0L
(lp2589
(lp2590
tp2591
a(L1279529158L
L3785322319L
(lp2592
(lp2593
Vrtc_clk_xtal_freq_get
p2594
atp2595
a(L2780079961L
L0L
(lp2596
(lp2597
tp2598
a(L1595895352L
L0L
(lp2599
(lp2600
tp2601
a(L2785673809L
L3785322319L
(lp2602
(lp2603
Vesp_log_early_timestamp
p2604
atp2605
a(L3360570486L
L0L
(lp2606
(lp2607
tp2608
a(L4254052586L
L0L
(lp2609
(lp2610
tp2611
a(L3245477987L
L0L
(lp2612
(lp2613
tp2614
a(L2910371777L
L0L
(lp2615
(lp2616
tp2617
a(L2902417580L
L0L
(lp2618
(lp2619
tp2620
a(L265500957L
L0L
(lp2621
(lp2622
tp2623
a(L3631005548L
L0L
(lp2624
(lp2625
tp2626
a(L2371312852L
L0L
(lp2627
(lp2628
tp2629
a(L3352263364L
L0L
(lp2630
(lp2631
tp2632
a(L3028464L
L0L
(lp2633
(lp2634
tp2635
a(L1136882496L
L3785322319L
(lp2636
(lp2637
Vrtc_clk_8m_enable
p2638
atp2639
atp2640
sI1074237360
(Vspi_to_esp_err
p2641
(lp2642
(L3520881295L
L0L
(lp2643
(lp2644
tp2645
a(L2402400019L
L0L
(lp2646
(lp2647
tp2648
a(L3952441574L
L0L
(lp2649
(lp2650
tp2651
a(L3126521138L
L0L
(lp2652
(lp2653
tp2654
atp2655
sI1074237616
(Vbootloader_munmap
p2656
(lp2657
(L1697403118L
L0L
(lp2658
(lp2659
tp2660
a(L3761142808L
L0L
(lp2661
(lp2662
tp2663
a(L3360570486L
L0L
(lp2664
(lp2665
tp2666
atp2667
sI1074247344
(Vesp_rom_spiflash_enable_write
p2668
(lp2669
(L1913384498L
L3785322319L
(lp2670
(lp2671
Vesp_rom_spiflash_wait_idle
p2672
atp2673
a(L3137194272L
L0L
(lp2674
(lp2675
tp2676
a(L2258718275L
L0L
(lp2677
(lp2678
tp2679
a(L99543895L
L0L
(lp2680
(lp2681
tp2682
a(L2993202392L
L0L
(lp2683
(lp2684
tp2685
a(L1804543818L
L3785322319L
(lp2686
(lp2687
Vesp_rom_spiflash_read_status
p2688
atp2689
atp2690
sI1074240700
(Vbootloader_console_deinit
p2691
(lp2692
(L3736498623L
L0L
(lp2693
(lp2694
tp2695
atp2696
sI1074244536
(Vclk_ll_rtc_slow_get_src
p2697
(lp2698
(L3007589395L
L0L
(lp2699
(lp2700
tp2701
a(L3020187L
L0L
(lp2702
(lp2703
tp2704
a(L2902417580L
L0L
(lp2705
(lp2706
tp2707
a(L2258688485L
L0L
(lp2708
(lp2709
tp2710
a(L3360570486L
L0L
(lp2711
(lp2712
tp2713
atp2714
sI1074238648
(Vcache_ll_l1_enable_bus
p2715
(lp2716
(L2715656691L
L0L
(lp2717
(lp2718
tp2719
atp2720
sI1074268616
(Vbootloader_common_vddsdio_configure
p2721
(lp2722
(L1829974089L
L3785322319L
(lp2723
(lp2724
Vrtc_vddsdio_get_config
p2725
atp2726
a(L555786086L
L3785322319L
(lp2727
(lp2728
Vrtc_vddsdio_set_config
p2729
atp2730
a(L3360570486L
L0L
(lp2731
(lp2732
tp2733
atp2734
sI1074241216
(Vverify_load_addresses
p2735
(lp2736
(L2764487219L
L0L
(lp2737
(lp2738
tp2739
a(L106L
L0L
(lp2740
(lp2741
tp2742
a(L97642L
L0L
(lp2743
(lp2744
tp2745
a(L1224098526L
L3785322319L
(lp2746
(lp2747
V__assert_func
p2748
atp2749
a(L98637545L
L0L
(lp2750
(lp2751
tp2752
a(L106L
L0L
(lp2753
(lp2754
tp2755
a(L3668043123L
L0L
(lp2756
(lp2757
tp2758
a(L106L
L0L
(lp2759
(lp2760
tp2761
a(L3257608699L
L3785322319L
(lp2762
(lp2763
Vbootloader_util_regions_overlap
p2764
atp2765
a(L3860847446L
L3785322319L
(lp2766
(lp2767
Vbootloader_util_regions_overlap
p2768
atp2769
a(L3028481L
L0L
(lp2770
(lp2771
tp2772
a(L4017883982L
L3785322319L
(lp2773
(lp2774
Vbootloader_util_regions_overlap
p2775
atp2776
a(L2068270194L
L0L
(lp2777
(lp2778
tp2779
a(L3651031838L
L0L
(lp2780
(lp2781
tp2782
a(L2508839873L
L0L
(lp2783
(lp2784
tp2785
a(L2661576437L
L0L
(lp2786
(lp2787
tp2788
a(L2503437888L
L0L
(lp2789
(lp2790
tp2791
a(L677569396L
L3785322319L
(lp2792
(lp2793
Vverify_load_addresses
p2794
atp2795
a(L1351513776L
L0L
(lp2796
(lp2797
tp2798
a(L3061261803L
L0L
(lp2799
(lp2800
tp2801
a(L2743341656L
L0L
(lp2802
(lp2803
tp2804
a(L2313851956L
L0L
(lp2805
(lp2806
tp2807
a(L729859039L
L0L
(lp2808
(lp2809
tp2810
a(L4026856790L
L3785322319L
(lp2811
(lp2812
Vbootloader_util_regions_overlap
p2813
atp2814
a(L3028481L
L0L
(lp2815
(lp2816
tp2817
a(L1567678174L
L3785322319L
(lp2818
(lp2819
Vbootloader_util_regions_overlap
p2820
atp2821
a(L2782864159L
L0L
(lp2822
(lp2823
tp2824
a(L430813523L
L0L
(lp2825
(lp2826
tp2827
a(L1256222942L
L0L
(lp2828
(lp2829
tp2830
a(L3569512628L
L0L
(lp2831
(lp2832
tp2833
a(L307916850L
L0L
(lp2834
(lp2835
tp2836
a(L697239146L
L0L
(lp2837
(lp2838
tp2839
a(L106L
L0L
(lp2840
(lp2841
tp2842
a(L955505038L
L0L
(lp2843
(lp2844
tp2845
a(L307917420L
L0L
(lp2846
(lp2847
tp2848
a(L490080443L
L0L
(lp2849
(lp2850
tp2851
a(L106L
L0L
(lp2852
(lp2853
tp2854
a(L1293040808L
L3785322319L
(lp2855
(lp2856
Vesp_log_early_timestamp
p2857
atp2858
a(L955504914L
L0L
(lp2859
(lp2860
tp2861
a(L1303560427L
L0L
(lp2862
(lp2863
tp2864
atp2865
sI1074245312
(Vrtc_clk_fast_src_set
p2866
(lp2867
(L1803815991L
L0L
(lp2868
(lp2869
tp2870
a(L3020187L
L0L
(lp2871
(lp2872
tp2873
a(L3827921190L
L3785322319L
(lp2874
(lp2875
Vabort
p2876
atp2877
a(L2904656757L
L0L
(lp2878
(lp2879
tp2880
a(L206212292L
L0L
(lp2881
(lp2882
tp2883
a(L300459962L
L0L
(lp2884
(lp2885
tp2886
atp2887
sI1074244300
(Vwdt_hal_set_flashboot_en
p2888
(lp2889
(L2375320464L
L0L
(lp2890
(lp2891
tp2892
a(L3915867581L
L0L
(lp2893
(lp2894
tp2895
a(L3360570486L
L0L
(lp2896
(lp2897
tp2898
a(L1643092119L
L0L
(lp2899
(lp2900
tp2901
atp2902
sI1074240716
(V__assert_func
p2903
(lp2904
(L1818583858L
L0L
(lp2905
(lp2906
tp2907
a(L106L
L0L
(lp2908
(lp2909
tp2910
atp2911
sI1074235596
(Vbootloader_read_flash_id
p2912
(lp2913
(L549578328L
L3785322319L
(lp2914
(lp2915
Vbootloader_execute_flash_command
p2916
atp2917
atp2918
sI1074240968
(Vprocess_image_header
p2919
(lp2920
(L1298623440L
L3785322319L
(lp2921
(lp2922
Vbootloader_flash_read
p2923
atp2924
a(L3020204L
L0L
(lp2925
(lp2926
tp2927
a(L4130667142L
L0L
(lp2928
(lp2929
tp2930
a(L3131381282L
L0L
(lp2931
(lp2932
tp2933
a(L1161397362L
L3785322319L
(lp2934
(lp2935
Vbootloader_sha256_start
p2936
atp2937
a(L1948257695L
L3785322319L
(lp2938
(lp2939
Vbootloader_sha256_data
p2940
atp2941
a(L1095449651L
L0L
(lp2942
(lp2943
tp2944
a(L3020204L
L0L
(lp2945
(lp2946
tp2947
a(L702739530L
L0L
(lp2948
(lp2949
tp2950
a(L3360570486L
L0L
(lp2951
(lp2952
tp2953
a(L51646495L
L3785322319L
(lp2954
(lp2955
Vesp_log_early_timestamp
p2956
atp2957
a(L3718883008L
L3785322319L
(lp2958
(lp2959
Vbootloader_common_check_chip_validity
p2960
atp2961
a(L3677035427L
L0L
(lp2962
(lp2963
tp2964
a(L3028481L
L0L
(lp2965
(lp2966
tp2967
a(L1307420894L
L3785322319L
(lp2968
(lp2969
Vesp_log_early_timestamp
p2970
atp2971
a(L2250109166L
L0L
(lp2972
(lp2973
tp2974
a(L1235012870L
L0L
(lp2975
(lp2976
tp2977
a(L3063569071L
L0L
(lp2978
(lp2979
tp2980
atp2981
sI1074269400
(Vbootloader_flash_update_id
p2982
(lp2983
(L824600716L
L3785322319L
(lp2984
(lp2985
Vbootloader_read_flash_id
p2986
atp2987
atp2988
sI1074244564
(Vrtc_clk_32k_enable_common
p2989
(lp2990
(L524789055L
L0L
(lp2991
(lp2992
tp2993
a(L97689L
L0L
(lp2994
(lp2995
tp2996
a(L2218417250L
L0L
(lp2997
(lp2998
tp2999
a(L3772650524L
L0L
(lp3000
(lp3001
tp3002
a(L51458058L
L0L
(lp3003
(lp3004
tp3005
atp3006
sI1074236624
(Vesp_rom_uart_set_clock_baudrate
p3007
(lp3008
(L2889646162L
L0L
(lp3009
(lp3010
tp3011
a(L2316512566L
L0L
(lp3012
(lp3013
tp3014
a(L2805931268L
L0L
(lp3015
(lp3016
tp3017
a(L2901979283L
L0L
(lp3018
(lp3019
tp3020
atp3021
sI1074237392
(Vbootloader_mmap
p3022
(lp3023
(L3624397292L
L0L
(lp3024
(lp3025
tp3026
a(L3762918116L
L3785322319L
(lp3027
(lp3028
Vesp_log_early_timestamp
p3029
atp3030
a(L3871473710L
L0L
(lp3031
(lp3032
tp3033
a(L3729184599L
L0L
(lp3034
(lp3035
tp3036
a(L3066168078L
L3785322319L
(lp3037
(lp3038
Vesp_log_early_timestamp
p3039
atp3040
a(L1864365708L
L0L
(lp3041
(lp3042
tp3043
a(L2872111263L
L3785322319L
(lp3044
(lp3045
Vesp_log_early_timestamp
p3046
atp3047
a(L258722864L
L0L
(lp3048
(lp3049
tp3050
a(L3746164654L
L3785322319L
(lp3051
(lp3052
Vesp_log_early_timestamp
p3053
atp3054
a(L2535155408L
L0L
(lp3055
(lp3056
tp3057
atp3058
sI1074239184
(Vset_actual_ota_seq
p3059
(lp3060
(L4094723830L
L0L
(lp3061
(lp3062
tp3063
a(L952758373L
L0L
(lp3064
(lp3065
tp3066
a(L1862038888L
L1832448559L
(lp3067
(lp3068
Vbootloader_common_ota_select_crc
p3069
aVesp_flash_encryption_enabled
p3070
aVbootloader_flash_erase_sector
p3071
atp3072
a(L3292941333L
L3785322319L
(lp3073
(lp3074
Vbootloader_flash_write
p3075
atp3076
a(L3559656997L
L3785322319L
(lp3077
(lp3078
Vesp_log_early_timestamp
p3079
atp3080
a(L3084608278L
L3785322319L
(lp3081
(lp3082
Vesp_log_early_timestamp
p3083
atp3084
a(L3360570486L
L0L
(lp3085
(lp3086
tp3087
atp3088
sI1074236380
(Vbootloader_flash_dummy_config
p3089
(lp3090
(L262000646L
L0L
(lp3091
(lp3092
tp3093
a(L2761717557L
L0L
(lp3094
(lp3095
tp3096
a(L1849044936L
L0L
(lp3097
(lp3098
tp3099
a(L708753936L
L0L
(lp3100
(lp3101
tp3102
a(L1010450057L
L0L
(lp3103
(lp3104
tp3105
a(L3020204L
L0L
(lp3106
(lp3107
tp3108
a(L1610443405L
L0L
(lp3109
(lp3110
tp3111
a(L4032120524L
L0L
(lp3112
(lp3113
tp3114
a(L2336993863L
L0L
(lp3115
(lp3116
tp3117
a(L1298875775L
L0L
(lp3118
(lp3119
tp3120
a(L3880393601L
L0L
(lp3121
(lp3122
tp3123
a(L3328946209L
L0L
(lp3124
(lp3125
tp3126
a(L1610443436L
L0L
(lp3127
(lp3128
tp3129
atp3130
sI1074245852
(Vrtc_clk_cpu_freq_set_config
p3131
(lp3132
(L2689297958L
L3785322319L
(lp3133
(lp3134
Vrtc_clk_xtal_freq_get
p3135
atp3136
a(L3020187L
L0L
(lp3137
(lp3138
tp3139
a(L3028464L
L0L
(lp3140
(lp3141
tp3142
a(L264223053L
L1880226080L
(lp3143
(lp3144
Vrtc_clk_cpu_freq_to_xtal
p3145
aVrtc_clk_wait_for_slow_cycle
p3146
atp3147
a(L94425498L
L3785322319L
(lp3148
(lp3149
Vrtc_clk_bbpll_disable
p3150
atp3151
a(L3978916712L
L0L
(lp3152
(lp3153
tp3154
a(L2977209154L
L0L
(lp3155
(lp3156
tp3157
a(L2736411858L
L3785322319L
(lp3158
(lp3159
Vrtc_clk_cpu_freq_to_xtal
p3160
atp3161
a(L3360570486L
L0L
(lp3162
(lp3163
tp3164
a(L3020187L
L0L
(lp3165
(lp3166
tp3167
a(L106L
L0L
(lp3168
(lp3169
tp3170
a(L2090763015L
L1880226080L
(lp3171
(lp3172
Vrtc_clk_wait_for_slow_cycle
p3173
aVrtc_clk_xtal_freq_get
p3174
atp3175
a(L106L
L0L
(lp3176
(lp3177
tp3178
a(L1760301549L
L0L
(lp3179
(lp3180
tp3181
a(L106L
L0L
(lp3182
(lp3183
tp3184
a(L83268611L
L0L
(lp3185
(lp3186
tp3187
a(L106L
L0L
(lp3188
(lp3189
tp3190
a(L82344823L
L0L
(lp3191
(lp3192
tp3193
a(L106L
L0L
(lp3194
(lp3195
tp3196
a(L1274797871L
L0L
(lp3197
(lp3198
tp3199
a(L2653998096L
L0L
(lp3200
(lp3201
tp3202
a(L2976776635L
L1880226080L
(lp3203
(lp3204
Vclk_ll_rtc_slow_get_src
p3205
aVrtc_clk_cpu_freq_to_pll_mhz
p3206
atp3207
a(L1690063372L
L0L
(lp3208
(lp3209
tp3210
a(L83268344L
L0L
(lp3211
(lp3212
tp3213
a(L82345090L
L0L
(lp3214
(lp3215
tp3216
a(L1299628291L
L0L
(lp3217
(lp3218
tp3219
a(L1465084682L
L0L
(lp3220
(lp3221
tp3222
a(L2258807646L
L0L
(lp3223
(lp3224
tp3225
a(L878473564L
L0L
(lp3226
(lp3227
tp3228
a(L2389426015L
L0L
(lp3229
(lp3230
tp3231
a(L1596574736L
L0L
(lp3232
(lp3233
tp3234
a(L2086626670L
L0L
(lp3235
(lp3236
tp3237
a(L1302638456L
L0L
(lp3238
(lp3239
tp3240
a(L810137203L
L0L
(lp3241
(lp3242
tp3243
a(L87353900L
L0L
(lp3244
(lp3245
tp3246
a(L3020187L
L0L
(lp3247
(lp3248
tp3249
a(L106L
L0L
(lp3250
(lp3251
tp3252
a(L2372492134L
L0L
(lp3253
(lp3254
tp3255
atp3256
sI1074247896
(Vesp_rom_spiflash_write_encrypted
p3257
(lp3258
(L1944247967L
L0L
(lp3259
(lp3260
tp3261
a(L1384352641L
L0L
(lp3262
(lp3263
tp3264
a(L97689L
L0L
(lp3265
(lp3266
tp3267
a(L3061232074L
L0L
(lp3268
(lp3269
tp3270
a(L1637565147L
L0L
(lp3271
(lp3272
tp3273
a(L1309309703L
L3785322319L
(lp3274
(lp3275
Vesp_rom_spiflash_write
p3276
atp3277
a(L3782958983L
L0L
(lp3278
(lp3279
tp3280
a(L735741265L
L0L
(lp3281
(lp3282
tp3283
atp3284
sI1074268904
(Vbootloader_init_mem
p3285
(lp3286
(L1287383080L
L3785322319L
(lp3287
(lp3288
Vesp_cpu_configure_region_protection
p3289
atp3290
atp3291
sI1074269416
(Vbootloader_clear_bss_section
p3292
(lp3293
(L1126806563L
L0L
(lp3294
(lp3295
tp3296
atp3297
sI1074237668
(Vbootloader_flash_read
p3298
(lp3299
(L728393898L
L0L
(lp3300
(lp3301
tp3302
a(L1489400095L
L3785322319L
(lp3303
(lp3304
Vesp_log_early_timestamp
p3305
atp3306
a(L1941789336L
L0L
(lp3307
(lp3308
tp3309
a(L3360570486L
L0L
(lp3310
(lp3311
tp3312
a(L2660352519L
L0L
(lp3313
(lp3314
tp3315
a(L1179571938L
L3785322319L
(lp3316
(lp3317
Vesp_log_early_timestamp
p3318
atp3319
a(L162336582L
L0L
(lp3320
(lp3321
tp3322
a(L814874711L
L3785322319L
(lp3323
(lp3324
Vesp_log_early_timestamp
p3325
atp3326
a(L3020204L
L0L
(lp3327
(lp3328
tp3329
a(L3893043951L
L0L
(lp3330
(lp3331
tp3332
a(L97422L
L0L
(lp3333
(lp3334
tp3335
a(L1190291857L
L0L
(lp3336
(lp3337
tp3338
a(L2961856275L
L0L
(lp3339
(lp3340
tp3341
a(L2859434406L
L3785322319L
(lp3342
(lp3343
V__assert_func
p3344
atp3345
a(L1539897528L
L0L
(lp3346
(lp3347
tp3348
a(L1915165223L
L0L
(lp3349
(lp3350
tp3351
a(L1336007148L
L1880226080L
(lp3352
(lp3353
Vesp_rom_spiflash_read
p3354
aVspi_to_esp_err
p3355
atp3356
atp3357
sI1074240740
(Vabort
p3358
(lp3359
(L2528557290L
L0L
(lp3360
(lp3361
tp3362
a(L409471316L
L0L
(lp3363
(lp3364
tp3365
a(L106L
L0L
(lp3366
(lp3367
tp3368
atp3369
sI1074236896
(Vesp_log_early_timestamp
p3370
(lp3371
(L3733265409L
L0L
(lp3372
(lp3373
tp3374
atp3375
sI1074237920
(Vbootloader_flash_erase_sector
p3376
(lp3377
(L4129137686L
L1880226080L
(lp3378
(lp3379
Vesp_rom_spiflash_erase_sector
p3380
aVspi_to_esp_err
p3381
atp3382
atp3383
sI1074238188
(Vbootloader_random_disable
p3384
(lp3385
(L2825582328L
L0L
(lp3386
(lp3387
tp3388
atp3389
sI1074238700
(Vcache_ll_l1_get_bus
p3390
(lp3391
(L4282787682L
L0L
(lp3392
(lp3393
tp3394
a(L94425498L
L3785322319L
(lp3395
(lp3396
Vabort
p3397
atp3398
a(L435078012L
L0L
(lp3399
(lp3400
tp3401
a(L1355180903L
L0L
(lp3402
(lp3403
tp3404
a(L892952750L
L0L
(lp3405
(lp3406
tp3407
a(L1182811810L
L0L
(lp3408
(lp3409
tp3410
a(L1101742417L
L0L
(lp3411
(lp3412
tp3413
a(L1100767927L
L0L
(lp3414
(lp3415
tp3416
a(L3360570486L
L0L
(lp3417
(lp3418
tp3419
a(L420296406L
L0L
(lp3420
(lp3421
tp3422
a(L892952750L
L0L
(lp3423
(lp3424
tp3425
a(L1182811810L
L0L
(lp3426
(lp3427
tp3428
a(L2053750565L
L0L
(lp3429
(lp3430
tp3431
a(L2258867228L
L0L
(lp3432
(lp3433
tp3434
a(L4202138570L
L0L
(lp3435
(lp3436
tp3437
a(L3211405977L
L0L
(lp3438
(lp3439
tp3440
a(L2795746388L
L0L
(lp3441
(lp3442
tp3443
a(L1641149277L
L0L
(lp3444
(lp3445
tp3446
a(L445231473L
L0L
(lp3447
(lp3448
tp3449
a(L899412127L
L0L
(lp3450
(lp3451
tp3452
a(L106L
L0L
(lp3453
(lp3454
tp3455
a(L1299866436L
L0L
(lp3456
(lp3457
tp3458
atp3459
sI1074239980
(Vbootloader_reset
p3460
(lp3461
(L2851712836L
L3785322319L
(lp3462
(lp3463
Vbootloader_console_deinit
p3464
atp3465
a(L106L
L0L
(lp3466
(lp3467
tp3468
atp3469
sI1074243052
(Vbootloader_load_image
p3470
(lp3471
(L1155870502L
L3785322319L
(lp3472
(lp3473
Vimage_load
p3474
atp3475
atp3476
sI1074247404
(Vesp_rom_spiflash_program_page_internal
p3477
(lp3478
(L2569069283L
L0L
(lp3479
(lp3480
tp3481
a(L2258688483L
L0L
(lp3482
(lp3483
tp3484
a(L3360570486L
L0L
(lp3485
(lp3486
tp3487
a(L2829044961L
L0L
(lp3488
(lp3489
tp3490
a(L4235661475L
L3785322319L
(lp3491
(lp3492
Vesp_rom_spiflash_wait_idle
p3493
atp3494
a(L1299866312L
L0L
(lp3495
(lp3496
tp3497
a(L3212356251L
L3785322319L
(lp3498
(lp3499
Vesp_rom_spiflash_enable_write
p3500
atp3501
a(L2699279454L
L0L
(lp3502
(lp3503
tp3504
a(L1660321380L
L0L
(lp3505
(lp3506
tp3507
a(L2953702749L
L0L
(lp3508
(lp3509
tp3510
a(L2989032L
L0L
(lp3511
(lp3512
tp3513
a(L1965622133L
L0L
(lp3514
(lp3515
tp3516
a(L1468673061L
L0L
(lp3517
(lp3518
tp3519
a(L1958113242L
L0L
(lp3520
(lp3521
tp3522
a(L106L
L0L
(lp3523
(lp3524
tp3525
a(L3112950080L
L0L
(lp3526
(lp3527
tp3528
a(L1868606439L
L0L
(lp3529
(lp3530
tp3531
a(L1008983191L
L0L
(lp3532
(lp3533
tp3534
a(L1933954923L
L0L
(lp3535
(lp3536
tp3537
a(L1147866918L
L0L
(lp3538
(lp3539
tp3540
a(L3871602522L
L0L
(lp3541
(lp3542
tp3543
atp3544
sI1074270692
(Vmpu_hal_set_region_access
p3545
(lp3546
(L3538356822L
L0L
(lp3547
(lp3548
tp3549
a(L93674324L
L0L
(lp3550
(lp3551
tp3552
a(L2910371777L
L0L
(lp3553
(lp3554
tp3555
a(L3472092938L
L0L
(lp3556
(lp3557
tp3558
a(L3020187L
L0L
(lp3559
(lp3560
tp3561
a(L3360570486L
L0L
(lp3562
(lp3563
tp3564
a(L2258718273L
L0L
(lp3565
(lp3566
tp3567
a(L3446648619L
L0L
(lp3568
(lp3569
tp3570
a(L3739532189L
L0L
(lp3571
(lp3572
tp3573
a(L1300789895L
L0L
(lp3574
(lp3575
tp3576
atp3577
sI1074237940
(Vbootloader_flash_write
p3578
(lp3579
(L3770380603L
L0L
(lp3580
(lp3581
tp3582
a(L2615366646L
L3785322319L
(lp3583
(lp3584
Vesp_log_early_timestamp
p3585
atp3586
a(L3833270346L
L0L
(lp3587
(lp3588
tp3589
a(L1610445075L
L0L
(lp3590
(lp3591
tp3592
a(L735741265L
L0L
(lp3593
(lp3594
tp3595
a(L3291333414L
L0L
(lp3596
(lp3597
tp3598
a(L1873007406L
L3785322319L
(lp3599
(lp3600
Vesp_log_early_timestamp
p3601
atp3602
a(L3283691850L
L0L
(lp3603
(lp3604
tp3605
a(L2141475974L
L3785322319L
(lp3606
(lp3607
Vesp_log_early_timestamp
p3608
atp3609
a(L3212356251L
L3785322319L
(lp3610
(lp3611
Vbootloader_flash_unlock
p3612
atp3613
a(L1799218633L
L0L
(lp3614
(lp3615
tp3616
a(L94425498L
L3785322319L
(lp3617
(lp3618
Vesp_rom_spiflash_write_encrypted
p3619
atp3620
a(L2927190544L
L3785322319L
(lp3621
(lp3622
Vspi_to_esp_err
p3623
atp3624
a(L2927190544L
L3785322319L
(lp3625
(lp3626
Vesp_rom_spiflash_write
p3627
atp3628
atp3629
sI1074270460
(Vrtc_vddsdio_get_config
p3630
(lp3631
(L757622979L
L0L
(lp3632
(lp3633
tp3634
a(L3421108135L
L0L
(lp3635
(lp3636
tp3637
a(L3002774692L
L0L
(lp3638
(lp3639
tp3640
a(L1639904407L
L0L
(lp3641
(lp3642
tp3643
a(L3522525940L
L0L
(lp3644
(lp3645
tp3646
a(L110910765L
L0L
(lp3647
(lp3648
tp3649
a(L1306330959L
L0L
(lp3650
(lp3651
tp3652
a(L1694457181L
L0L
(lp3653
(lp3654
tp3655
atp3656
sI1074245104
(Vrtc_clk_8m_enabled
p3657
(lp3658
(L4114170484L
L0L
(lp3659
(lp3660
tp3661
atp3662
sI1074268912
(Vbootloader_random_enable
p3663
(lp3664
(L1057236879L
L0L
(lp3665
(lp3666
tp3667
atp3668
sI1074269680
(Vbootloader_enable_random
p3669
(lp3670
(L3877406719L
L1880226080L
(lp3671
(lp3672
Vesp_log_early_timestamp
p3673
aVbootloader_random_enable
p3674
atp3675
atp3676
sI1074235644
(Vbootloader_flash_xmc_startup
p3677
(lp3678
(L3680458509L
L3785322319L
(lp3679
(lp3680
Vis_xmc_chip_strict
p3681
atp3682
a(L2258688482L
L0L
(lp3683
(lp3684
tp3685
a(L3360570486L
L0L
(lp3686
(lp3687
tp3688
a(L2860324232L
L3785322319L
(lp3689
(lp3690
Vbootloader_flash_read_sfdp
p3691
atp3692
a(L2097895665L
L2567856111L
(lp3693
(lp3694
Vesp_log_early_timestamp
p3695
aVbootloader_execute_flash_command
p3696
aVbootloader_execute_flash_command
p3697
aVbootloader_execute_flash_command
p3698
aVbootloader_execute_flash_command
p3699
aVbootloader_read_flash_id
p3700
aVis_xmc_chip_strict
p3701
atp3702
a(L4062067944L
L3785322319L
(lp3703
(lp3704
Vesp_log_early_timestamp
p3705
atp3706
atp3707
sI1074240252
(Vindex_to_partition
p3708
(lp3709
(L4066096119L
L0L
(lp3710
(lp3711
tp3712
a(L1739185955L
L0L
(lp3713
(lp3714
tp3715
a(L2171552758L
L0L
(lp3716
(lp3717
tp3718
a(L2808906342L
L0L
(lp3719
(lp3720
tp3721
a(L2101481936L
L0L
(lp3722
(lp3723
tp3724
a(L3698927993L
L0L
(lp3725
(lp3726
tp3727
a(L2808826781L
L0L
(lp3728
(lp3729
tp3730
a(L3003398163L
L0L
(lp3731
(lp3732
tp3733
a(L2880709161L
L0L
(lp3734
(lp3735
tp3736
a(L1087646172L
L0L
(lp3737
(lp3738
tp3739
atp3740
sI1074243068
(Vesp_partition_table_verify
p3741
(lp3742
(L4221019429L
L0L
(lp3743
(lp3744
tp3745
a(L3688263406L
L0L
(lp3746
(lp3747
tp3748
a(L4090921686L
L0L
(lp3749
(lp3750
tp3751
a(L2910371777L
L0L
(lp3752
(lp3753
tp3754
a(L2810785767L
L0L
(lp3755
(lp3756
tp3757
a(L3360570486L
L0L
(lp3758
(lp3759
tp3760
a(L3190337587L
L0L
(lp3761
(lp3762
tp3763
a(L2069928857L
L0L
(lp3764
(lp3765
tp3766
a(L3020204L
L0L
(lp3767
(lp3768
tp3769
a(L4240560509L
L3785322319L
(lp3770
(lp3771
Vesp_log_early_timestamp
p3772
atp3773
a(L2526422477L
L3785322319L
(lp3774
(lp3775
Vesp_log_early_timestamp
p3776
atp3777
a(L510839312L
L0L
(lp3778
(lp3779
tp3780
a(L2902417580L
L0L
(lp3781
(lp3782
tp3783
a(L3020204L
L0L
(lp3784
(lp3785
tp3786
a(L2215002226L
L3785322319L
(lp3787
(lp3788
Vesp_log_early_timestamp
p3789
atp3790
a(L2867263840L
L0L
(lp3791
(lp3792
tp3793
a(L3655331517L
L0L
(lp3794
(lp3795
tp3796
a(L2902417580L
L0L
(lp3797
(lp3798
tp3799
a(L4240559796L
L3785322319L
(lp3800
(lp3801
Vesp_log_early_timestamp
p3802
atp3803
a(L1305407469L
L0L
(lp3804
(lp3805
tp3806
a(L1167861556L
L0L
(lp3807
(lp3808
tp3809
a(L3914073261L
L0L
(lp3810
(lp3811
tp3812
a(L2910371777L
L0L
(lp3813
(lp3814
tp3815
a(L1235012932L
L0L
(lp3816
(lp3817
tp3818
a(L4142303994L
L3785322319L
(lp3819
(lp3820
Vesp_log_early_timestamp
p3821
atp3822
atp3823
sI1074240504
(Vbootloader_sha256_finish
p3824
(lp3825
(L4066096136L
L0L
(lp3826
(lp3827
tp3828
a(L3700221434L
L0L
(lp3829
(lp3830
tp3831
a(L3769576247L
L3785322319L
(lp3832
(lp3833
V__assert_func
p3834
atp3835
a(L3020204L
L0L
(lp3836
(lp3837
tp3838
a(L4203940480L
L0L
(lp3839
(lp3840
tp3841
a(L2534656226L
L0L
(lp3842
(lp3843
tp3844
a(L2983921586L
L3785322319L
(lp3845
(lp3846
Vbootloader_sha256_data
p3847
atp3848
a(L1663378153L
L0L
(lp3849
(lp3850
tp3851
a(L4057907435L
L3785322319L
(lp3852
(lp3853
Vbootloader_sha256_data
p3854
atp3855
a(L1708642847L
L0L
(lp3856
(lp3857
tp3858
a(L657425439L
L0L
(lp3859
(lp3860
tp3861
a(L4126561661L
L0L
(lp3862
(lp3863
tp3864
a(L657425439L
L0L
(lp3865
(lp3866
tp3867
a(L1118122324L
L0L
(lp3868
(lp3869
tp3870
a(L1411254304L
L0L
(lp3871
(lp3872
tp3873
a(L3347778L
L0L
(lp3874
(lp3875
tp3876
a(L3360570486L
L0L
(lp3877
(lp3878
tp3879
atp3880
sI1074242552
(Vimage_load
p3881
(lp3882
(L3559420668L
L0L
(lp3883
(lp3884
tp3885
a(L1899869541L
L0L
(lp3886
(lp3887
tp3888
a(L979631281L
L0L
(lp3889
(lp3890
tp3891
a(L1525480527L
L0L
(lp3892
(lp3893
tp3894
a(L1043148059L
L0L
(lp3895
(lp3896
tp3897
a(L2796536461L
L0L
(lp3898
(lp3899
tp3900
a(L1422669697L
L3785322319L
(lp3901
(lp3902
Vesp_log_early_timestamp
p3903
atp3904
a(L2068384292L
L0L
(lp3905
(lp3906
tp3907
a(L1968553470L
L3785322319L
(lp3908
(lp3909
Vbootloader_sha256_finish
p3910
atp3911
a(L2282644308L
L0L
(lp3912
(lp3913
tp3914
a(L3225218531L
L0L
(lp3915
(lp3916
tp3917
a(L3802071166L
L0L
(lp3918
(lp3919
tp3920
a(L1301867039L
L3785322319L
(lp3921
(lp3922
Vprocess_image_header
p3923
atp3924
a(L560228796L
L0L
(lp3925
(lp3926
tp3927
a(L4185758499L
L0L
(lp3928
(lp3929
tp3930
a(L1530940255L
L3785322319L
(lp3931
(lp3932
Vprocess_segments
p3933
atp3934
a(L1233227930L
L0L
(lp3935
(lp3936
tp3937
a(L4139426811L
L0L
(lp3938
(lp3939
tp3940
a(L2570888687L
L3785322319L
(lp3941
(lp3942
Vprocess_checksum
p3943
atp3944
a(L425503098L
L3785322319L
(lp3945
(lp3946
Vprocess_appended_hash_and_sig
p3947
atp3948
a(L780930979L
L0L
(lp3949
(lp3950
tp3951
a(L2334355956L
L0L
(lp3952
(lp3953
tp3954
a(L2215150936L
L0L
(lp3955
(lp3956
tp3957
a(L1128119477L
L1880226080L
(lp3958
(lp3959
Vbootloader_sha256_finish
p3960
aVbootloader_debug_buffer
p3961
atp3962
a(L3378593180L
L1880226080L
(lp3963
(lp3964
Vesp_log_early_timestamp
p3965
aVbootloader_debug_buffer
p3966
atp3967
a(L1087646176L
L0L
(lp3968
(lp3969
tp3970
a(L2068384292L
L0L
(lp3971
(lp3972
tp3973
a(L3021148818L
L3785322319L
(lp3974
(lp3975
Vbootloader_sha256_finish
p3976
atp3977
a(L3028481L
L0L
(lp3978
(lp3979
tp3980
a(L139701033L
L0L
(lp3981
(lp3982
tp3983
a(L2510919588L
L0L
(lp3984
(lp3985
tp3986
a(L772115669L
L0L
(lp3987
(lp3988
tp3989
a(L2787789065L
L0L
(lp3990
(lp3991
tp3992
a(L85798113L
L0L
(lp3993
(lp3994
tp3995
a(L1351513776L
L0L
(lp3996
(lp3997
tp3998
a(L159346313L
L3785322319L
(lp3999
(lp4000
Vshould_load
p4001
atp4002
a(L4218574503L
L0L
(lp4003
(lp4004
tp4005
a(L3338774213L
L0L
(lp4006
(lp4007
tp4008
a(L3464541874L
L0L
(lp4009
(lp4010
tp4011
a(L3349572949L
L0L
(lp4012
(lp4013
tp4014
a(L2192292519L
L0L
(lp4015
(lp4016
tp4017
a(L106L
L0L
(lp4018
(lp4019
tp4020
a(L26615924L
L0L
(lp4021
(lp4022
tp4023
a(L1299866312L
L0L
(lp4024
(lp4025
tp4026
a(L490060329L
L0L
(lp4027
(lp4028
tp4029
atp4030
sI1074244856
(Vrtc_clk_bbpll_disable
p4031
(lp4032
(L545288955L
L0L
(lp4033
(lp4034
tp4035
a(L2472207241L
L0L
(lp4036
(lp4037
tp4038
a(L3360570486L
L0L
(lp4039
(lp4040
tp4041
atp4042
ssS'functionsdups'
p4043
g11
((lp4044
tp4045
Rp4046
sS'immediatedups'
p4047
g11
((lp4048
tp4049
Rp4050
sS'functiondups'
p4051
g11
((lp4052
tp4053
Rp4054
sS'fuzzy'
p4055
(dp4056
L438947497L
I1074245152
sL2170867428L
I1074270024
sL617583950L
I1074236984
sL430153639L
I1074235912
sL3121027072L
I1074270460
sL2082889262L
I1074241612
sL291131346L
I1074244700
sL835568324L
I1074246580
sL2919016435L
I1074235252
sL16208487L
I1074234740
sL2319042089L
I1074245284
sL3881399234L
I1074245736
sL151789201L
I1074269840
sL2680783959L
I1074235644
sL3512578114L
I1074238600
sL1419132215L
I1074238108
sL2469233929L
I1074240504
sL701833459L
I1074268672
sL3897252859L
I1074238516
sL1065525808L
I1074236824
sL2327783177L
I1074240796
sL1604071461L
I1074238824
sL1164839255L
I1074241832
sL2272466760L
I1074245524
sL2117292686L
I1074241216
sL2329673444L
I1074267784
sL2044047637L
I1074239304
sL1188065553L
I1074237668
sL94556391L
I1074245312
sL3210669721L
I1074244916
sL1332800441L
I1074237216
sL1345429244L
I1074240968
sL3190020590L
I1074242552
sL2828970830L
I1074239184
sL4160102055L
I1074239980
sL4202185385L
I1074247296
sL1768086576L
I1074236380
sL4171975289L
I1074247596
sL1565254297L
I1074247896
sL1205407754L
I1074240012
sL2191698036L
I1074269552
sL1513350244L
I1074239668
sL1635528231L
I1074243952
sL519424169L
I1074247048
sL1060788199L
I1074245432
sL406720601L
I1074238700
sL737694352L
I1074247404
sL503029138L
I1074247344
sL1616763831L
I1074247984
sL2262558768L
I1074247208
sL424867129L
I1074247732
sL3834155367L
I1074241160
sL2405032630L
I1074267676
sL3338518926L
I1074237392
sL2123938668L
I1074245852
sL3883282432L
I1074241704
sL4173399607L
I1074243068
sL1667054119L
I1074240348
sL206902443L
I1074237940
ssb.