ccopy_reg
_reconstructor
p0
(crizzo
RizzoSignature
p1
c__builtin__
object
p2
Ntp3
Rp4
(dp5
S'formal'
p6
(dp7
L4293844463L
I1074236948
sL2005196428L
I1074245304
sL1741170115L
I1074238052
sL2087186284L
I1074236304
sL3129017229L
I1074269456
sL3058924610L
I1074236904
sL3984280162L
I1074244284
sL2628804010L
I1074270476
sL4213015302L
I1074243056
sL461860251L
I1074247092
sL286550283L
I1074269620
sL552298442L
I1074235188
sL3976424482L
I1074234620
sL2767810776L
I1074238072
sL2771134728L
I1074240080
sL2702580795L
I1074237428
sL2610420647L
I1074269484
sL2896295319L
I1074236792
sL25479346L
I1074240560
sL3442495501L
I1074239528
sL1331791455L
I1074245396
sL1674148343L
I1074245452
sL1786019146L
I1074247460
sL4023292303L
I1074237504
sL3256726111L
I1074247788
sL2485902447L
I1074236632
sL723138898L
I1074238232
sL424336643L
I1074269388
sL366218909L
I1074269656
sL368505532L
I1074245728
sL848906711L
I1074247952
sL353716291L
I1074244484
sL1585823442L
I1074244384
sL1622896354L
I1074244412
sL2803618626L
I1074239740
sL3384899485L
I1074241952
sL2521269785L
I1074236872
sL2189223198L
I1074240320
sL3580313603L
I1074241824
sL2493713350L
I1074245160
sL2930276314L
I1074235724
sL3007247178L
I1074238896
sL4161584248L
I1074268464
sL4175577751L
I1074244532
sL2723725103L
I1074240756
sL1633709340L
I1074245136
sL2813809866L
I1074236656
sL2366387314L
I1074270324
sL1330922710L
I1074246596
sL2612952636L
I1074267616
sL1731035566L
I1074236468
sL244922653L
I1074242572
sL2691843063L
I1074245756
sL3307282855L
I1074238212
sL127813144L
I1074243356
sL2834351222L
I1074244704
sL3065846068L
I1074235488
sL2195669076L
I1074245112
sL357647324L
I1074268760
sL3361686224L
I1074268520
sL3721992006L
I1074240772
sL1662035087L
I1074267728
sL4038945309L
I1074235540
sL3041505513L
I1074237536
sL1435968304L
I1074244568
sL4178015136L
I1074247260
sL1992104215L
I1074236764
sL1112935418L
I1074234664
sL4020657674L
I1074245868
sL2931540503L
I1074247404
sL1382567621L
I1074238288
sL105563623L
I1074240392
sL552142918L
I1074239412
sL2997001746L
I1074237268
sL720504384L
I1074237328
sL59949349L
I1074241020
sL76756778L
I1074240852
sL2819127986L
I1074236992
sL3195929028L
I1074240056
sL3024810484L
I1074269880
sL1481764497L
I1074236972
sL1877634603L
I1074270556
sL2687718384L
I1074243088
sL2789355142L
I1074243968
sL1098683832L
I1074244924
sL3015462521L
I1074238696
sL3066643969L
I1074247060
sL935372552L
I1074267952
sL3465867870L
I1074240000
sL886840080L
I1074237028
sL2062758462L
I1074236696
sL1347401601L
I1074240412
sL2248158928L
I1074238368
sL660825523L
I1074244984
sL3362774716L
I1074236552
sL3338519854L
I1074245684
sL1347623814L
I1074237344
sL2195659785L
I1074245332
sL540472814L
I1074247652
sL2263182908L
I1074238280
sL965583188L
I1074245544
sL114336524L
I1074269412
sL282668036L
I1074244316
sL963291061L
I1074248040
sL3630163135L
I1074236780
sL188664287L
I1074235156
sL2743385701L
I1074269248
sL2404540336L
I1074245276
sL2485146564L
I1074240796
sL692536993L
I1074237400
sL3284292650L
I1074237308
sL822000404L
I1074245412
sL921639684L
I1074235836
sL235684320L
I1074237796
sL3364903294L
I1074247356
sL675504051L
I1074236452
sL1817360290L
I1074241264
sL1621098576L
I1074243072
sL917018201L
I1074236864
sL237904351L
I1074241208
sL3759578855L
I1074269264
sL2805511626L
I1074239032
sL2758712477L
I1074241736
sL309068699L
I1074244864
sL1140246287L
I1074246552
sL3137236L
I1074235588
sL2570362575L
I1074238780
sL3958998789L
I1074237744
sL4029637072L
I1074269704
ssS'immediates'
p8
(dp9
sS'formaldups'
p10
c__builtin__
set
p11
((lp12
tp13
Rp14
sS'stringdups'
p15
g11
((lp16
tp17
Rp18
sS'fuzzydups'
p19
g11
((lp20
tp21
Rp22
sS'strings'
p23
(dp24
sS'functions'
p25
(dp26
I1074269704
(Vrtc_clk_xtal_freq_estimate
p27
(lp28
(L1823831978L
L1880226080L
(lp29
(lp30
Vrtc_clk_8m_enabled
p31
aVrtc_clk_8md256_enabled
p32
atp33
a(L2449794434L
L3785322319L
(lp34
(lp35
Vrtc_clk_8m_enable
p36
atp37
a(L3726876033L
L2704288053L
(lp38
(lp39
Vrtc_clk_cal_ratio
p40
aV__udivdi3
p41
atp42
a(L3934977694L
L0L
(lp43
(lp44
tp45
a(L3955289886L
L0L
(lp46
(lp47
tp48
a(L2553207239L
L3187408090L
(lp49
(lp50
Vesp_log_early_timestamp
p51
atp52
a(L2307427870L
L0L
(lp53
(lp54
tp55
a(L1281346514L
L3785322319L
(lp56
(lp57
Vrtc_clk_8m_enable
p58
atp59
a(L3909119106L
L0L
(lp60
(lp61
tp62
a(L2298857999L
L3187408090L
(lp63
(lp64
Vesp_log_early_timestamp
p65
atp66
a(L3304487880L
L0L
(lp67
(lp68
tp69
a(L1641150486L
L0L
(lp70
(lp71
tp72
a(L2026357443L
L3187408090L
(lp73
(lp74
Vesp_log_early_timestamp
p75
atp76
atp77
sI1074240772
(V__assert_func
p78
(lp79
(L3115292802L
L2195759072L
(lp80
(lp81
tp82
a(L106L
L0L
(lp83
(lp84
tp85
atp86
sI1074238980
(Vcache_ll_l1_enable_bus
p87
(lp88
(L318252209L
L1443213481L
(lp89
(lp90
tp91
atp92
sI1074238212
(Vbootloader_enable_wp
p93
(lp94
(L1117825804L
L3785322319L
(lp95
(lp96
Vbootloader_execute_flash_command
p97
atp98
atp99
sI1074270476
(Vrtc_vddsdio_set_config
p100
(lp101
(L3557742407L
L1443213481L
(lp102
(lp103
tp104
atp105
sI1074243072
(Vbootloader_load_image_no_verify
p106
(lp107
(L3412781509L
L3785322319L
(lp108
(lp109
Vimage_load
p110
atp111
atp112
sI1074240000
(Vbootloader_utility_load_boot_image_from_deep_sleep
p113
(lp114
(L1370794446L
L1443213481L
(lp115
(lp116
tp117
a(L3212347974L
L3785322319L
(lp118
(lp119
Vbootloader_common_get_rtc_retain_mem_partition
p120
atp121
a(L392176478L
L3785322319L
(lp122
(lp123
Vbootloader_load_image_no_verify
p124
atp125
a(L4017103105L
L1880226080L
(lp126
(lp127
Vbootloader_common_update_rtc_retain_mem
p128
aVload_image
p129
atp130
a(L1898350695L
L3187408090L
(lp131
(lp132
Vesp_log_early_timestamp
p133
atp134
a(L3360570486L
L0L
(lp135
(lp136
tp137
atp138
sI1074244864
(Vrtc_clk_bbpll_disable
p139
(lp140
(L3512291683L
L1690040256L
(lp141
(lp142
tp143
a(L2472207241L
L0L
(lp144
(lp145
tp146
a(L3360570486L
L0L
(lp147
(lp148
tp149
atp150
sI1074267136
(V_init
p151
(lp152
(L3493042598L
L0L
(lp153
(lp154
tp155
atp156
sI1074242572
(Vimage_load
p157
(lp158
(L3048705773L
L0L
(lp159
(lp160
tp161
a(L3463713141L
L0L
(lp162
(lp163
tp164
a(L3309803581L
L0L
(lp165
(lp166
tp167
a(L256049682L
L0L
(lp168
(lp169
tp170
a(L1935188817L
L0L
(lp171
(lp172
tp173
a(L3028481L
L0L
(lp174
(lp175
tp176
a(L3021749L
L0L
(lp177
(lp178
tp179
a(L106L
L0L
(lp180
(lp181
tp182
a(L585264737L
L0L
(lp183
(lp184
tp185
a(L1145291904L
L3785322319L
(lp186
(lp187
Vprocess_image_header
p188
atp189
a(L823859500L
L0L
(lp190
(lp191
tp192
a(L3061291474L
L0L
(lp193
(lp194
tp195
a(L4106474008L
L3785322319L
(lp196
(lp197
Vprocess_segments
p198
atp199
a(L3868840998L
L0L
(lp200
(lp201
tp202
a(L2962085561L
L1443213481L
(lp203
(lp204
tp205
a(L1827898452L
L3785322319L
(lp206
(lp207
Vprocess_checksum
p208
atp209
a(L2214715179L
L3785322319L
(lp210
(lp211
Vprocess_appended_hash_and_sig
p212
atp213
a(L3028481L
L0L
(lp214
(lp215
tp216
a(L2902417580L
L0L
(lp217
(lp218
tp219
a(L3285560995L
L3785322319L
(lp220
(lp221
Vbootloader_sha256_finish
p222
atp223
a(L3946560000L
L0L
(lp224
(lp225
tp226
a(L93674324L
L0L
(lp227
(lp228
tp229
a(L2674734805L
L2195759072L
(lp230
(lp231
tp232
a(L1168805591L
L1443213481L
(lp233
(lp234
tp235
a(L1179424413L
L0L
(lp236
(lp237
tp238
a(L3928150917L
L0L
(lp239
(lp240
tp241
a(L106L
L0L
(lp242
(lp243
tp244
a(L3871473710L
L0L
(lp245
(lp246
tp247
a(L3884726427L
L0L
(lp248
(lp249
tp250
a(L106L
L0L
(lp251
(lp252
tp253
a(L3020187L
L0L
(lp254
(lp255
tp256
a(L1337906930L
L3187408090L
(lp257
(lp258
Vesp_log_early_timestamp
p259
atp260
a(L2868044067L
L0L
(lp261
(lp262
tp263
a(L1179764900L
L0L
(lp264
(lp265
tp266
a(L2332746046L
L3785322319L
(lp267
(lp268
Vbootloader_sha256_finish
p269
atp270
a(L3721568057L
L242900614L
(lp271
(lp272
Vmemset
p273
atp274
a(L3020204L
L0L
(lp275
(lp276
tp277
a(L3039742375L
L1443213481L
(lp278
(lp279
tp280
a(L106L
L0L
(lp281
(lp282
tp283
a(L3307179591L
L2839326997L
(lp284
(lp285
Vmemset
p286
aVbootloader_sha256_finish
p287
aVbootloader_debug_buffer
p288
aVmemcmp
p289
atp290
a(L3433271982L
L2266857161L
(lp291
(lp292
Vesp_log_early_timestamp
p293
aVbootloader_debug_buffer
p294
atp295
a(L3741653406L
L3785322319L
(lp296
(lp297
Vshould_load
p298
atp299
a(L2764257181L
L0L
(lp300
(lp301
tp302
a(L3338774213L
L0L
(lp303
(lp304
tp305
a(L193456747L
L1443213481L
(lp306
(lp307
tp308
a(L3349572949L
L0L
(lp309
(lp310
tp311
a(L2192292519L
L0L
(lp312
(lp313
tp314
a(L106L
L0L
(lp315
(lp316
tp317
a(L1702191967L
L1443213481L
(lp318
(lp319
tp320
a(L1299866312L
L0L
(lp321
(lp322
tp323
a(L3010020263L
L0L
(lp324
(lp325
tp326
atp327
sI1074235156
(Vbootloader_execute_flash_command
p328
(lp329
(L2481595632L
L3785322319L
(lp330
(lp331
Vbootloader_flash_execute_command_common
p332
atp333
atp334
sI1074236948
(Vupdate_rtc_retain_mem_crc
p335
(lp336
(L1614145834L
L2195759072L
(lp337
(lp338
tp339
atp340
sI1074245396
(Vrtc_clk_fast_src_get
p341
(lp342
(L2217920473L
L1443213481L
(lp343
(lp344
tp345
atp346
sI1074243088
(Vesp_partition_table_verify
p347
(lp348
(L44179228L
L1443213481L
(lp349
(lp350
tp351
a(L3031150553L
L1443213481L
(lp352
(lp353
tp354
a(L1184829782L
L0L
(lp355
(lp356
tp357
a(L3020204L
L0L
(lp358
(lp359
tp360
a(L26389654L
L3187408090L
(lp361
(lp362
Vesp_log_early_timestamp
p363
atp364
a(L1235012963L
L0L
(lp365
(lp366
tp367
a(L3190337587L
L0L
(lp368
(lp369
tp370
a(L2069928857L
L0L
(lp371
(lp372
tp373
a(L2902417580L
L0L
(lp374
(lp375
tp376
a(L2543114737L
L2147981551L
(lp377
(lp378
Vesp_log_early_timestamp
p379
atp380
a(L1715222413L
L1443213481L
(lp381
(lp382
tp383
a(L3020204L
L0L
(lp384
(lp385
tp386
a(L3020204L
L0L
(lp387
(lp388
tp389
a(L1328961945L
L2147981551L
(lp390
(lp391
Vesp_log_early_timestamp
p392
atp393
a(L4207910112L
L1443213481L
(lp394
(lp395
tp396
a(L1235012932L
L0L
(lp397
(lp398
tp399
a(L458256366L
L4021370767L
(lp400
(lp401
Vmemcmp
p402
atp403
a(L3020204L
L0L
(lp404
(lp405
tp406
a(L2543114737L
L2147981551L
(lp407
(lp408
Vesp_log_early_timestamp
p409
atp410
a(L1305407469L
L0L
(lp411
(lp412
tp413
a(L1167861556L
L0L
(lp414
(lp415
tp416
a(L818997085L
L0L
(lp417
(lp418
tp419
a(L3360570486L
L0L
(lp420
(lp421
tp422
a(L3020204L
L0L
(lp423
(lp424
tp425
a(L3999534504L
L3187408090L
(lp426
(lp427
Vesp_log_early_timestamp
p428
atp429
atp430
sI1074245136
(Vrtc_clk_8md256_enabled
p431
(lp432
(L4014027530L
L1443213481L
(lp433
(lp434
tp435
atp436
sI1074247952
(Vesp_rom_spiflash_write_encrypted
p437
(lp438
(L1944247967L
L0L
(lp439
(lp440
tp441
a(L3825342292L
L1443213481L
(lp442
(lp443
tp444
a(L97689L
L0L
(lp445
(lp446
tp447
a(L3061232074L
L0L
(lp448
(lp449
tp450
a(L1562911102L
L1443213481L
(lp451
(lp452
tp453
a(L1309309703L
L3785322319L
(lp454
(lp455
Vesp_rom_spiflash_write
p456
atp457
a(L2269233063L
L1443213481L
(lp458
(lp459
tp460
a(L735741265L
L0L
(lp461
(lp462
tp463
atp464
sI1074269456
(Vbootloader_check_bootloader_validity
p465
(lp466
(L1235570239L
L195123093L
(lp467
(lp468
Vefuse_hal_chip_revision
p469
aVbootloader_common_check_chip_validity
p470
atp471
atp472
sI1074243356
(Vwdt_hal_init
p473
(lp474
(L1845705415L
L242900614L
(lp475
(lp476
Vmemset
p477
atp478
a(L106L
L0L
(lp479
(lp480
tp481
a(L147213506L
L1443213481L
(lp482
(lp483
tp484
a(L3076988543L
L0L
(lp485
(lp486
tp487
a(L746843176L
L3294285696L
(lp488
(lp489
tp490
a(L3028464L
L0L
(lp491
(lp492
tp493
a(L268651496L
L1443213481L
(lp494
(lp495
tp496
a(L213928354L
L1443213481L
(lp497
(lp498
tp499
a(L1646580088L
L3294285696L
(lp500
(lp501
tp502
a(L3360570486L
L0L
(lp503
(lp504
tp505
atp506
sI1074240796
(Vabort
p507
(lp508
(L2564459292L
L1690040256L
(lp509
(lp510
tp511
a(L409471316L
L0L
(lp512
(lp513
tp514
a(L106L
L0L
(lp515
(lp516
tp517
atp518
sI1074234652
(Vesp_flash_encryption_enabled
p519
(lp520
(L376617603L
L3785322319L
(lp521
(lp522
Vefuse_hal_flash_encryption_enabled
p523
atp524
atp525
sI1074236696
(Vefuse_hal_get_major_chip_version
p526
(lp527
(L1572156932L
L2195759072L
(lp528
(lp529
tp530
a(L894792960L
L0L
(lp531
(lp532
tp533
a(L724635033L
L0L
(lp534
(lp535
tp536
a(L3360570486L
L0L
(lp537
(lp538
tp539
atp540
sI1074238232
(Vbootloader_flash_get_spi_mode
p541
(lp542
(L1418320346L
L1443213481L
(lp543
(lp544
tp545
a(L2046153171L
L0L
(lp546
(lp547
tp548
a(L893866618L
L0L
(lp549
(lp550
tp551
a(L894790139L
L0L
(lp552
(lp553
tp554
a(L822032846L
L0L
(lp555
(lp556
tp557
a(L3360570486L
L0L
(lp558
(lp559
tp560
atp561
sI1074236452
(Vesp_rom_set_cpu_ticks_per_us
p562
(lp563
(L396058732L
L2195759072L
(lp564
(lp565
tp566
atp567
sI1074245412
(Vrtc_clk_xtal_freq_get
p568
(lp569
(L3313072792L
L1443213481L
(lp570
(lp571
tp572
a(L2847936993L
L0L
(lp573
(lp574
tp575
a(L2252934062L
L1443213481L
(lp576
(lp577
tp578
a(L3360570486L
L0L
(lp579
(lp580
tp581
atp582
sI1074247460
(Vesp_rom_spiflash_program_page_internal
p583
(lp584
(L2569069283L
L0L
(lp585
(lp586
tp587
a(L2258688483L
L0L
(lp588
(lp589
tp590
a(L3360570486L
L0L
(lp591
(lp592
tp593
a(L2295540031L
L1443213481L
(lp594
(lp595
tp596
a(L4235661475L
L3785322319L
(lp597
(lp598
Vesp_rom_spiflash_wait_idle
p599
atp600
a(L1299866312L
L0L
(lp601
(lp602
tp603
a(L3212356251L
L3785322319L
(lp604
(lp605
Vesp_rom_spiflash_enable_write
p606
atp607
a(L1834262847L
L2195759072L
(lp608
(lp609
tp610
a(L633937013L
L1443213481L
(lp611
(lp612
tp613
a(L2953702749L
L0L
(lp614
(lp615
tp616
a(L2989032L
L0L
(lp617
(lp618
tp619
a(L1965622133L
L0L
(lp620
(lp621
tp622
a(L809386272L
L2195759072L
(lp623
(lp624
tp625
a(L1958113242L
L0L
(lp626
(lp627
tp628
a(L106L
L0L
(lp629
(lp630
tp631
a(L3112950080L
L0L
(lp632
(lp633
tp634
a(L1868606439L
L0L
(lp635
(lp636
tp637
a(L147213506L
L1443213481L
(lp638
(lp639
tp640
a(L1933954923L
L0L
(lp641
(lp642
tp643
a(L1147866918L
L0L
(lp644
(lp645
tp646
a(L3871602522L
L0L
(lp647
(lp648
tp649
atp650
sI1074269484
(Vbootloader_config_wdt
p651
(lp652
(L3447475412L
L603716358L
(lp653
(lp654
Vwdt_hal_write_protect_disable
p655
aVwdt_hal_set_flashboot_en
p656
aVwdt_hal_write_protect_enable
p657
aVwdt_hal_init
p658
aVrtc_clk_slow_freq_get_hz
p659
aVwdt_hal_write_protect_disable
p660
aV__udivdi3
p661
aVwdt_hal_config_stage
p662
aVwdt_hal_enable
p663
aVwdt_hal_write_protect_enable
p664
aVwdt_hal_write_protect_disable
p665
aVwdt_hal_set_flashboot_en
p666
aVwdt_hal_write_protect_enable
p667
atp668
atp669
sI1074241824
(Vshould_load
p670
(lp671
(L4190720747L
L2534110409L
(lp672
(lp673
tp674
a(L1182990556L
L0L
(lp675
(lp676
tp677
a(L1744532171L
L1443213481L
(lp678
(lp679
tp680
a(L2306467100L
L0L
(lp681
(lp682
tp683
a(L4034276159L
L1443213481L
(lp684
(lp685
tp686
a(L2258897019L
L0L
(lp687
(lp688
tp689
a(L3781799363L
L0L
(lp690
(lp691
tp692
a(L3028464L
L0L
(lp693
(lp694
tp695
a(L166133047L
L2195759072L
(lp696
(lp697
tp698
a(L4277114872L
L0L
(lp699
(lp700
tp701
a(L2824381917L
L0L
(lp702
(lp703
tp704
a(L1243412227L
L0L
(lp705
(lp706
tp707
a(L2011157548L
L0L
(lp708
(lp709
tp710
a(L3126521138L
L0L
(lp711
(lp712
tp713
a(L1305407438L
L0L
(lp714
(lp715
tp716
a(L1305407469L
L0L
(lp717
(lp718
tp719
atp720
sI1074244384
(Vwdt_hal_write_protect_enable
p721
(lp722
(L387778158L
L0L
(lp723
(lp724
tp725
a(L4195472003L
L0L
(lp726
(lp727
tp728
a(L3360570486L
L0L
(lp729
(lp730
tp731
a(L802523425L
L0L
(lp732
(lp733
tp734
atp735
sI1074236972
(Vbootloader_common_ota_select_crc
p736
(lp737
(L2925798959L
L1443213481L
(lp738
(lp739
tp740
atp741
sI1074234664
(Vbootloader_flash_execute_command_common
p742
(lp743
(L1988465817L
L0L
(lp744
(lp745
tp746
a(L2946944720L
L2195759072L
(lp747
(lp748
tp749
a(L2213948952L
L242900614L
(lp750
(lp751
V__assert_func
p752
atp753
a(L3021749L
L0L
(lp754
(lp755
tp756
a(L1160973241L
L2195759072L
(lp757
(lp758
tp759
a(L2792673601L
L1679261929L
(lp760
(lp761
tp762
a(L3792188146L
L0L
(lp763
(lp764
tp765
a(L4024113366L
L0L
(lp766
(lp767
tp768
a(L3275299125L
L1443213481L
(lp769
(lp770
tp771
a(L2232084959L
L2534110409L
(lp772
(lp773
tp774
a(L1099389923L
L0L
(lp775
(lp776
tp777
a(L857553440L
L2195759072L
(lp778
(lp779
tp780
a(L3877681344L
L0L
(lp781
(lp782
tp783
a(L73134175L
L1443213481L
(lp784
(lp785
tp786
a(L1270255739L
L0L
(lp787
(lp788
tp789
a(L3691039583L
L0L
(lp790
(lp791
tp792
a(L3411317116L
L0L
(lp793
(lp794
tp795
a(L3360570486L
L0L
(lp796
(lp797
tp798
atp799
sI1074239528
(Vbootloader_utility_load_partition_table
p800
(lp801
(L3128219304L
L3785322319L
(lp802
(lp803
Vbootloader_mmap
p804
atp805
a(L600602913L
L3187408090L
(lp806
(lp807
Vesp_log_early_timestamp
p808
atp809
a(L2258688482L
L0L
(lp810
(lp811
tp812
a(L3360570486L
L0L
(lp813
(lp814
tp815
a(L255479872L
L3785322319L
(lp816
(lp817
Vesp_partition_table_verify
p818
atp819
a(L3613202002L
L0L
(lp820
(lp821
tp822
a(L97642L
L0L
(lp823
(lp824
tp825
a(L4248828323L
L3785322319L
(lp826
(lp827
Vbootloader_munmap
p828
atp829
a(L3014296803L
L3187408090L
(lp830
(lp831
Vesp_log_early_timestamp
p832
atp833
a(L3927622121L
L0L
(lp834
(lp835
tp836
a(L3020187L
L0L
(lp837
(lp838
tp839
a(L1532853611L
L0L
(lp840
(lp841
tp842
a(L1036489382L
L0L
(lp843
(lp844
tp845
a(L3020187L
L0L
(lp846
(lp847
tp848
a(L2997988170L
L0L
(lp849
(lp850
tp851
a(L529263765L
L0L
(lp852
(lp853
tp854
a(L775434204L
L0L
(lp855
(lp856
tp857
a(L3579705151L
L0L
(lp858
(lp859
tp860
a(L2387139071L
L0L
(lp861
(lp862
tp863
a(L1599920163L
L0L
(lp864
(lp865
tp866
atp867
sI1074245160
(Vrtc_clk_slow_src_set
p868
(lp869
(L585347011L
L2195759072L
(lp870
(lp871
tp872
a(L3020187L
L0L
(lp873
(lp874
tp875
a(L3028481L
L0L
(lp876
(lp877
tp878
a(L487821223L
L0L
(lp879
(lp880
tp881
a(L4271877108L
L1443213481L
(lp882
(lp883
tp884
a(L1851908495L
L0L
(lp885
(lp886
tp887
a(L1099319264L
L1443213481L
(lp888
(lp889
tp890
a(L3138544334L
L0L
(lp891
(lp892
tp893
a(L94425498L
L3785322319L
(lp894
(lp895
Vabort
p896
atp897
atp898
sI1074236468
(Vesp_rom_uart_tx_wait_idle
p899
(lp900
(L3110839460L
L2534110409L
(lp901
(lp902
tp903
a(L1301079727L
L0L
(lp904
(lp905
tp906
a(L597952197L
L0L
(lp907
(lp908
tp909
a(L1971823332L
L0L
(lp910
(lp911
tp912
a(L3055926844L
L0L
(lp913
(lp914
tp915
a(L3360570486L
L0L
(lp916
(lp917
tp918
a(L3694491048L
L0L
(lp919
(lp920
tp921
a(L106L
L0L
(lp922
(lp923
tp924
atp925
sI1074235188
(Vbootloader_flash_unlock
p926
(lp927
(L1368360454L
L242900614L
(lp928
(lp929
Vesp_rom_spiflash_wait_idle
p930
atp931
a(L1574074940L
L0L
(lp932
(lp933
tp934
a(L1667462067L
L3785322319L
(lp935
(lp936
Vbootloader_execute_flash_command
p937
atp938
a(L106L
L0L
(lp939
(lp940
tp941
a(L1013678540L
L0L
(lp942
(lp943
tp944
a(L2529045083L
L0L
(lp945
(lp946
tp947
a(L990750093L
L1832448559L
(lp948
(lp949
Vesp_rom_spiflash_wait_idle
p950
aVbootloader_execute_flash_command
p951
aVbootloader_execute_flash_command
p952
atp953
a(L993671302L
L1832448559L
(lp954
(lp955
Vesp_rom_spiflash_wait_idle
p956
aVbootloader_execute_flash_command
p957
aVbootloader_execute_flash_command
p958
atp959
a(L1209048744L
L1880226080L
(lp960
(lp961
Vesp_rom_spiflash_wait_idle
p962
aVbootloader_execute_flash_command
p963
atp964
a(L3162775668L
L0L
(lp965
(lp966
tp967
a(L2435612105L
L0L
(lp968
(lp969
tp970
a(L3664359624L
L0L
(lp971
(lp972
tp973
a(L2074930120L
L1880226080L
(lp974
(lp975
Vbootloader_execute_flash_command
p976
aVbootloader_execute_flash_command
p977
atp978
a(L2125014318L
L0L
(lp979
(lp980
tp981
a(L568821667L
L0L
(lp982
(lp983
tp984
a(L1711531685L
L1880226080L
(lp985
(lp986
Vbootloader_execute_flash_command
p987
aVbootloader_execute_flash_command
p988
atp989
a(L3658700047L
L0L
(lp990
(lp991
tp992
a(L3269997774L
L0L
(lp993
(lp994
tp995
a(L106L
L0L
(lp996
(lp997
tp998
a(L2993202392L
L0L
(lp999
(lp1000
tp1001
atp1002
sI1074245684
(Vrtc_clk_xtal_freq_update
p1003
(lp1004
(L3023525581L
L2195759072L
(lp1005
(lp1006
tp1007
a(L3509357017L
L0L
(lp1008
(lp1009
tp1010
a(L2266180931L
L0L
(lp1011
(lp1012
tp1013
atp1014
sI1074237744
(Vbootloader_munmap
p1015
(lp1016
(L4096859803L
L2195759072L
(lp1017
(lp1018
tp1019
a(L4150885370L
L2624587680L
(lp1020
(lp1021
tp1022
a(L3360570486L
L0L
(lp1023
(lp1024
tp1025
atp1026
sI1074240560
(Vbootloader_sha256_finish
p1027
(lp1028
(L4066096136L
L0L
(lp1029
(lp1030
tp1031
a(L1697654722L
L2195759072L
(lp1032
(lp1033
tp1034
a(L2213948952L
L242900614L
(lp1035
(lp1036
V__assert_func
p1037
atp1038
a(L3020204L
L0L
(lp1039
(lp1040
tp1041
a(L2888288470L
L2534110409L
(lp1042
(lp1043
tp1044
a(L2534656226L
L0L
(lp1045
(lp1046
tp1047
a(L2740629735L
L4171435875L
(lp1048
(lp1049
Vbootloader_sha256_data
p1050
atp1051
a(L2946948570L
L2195759072L
(lp1052
(lp1053
tp1054
a(L354914383L
L2790500905L
(lp1055
(lp1056
V__bswapsi2
p1057
aVbootloader_sha256_data
p1058
atp1059
a(L2946948756L
L2195759072L
(lp1060
(lp1061
tp1062
a(L657425439L
L0L
(lp1063
(lp1064
tp1065
a(L4173600236L
L1443213481L
(lp1066
(lp1067
tp1068
a(L657425439L
L0L
(lp1069
(lp1070
tp1071
a(L2046284480L
L2195759072L
(lp1072
(lp1073
tp1074
a(L3616504601L
L4171435875L
(lp1075
(lp1076
V__bswapsi2
p1077
atp1078
a(L3347778L
L0L
(lp1079
(lp1080
tp1081
a(L3360570486L
L0L
(lp1082
(lp1083
tp1084
atp1085
sI1074267952
(Vbootloader_init
p1086
(lp1087
(L2778985116L
L362179215L
(lp1088
(lp1089
Vbootloader_init_mem
p1090
atp1091
a(L2588916198L
L2195759072L
(lp1092
(lp1093
tp1094
a(L2569579240L
L242900614L
(lp1095
(lp1096
V__assert_func
p1097
atp1098
a(L2041988382L
L2534110409L
(lp1099
(lp1100
tp1101
a(L2946990947L
L2195759072L
(lp1102
(lp1103
tp1104
a(L3813782018L
L0L
(lp1105
(lp1106
tp1107
a(L2946991009L
L2195759072L
(lp1108
(lp1109
tp1110
a(L3027019L
L0L
(lp1111
(lp1112
tp1113
a(L2946991040L
L2195759072L
(lp1114
(lp1115
tp1116
a(L4055793689L
L1832448559L
(lp1117
(lp1118
Vbootloader_clear_bss_section
p1119
aVbootloader_common_vddsdio_configure
p1120
aVbootloader_clock_get_rated_freq_mhz
p1121
atp1122
a(L106L
L0L
(lp1123
(lp1124
tp1125
a(L1943573098L
L2769615034L
(lp1126
(lp1127
Vbootloader_clock_configure
p1128
aVbootloader_console_init
p1129
aVbootloader_print_banner
p1130
aVbootloader_flash_update_id
p1131
aVbootloader_flash_xmc_startup
p1132
atp1133
a(L3014296803L
L3187408090L
(lp1134
(lp1135
Vesp_log_early_timestamp
p1136
atp1137
a(L4245842452L
L3187408090L
(lp1138
(lp1139
Vesp_log_early_timestamp
p1140
atp1141
a(L3360570486L
L0L
(lp1142
(lp1143
tp1144
a(L2444883382L
L3785322319L
(lp1145
(lp1146
Vbootloader_read_bootloader_header
p1147
atp1148
a(L2444883382L
L3785322319L
(lp1149
(lp1150
Vbootloader_check_bootloader_validity
p1151
atp1152
a(L2444883382L
L3785322319L
(lp1153
(lp1154
Vbootloader_init_spi_flash
p1155
atp1156
a(L1947007263L
L2195759072L
(lp1157
(lp1158
tp1159
a(L254817508L
L0L
(lp1160
(lp1161
tp1162
a(L93892250L
L0L
(lp1163
(lp1164
tp1165
a(L2915015718L
L0L
(lp1166
(lp1167
tp1168
a(L1460895057L
L2218577417L
(lp1169
(lp1170
Vbootloader_config_wdt
p1171
aVbootloader_enable_random
p1172
atp1173
a(L1895147938L
L0L
(lp1174
(lp1175
tp1176
a(L2680457259L
L0L
(lp1177
(lp1178
tp1179
a(L3027019L
L0L
(lp1180
(lp1181
tp1182
a(L97315L
L0L
(lp1183
(lp1184
tp1185
a(L3014296803L
L3187408090L
(lp1186
(lp1187
Vesp_log_early_timestamp
p1188
atp1189
a(L1766563386L
L3187408090L
(lp1190
(lp1191
Vesp_log_early_timestamp
p1192
atp1193
a(L3164960223L
L0L
(lp1194
(lp1195
tp1196
a(L1895147938L
L0L
(lp1197
(lp1198
tp1199
a(L156585483L
L1880226080L
(lp1200
(lp1201
Vwdt_reset_info_dump
p1202
aVwdt_reset_info_dump
p1203
atp1204
atp1205
sI1074268464
(Vbootloader_common_vddsdio_configure
p1206
(lp1207
(L1829974089L
L3785322319L
(lp1208
(lp1209
Vrtc_vddsdio_get_config
p1210
atp1211
a(L351649043L
L3833084538L
(lp1212
(lp1213
Vrtc_vddsdio_set_config
p1214
atp1215
a(L3360570486L
L0L
(lp1216
(lp1217
tp1218
atp1219
sI1074238780
(Vcache_ll_l1_get_bus
p1220
(lp1221
(L2749735183L
L1443213481L
(lp1222
(lp1223
tp1224
a(L94425498L
L3785322319L
(lp1225
(lp1226
Vabort
p1227
atp1228
a(L1872514061L
L1443213481L
(lp1229
(lp1230
tp1231
a(L3824526338L
L1443213481L
(lp1232
(lp1233
tp1234
a(L892952750L
L0L
(lp1235
(lp1236
tp1237
a(L1182811810L
L0L
(lp1238
(lp1239
tp1240
a(L1101742417L
L0L
(lp1241
(lp1242
tp1243
a(L1100767927L
L0L
(lp1244
(lp1245
tp1246
a(L3360570486L
L0L
(lp1247
(lp1248
tp1249
a(L1872508791L
L1443213481L
(lp1250
(lp1251
tp1252
a(L2882938163L
L0L
(lp1253
(lp1254
tp1255
a(L2927201858L
L0L
(lp1256
(lp1257
tp1258
a(L2258718273L
L0L
(lp1259
(lp1260
tp1261
a(L2580713941L
L0L
(lp1262
(lp1263
tp1264
a(L1872508791L
L1443213481L
(lp1265
(lp1266
tp1267
a(L1872514061L
L1443213481L
(lp1268
(lp1269
tp1270
a(L1641149277L
L0L
(lp1271
(lp1272
tp1273
a(L1872508791L
L1443213481L
(lp1274
(lp1275
tp1276
a(L3027019L
L0L
(lp1277
(lp1278
tp1279
a(L1299866560L
L0L
(lp1280
(lp1281
tp1282
a(L1299866436L
L0L
(lp1283
(lp1284
tp1285
atp1286
sI1074244412
(Vwdt_hal_enable
p1287
(lp1288
(L2299130915L
L0L
(lp1289
(lp1290
tp1291
a(L165794138L
L0L
(lp1292
(lp1293
tp1294
a(L3360570486L
L0L
(lp1295
(lp1296
tp1297
a(L2847657174L
L0L
(lp1298
(lp1299
tp1300
atp1301
sI1074244924
(Vrtc_clk_32k_enable
p1302
(lp1303
(L753387299L
L0L
(lp1304
(lp1305
tp1306
a(L3776007933L
L3785322319L
(lp1307
(lp1308
Vrtc_clk_32k_enable_common
p1309
atp1310
a(L3496950L
L0L
(lp1311
(lp1312
tp1313
a(L707626330L
L2534110409L
(lp1314
(lp1315
tp1316
atp1317
sI1074240056
(Vbootloader_reset
p1318
(lp1319
(L479276581L
L2147981551L
(lp1320
(lp1321
Vbootloader_console_deinit
p1322
atp1323
a(L106L
L0L
(lp1324
(lp1325
tp1326
atp1327
sI1074239032
(Vload_image
p1328
(lp1329
(L276015809L
L1880226080L
(lp1330
(lp1331
Vbootloader_random_disable
p1332
aVbootloader_ana_clock_glitch_reset_config
p1333
atp1334
a(L1373545544L
L0L
(lp1335
(lp1336
tp1337
a(L106L
L0L
(lp1338
(lp1339
tp1340
a(L1208231435L
L1624138773L
(lp1341
(lp1342
Vmmu_hal_unmap_all
p1343
aVcache_ll_l1_get_bus
p1344
aVcache_ll_l1_enable_bus
p1345
aVcache_ll_l1_get_bus
p1346
aVcache_ll_l1_enable_bus
p1347
aVcache_ll_l1_get_bus
p1348
aVcache_ll_l1_enable_bus
p1349
aVcache_ll_l1_get_bus
p1350
aVcache_ll_l1_enable_bus
p1351
aVbootloader_console_deinit
p1352
atp1353
a(L552377565L
L1443213481L
(lp1354
(lp1355
tp1356
a(L2902417580L
L0L
(lp1357
(lp1358
tp1359
a(L2350501541L
L362179215L
(lp1360
(lp1361
Vesp_log_early_timestamp
p1362
atp1363
a(L3455620645L
L0L
(lp1364
(lp1365
tp1366
a(L1295608873L
L2195759072L
(lp1367
(lp1368
tp1369
a(L3020204L
L0L
(lp1370
(lp1371
tp1372
a(L2350501541L
L362179215L
(lp1373
(lp1374
Vesp_log_early_timestamp
p1375
atp1376
a(L17153577L
L0L
(lp1377
(lp1378
tp1379
a(L2014464593L
L0L
(lp1380
(lp1381
tp1382
atp1383
sI1074236992
(Vbootloader_common_ota_select_valid
p1384
(lp1385
(L1563399710L
L3785322319L
(lp1386
(lp1387
Vbootloader_common_ota_select_invalid
p1388
atp1389
a(L3814720849L
L3785322319L
(lp1390
(lp1391
Vbootloader_common_ota_select_crc
p1392
atp1393
a(L3360570486L
L0L
(lp1394
(lp1395
tp1396
atp1397
sI1074237504
(Vspi_to_esp_err
p1398
(lp1399
(L2749733621L
L1443213481L
(lp1400
(lp1401
tp1402
a(L1872507229L
L1443213481L
(lp1403
(lp1404
tp1405
a(L3952441574L
L0L
(lp1406
(lp1407
tp1408
a(L3126521138L
L0L
(lp1409
(lp1410
tp1411
atp1412
sI1074240320
(Vindex_to_partition
p1413
(lp1414
(L4066096119L
L0L
(lp1415
(lp1416
tp1417
a(L1101255660L
L0L
(lp1418
(lp1419
tp1420
a(L1955702725L
L0L
(lp1421
(lp1422
tp1423
a(L3698927993L
L0L
(lp1424
(lp1425
tp1426
a(L2808906342L
L0L
(lp1427
(lp1428
tp1429
a(L4211744375L
L0L
(lp1430
(lp1431
tp1432
a(L3097778015L
L0L
(lp1433
(lp1434
tp1435
a(L1816235430L
L0L
(lp1436
(lp1437
tp1438
a(L2179185678L
L0L
(lp1439
(lp1440
tp1441
a(L3369319173L
L0L
(lp1442
(lp1443
tp1444
atp1445
sI1074269248
(Vbootloader_flash_update_id
p1446
(lp1447
(L296988142L
L3833084538L
(lp1448
(lp1449
Vbootloader_read_flash_id
p1450
atp1451
atp1452
sI1074235724
(Vbootloader_flash_cs_timing_config
p1453
(lp1454
(L1222249594L
L1690040256L
(lp1455
(lp1456
tp1457
atp1458
sI1074240844
(Vbootloader_ana_clock_glitch_reset_config
p1459
(lp1460
(L2100504542L
L0L
(lp1461
(lp1462
tp1463
atp1464
sI1074245452
(Vrtc_clk_cpu_freq_mhz_to_config
p1465
(lp1466
(L908718885L
L3785322319L
(lp1467
(lp1468
Vrtc_clk_xtal_freq_get
p1469
atp1470
a(L60460069L
L0L
(lp1471
(lp1472
tp1473
a(L3802072124L
L0L
(lp1474
(lp1475
tp1476
a(L3159006042L
L0L
(lp1477
(lp1478
tp1479
a(L3360570486L
L0L
(lp1480
(lp1481
tp1482
a(L895147205L
L0L
(lp1483
(lp1484
tp1485
a(L3970036657L
L0L
(lp1486
(lp1487
tp1488
a(L2731353429L
L0L
(lp1489
(lp1490
tp1491
a(L1555485793L
L0L
(lp1492
(lp1493
tp1494
a(L2258897023L
L0L
(lp1495
(lp1496
tp1497
a(L1947499251L
L0L
(lp1498
(lp1499
tp1500
a(L1306331021L
L0L
(lp1501
(lp1502
tp1503
atp1504
sI1074238280
(Vbootloader_mmap_get_free_pages
p1505
(lp1506
(L1496516875L
L0L
(lp1507
(lp1508
tp1509
atp1510
sI1074268760
(Vbootloader_random_enable
p1511
(lp1512
(L2397175084L
L664430240L
(lp1513
(lp1514
tp1515
atp1516
sI1074240852
(Vprocess_checksum
p1517
(lp1518
(L166193219L
L242900614L
(lp1519
(lp1520
Vmemset
p1521
atp1522
a(L3028481L
L0L
(lp1523
(lp1524
tp1525
a(L186886970L
L0L
(lp1526
(lp1527
tp1528
a(L2902417580L
L0L
(lp1529
(lp1530
tp1531
a(L3028481L
L0L
(lp1532
(lp1533
tp1534
a(L169792351L
L3187408090L
(lp1535
(lp1536
Vesp_log_early_timestamp
p1537
atp1538
a(L268651496L
L1443213481L
(lp1539
(lp1540
tp1541
a(L3236648107L
L3785322319L
(lp1542
(lp1543
Vbootloader_flash_read
p1544
atp1545
a(L735741265L
L0L
(lp1546
(lp1547
tp1548
a(L3020204L
L0L
(lp1549
(lp1550
tp1551
a(L2480703612L
L3785322319L
(lp1552
(lp1553
Vbootloader_sha256_data
p1554
atp1555
a(L3436105237L
L0L
(lp1556
(lp1557
tp1558
a(L106L
L0L
(lp1559
(lp1560
tp1561
atp1562
sI1074237268
(Vbootloader_common_get_active_otadata
p1563
(lp1564
(L3317503532L
L0L
(lp1565
(lp1566
tp1567
a(L2503049265L
L1832448559L
(lp1568
(lp1569
Vbootloader_common_ota_select_valid
p1570
aVbootloader_common_ota_select_valid
p1571
aVbootloader_common_select_otadata
p1572
atp1573
a(L735741265L
L0L
(lp1574
(lp1575
tp1576
atp1577
sI1074270556
(Vmpu_hal_set_region_access
p1578
(lp1579
(L3538356822L
L0L
(lp1580
(lp1581
tp1582
a(L93674324L
L0L
(lp1583
(lp1584
tp1585
a(L2910371777L
L0L
(lp1586
(lp1587
tp1588
a(L3472092938L
L0L
(lp1589
(lp1590
tp1591
a(L3020187L
L0L
(lp1592
(lp1593
tp1594
a(L3360570486L
L0L
(lp1595
(lp1596
tp1597
a(L2258718273L
L0L
(lp1598
(lp1599
tp1600
a(L3446648619L
L0L
(lp1601
(lp1602
tp1603
a(L3739532189L
L0L
(lp1604
(lp1605
tp1606
a(L1300789895L
L0L
(lp1607
(lp1608
tp1609
atp1610
sI1074238288
(Vbootloader_fill_random
p1611
(lp1612
(L3377511333L
L2195759072L
(lp1613
(lp1614
tp1615
a(L4033043682L
L4032149094L
(lp1616
(lp1617
V__assert_func
p1618
atp1619
a(L1882547218L
L0L
(lp1620
(lp1621
tp1622
a(L2910371777L
L0L
(lp1623
(lp1624
tp1625
a(L95634693L
L0L
(lp1626
(lp1627
tp1628
a(L3630908706L
L0L
(lp1629
(lp1630
tp1631
a(L160162640L
L0L
(lp1632
(lp1633
tp1634
a(L97689L
L0L
(lp1635
(lp1636
tp1637
a(L3360570486L
L0L
(lp1638
(lp1639
tp1640
atp1641
sI1074240080
(Vbootloader_utility_load_boot_image
p1642
(lp1643
(L421993435L
L242900614L
(lp1644
(lp1645
Vmemset
p1646
atp1647
a(L2177418995L
L3785322319L
(lp1648
(lp1649
Vtry_load_partition
p1650
atp1651
a(L1305243774L
L3785322319L
(lp1652
(lp1653
Vload_image
p1654
atp1655
a(L4114459891L
L3187408090L
(lp1656
(lp1657
Vesp_log_early_timestamp
p1658
atp1659
a(L3827921190L
L3785322319L
(lp1660
(lp1661
Vbootloader_reset
p1662
atp1663
a(L1953693036L
L3785322319L
(lp1664
(lp1665
Vindex_to_partition
p1666
atp1667
a(L1204373741L
L3785322319L
(lp1668
(lp1669
Vtry_load_partition
p1670
atp1671
a(L1899865696L
L0L
(lp1672
(lp1673
tp1674
a(L2695355117L
L3785322319L
(lp1675
(lp1676
Vset_actual_ota_seq
p1677
atp1678
a(L1868897605L
L3785322319L
(lp1679
(lp1680
Vlog_invalid_app_partition
p1681
atp1682
a(L831650730L
L0L
(lp1683
(lp1684
tp1685
a(L3021737L
L0L
(lp1686
(lp1687
tp1688
a(L695456438L
L0L
(lp1689
(lp1690
tp1691
a(L315114854L
L3833084538L
(lp1692
(lp1693
Vtry_load_partition
p1694
atp1695
a(L89447667L
L2147981551L
(lp1696
(lp1697
Vesp_log_early_timestamp
p1698
atp1699
a(L2347390157L
L3785322319L
(lp1700
(lp1701
Vindex_to_partition
p1702
atp1703
a(L1204373741L
L3785322319L
(lp1704
(lp1705
Vtry_load_partition
p1706
atp1707
a(L3061261803L
L0L
(lp1708
(lp1709
tp1710
a(L3582858798L
L3785322319L
(lp1711
(lp1712
Vlog_invalid_app_partition
p1713
atp1714
a(L3581752791L
L2704288053L
(lp1715
(lp1716
Vesp_log_early_timestamp
p1717
aVmemset
p1718
atp1719
atp1720
sI1074267728
(Vwdt_reset_info_dump
p1721
(lp1722
(L4037458708L
L0L
(lp1723
(lp1724
tp1725
a(L2865144428L
L4200222560L
(lp1726
(lp1727
tp1728
a(L217258670L
L0L
(lp1729
(lp1730
tp1731
a(L1103285333L
L0L
(lp1732
(lp1733
tp1734
a(L3750088731L
L2147981551L
(lp1735
(lp1736
Vesp_log_early_timestamp
p1737
atp1738
a(L3245125974L
L1443213481L
(lp1739
(lp1740
tp1741
a(L2920131454L
L4200222560L
(lp1742
(lp1743
tp1744
a(L3355528239L
L2147981551L
(lp1745
(lp1746
Vesp_log_early_timestamp
p1747
atp1748
atp1749
sI1074268752
(Vbootloader_init_mem
p1750
(lp1751
(L1287383080L
L3785322319L
(lp1752
(lp1753
Vesp_cpu_configure_region_protection
p1754
atp1755
atp1756
sI1074269264
(Vbootloader_init_spi_flash
p1757
(lp1758
(L3803003058L
L2890501274L
(lp1759
(lp1760
Vbootloader_flash_gpio_config
p1761
aVbootloader_flash_dummy_config
p1762
aVbootloader_flash_cs_timing_config
p1763
aVbootloader_flash_unlock
p1764
aVbootloader_flash_get_spi_mode
p1765
atp1766
a(L93674324L
L0L
(lp1767
(lp1768
tp1769
a(L3422553167L
L0L
(lp1770
(lp1771
tp1772
a(L1707909459L
L0L
(lp1773
(lp1774
tp1775
a(L1038322988L
L0L
(lp1776
(lp1777
tp1778
a(L3944678822L
L2082837423L
(lp1779
(lp1780
Vbootloader_enable_wp
p1781
atp1782
a(L3907331784L
L0L
(lp1783
(lp1784
tp1785
atp1786
sI1074236764
(Vefuse_hal_get_minor_chip_version
p1787
(lp1788
(L2292056065L
L1443213481L
(lp1789
(lp1790
tp1791
atp1792
sI1074247260
(Vesp_rom_spiflash_read_status
p1793
(lp1794
(L3588638125L
L1443213481L
(lp1795
(lp1796
tp1797
a(L4250092034L
L2534110409L
(lp1798
(lp1799
tp1800
a(L4159619641L
L0L
(lp1801
(lp1802
tp1803
a(L2392720019L
L0L
(lp1804
(lp1805
tp1806
a(L2258688487L
L0L
(lp1807
(lp1808
tp1809
a(L4159619145L
L0L
(lp1810
(lp1811
tp1812
a(L3241763332L
L1443213481L
(lp1813
(lp1814
tp1815
a(L3117156279L
L0L
(lp1816
(lp1817
tp1818
a(L2123059967L
L0L
(lp1819
(lp1820
tp1821
a(L582177370L
L0L
(lp1822
(lp1823
tp1824
atp1825
sI1074270548
(Vbootloader_print_banner
p1826
(lp1827
(L2100504542L
L0L
(lp1828
(lp1829
tp1830
atp1831
sI1074248792
(V_fini
p1832
(lp1833
(L3493042598L
L0L
(lp1834
(lp1835
tp1836
atp1837
sI1074268520
(Vbootloader_clock_configure
p1838
(lp1839
(L2559598596L
L1880226080L
(lp1840
(lp1841
Vesp_rom_uart_tx_wait_idle
p1842
aVefuse_hal_chip_revision
p1843
atp1844
a(L1757625900L
L1443213481L
(lp1845
(lp1846
tp1847
a(L741498227L
L1443213481L
(lp1848
(lp1849
tp1850
a(L106L
L0L
(lp1851
(lp1852
tp1853
a(L4228321918L
L1405109379L
(lp1854
(lp1855
Vrtc_clk_slow_src_get
p1856
aVrtc_clk_fast_src_get
p1857
aVrtc_clk_init
p1858
atp1859
a(L2538867838L
L2195759072L
(lp1860
(lp1861
tp1862
a(L1038013235L
L3833084538L
(lp1863
(lp1864
Vrtc_clk_apb_freq_get
p1865
atp1866
a(L106L
L0L
(lp1867
(lp1868
tp1869
a(L106L
L0L
(lp1870
(lp1871
tp1872
atp1873
sI1074237028
(Vbootloader_common_check_chip_validity
p1874
(lp1875
(L2080115690L
L0L
(lp1876
(lp1877
tp1878
a(L3255759481L
L3187408090L
(lp1879
(lp1880
Vesp_log_early_timestamp
p1881
atp1882
a(L1299867982L
L0L
(lp1883
(lp1884
tp1885
a(L3360570486L
L0L
(lp1886
(lp1887
tp1888
a(L521940037L
L3785322319L
(lp1889
(lp1890
Vefuse_hal_chip_revision
p1891
atp1892
a(L332291457L
L1443213481L
(lp1893
(lp1894
tp1895
a(L780168284L
L362179215L
(lp1896
(lp1897
Vesp_log_early_timestamp
p1898
atp1899
a(L3028464L
L0L
(lp1900
(lp1901
tp1902
a(L573448730L
L0L
(lp1903
(lp1904
tp1905
a(L106L
L0L
(lp1906
(lp1907
tp1908
a(L3027019L
L0L
(lp1909
(lp1910
tp1911
a(L106L
L0L
(lp1912
(lp1913
tp1914
a(L3212356251L
L3785322319L
(lp1915
(lp1916
Vefuse_hal_get_disable_wafer_version_major
p1917
atp1918
a(L2465410698L
L362179215L
(lp1919
(lp1920
Vesp_log_early_timestamp
p1921
atp1922
atp1923
sI1074237796
(Vbootloader_flash_read
p1924
(lp1925
(L3022618172L
L0L
(lp1926
(lp1927
tp1928
a(L2493247481L
L2147981551L
(lp1929
(lp1930
Vesp_log_early_timestamp
p1931
atp1932
a(L852987398L
L1443213481L
(lp1933
(lp1934
tp1935
a(L1351513776L
L0L
(lp1936
(lp1937
tp1938
a(L1486740491L
L0L
(lp1939
(lp1940
tp1941
a(L4276228047L
L2147981551L
(lp1942
(lp1943
Vesp_log_early_timestamp
p1944
atp1945
a(L3283691850L
L0L
(lp1946
(lp1947
tp1948
a(L4276228016L
L2147981551L
(lp1949
(lp1950
Vesp_log_early_timestamp
p1951
atp1952
a(L3020204L
L0L
(lp1953
(lp1954
tp1955
a(L384130671L
L0L
(lp1956
(lp1957
tp1958
a(L97422L
L0L
(lp1959
(lp1960
tp1961
a(L515889772L
L2195759072L
(lp1962
(lp1963
tp1964
a(L3321969934L
L1690040256L
(lp1965
(lp1966
tp1967
a(L279744554L
L4032149094L
(lp1968
(lp1969
V__assert_func
p1970
atp1971
a(L4071371888L
L2534110409L
(lp1972
(lp1973
tp1974
a(L2438181396L
L1443213481L
(lp1975
(lp1976
tp1977
a(L1976506429L
L3635241909L
(lp1978
(lp1979
Vesp_rom_spiflash_read
p1980
aVspi_to_esp_err
p1981
atp1982
atp1983
sI1074238052
(Vbootloader_flash_erase_sector
p1984
(lp1985
(L4129137686L
L1880226080L
(lp1986
(lp1987
Vesp_rom_spiflash_erase_sector
p1988
aVspi_to_esp_err
p1989
atp1990
atp1991
sI1074237536
(Vbootloader_mmap
p1992
(lp1993
(L3007611739L
L2195759072L
(lp1994
(lp1995
tp1996
a(L1328961945L
L2147981551L
(lp1997
(lp1998
Vesp_log_early_timestamp
p1999
atp2000
a(L1596194698L
L1443213481L
(lp2001
(lp2002
tp2003
a(L3729184599L
L0L
(lp2004
(lp2005
tp2006
a(L4163264550L
L3187408090L
(lp2007
(lp2008
Vesp_log_early_timestamp
p2009
atp2010
a(L2258688482L
L0L
(lp2011
(lp2012
tp2013
a(L3360570486L
L0L
(lp2014
(lp2015
tp2016
a(L3419814624L
L1443213481L
(lp2017
(lp2018
tp2019
a(L1441818867L
L1690040256L
(lp2020
(lp2021
tp2022
a(L3433564204L
L362179215L
(lp2023
(lp2024
Vesp_log_early_timestamp
p2025
atp2026
a(L2543114737L
L2147981551L
(lp2027
(lp2028
Vesp_log_early_timestamp
p2029
atp2030
a(L1137490703L
L2195759072L
(lp2031
(lp2032
tp2033
atp2034
sI1074235488
(Vbootloader_flash_read_sfdp
p2035
(lp2036
(L711701400L
L0L
(lp2037
(lp2038
tp2039
a(L17919673L
L4032149094L
(lp2040
(lp2041
V__assert_func
p2042
atp2043
a(L3704332455L
L3785322319L
(lp2044
(lp2045
Vbootloader_flash_execute_command_common
p2046
atp2047
atp2048
sI1074244704
(Vrtc_clk_cpu_freq_to_pll_mhz
p2049
(lp2050
(L3231135830L
L0L
(lp2051
(lp2052
tp2053
a(L2102627717L
L2195759072L
(lp2054
(lp2055
tp2056
a(L2982280123L
L3380333161L
(lp2057
(lp2058
Vesp_rom_set_cpu_ticks_per_us
p2059
aVrtc_clk_wait_for_slow_cycle
p2060
atp2061
a(L708686908L
L1443213481L
(lp2062
(lp2063
tp2064
a(L3284807114L
L0L
(lp2065
(lp2066
tp2067
a(L94425498L
L3785322319L
(lp2068
(lp2069
Vabort
p2070
atp2071
a(L2258897019L
L0L
(lp2072
(lp2073
tp2074
a(L1113742378L
L0L
(lp2075
(lp2076
tp2077
a(L1306330990L
L0L
(lp2078
(lp2079
tp2080
atp2081
sI1074245728
(Vrtc_clk_apb_freq_update
p2082
(lp2083
(L3982322780L
L1443213481L
(lp2084
(lp2085
tp2086
atp2087
sI1074236780
(Vesp_dport_access_reg_read
p2088
(lp2089
(L1099794772L
L0L
(lp2090
(lp2091
tp2092
atp2093
sI1074247788
(Vesp_rom_spiflash_write
p2094
(lp2095
(L924384987L
L1679261929L
(lp2096
(lp2097
tp2098
a(L2258688483L
L0L
(lp2099
(lp2100
tp2101
a(L3360570486L
L0L
(lp2102
(lp2103
tp2104
a(L3368132847L
L0L
(lp2105
(lp2106
tp2107
a(L3106685981L
L0L
(lp2108
(lp2109
tp2110
a(L3488660639L
L3785322319L
(lp2111
(lp2112
Vesp_rom_spiflash_program_page_internal
p2113
atp2114
a(L3543402353L
L3785322319L
(lp2115
(lp2116
Vesp_rom_spiflash_program_page_internal
p2117
atp2118
a(L4222526342L
L0L
(lp2119
(lp2120
tp2121
a(L2004208511L
L0L
(lp2122
(lp2123
tp2124
a(L564470656L
L0L
(lp2125
(lp2126
tp2127
a(L441922648L
L3785322319L
(lp2128
(lp2129
Vesp_rom_spiflash_program_page_internal
p2130
atp2131
a(L2302069176L
L0L
(lp2132
(lp2133
tp2134
atp2135
sI1074248040
(Vesp_rom_spiflash_read
p2136
(lp2137
(L1499485309L
L1690040256L
(lp2138
(lp2139
tp2140
a(L3114780042L
L1679261929L
(lp2141
(lp2142
tp2143
a(L2860271684L
L0L
(lp2144
(lp2145
tp2146
a(L1872504408L
L1443213481L
(lp2147
(lp2148
tp2149
a(L106L
L0L
(lp2150
(lp2151
tp2152
a(L633884026L
L0L
(lp2153
(lp2154
tp2155
a(L106L
L0L
(lp2156
(lp2157
tp2158
a(L1100272902L
L1443213481L
(lp2159
(lp2160
tp2161
a(L1372101025L
L1690040256L
(lp2162
(lp2163
tp2164
a(L974197278L
L2195759072L
(lp2165
(lp2166
tp2167
a(L336550648L
L0L
(lp2168
(lp2169
tp2170
a(L3167414617L
L1443213481L
(lp2171
(lp2172
tp2173
a(L106L
L0L
(lp2174
(lp2175
tp2176
a(L3138763340L
L362179215L
(lp2177
(lp2178
Vesp_rom_spiflash_wait_idle
p2179
atp2180
a(L3021737L
L0L
(lp2181
(lp2182
tp2183
a(L106L
L0L
(lp2184
(lp2185
tp2186
a(L1868280504L
L0L
(lp2187
(lp2188
tp2189
a(L106L
L0L
(lp2190
(lp2191
tp2192
a(L750281353L
L0L
(lp2193
(lp2194
tp2195
a(L3897437082L
L0L
(lp2196
(lp2197
tp2198
a(L4122060822L
L0L
(lp2199
(lp2200
tp2201
a(L483218220L
L1443213481L
(lp2202
(lp2203
tp2204
a(L2989032L
L0L
(lp2205
(lp2206
tp2207
a(L3819849625L
L0L
(lp2208
(lp2209
tp2210
a(L1082031446L
L2195759072L
(lp2211
(lp2212
tp2213
a(L1872504408L
L1443213481L
(lp2214
(lp2215
tp2216
a(L147213506L
L1443213481L
(lp2217
(lp2218
tp2219
a(L2062799182L
L2534110409L
(lp2220
(lp2221
tp2222
a(L2921907736L
L0L
(lp2223
(lp2224
tp2225
a(L3677617742L
L1443213481L
(lp2226
(lp2227
tp2228
a(L2483025066L
L1679261929L
(lp2229
(lp2230
tp2231
a(L2136664087L
L1443213481L
(lp2232
(lp2233
tp2234
a(L3000478599L
L2195759072L
(lp2235
(lp2236
tp2237
a(L3333707777L
L0L
(lp2238
(lp2239
tp2240
a(L3251955268L
L0L
(lp2241
(lp2242
tp2243
a(L3418540920L
L0L
(lp2244
(lp2245
tp2246
a(L4183823801L
L1443213481L
(lp2247
(lp2248
tp2249
a(L97689L
L0L
(lp2250
(lp2251
tp2252
a(L2258897019L
L0L
(lp2253
(lp2254
tp2255
a(L4014024819L
L0L
(lp2256
(lp2257
tp2258
a(L3621567083L
L0L
(lp2259
(lp2260
tp2261
atp2262
sI1074237308
(Vbootloader_common_reset_rtc_retain_mem
p2263
(lp2264
(L2744385852L
L581251951L
(lp2265
(lp2266
Vmemset
p2267
atp2268
atp2269
sI1074245756
(Vrtc_clk_cpu_freq_to_xtal
p2270
(lp2271
(L767415990L
L3785322319L
(lp2272
(lp2273
Vesp_rom_set_cpu_ticks_per_us
p2274
atp2275
a(L94425498L
L3785322319L
(lp2276
(lp2277
Vabort
p2278
atp2279
a(L749912951L
L671729222L
(lp2280
(lp2281
Vrtc_clk_apb_freq_update
p2282
atp2283
a(L2258867230L
L0L
(lp2284
(lp2285
tp2286
a(L1803595874L
L2195759072L
(lp2287
(lp2288
tp2289
atp2290
sI1074270324
(Vrtc_vddsdio_get_config
p2291
(lp2292
(L3097658956L
L1443213481L
(lp2293
(lp2294
tp2295
a(L1750635626L
L0L
(lp2296
(lp2297
tp2298
a(L3193418487L
L0L
(lp2299
(lp2300
tp2301
a(L3511111289L
L1443213481L
(lp2302
(lp2303
tp2304
a(L115635292L
L0L
(lp2305
(lp2306
tp2307
a(L896053863L
L0L
(lp2308
(lp2309
tp2310
a(L1306330959L
L0L
(lp2311
(lp2312
tp2313
a(L1783408782L
L1443213481L
(lp2314
(lp2315
tp2316
atp2317
sI1074244984
(Vrtc_clk_8m_enable
p2318
(lp2319
(L2359152383L
L2195759072L
(lp2320
(lp2321
tp2322
a(L2145669267L
L1443213481L
(lp2323
(lp2324
tp2325
a(L2151320156L
L0L
(lp2326
(lp2327
tp2328
a(L1262936142L
L1443213481L
(lp2329
(lp2330
tp2331
a(L3360570486L
L0L
(lp2332
(lp2333
tp2334
a(L1318267208L
L0L
(lp2335
(lp2336
tp2337
a(L1085208965L
L1443213481L
(lp2338
(lp2339
tp2340
atp2341
sI1074238072
(Vbootloader_flash_write
p2342
(lp2343
(L3770380603L
L0L
(lp2344
(lp2345
tp2346
a(L2654201950L
L2147981551L
(lp2347
(lp2348
Vesp_log_early_timestamp
p2349
atp2350
a(L4207910112L
L1443213481L
(lp2351
(lp2352
tp2353
a(L1610445075L
L0L
(lp2354
(lp2355
tp2356
a(L735741265L
L0L
(lp2357
(lp2358
tp2359
a(L3291333414L
L0L
(lp2360
(lp2361
tp2362
a(L416217162L
L2147981551L
(lp2363
(lp2364
Vesp_log_early_timestamp
p2365
atp2366
a(L3283691850L
L0L
(lp2367
(lp2368
tp2369
a(L212182276L
L3187408090L
(lp2370
(lp2371
Vesp_log_early_timestamp
p2372
atp2373
a(L3212356251L
L3785322319L
(lp2374
(lp2375
Vbootloader_flash_unlock
p2376
atp2377
a(L1799218633L
L0L
(lp2378
(lp2379
tp2380
a(L94425498L
L3785322319L
(lp2381
(lp2382
Vesp_rom_spiflash_write_encrypted
p2383
atp2384
a(L2927190544L
L3785322319L
(lp2385
(lp2386
Vspi_to_esp_err
p2387
atp2388
a(L2927190544L
L3785322319L
(lp2389
(lp2390
Vesp_rom_spiflash_write
p2391
atp2392
atp2393
sI1074236792
(Vis_xmc_chip_strict
p2394
(lp2395
(L1286841609L
L0L
(lp2396
(lp2397
tp2398
a(L2234016759L
L0L
(lp2399
(lp2400
tp2401
a(L1069027148L
L0L
(lp2402
(lp2403
tp2404
a(L3021749L
L0L
(lp2405
(lp2406
tp2407
a(L1900148749L
L0L
(lp2408
(lp2409
tp2410
a(L1936875721L
L0L
(lp2411
(lp2412
tp2413
a(L3356166509L
L0L
(lp2414
(lp2415
tp2416
a(L1937769451L
L0L
(lp2417
(lp2418
tp2419
a(L2137658907L
L0L
(lp2420
(lp2421
tp2422
a(L4265949734L
L0L
(lp2423
(lp2424
tp2425
a(L3360570486L
L0L
(lp2426
(lp2427
tp2428
atp2429
sI1074244484
(Vmmu_hal_unmap_all
p2430
(lp2431
(L3970138582L
L1443213481L
(lp2432
(lp2433
tp2434
a(L2010554219L
L0L
(lp2435
(lp2436
tp2437
a(L147213506L
L1443213481L
(lp2438
(lp2439
tp2440
a(L3212334523L
L0L
(lp2441
(lp2442
tp2443
a(L2010554219L
L0L
(lp2444
(lp2445
tp2446
a(L3360570486L
L0L
(lp2447
(lp2448
tp2449
atp2450
sI1074243968
(Vwdt_hal_config_stage
p2451
(lp2452
(L331558507L
L0L
(lp2453
(lp2454
tp2455
a(L4279082939L
L0L
(lp2456
(lp2457
tp2458
a(L93674324L
L0L
(lp2459
(lp2460
tp2461
a(L2902417580L
L0L
(lp2462
(lp2463
tp2464
a(L1506709436L
L1443213481L
(lp2465
(lp2466
tp2467
a(L3020187L
L0L
(lp2468
(lp2469
tp2470
a(L94425498L
L3785322319L
(lp2471
(lp2472
Vabort
p2473
atp2474
a(L1999536000L
L1443213481L
(lp2475
(lp2476
tp2477
a(L3360570486L
L0L
(lp2478
(lp2479
tp2480
a(L2402105077L
L1443213481L
(lp2481
(lp2482
tp2483
a(L3297501927L
L1443213481L
(lp2484
(lp2485
tp2486
a(L4278159418L
L0L
(lp2487
(lp2488
tp2489
a(L93674324L
L0L
(lp2490
(lp2491
tp2492
a(L3020204L
L0L
(lp2493
(lp2494
tp2495
a(L2956541743L
L1443213481L
(lp2496
(lp2497
tp2498
a(L3020187L
L0L
(lp2499
(lp2500
tp2501
a(L106L
L0L
(lp2502
(lp2503
tp2504
a(L1473987957L
L1443213481L
(lp2505
(lp2506
tp2507
a(L927955509L
L1443213481L
(lp2508
(lp2509
tp2510
a(L3740367810L
L1443213481L
(lp2511
(lp2512
tp2513
atp2514
sI1074240384
(Vbootloader_debug_buffer
p2515
(lp2516
(L2100504542L
L0L
(lp2517
(lp2518
tp2519
atp2520
sI1074236552
(Vesp_rom_uart_set_clock_baudrate
p2521
(lp2522
(L1471953879L
L1443213481L
(lp2523
(lp2524
tp2525
a(L1872515506L
L1443213481L
(lp2526
(lp2527
tp2528
a(L147213506L
L1443213481L
(lp2529
(lp2530
tp2531
a(L3104172142L
L1443213481L
(lp2532
(lp2533
tp2534
atp2535
sI1074240392
(Vbootloader_sha256_start
p2536
(lp2537
(L1737386262L
L2534110409L
(lp2538
(lp2539
tp2540
atp2541
sI1074235540
(Vbootloader_read_flash_id
p2542
(lp2543
(L549578328L
L3785322319L
(lp2544
(lp2545
Vbootloader_execute_flash_command
p2546
atp2547
atp2548
sI1074247060
(Vrtc_clk_cal_ratio
p2549
(lp2550
(L3870710856L
L195123093L
(lp2551
(lp2552
Vrtc_clk_cal_internal
p2553
aV__udivdi3
p2554
atp2555
atp2556
sI1074236304
(Vbootloader_flash_dummy_config
p2557
(lp2558
(L2633298977L
L1443213481L
(lp2559
(lp2560
tp2561
a(L2761717557L
L0L
(lp2562
(lp2563
tp2564
a(L1849044936L
L0L
(lp2565
(lp2566
tp2567
a(L2198646520L
L2195759072L
(lp2568
(lp2569
tp2570
a(L1857500547L
L1443213481L
(lp2571
(lp2572
tp2573
a(L3020204L
L0L
(lp2574
(lp2575
tp2576
a(L1610443405L
L0L
(lp2577
(lp2578
tp2579
a(L4032120524L
L0L
(lp2580
(lp2581
tp2582
a(L2336993863L
L0L
(lp2583
(lp2584
tp2585
a(L1298875775L
L0L
(lp2586
(lp2587
tp2588
a(L3880393601L
L0L
(lp2589
(lp2590
tp2591
a(L2272848587L
L1443213481L
(lp2592
(lp2593
tp2594
a(L1610443436L
L0L
(lp2595
(lp2596
tp2597
atp2598
sI1074237328
(Vbootloader_common_get_rtc_retain_mem_partition
p2599
(lp2600
(L3440563016L
L3833084538L
(lp2601
(lp2602
Vis_retain_mem_valid
p2603
atp2604
atp2605
sI1074240412
(Vbootloader_sha256_data
p2606
(lp2607
(L4066096136L
L0L
(lp2608
(lp2609
tp2610
a(L1697654611L
L2195759072L
(lp2611
(lp2612
tp2613
a(L2213948952L
L242900614L
(lp2614
(lp2615
V__assert_func
p2616
atp2617
a(L498498478L
L0L
(lp2618
(lp2619
tp2620
a(L3590389832L
L1443213481L
(lp2621
(lp2622
tp2623
a(L2910371777L
L0L
(lp2624
(lp2625
tp2626
a(L3360570486L
L0L
(lp2627
(lp2628
tp2629
a(L1087685526L
L2195759072L
(lp2630
(lp2631
tp2632
a(L426633611L
L1443213481L
(lp2633
(lp2634
tp2635
a(L2584057186L
L1443213481L
(lp2636
(lp2637
tp2638
a(L3342433287L
L1443213481L
(lp2639
(lp2640
tp2641
a(L2526675390L
L242900614L
(lp2642
(lp2643
V__bswapsi2
p2644
atp2645
a(L942815853L
L2195759072L
(lp2646
(lp2647
tp2648
a(L1872507229L
L1443213481L
(lp2649
(lp2650
tp2651
a(L147213506L
L1443213481L
(lp2652
(lp2653
tp2654
a(L3745004802L
L0L
(lp2655
(lp2656
tp2657
atp2658
sI1074245276
(Vrtc_clk_slow_src_get
p2659
(lp2660
(L1566794270L
L1443213481L
(lp2661
(lp2662
tp2663
a(L3020187L
L0L
(lp2664
(lp2665
tp2666
a(L2902417580L
L0L
(lp2667
(lp2668
tp2669
a(L2258688485L
L0L
(lp2670
(lp2671
tp2672
a(L3360570486L
L0L
(lp2673
(lp2674
tp2675
atp2676
sI1074246552
(Vrtc_clk_apb_freq_get
p2677
(lp2678
(L189810653L
L1679261929L
(lp2679
(lp2680
tp2681
atp2682
sI1074269612
(Vbootloader_enable_random
p2683
(lp2684
(L1287383080L
L3785322319L
(lp2685
(lp2686
Vbootloader_random_enable
p2687
atp2688
atp2689
sI1074241952
(Vprocess_segments
p2690
(lp2691
(L670742546L
L0L
(lp2692
(lp2693
tp2694
a(L1478361954L
L0L
(lp2695
(lp2696
tp2697
a(L3782401745L
L0L
(lp2698
(lp2699
tp2700
a(L106L
L0L
(lp2701
(lp2702
tp2703
a(L234202048L
L0L
(lp2704
(lp2705
tp2706
a(L3014296803L
L3187408090L
(lp2707
(lp2708
Vesp_log_early_timestamp
p2709
atp2710
a(L418370317L
L3785322319L
(lp2711
(lp2712
Vbootloader_flash_read
p2713
atp2714
a(L1556134886L
L3187408090L
(lp2715
(lp2716
Vesp_log_early_timestamp
p2717
atp2718
a(L464010095L
L0L
(lp2719
(lp2720
tp2721
a(L1890170661L
L0L
(lp2722
(lp2723
tp2724
a(L4138551778L
L3785322319L
(lp2725
(lp2726
Vbootloader_sha256_data
p2727
atp2728
a(L1382414308L
L1443213481L
(lp2729
(lp2730
tp2731
a(L2258867228L
L0L
(lp2732
(lp2733
tp2734
a(L1653981967L
L0L
(lp2735
(lp2736
tp2737
a(L523560059L
L0L
(lp2738
(lp2739
tp2740
a(L684380407L
L3187408090L
(lp2741
(lp2742
Vesp_log_early_timestamp
p2743
atp2744
a(L268651496L
L1443213481L
(lp2745
(lp2746
tp2747
a(L2585693023L
L2195759072L
(lp2748
(lp2749
tp2750
a(L4022143605L
L1443213481L
(lp2751
(lp2752
tp2753
a(L606368755L
L0L
(lp2754
(lp2755
tp2756
a(L2626753793L
L0L
(lp2757
(lp2758
tp2759
a(L2505340542L
L3187408090L
(lp2760
(lp2761
Vesp_log_early_timestamp
p2762
atp2763
a(L2864902319L
L0L
(lp2764
(lp2765
tp2766
a(L2314103720L
L0L
(lp2767
(lp2768
tp2769
a(L2136754140L
L3785322319L
(lp2770
(lp2771
Vbootloader_mmap_get_free_pages
p2772
atp2773
a(L3028481L
L0L
(lp2774
(lp2775
tp2776
a(L3306817873L
L0L
(lp2777
(lp2778
tp2779
a(L2642187286L
L3785322319L
(lp2780
(lp2781
Vshould_load
p2782
atp2783
a(L3020204L
L0L
(lp2784
(lp2785
tp2786
a(L1879695069L
L3785322319L
(lp2787
(lp2788
Vverify_load_addresses
p2789
atp2790
a(L106L
L0L
(lp2791
(lp2792
tp2793
a(L113955750L
L0L
(lp2794
(lp2795
tp2796
a(L262831199L
L0L
(lp2797
(lp2798
tp2799
a(L4128104404L
L3785322319L
(lp2800
(lp2801
Vbootloader_mmap
p2802
atp2803
a(L1180618826L
L3187408090L
(lp2804
(lp2805
Vesp_log_early_timestamp
p2806
atp2807
a(L1727089337L
L0L
(lp2808
(lp2809
tp2810
a(L1191704088L
L1443213481L
(lp2811
(lp2812
tp2813
a(L2599431133L
L242900614L
(lp2814
(lp2815
Vmemcpy
p2816
atp2817
a(L1595421496L
L3785322319L
(lp2818
(lp2819
Vbootloader_munmap
p2820
atp2821
a(L1820299912L
L0L
(lp2822
(lp2823
tp2824
a(L2364697717L
L242900614L
(lp2825
(lp2826
Vbootloader_fill_random
p2827
atp2828
a(L3616854679L
L1443213481L
(lp2829
(lp2830
tp2831
a(L3616854679L
L1443213481L
(lp2832
(lp2833
tp2834
a(L3450268858L
L0L
(lp2835
(lp2836
tp2837
a(L3021749L
L0L
(lp2838
(lp2839
tp2840
a(L3821106106L
L0L
(lp2841
(lp2842
tp2843
a(L2494883302L
L0L
(lp2844
(lp2845
tp2846
a(L2043449225L
L0L
(lp2847
(lp2848
tp2849
a(L2213415704L
L1443213481L
(lp2850
(lp2851
tp2852
a(L1641789675L
L1443213481L
(lp2853
(lp2854
tp2855
a(L3018893270L
L0L
(lp2856
(lp2857
tp2858
a(L1224748769L
L0L
(lp2859
(lp2860
tp2861
a(L653501462L
L0L
(lp2862
(lp2863
tp2864
a(L3499111993L
L3785322319L
(lp2865
(lp2866
Vbootloader_sha256_data
p2867
atp2868
a(L90548756L
L0L
(lp2869
(lp2870
tp2871
a(L1702191967L
L1443213481L
(lp2872
(lp2873
tp2874
a(L2883900389L
L0L
(lp2875
(lp2876
tp2877
atp2878
sI1074238368
(Vbootloader_random_disable
p2879
(lp2880
(L482324986L
L2935979744L
(lp2881
(lp2882
tp2883
atp2884
sI1074237344
(Vbootloader_common_update_rtc_retain_mem
p2885
(lp2886
(L2958000229L
L0L
(lp2887
(lp2888
tp2889
a(L3212356251L
L3785322319L
(lp2890
(lp2891
Vis_retain_mem_valid
p2892
atp2893
a(L94425498L
L3785322319L
(lp2894
(lp2895
Vbootloader_common_reset_rtc_retain_mem
p2896
atp2897
a(L2376360173L
L1443213481L
(lp2898
(lp2899
tp2900
a(L4141035440L
L0L
(lp2901
(lp2902
tp2903
a(L2902417580L
L0L
(lp2904
(lp2905
tp2906
a(L395718978L
L1443213481L
(lp2907
(lp2908
tp2909
a(L3738038928L
L3785322319L
(lp2910
(lp2911
Vupdate_rtc_retain_mem_crc
p2912
atp2913
atp2914
sI1074245544
(Vrtc_clk_cpu_freq_get_config
p2915
(lp2916
(L4245581454L
L1443213481L
(lp2917
(lp2918
tp2919
a(L3020187L
L0L
(lp2920
(lp2921
tp2922
a(L3020187L
L0L
(lp2923
(lp2924
tp2925
a(L2734221335L
L242900614L
(lp2926
(lp2927
Vrtc_clk_xtal_freq_get
p2928
atp2929
a(L3789795478L
L0L
(lp2930
(lp2931
tp2932
a(L672805395L
L2704288053L
(lp2933
(lp2934
Vesp_log_early_timestamp
p2935
aVabort
p2936
atp2937
a(L3849169076L
L1443213481L
(lp2938
(lp2939
tp2940
a(L3020187L
L0L
(lp2941
(lp2942
tp2943
a(L3028481L
L0L
(lp2944
(lp2945
tp2946
a(L38508693L
L0L
(lp2947
(lp2948
tp2949
a(L187152368L
L0L
(lp2950
(lp2951
tp2952
a(L1161083655L
L0L
(lp2953
(lp2954
tp2955
a(L1395485899L
L0L
(lp2956
(lp2957
tp2958
a(L2070600034L
L0L
(lp2959
(lp2960
tp2961
atp2962
sI1074269880
(Vrtc_clk_init
p2963
(lp2964
(L1100006719L
L1443213481L
(lp2965
(lp2966
tp2967
a(L42671777L
L3785322319L
(lp2968
(lp2969
Vrtc_clk_cpu_freq_to_xtal
p2970
atp2971
a(L739905763L
L1743007695L
(lp2972
(lp2973
Vrtc_clk_xtal_freq_get
p2974
atp2975
a(L3028481L
L0L
(lp2976
(lp2977
tp2978
a(L4284274517L
L3785322319L
(lp2979
(lp2980
Vrtc_clk_xtal_freq_estimate
p2981
atp2982
a(L2576622952L
L3187408090L
(lp2983
(lp2984
Vesp_log_early_timestamp
p2985
atp2986
a(L1822030105L
L3065544262L
(lp2987
(lp2988
Vesp_rom_uart_tx_wait_idle
p2989
aVrtc_clk_xtal_freq_update
p2990
aVrtc_clk_apb_freq_update
p2991
aVrtc_clk_cpu_freq_get_config
p2992
aVrtc_clk_cpu_freq_mhz_to_config
p2993
atp2994
a(L521302419L
L2704288053L
(lp2995
(lp2996
Vesp_log_early_timestamp
p2997
aVabort
p2998
atp2999
a(L2902417580L
L0L
(lp3000
(lp3001
tp3002
a(L1899970065L
L0L
(lp3003
(lp3004
tp3005
a(L377687546L
L3785322319L
(lp3006
(lp3007
Vrtc_clk_xtal_freq_estimate
p3008
atp3009
a(L2163742247L
L3187408090L
(lp3010
(lp3011
Vesp_log_early_timestamp
p3012
atp3013
a(L299116989L
L2426646996L
(lp3014
(lp3015
Vrtc_clk_cpu_freq_set_config
p3016
aV__udivdi3
p3017
atp3018
a(L912310138L
L3785322319L
(lp3019
(lp3020
Vrtc_clk_32k_enable
p3021
atp3022
a(L3191820416L
L1832448559L
(lp3023
(lp3024
Vrtc_clk_8m_enable
p3025
aVrtc_clk_fast_src_set
p3026
aVrtc_clk_slow_src_set
p3027
atp3028
a(L1232958848L
L0L
(lp3029
(lp3030
tp3031
atp3032
sI1074239412
(Vset_actual_ota_seq
p3033
(lp3034
(L4094723830L
L0L
(lp3035
(lp3036
tp3037
a(L3504298995L
L2195759072L
(lp3038
(lp3039
tp3040
a(L64700752L
L2474967913L
(lp3041
(lp3042
Vmemset
p3043
aVbootloader_common_ota_select_crc
p3044
aVesp_flash_encryption_enabled
p3045
aVbootloader_flash_erase_sector
p3046
atp3047
a(L300669811L
L3785322319L
(lp3048
(lp3049
Vbootloader_flash_write
p3050
atp3051
a(L559062533L
L3187408090L
(lp3052
(lp3053
Vesp_log_early_timestamp
p3054
atp3055
a(L889933560L
L1880226080L
(lp3056
(lp3057
Vindex_to_partition
p3058
aVbootloader_common_update_rtc_retain_mem
p3059
atp3060
atp3061
sI1074244532
(Vefuse_hal_get_rated_freq_mhz
p3062
(lp3063
(L1158870592L
L1443213481L
(lp3064
(lp3065
tp3066
a(L338960367L
L0L
(lp3067
(lp3068
tp3069
a(L3360570486L
L0L
(lp3070
(lp3071
tp3072
atp3073
sI1074247092
(Vrtc_clk_wait_for_slow_cycle
p3074
(lp3075
(L2844697221L
L2624587680L
(lp3076
(lp3077
tp3078
a(L287687718L
L0L
(lp3079
(lp3080
tp3081
a(L3360570486L
L0L
(lp3082
(lp3083
tp3084
a(L3843203427L
L1443213481L
(lp3085
(lp3086
tp3087
a(L1300789833L
L0L
(lp3088
(lp3089
tp3090
a(L1259765481L
L0L
(lp3091
(lp3092
tp3093
a(L17340776L
L1443213481L
(lp3094
(lp3095
tp3096
a(L329680227L
L3187408090L
(lp3097
(lp3098
Vesp_log_early_timestamp
p3099
atp3100
atp3101
sI1074238896
(Vtry_load_partition
p3102
(lp3103
(L1898493800L
L0L
(lp3104
(lp3105
tp3106
a(L2454209732L
L3785322319L
(lp3107
(lp3108
Vbootloader_load_image
p3109
atp3110
a(L3360570486L
L0L
(lp3111
(lp3112
tp3113
atp3114
sI1074244284
(Vwdt_hal_write_protect_disable
p3115
(lp3116
(L3085072089L
L1443213481L
(lp3117
(lp3118
tp3119
a(L4195472003L
L0L
(lp3120
(lp3121
tp3122
a(L3360570486L
L0L
(lp3123
(lp3124
tp3125
a(L1210571996L
L0L
(lp3126
(lp3127
tp3128
atp3129
sI1074235836
(Vbootloader_flash_gpio_config
p3130
(lp3131
(L3362256192L
L3785322319L
(lp3132
(lp3133
Vbootloader_common_get_chip_ver_pkg
p3134
atp3135
a(L106L
L0L
(lp3136
(lp3137
tp3138
a(L1998579353L
L0L
(lp3139
(lp3140
tp3141
a(L106L
L0L
(lp3142
(lp3143
tp3144
a(L1839763068L
L1443213481L
(lp3145
(lp3146
tp3147
a(L2440320488L
L1396946377L
(lp3148
(lp3149
tp3150
a(L106L
L0L
(lp3151
(lp3152
tp3153
a(L4003626558L
L0L
(lp3154
(lp3155
tp3156
a(L2164907201L
L2534110409L
(lp3157
(lp3158
tp3159
a(L3360570486L
L0L
(lp3160
(lp3161
tp3162
atp3163
sI1074247356
(Vesp_rom_spiflash_wait_idle
p3164
(lp3165
(L1698121947L
L1443213481L
(lp3166
(lp3167
tp3168
a(L2023766174L
L0L
(lp3169
(lp3170
tp3171
a(L147213506L
L1443213481L
(lp3172
(lp3173
tp3174
a(L3086959262L
L0L
(lp3175
(lp3176
tp3177
a(L4161019926L
L3785322319L
(lp3178
(lp3179
Vesp_rom_spiflash_read_status
p3180
atp3181
atp3182
sI1074269620
(Vbootloader_console_init
p3183
(lp3184
(L3806010175L
L988378406L
(lp3185
(lp3186
Vesp_rom_uart_tx_wait_idle
p3187
aVrtc_clk_apb_freq_get
p3188
aVesp_rom_uart_set_clock_baudrate
p3189
atp3190
atp3191
sI1074241208
(Vbootloader_util_regions_overlap
p3192
(lp3193
(L2762640130L
L0L
(lp3194
(lp3195
tp3196
a(L1697654632L
L2195759072L
(lp3197
(lp3198
tp3199
a(L2213948952L
L242900614L
(lp3200
(lp3201
V__assert_func
p3202
atp3203
a(L97642L
L0L
(lp3204
(lp3205
tp3206
a(L1087686177L
L2195759072L
(lp3207
(lp3208
tp3209
a(L366123053L
L0L
(lp3210
(lp3211
tp3212
a(L2258867228L
L0L
(lp3213
(lp3214
tp3215
a(L1253626734L
L0L
(lp3216
(lp3217
tp3218
a(L2258897019L
L0L
(lp3219
(lp3220
tp3221
a(L3109269495L
L0L
(lp3222
(lp3223
tp3224
atp3225
sI1074245304
(Vrtc_clk_slow_freq_get_hz
p3226
(lp3227
(L1826267122L
L3785322319L
(lp3228
(lp3229
Vrtc_clk_slow_src_get
p3230
atp3231
a(L1872507229L
L1443213481L
(lp3232
(lp3233
tp3234
a(L2221201615L
L1443213481L
(lp3235
(lp3236
tp3237
a(L3360570486L
L0L
(lp3238
(lp3239
tp3240
atp3241
sI1074235588
(Vbootloader_flash_xmc_startup
p3242
(lp3243
(L3433652179L
L242900614L
(lp3244
(lp3245
Vis_xmc_chip_strict
p3246
atp3247
a(L2258688482L
L0L
(lp3248
(lp3249
tp3250
a(L3360570486L
L0L
(lp3251
(lp3252
tp3253
a(L251913992L
L3785322319L
(lp3254
(lp3255
Vbootloader_flash_read_sfdp
p3256
atp3257
a(L645871038L
L2369128116L
(lp3258
(lp3259
Vbootloader_execute_flash_command
p3260
aVbootloader_execute_flash_command
p3261
aVbootloader_execute_flash_command
p3262
aVbootloader_execute_flash_command
p3263
aVbootloader_read_flash_id
p3264
aVis_xmc_chip_strict
p3265
atp3266
a(L1000132677L
L3187408090L
(lp3267
(lp3268
Vesp_log_early_timestamp
p3269
atp3270
atp3271
sI1074246596
(Vrtc_clk_cal_internal
p3272
(lp3273
(L4103044880L
L1443213481L
(lp3274
(lp3275
tp3276
a(L3906046821L
L4032149094L
(lp3277
(lp3278
V__assert_func
p3279
atp3280
a(L3821006588L
L1443213481L
(lp3281
(lp3282
tp3283
a(L1673513644L
L0L
(lp3284
(lp3285
tp3286
a(L2719210992L
L4021370767L
(lp3287
(lp3288
Vrtc_clk_slow_src_get
p3289
atp3290
a(L3008910671L
L0L
(lp3291
(lp3292
tp3293
a(L97689L
L0L
(lp3294
(lp3295
tp3296
a(L1872507229L
L1443213481L
(lp3297
(lp3298
tp3299
a(L3028464L
L0L
(lp3300
(lp3301
tp3302
a(L3028481L
L0L
(lp3303
(lp3304
tp3305
a(L147213506L
L1443213481L
(lp3306
(lp3307
tp3308
a(L3455571058L
L1374507264L
(lp3309
(lp3310
V__udivdi3
p3311
aVrtc_clk_xtal_freq_get
p3312
atp3313
a(L2780079961L
L0L
(lp3314
(lp3315
tp3316
a(L4208562267L
L1443213481L
(lp3317
(lp3318
tp3319
a(L4114459891L
L3187408090L
(lp3320
(lp3321
Vesp_log_early_timestamp
p3322
atp3323
a(L2258688482L
L0L
(lp3324
(lp3325
tp3326
a(L3360570486L
L0L
(lp3327
(lp3328
tp3329
a(L3553505594L
L0L
(lp3330
(lp3331
tp3332
a(L403361192L
L0L
(lp3333
(lp3334
tp3335
a(L3243404432L
L3785322319L
(lp3336
(lp3337
Vrtc_clk_8m_enable
p3338
atp3339
a(L390546255L
L2195759072L
(lp3340
(lp3341
tp3342
a(L3586367509L
L1443213481L
(lp3343
(lp3344
tp3345
a(L2910371777L
L0L
(lp3346
(lp3347
tp3348
a(L2902417580L
L0L
(lp3349
(lp3350
tp3351
a(L3082259486L
L1443213481L
(lp3352
(lp3353
tp3354
a(L3020204L
L0L
(lp3355
(lp3356
tp3357
a(L603598685L
L1443213481L
(lp3358
(lp3359
tp3360
a(L3429540926L
L0L
(lp3361
(lp3362
tp3363
a(L3028464L
L0L
(lp3364
(lp3365
tp3366
a(L615477255L
L242900614L
(lp3367
(lp3368
Vrtc_clk_8m_enable
p3369
atp3370
atp3371
sI1074269388
(Vbootloader_clear_bss_section
p3372
(lp3373
(L2193193874L
L4032149094L
(lp3374
(lp3375
Vmemset
p3376
atp3377
atp3378
sI1074236864
(Vefuse_hal_get_disable_wafer_version_major
p3379
(lp3380
(L4194175088L
L0L
(lp3381
(lp3382
tp3383
atp3384
sI1074236872
(Vesp_log_early_timestamp
p3385
(lp3386
(L4015029253L
L1443213481L
(lp3387
(lp3388
tp3389
atp3390
sI1074241736
(Vprocess_appended_hash_and_sig
p3391
(lp3392
(L1668084157L
L0L
(lp3393
(lp3394
tp3395
a(L2910371777L
L0L
(lp3396
(lp3397
tp3398
a(L4285188111L
L0L
(lp3399
(lp3400
tp3401
a(L1151175705L
L0L
(lp3402
(lp3403
tp3404
a(L97689L
L0L
(lp3405
(lp3406
tp3407
a(L2250231589L
L3187408090L
(lp3408
(lp3409
Vesp_log_early_timestamp
p3410
atp3411
a(L268651496L
L1443213481L
(lp3412
(lp3413
tp3414
a(L1464893571L
L3785322319L
(lp3415
(lp3416
Vbootloader_flash_read
p3417
atp3418
a(L735741265L
L0L
(lp3419
(lp3420
tp3421
atp3422
sI1074269656
(Vesp_cpu_configure_region_protection
p3423
(lp3424
(L3233924472L
L581251951L
(lp3425
(lp3426
Vmemcpy
p3427
atp3428
a(L180431425L
L3785322319L
(lp3429
(lp3430
Vmpu_hal_set_region_access
p3431
atp3432
a(L2537388152L
L3785322319L
(lp3433
(lp3434
Vmpu_hal_set_region_access
p3435
atp3436
atp3437
sI1074245332
(Vrtc_clk_fast_src_set
p3438
(lp3439
(L1089140614L
L1443213481L
(lp3440
(lp3441
tp3442
a(L3020187L
L0L
(lp3443
(lp3444
tp3445
a(L3827921190L
L3785322319L
(lp3446
(lp3447
Vabort
p3448
atp3449
a(L2578095160L
L1443213481L
(lp3450
(lp3451
tp3452
a(L4159388630L
L1443213481L
(lp3453
(lp3454
tp3455
a(L300459962L
L0L
(lp3456
(lp3457
tp3458
atp3459
sI1074238928
(Vcache_ll_l1_enable_bus
p3460
(lp3461
(L318252209L
L1443213481L
(lp3462
(lp3463
tp3464
atp3465
sI1074238684
(Vbootloader_clock_get_rated_freq_mhz
p3466
(lp3467
(L376617603L
L3785322319L
(lp3468
(lp3469
Vefuse_hal_get_rated_freq_mhz
p3470
atp3471
atp3472
sI1074244316
(Vwdt_hal_set_flashboot_en
p3473
(lp3474
(L2375320464L
L0L
(lp3475
(lp3476
tp3477
a(L3915867581L
L0L
(lp3478
(lp3479
tp3480
a(L3360570486L
L0L
(lp3481
(lp3482
tp3483
a(L3823116953L
L1443213481L
(lp3484
(lp3485
tp3486
atp3487
sI1074237400
(Vbootloader_common_ota_select_invalid
p3488
(lp3489
(L4027567199L
L0L
(lp3490
(lp3491
tp3492
a(L3397985842L
L0L
(lp3493
(lp3494
tp3495
a(L2258867228L
L0L
(lp3496
(lp3497
tp3498
a(L3785235668L
L0L
(lp3499
(lp3500
tp3501
atp3502
sI1074236632
(Vefuse_hal_chip_revision
p3503
(lp3504
(L2719302832L
L1880226080L
(lp3505
(lp3506
Vefuse_hal_get_major_chip_version
p3507
aVefuse_hal_get_minor_chip_version
p3508
atp3509
atp3510
sI1074244568
(Vrtc_clk_32k_enable_common
p3511
(lp3512
(L2821256590L
L2195759072L
(lp3513
(lp3514
tp3515
a(L97422L
L0L
(lp3516
(lp3517
tp3518
a(L2218417248L
L0L
(lp3519
(lp3520
tp3521
a(L339634797L
L1443213481L
(lp3522
(lp3523
tp3524
a(L51458120L
L0L
(lp3525
(lp3526
tp3527
atp3528
sI1074247652
(Vesp_rom_spiflash_erase_sector
p3529
(lp3530
(L3892694408L
L1679261929L
(lp3531
(lp3532
tp3533
a(L2258688483L
L0L
(lp3534
(lp3535
tp3536
a(L3360570486L
L0L
(lp3537
(lp3538
tp3539
a(L3212356251L
L3785322319L
(lp3540
(lp3541
Vesp_rom_spiflash_enable_write
p3542
atp3543
a(L184152988L
L0L
(lp3544
(lp3545
tp3546
a(L1036552696L
L362179215L
(lp3547
(lp3548
Vesp_rom_spiflash_wait_idle
p3549
atp3550
a(L3333707777L
L0L
(lp3551
(lp3552
tp3553
a(L3582858798L
L3785322319L
(lp3554
(lp3555
Vesp_rom_spiflash_wait_idle
p3556
atp3557
atp3558
sI1074267616
(Vcall_start_cpu0
p3559
(lp3560
(L342432055L
L1443213481L
(lp3561
(lp3562
tp3563
a(L4207910112L
L1443213481L
(lp3564
(lp3565
tp3566
a(L3212347974L
L3785322319L
(lp3567
(lp3568
Vbootloader_init
p3569
atp3570
a(L94425498L
L3785322319L
(lp3571
(lp3572
Vbootloader_reset
p3573
atp3574
a(L1872507246L
L1443213481L
(lp3575
(lp3576
tp3577
a(L4207910112L
L1443213481L
(lp3578
(lp3579
tp3580
a(L3453696961L
L2871875098L
(lp3581
(lp3582
Vbootloader_utility_load_boot_image_from_deep_sleep
p3583
aVmemset
p3584
aVbootloader_utility_load_partition_table
p3585
atp3586
a(L3014296803L
L3187408090L
(lp3587
(lp3588
Vesp_log_early_timestamp
p3589
atp3590
a(L736289835L
L3785322319L
(lp3591
(lp3592
Vbootloader_utility_get_selected_boot_partition
p3593
atp3594
a(L289035773L
L242900614L
(lp3595
(lp3596
Vbootloader_utility_load_boot_image
p3597
atp3598
atp3599
sI1074245868
(Vrtc_clk_cpu_freq_set_config
p3600
(lp3601
(L1040494747L
L3833084538L
(lp3602
(lp3603
Vrtc_clk_xtal_freq_get
p3604
atp3605
a(L2308773007L
L0L
(lp3606
(lp3607
tp3608
a(L3253451229L
L1880226080L
(lp3609
(lp3610
Vrtc_clk_cpu_freq_to_xtal
p3611
aVrtc_clk_wait_for_slow_cycle
p3612
atp3613
a(L2243645672L
L0L
(lp3614
(lp3615
tp3616
a(L4002786498L
L0L
(lp3617
(lp3618
tp3619
a(L2736411858L
L3785322319L
(lp3620
(lp3621
Vrtc_clk_cpu_freq_to_xtal
p3622
atp3623
a(L3360570486L
L0L
(lp3624
(lp3625
tp3626
a(L2755207760L
L1832448559L
(lp3627
(lp3628
Vrtc_clk_cpu_freq_to_xtal
p3629
aVrtc_clk_wait_for_slow_cycle
p3630
aVrtc_clk_bbpll_disable
p3631
atp3632
a(L3020187L
L0L
(lp3633
(lp3634
tp3635
a(L106L
L0L
(lp3636
(lp3637
tp3638
a(L2730236852L
L1156451872L
(lp3639
(lp3640
Vrtc_clk_wait_for_slow_cycle
p3641
aVrtc_clk_xtal_freq_get
p3642
atp3643
a(L106L
L0L
(lp3644
(lp3645
tp3646
a(L3776069396L
L1443213481L
(lp3647
(lp3648
tp3649
a(L83268611L
L0L
(lp3650
(lp3651
tp3652
a(L106L
L0L
(lp3653
(lp3654
tp3655
a(L82345090L
L0L
(lp3656
(lp3657
tp3658
a(L106L
L0L
(lp3659
(lp3660
tp3661
a(L2258718273L
L0L
(lp3662
(lp3663
tp3664
a(L3298883534L
L0L
(lp3665
(lp3666
tp3667
a(L3519990574L
L1443213481L
(lp3668
(lp3669
tp3670
a(L2508198718L
L1743007695L
(lp3671
(lp3672
Vrtc_clk_cpu_freq_to_pll_mhz
p3673
atp3674
a(L935233121L
L2534110409L
(lp3675
(lp3676
tp3677
a(L83268344L
L0L
(lp3678
(lp3679
tp3680
a(L82344823L
L0L
(lp3681
(lp3682
tp3683
a(L1569180676L
L0L
(lp3684
(lp3685
tp3686
a(L2258837488L
L0L
(lp3687
(lp3688
tp3689
a(L4233337962L
L1443213481L
(lp3690
(lp3691
tp3692
a(L1482311963L
L0L
(lp3693
(lp3694
tp3695
a(L133411965L
L0L
(lp3696
(lp3697
tp3698
a(L3673491036L
L0L
(lp3699
(lp3700
tp3701
a(L4197990447L
L0L
(lp3702
(lp3703
tp3704
a(L903154985L
L0L
(lp3705
(lp3706
tp3707
a(L3020187L
L0L
(lp3708
(lp3709
tp3710
a(L106L
L0L
(lp3711
(lp3712
tp3713
a(L1317698645L
L93324751L
(lp3714
(lp3715
Vesp_rom_set_cpu_ticks_per_us
p3716
atp3717
atp3718
sI1074247404
(Vesp_rom_spiflash_enable_write
p3719
(lp3720
(L2885777558L
L1303911398L
(lp3721
(lp3722
Vesp_rom_spiflash_wait_idle
p3723
atp3724
a(L3333707777L
L0L
(lp3725
(lp3726
tp3727
a(L2258688484L
L0L
(lp3728
(lp3729
tp3730
a(L99543895L
L0L
(lp3731
(lp3732
tp3733
a(L2993202392L
L0L
(lp3734
(lp3735
tp3736
a(L1265538927L
L242900614L
(lp3737
(lp3738
Vesp_rom_spiflash_read_status
p3739
atp3740
atp3741
sI1074269412
(Vbootloader_read_bootloader_header
p3742
(lp3743
(L2948018849L
L242900614L
(lp3744
(lp3745
Vbootloader_flash_read
p3746
atp3747
a(L804259852L
L3187408090L
(lp3748
(lp3749
Vesp_log_early_timestamp
p3750
atp3751
a(L735741265L
L0L
(lp3752
(lp3753
tp3754
atp3755
sI1074236904
(Vis_retain_mem_valid
p3756
(lp3757
(L2820478025L
L2195759072L
(lp3758
(lp3759
tp3760
atp3761
sI1074238696
(Vlog_invalid_app_partition
p3762
(lp3763
(L2157385331L
L2195759072L
(lp3764
(lp3765
tp3766
a(L3028464L
L0L
(lp3767
(lp3768
tp3769
a(L1760520779L
L3833084538L
(lp3770
(lp3771
Vesp_log_early_timestamp
p3772
atp3773
a(L4207910112L
L1443213481L
(lp3774
(lp3775
tp3776
a(L3360570486L
L0L
(lp3777
(lp3778
tp3779
a(L3212513603L
L3833084538L
(lp3780
(lp3781
Vesp_log_early_timestamp
p3782
atp3783
a(L431938678L
L2147981551L
(lp3784
(lp3785
Vesp_log_early_timestamp
p3786
atp3787
atp3788
sI1074237428
(Vbootloader_common_select_otadata
p3789
(lp3790
(L4071767857L
L0L
(lp3791
(lp3792
tp3793
a(L1999329187L
L0L
(lp3794
(lp3795
tp3796
a(L3846398843L
L0L
(lp3797
(lp3798
tp3799
a(L2501968171L
L0L
(lp3800
(lp3801
tp3802
a(L3360570486L
L0L
(lp3803
(lp3804
tp3805
a(L2045232488L
L0L
(lp3806
(lp3807
tp3808
a(L1243525916L
L0L
(lp3809
(lp3810
tp3811
a(L3094144427L
L0L
(lp3812
(lp3813
tp3814
a(L2399509845L
L0L
(lp3815
(lp3816
tp3817
a(L1641201884L
L0L
(lp3818
(lp3819
tp3820
atp3821
sI1074240756
(Vbootloader_console_deinit
p3822
(lp3823
(L1858531217L
L1443213481L
(lp3824
(lp3825
tp3826
atp3827
sI1074236656
(Vefuse_hal_flash_encryption_enabled
p3828
(lp3829
(L221474917L
L1443213481L
(lp3830
(lp3831
tp3832
a(L2910371777L
L0L
(lp3833
(lp3834
tp3835
a(L3360570486L
L0L
(lp3836
(lp3837
tp3838
a(L3016870L
L0L
(lp3839
(lp3840
tp3841
a(L3745038218L
L0L
(lp3842
(lp3843
tp3844
a(L957607403L
L0L
(lp3845
(lp3846
tp3847
atp3848
sI1074241264
(Vverify_load_addresses
p3849
(lp3850
(L2764487219L
L0L
(lp3851
(lp3852
tp3853
a(L106L
L0L
(lp3854
(lp3855
tp3856
a(L97642L
L0L
(lp3857
(lp3858
tp3859
a(L1682572953L
L4032149094L
(lp3860
(lp3861
V__assert_func
p3862
atp3863
a(L371731316L
L2195759072L
(lp3864
(lp3865
tp3866
a(L106L
L0L
(lp3867
(lp3868
tp3869
a(L3747671351L
L2195759072L
(lp3870
(lp3871
tp3872
a(L106L
L0L
(lp3873
(lp3874
tp3875
a(L159211233L
L4171435875L
(lp3876
(lp3877
Vbootloader_util_regions_overlap
p3878
atp3879
a(L3369736729L
L581251951L
(lp3880
(lp3881
Vbootloader_util_regions_overlap
p3882
atp3883
a(L3028481L
L0L
(lp3884
(lp3885
tp3886
a(L129067213L
L242900614L
(lp3887
(lp3888
Vbootloader_util_regions_overlap
p3889
atp3890
a(L51970127L
L2534110409L
(lp3891
(lp3892
tp3893
a(L3212477138L
L1443213481L
(lp3894
(lp3895
tp3896
a(L1032381749L
L0L
(lp3897
(lp3898
tp3899
a(L2837304413L
L0L
(lp3900
(lp3901
tp3902
a(L677569396L
L3785322319L
(lp3903
(lp3904
Vverify_load_addresses
p3905
atp3906
a(L1351513776L
L0L
(lp3907
(lp3908
tp3909
a(L956755582L
L0L
(lp3910
(lp3911
tp3912
a(L1550159667L
L1443213481L
(lp3913
(lp3914
tp3915
a(L2297907636L
L2195759072L
(lp3916
(lp3917
tp3918
a(L106L
L0L
(lp3919
(lp3920
tp3921
a(L1378880375L
L2195759072L
(lp3922
(lp3923
tp3924
a(L106L
L0L
(lp3925
(lp3926
tp3927
a(L1933245593L
L581251951L
(lp3928
(lp3929
Vbootloader_util_regions_overlap
p3930
atp3931
a(L3028481L
L0L
(lp3932
(lp3933
tp3934
a(L2219806806L
L581251951L
(lp3935
(lp3936
Vbootloader_util_regions_overlap
p3937
atp3938
a(L3186102034L
L1690040256L
(lp3939
(lp3940
tp3941
a(L1284972329L
L1443213481L
(lp3942
(lp3943
tp3944
a(L3236457224L
L1443213481L
(lp3945
(lp3946
tp3947
a(L2743341656L
L0L
(lp3948
(lp3949
tp3950
a(L182882711L
L0L
(lp3951
(lp3952
tp3953
a(L2268367078L
L2195759072L
(lp3954
(lp3955
tp3956
a(L297163306L
L0L
(lp3957
(lp3958
tp3959
a(L1900059593L
L0L
(lp3960
(lp3961
tp3962
a(L376010266L
L2534110409L
(lp3963
(lp3964
tp3965
a(L1319531632L
L1443213481L
(lp3966
(lp3967
tp3968
a(L3929371936L
L0L
(lp3969
(lp3970
tp3971
a(L147213506L
L1443213481L
(lp3972
(lp3973
tp3974
a(L4072848040L
L0L
(lp3975
(lp3976
tp3977
a(L106L
L0L
(lp3978
(lp3979
tp3980
a(L268651496L
L1443213481L
(lp3981
(lp3982
tp3983
a(L147213506L
L1443213481L
(lp3984
(lp3985
tp3986
a(L3020204L
L0L
(lp3987
(lp3988
tp3989
a(L885671544L
L2275292552L
(lp3990
(lp3991
Vesp_log_early_timestamp
p3992
atp3993
a(L1303560396L
L0L
(lp3994
(lp3995
tp3996
a(L268651496L
L1443213481L
(lp3997
(lp3998
tp3999
a(L1303560427L
L0L
(lp4000
(lp4001
tp4002
atp4003
sI1074243056
(Vbootloader_load_image
p4004
(lp4005
(L1155870502L
L3785322319L
(lp4006
(lp4007
Vimage_load
p4008
atp4009
atp4010
sI1074234620
(Vbootloader_common_get_chip_ver_pkg
p4011
(lp4012
(L3197874814L
L1443213481L
(lp4013
(lp4014
tp4015
atp4016
sI1074239740
(Vbootloader_utility_get_selected_boot_partition
p4017
(lp4018
(L2938832293L
L0L
(lp4019
(lp4020
tp4021
a(L2250662613L
L1443213481L
(lp4022
(lp4023
tp4024
a(L3987062097L
L2147981551L
(lp4025
(lp4026
Vesp_log_early_timestamp
p4027
atp4028
a(L558289164L
L1443213481L
(lp4029
(lp4030
tp4031
a(L3360570486L
L0L
(lp4032
(lp4033
tp4034
a(L3118387733L
L3785322319L
(lp4035
(lp4036
Vbootloader_mmap
p4037
atp4038
a(L3080008394L
L2147981551L
(lp4039
(lp4040
Vesp_log_early_timestamp
p4041
atp4042
a(L937961821L
L2410515468L
(lp4043
(lp4044
Vmemcpy
p4045
aVmemcpy
p4046
aVbootloader_munmap
p4047
aVbootloader_common_ota_select_invalid
p4048
atp4049
a(L2911028409L
L0L
(lp4050
(lp4051
tp4052
a(L726746649L
L3785322319L
(lp4053
(lp4054
Vbootloader_common_get_active_otadata
p4055
atp4056
a(L4179097382L
L0L
(lp4057
(lp4058
tp4059
a(L3111084448L
L3785322319L
(lp4060
(lp4061
Vbootloader_common_ota_select_invalid
p4062
atp4063
a(L2793942993L
L0L
(lp4064
(lp4065
tp4066
a(L1043744473L
L0L
(lp4067
(lp4068
tp4069
a(L2302032704L
L0L
(lp4070
(lp4071
tp4072
a(L1173788779L
L3785322319L
(lp4073
(lp4074
Vbootloader_common_ota_select_crc
p4075
atp4076
a(L178397698L
L1443213481L
(lp4077
(lp4078
tp4079
a(L1324800084L
L3785322319L
(lp4080
(lp4081
Vbootloader_common_ota_select_crc
p4082
atp4083
a(L1299866312L
L0L
(lp4084
(lp4085
tp4086
a(L3005064543L
L1443213481L
(lp4087
(lp4088
tp4089
a(L1522345576L
L3833084538L
(lp4090
(lp4091
Vesp_log_early_timestamp
p4092
atp4093
a(L4207910112L
L1443213481L
(lp4094
(lp4095
tp4096
a(L1641201884L
L0L
(lp4097
(lp4098
tp4099
a(L1194215008L
L3833084538L
(lp4100
(lp4101
Vesp_log_early_timestamp
p4102
atp4103
atp4104
sI1074241020
(Vprocess_image_header
p4105
(lp4106
(L3301900732L
L2218577417L
(lp4107
(lp4108
Vmemset
p4109
aVbootloader_flash_read
p4110
atp4111
a(L3020204L
L0L
(lp4112
(lp4113
tp4114
a(L4205021202L
L0L
(lp4115
(lp4116
tp4117
a(L321261932L
L0L
(lp4118
(lp4119
tp4120
a(L1161397362L
L3785322319L
(lp4121
(lp4122
Vbootloader_sha256_start
p4123
atp4124
a(L2062774299L
L3785322319L
(lp4125
(lp4126
Vbootloader_sha256_data
p4127
atp4128
a(L1291118193L
L0L
(lp4129
(lp4130
tp4131
a(L3028481L
L0L
(lp4132
(lp4133
tp4134
a(L559062533L
L3187408090L
(lp4135
(lp4136
Vesp_log_early_timestamp
p4137
atp4138
a(L147213506L
L1443213481L
(lp4139
(lp4140
tp4141
a(L2983970029L
L0L
(lp4142
(lp4143
tp4144
a(L4235213884L
L3785322319L
(lp4145
(lp4146
Vbootloader_common_check_chip_validity
p4147
atp4148
a(L4144303915L
L0L
(lp4149
(lp4150
tp4151
a(L3028481L
L0L
(lp4152
(lp4153
tp4154
a(L3714328738L
L3187408090L
(lp4155
(lp4156
Vesp_log_early_timestamp
p4157
atp4158
a(L2852701393L
L0L
(lp4159
(lp4160
tp4161
a(L2122516551L
L0L
(lp4162
(lp4163
tp4164
a(L3064492592L
L0L
(lp4165
(lp4166
tp4167
atp4168
sI1074245112
(Vrtc_clk_8m_enabled
p4169
(lp4170
(L563532105L
L1443213481L
(lp4171
(lp4172
tp4173
atp4174
ssS'functionsdups'
p4175
g11
((lp4176
tp4177
Rp4178
sS'immediatedups'
p4179
g11
((lp4180
tp4181
Rp4182
sS'functiondups'
p4183
g11
((lp4184
tp4185
Rp4186
sS'fuzzy'
p4187
(dp4188
L366261972L
I1074269880
sL2376760616L
I1074243088
sL1898962604L
I1074238780
sL3223682214L
I1074247952
sL4033782891L
I1074244316
sL1651792242L
I1074247404
sL1500945776L
I1074267952
sL2532014945L
I1074237344
sL2092869556L
I1074247652
sL1772626723L
I1074235724
sL2539816556L
I1074236552
sL3032120501L
I1074245544
sL2471313117L
I1074240560
sL2641888616L
I1074246596
sL381028389L
I1074240772
sL3711025829L
I1074240080
sL1962232032L
I1074245412
sL797548049L
I1074240392
sL3374853808L
I1074269388
sL2835607711L
I1074269620
sL2095240828L
I1074234664
sL1348852091L
I1074248040
sL2182127758L
I1074269704
sL3221945515L
I1074245684
sL1485246373L
I1074240852
sL3525303483L
I1074245276
sL1247030641L
I1074268760
sL214341344L
I1074244484
sL3822220021L
I1074237308
sL1729011238L
I1074241824
sL1959102959L
I1074237536
sL4242478965L
I1074238288
sL2258813065L
I1074269264
sL2216531249L
I1074245304
sL317294020L
I1074235588
sL3067297149L
I1074239412
sL3281732395L
I1074239032
sL1096063205L
I1074236696
sL2906154889L
I1074247356
sL1065525808L
I1074236792
sL1766137975L
I1074238896
sL1821770661L
I1074237744
sL332090111L
I1074236468
sL282843886L
I1074237796
sL3905831542L
I1074239740
sL3703425408L
I1074244984
sL2038713658L
I1074246552
sL2100777096L
I1074267616
sL2708185770L
I1074241208
sL3890904617L
I1074245756
sL3530961461L
I1074270324
sL1210592366L
I1074245160
sL1332800441L
I1074237268
sL209111356L
I1074245332
sL3183721996L
I1074235188
sL3558783183L
I1074238072
sL1377360842L
I1074244568
sL2726707668L
I1074268464
sL3300368739L
I1074267728
sL1161792488L
I1074241020
sL4091350277L
I1074247460
sL2871786995L
I1074269484
sL3578810761L
I1074235488
sL531949167L
I1074237028
sL242725802L
I1074240000
sL1060788199L
I1074245452
sL994994961L
I1074238696
sL2663898648L
I1074269412
sL1155028103L
I1074269656
sL627477382L
I1074235836
sL814911857L
I1074240412
sL3280013925L
I1074238368
sL1862804207L
I1074243968
sL2806886186L
I1074268520
sL1815510750L
I1074244704
sL963803290L
I1074245868
sL3715950101L
I1074244284
sL3420458249L
I1074247260
sL812561285L
I1074239528
sL1872673135L
I1074240056
sL1214705044L
I1074236304
sL4155364446L
I1074236992
sL230862646L
I1074237504
sL2452281182L
I1074247092
sL1564551092L
I1074241736
sL1122585247L
I1074243356
sL3659714901L
I1074241264
sL2752268667L
I1074244532
sL160672234L
I1074241952
sL1950296771L
I1074247788
sL1396037064L
I1074244924
sL1014311563L
I1074242572
ssb.