ccopy_reg
_reconstructor
p0
(crizzo
RizzoSignature
p1
c__builtin__
object
p2
Ntp3
Rp4
(dp5
S'formal'
p6
(dp7
L1128390976L
I1074246912
sL442995044L
I1074238556
sL3632692355L
I1074244596
sL1352267423L
I1074237432
sL4217974382L
I1074245048
sL3094176868L
I1074241172
sL3468298416L
I1074236620
sL1741170115L
I1074237960
sL3505757179L
I1074234612
sL268856855L
I1074268868
sL664041862L
I1074247240
sL1052110241L
I1074238640
sL138009647L
I1074234652
sL3668390576L
I1074240304
sL3976128745L
I1074270468
sL1237733855L
I1074238848
sL3380938655L
I1074243232
sL202407178L
I1074247300
sL4213015302L
I1074242912
sL72981575L
I1074237656
sL758249518L
I1074237980
sL151991824L
I1074245024
sL3545118830L
I1074267740
sL3337736661L
I1074238228
sL4029473544L
I1074244872
sL818480367L
I1074236516
sL2420455533L
I1074269372
sL1414580345L
I1074239604
sL4103874998L
I1074270308
sL3567680394L
I1074267139
sL2702580795L
I1074237324
sL3846506600L
I1074243828
sL4153343676L
I1074244344
sL3387824349L
I1074235804
sL2896295319L
I1074236716
sL3284957946L
I1074267628
sL1078524543L
I1074240284
sL4086940577L
I1074247792
sL1674148343L
I1074245328
sL2682232989L
I1074269640
sL3488383919L
I1074244752
sL2485902447L
I1074236596
sL165977259L
I1074240696
sL608548618L
I1074244460
sL4263947382L
I1074236420
sL189048340L
I1074242412
sL2166402678L
I1074235692
sL1585823442L
I1074244244
sL1622896354L
I1074244272
sL2884652713L
I1074269688
sL1480187747L
I1074242944
sL2000651361L
I1074269468
sL426938157L
I1074235164
sL1033735677L
I1074239276
sL1990489281L
I1074236820
sL3934645487L
I1074236688
sL2936866151L
I1074269396
sL1152036801L
I1074245288
sL944589347L
I1074240924
sL3007247178L
I1074238816
sL3476917835L
I1074236920
sL3566481634L
I1074247104
sL1295500608L
I1074241568
sL2128774811L
I1074236452
sL1699639348L
I1074239936
sL1848265815L
I1074244812
sL768348750L
I1074238764
sL3105332372L
I1074247628
sL3746397897L
I1074244144
sL3307282855L
I1074238120
sL2215519369L
I1074239880
sL1469549343L
I1074241788
sL3783111156L
I1074240656
sL4281497016L
I1074240672
sL2262796883L
I1074247192
sL3939485250L
I1074269604
sL491963612L
I1074237192
sL2351183787L
I1074241660
sL2050311845L
I1074238148
sL1043339424L
I1074240208
sL1184690188L
I1074245748
sL2056830218L
I1074247880
sL3617253641L
I1074245632
sL3944659338L
I1074246432
sL3380256487L
I1074235556
sL3371457387L
I1074269440
sL4038945309L
I1074235508
sL702070651L
I1074239392
sL2626436395L
I1074236864
sL21429742L
I1074236788
sL2300703883L
I1074247492
sL2617692077L
I1074239968
sL1696087219L
I1074267960
sL771111768L
I1074269872
sL2997001746L
I1074237152
sL1830125216L
I1074237400
sL152949160L
I1074268628
sL4033219551L
I1074269356
sL2819127986L
I1074236884
sL3756518490L
I1074245208
sL1346530812L
I1074237228
sL1877634603L
I1074270548
sL485067553L
I1074245000
sL3039517920L
I1074240752
sL3794060521L
I1074238900
sL3262741161L
I1074236272
sL851038825L
I1074246476
sL1074782686L
I1074244432
sL2951898659L
I1074245420
sL1168915326L
I1074235456
sL3649526100L
I1074244176
sL2263182908L
I1074238140
sL1244364279L
I1074240460
sL3630163135L
I1074236704
sL188664287L
I1074235132
sL1499807873L
I1074244392
sL3887716957L
I1074246944
sL3670064932L
I1074268572
sL692536993L
I1074237296
sL3753509968L
I1074237212
sL1621098576L
I1074242928
sL4271242081L
I1074245180
sL1245805501L
I1074237708
sL16109064L
I1074241116
sL612796283L
I1074245560
sL707696595L
I1074245604
sL626638502L
I1074245272
ssS'immediates'
p8
(dp9
sS'formaldups'
p10
c__builtin__
set
p11
((lp12
tp13
Rp14
sS'stringdups'
p15
g11
((lp16
tp17
Rp18
sS'fuzzydups'
p19
g11
((lp20
tp21
Rp22
sS'strings'
p23
(dp24
sS'functions'
p25
(dp26
I1074236420
(Vbootloader_common_get_chip_ver_pkg
p27
(lp28
(L183333409L
L0L
(lp29
(lp30
tp31
atp32
sI1074245632
(Vrtc_clk_cpu_freq_to_xtal
p33
(lp34
(L2141077330L
L0L
(lp35
(lp36
tp37
a(L94425498L
L3785322319L
(lp38
(lp39
Vabort
p40
atp41
a(L3061694082L
L3785322319L
(lp42
(lp43
Vrtc_clk_apb_freq_update
p44
atp45
a(L2258867232L
L0L
(lp46
(lp47
tp48
a(L1662590544L
L0L
(lp49
(lp50
tp51
atp52
sI1074246912
(Vrtc_clk_cal_ratio
p53
(lp54
(L606352554L
L3785322319L
(lp55
(lp56
Vrtc_clk_cal_internal
p57
atp58
atp59
sI1074267136
(V_init
p60
(lp61
(L3493042598L
L0L
(lp62
(lp63
tp64
atp65
sI1074269440
(Vbootloader_check_bootloader_validity
p66
(lp67
(L1977038998L
L1880226080L
(lp68
(lp69
Vefuse_hal_chip_revision
p70
aVbootloader_common_check_chip_validity
p71
atp72
atp73
sI1074237708
(Vbootloader_flash_read
p74
(lp75
(L728393898L
L0L
(lp76
(lp77
tp78
a(L1529902986L
L3785322319L
(lp79
(lp80
Vesp_log_early_timestamp
p81
atp82
a(L1941789336L
L0L
(lp83
(lp84
tp85
a(L3360570486L
L0L
(lp86
(lp87
tp88
a(L2660352519L
L0L
(lp89
(lp90
tp91
a(L814874742L
L3785322319L
(lp92
(lp93
Vesp_log_early_timestamp
p94
atp95
a(L162336582L
L0L
(lp96
(lp97
tp98
a(L28820691L
L3785322319L
(lp99
(lp100
Vesp_log_early_timestamp
p101
atp102
a(L3020204L
L0L
(lp103
(lp104
tp105
a(L3893043951L
L0L
(lp106
(lp107
tp108
a(L97422L
L0L
(lp109
(lp110
tp111
a(L228131341L
L0L
(lp112
(lp113
tp114
a(L578201018L
L0L
(lp115
(lp116
tp117
a(L1424127111L
L3785322319L
(lp118
(lp119
V__assert_func
p120
atp121
a(L180959520L
L0L
(lp122
(lp123
tp124
a(L4094456363L
L0L
(lp125
(lp126
tp127
a(L2913359312L
L1880226080L
(lp128
(lp129
Vesp_rom_spiflash_read
p130
aVspi_to_esp_err
p131
atp132
atp133
sI1074267139
(V_text_start
p134
(lp135
(L1817914933L
L0L
(lp136
(lp137
tp138
atp139
sI1074270468
(Vrtc_vddsdio_set_config
p140
(lp141
(L2189075524L
L0L
(lp142
(lp143
tp144
atp145
sI1074244872
(Vrtc_clk_8m_enable
p146
(lp147
(L3467512228L
L0L
(lp148
(lp149
tp150
a(L958512770L
L0L
(lp151
(lp152
tp153
a(L2151320156L
L0L
(lp154
(lp155
tp156
a(L2201080984L
L0L
(lp157
(lp158
tp159
a(L3360570486L
L0L
(lp160
(lp161
tp162
a(L1318267208L
L0L
(lp163
(lp164
tp165
a(L142324239L
L0L
(lp166
(lp167
tp168
atp169
sI1074237960
(Vbootloader_flash_erase_sector
p170
(lp171
(L4129137686L
L1880226080L
(lp172
(lp173
Vesp_rom_spiflash_erase_sector
p174
aVspi_to_esp_err
p175
atp176
atp177
sI1074237192
(Vbootloader_common_reset_rtc_retain_mem
p178
(lp179
(L2156447971L
L0L
(lp180
(lp181
tp182
atp183
sI1074240276
(Vbootloader_debug_buffer
p184
(lp185
(L2100504542L
L0L
(lp186
(lp187
tp188
atp189
sI1074238228
(Vbootloader_random_disable
p190
(lp191
(L3480345462L
L0L
(lp192
(lp193
tp194
atp195
sI1074269468
(Vbootloader_config_wdt
p196
(lp197
(L4027912329L
L505859776L
(lp198
(lp199
Vwdt_hal_write_protect_disable
p200
aVwdt_hal_set_flashboot_en
p201
aVwdt_hal_write_protect_enable
p202
aVwdt_hal_init
p203
aVrtc_clk_slow_freq_get_hz
p204
aVwdt_hal_write_protect_disable
p205
aVwdt_hal_config_stage
p206
aVwdt_hal_enable
p207
aVwdt_hal_write_protect_enable
p208
aVwdt_hal_write_protect_disable
p209
aVwdt_hal_set_flashboot_en
p210
aVwdt_hal_write_protect_enable
p211
atp212
atp213
sI1074236688
(Vefuse_hal_get_minor_chip_version
p214
(lp215
(L3957579839L
L0L
(lp216
(lp217
tp218
atp219
sI1074240284
(Vbootloader_sha256_start
p220
(lp221
(L1796316433L
L0L
(lp222
(lp223
tp224
atp225
sI1074234652
(Vbootloader_flash_execute_command_common
p226
(lp227
(L3865052895L
L0L
(lp228
(lp229
tp230
a(L3287175998L
L0L
(lp231
(lp232
tp233
a(L4121451103L
L3785322319L
(lp234
(lp235
V__assert_func
p236
atp237
a(L3021749L
L0L
(lp238
(lp239
tp240
a(L3999871974L
L0L
(lp241
(lp242
tp243
a(L543316797L
L0L
(lp244
(lp245
tp246
a(L2091933878L
L0L
(lp247
(lp248
tp249
a(L1702379862L
L0L
(lp250
(lp251
tp252
a(L3432464320L
L0L
(lp253
(lp254
tp255
a(L3539375712L
L0L
(lp256
(lp257
tp258
a(L3244449450L
L0L
(lp259
(lp260
tp261
a(L4233404408L
L0L
(lp262
(lp263
tp264
a(L2990329343L
L0L
(lp265
(lp266
tp267
a(L2051090536L
L0L
(lp268
(lp269
tp270
a(L3333696662L
L0L
(lp271
(lp272
tp273
a(L963425213L
L0L
(lp274
(lp275
tp276
a(L339491738L
L0L
(lp277
(lp278
tp279
a(L3360570486L
L0L
(lp280
(lp281
tp282
atp283
sI1074235164
(Vbootloader_flash_unlock
p284
(lp285
(L2142380611L
L3785322319L
(lp286
(lp287
Vesp_rom_spiflash_wait_idle
p288
atp289
a(L4212373562L
L0L
(lp290
(lp291
tp292
a(L4292483033L
L3785322319L
(lp293
(lp294
Vbootloader_execute_flash_command
p295
atp296
a(L106L
L0L
(lp297
(lp298
tp299
a(L1303560644L
L0L
(lp300
(lp301
tp302
a(L610618440L
L0L
(lp303
(lp304
tp305
a(L106L
L0L
(lp306
(lp307
tp308
a(L345249462L
L0L
(lp309
(lp310
tp311
a(L106L
L0L
(lp312
(lp313
tp314
a(L1024465569L
L0L
(lp315
(lp316
tp317
a(L106L
L0L
(lp318
(lp319
tp320
a(L1481761147L
L1880226080L
(lp321
(lp322
Vbootloader_execute_flash_command
p323
aVbootloader_execute_flash_command
p324
atp325
a(L2258807654L
L0L
(lp326
(lp327
tp328
a(L489806350L
L1832448559L
(lp329
(lp330
Vesp_rom_spiflash_wait_idle
p331
aVbootloader_execute_flash_command
p332
aVbootloader_execute_flash_command
p333
atp334
a(L879744646L
L1832448559L
(lp335
(lp336
Vesp_rom_spiflash_wait_idle
p337
aVbootloader_execute_flash_command
p338
aVbootloader_execute_flash_command
p339
atp340
a(L1840772931L
L1880226080L
(lp341
(lp342
Vesp_rom_spiflash_wait_idle
p343
aVbootloader_execute_flash_command
p344
atp345
a(L2993202392L
L0L
(lp346
(lp347
tp348
a(L508800419L
L1880226080L
(lp349
(lp350
Vbootloader_execute_flash_command
p351
aVbootloader_execute_flash_command
p352
atp353
a(L1303560369L
L0L
(lp354
(lp355
tp356
a(L1596544945L
L0L
(lp357
(lp358
tp359
a(L97689L
L0L
(lp360
(lp361
tp362
a(L106L
L0L
(lp363
(lp364
tp365
atp366
sI1074237212
(Vbootloader_common_get_rtc_retain_mem_partition
p367
(lp368
(L1838455070L
L3785322319L
(lp369
(lp370
Vcheck_rtc_retain_mem
p371
atp372
a(L702737588L
L0L
(lp373
(lp374
tp375
a(L3360570486L
L0L
(lp376
(lp377
tp378
atp379
sI1074237980
(Vbootloader_flash_write
p380
(lp381
(L3770380603L
L0L
(lp382
(lp383
tp384
a(L3460770298L
L3785322319L
(lp385
(lp386
Vesp_log_early_timestamp
p387
atp388
a(L3833270346L
L0L
(lp389
(lp390
tp391
a(L1610445075L
L0L
(lp392
(lp393
tp394
a(L735741265L
L0L
(lp395
(lp396
tp397
a(L3291333414L
L0L
(lp398
(lp399
tp400
a(L237710506L
L3785322319L
(lp401
(lp402
Vesp_log_early_timestamp
p403
atp404
a(L3283691850L
L0L
(lp405
(lp406
tp407
a(L1606356731L
L3785322319L
(lp408
(lp409
Vesp_log_early_timestamp
p410
atp411
a(L3212356251L
L3785322319L
(lp412
(lp413
Vbootloader_flash_unlock
p414
atp415
a(L1799218633L
L0L
(lp416
(lp417
tp418
a(L94425498L
L3785322319L
(lp419
(lp420
Vesp_rom_spiflash_write_encrypted
p421
atp422
a(L2927190544L
L3785322319L
(lp423
(lp424
Vspi_to_esp_err
p425
atp426
a(L2927190544L
L3785322319L
(lp427
(lp428
Vesp_rom_spiflash_write
p429
atp430
atp431
sI1074247192
(Vesp_rom_spiflash_wait_idle
p432
(lp433
(L3233075895L
L0L
(lp434
(lp435
tp436
a(L2023766174L
L0L
(lp437
(lp438
tp439
a(L2805933915L
L0L
(lp440
(lp441
tp442
a(L3086959262L
L0L
(lp443
(lp444
tp445
a(L4161019926L
L3785322319L
(lp446
(lp447
Vesp_rom_spiflash_read_status
p448
atp449
atp450
sI1074236452
(Vesp_rom_uart_tx_wait_idle
p451
(lp452
(L2733747073L
L0L
(lp453
(lp454
tp455
a(L1301079727L
L0L
(lp456
(lp457
tp458
a(L3597746521L
L0L
(lp459
(lp460
tp461
a(L3694491048L
L0L
(lp462
(lp463
tp464
a(L3055926844L
L0L
(lp465
(lp466
tp467
a(L3360570486L
L0L
(lp468
(lp469
tp470
atp471
sI1074241568
(Vprocess_appended_hash_and_sig
p472
(lp473
(L1668084157L
L0L
(lp474
(lp475
tp476
a(L2910371777L
L0L
(lp477
(lp478
tp479
a(L1591589631L
L0L
(lp480
(lp481
tp482
a(L2551256078L
L0L
(lp483
(lp484
tp485
a(L1823937325L
L0L
(lp486
(lp487
tp488
a(L2646831755L
L3785322319L
(lp489
(lp490
Vesp_log_early_timestamp
p491
atp492
a(L2268304300L
L3785322319L
(lp493
(lp494
Vbootloader_flash_read
p495
atp496
a(L3871473710L
L0L
(lp497
(lp498
tp499
atp500
sI1074236704
(Vesp_dport_access_reg_read
p501
(lp502
(L1099794772L
L0L
(lp503
(lp504
tp505
atp506
sI1074246432
(Vrtc_clk_apb_freq_get
p507
(lp508
(L2902813935L
L0L
(lp509
(lp510
tp511
atp512
sI1074246944
(Vrtc_clk_wait_for_slow_cycle
p513
(lp514
(L1915709519L
L0L
(lp515
(lp516
tp517
a(L287687718L
L0L
(lp518
(lp519
tp520
a(L3360570486L
L0L
(lp521
(lp522
tp523
a(L3728108016L
L0L
(lp524
(lp525
tp526
a(L2994547433L
L0L
(lp527
(lp528
tp529
a(L3575231359L
L0L
(lp530
(lp531
tp532
a(L882885978L
L3785322319L
(lp533
(lp534
Vesp_log_early_timestamp
p535
atp536
atp537
sI1074235692
(Vbootloader_flash_cs_timing_config
p538
(lp539
(L6299057L
L0L
(lp540
(lp541
tp542
atp543
sI1074236716
(Vis_xmc_chip_strict
p544
(lp545
(L1286841609L
L0L
(lp546
(lp547
tp548
a(L2234016759L
L0L
(lp549
(lp550
tp551
a(L1069027148L
L0L
(lp552
(lp553
tp554
a(L3021749L
L0L
(lp555
(lp556
tp557
a(L1900148749L
L0L
(lp558
(lp559
tp560
a(L1936875721L
L0L
(lp561
(lp562
tp563
a(L3356166509L
L0L
(lp564
(lp565
tp566
a(L1937769451L
L0L
(lp567
(lp568
tp569
a(L2137658907L
L0L
(lp570
(lp571
tp572
a(L4265949734L
L0L
(lp573
(lp574
tp575
a(L3360570486L
L0L
(lp576
(lp577
tp578
atp579
sI1074237228
(Vbootloader_common_update_rtc_retain_mem
p580
(lp581
(L2958000229L
L0L
(lp582
(lp583
tp584
a(L3212356251L
L3785322319L
(lp585
(lp586
Vcheck_rtc_retain_mem
p587
atp588
a(L94425498L
L3785322319L
(lp589
(lp590
Vbootloader_common_reset_rtc_retain_mem
p591
atp592
a(L3236027284L
L0L
(lp593
(lp594
tp595
a(L4140856694L
L0L
(lp596
(lp597
tp598
a(L646763617L
L0L
(lp599
(lp600
tp601
a(L1466453772L
L0L
(lp602
(lp603
tp604
a(L894344120L
L0L
(lp605
(lp606
tp607
atp608
sI1074238764
(Vcache_ll_l1_enable_bus
p609
(lp610
(L1908488057L
L0L
(lp611
(lp612
tp613
atp614
sI1074239276
(Vset_actual_ota_seq
p615
(lp616
(L4094723830L
L0L
(lp617
(lp618
tp619
a(L952758373L
L0L
(lp620
(lp621
tp622
a(L766230292L
L1832448559L
(lp623
(lp624
Vbootloader_common_ota_select_crc
p625
aVesp_flash_encryption_enabled
p626
aVbootloader_flash_erase_sector
p627
atp628
a(L300669811L
L3785322319L
(lp629
(lp630
Vbootloader_flash_write
p631
atp632
a(L187239187L
L3785322319L
(lp633
(lp634
Vesp_log_early_timestamp
p635
atp636
a(L889933560L
L1880226080L
(lp637
(lp638
Vindex_to_partition
p639
aVbootloader_common_update_rtc_retain_mem
p640
atp641
atp642
sI1074245420
(Vrtc_clk_cpu_freq_get_config
p643
(lp644
(L409213060L
L0L
(lp645
(lp646
tp647
a(L3020187L
L0L
(lp648
(lp649
tp650
a(L3020187L
L0L
(lp651
(lp652
tp653
a(L3219192648L
L3785322319L
(lp654
(lp655
Vrtc_clk_xtal_freq_get
p656
atp657
a(L3789795478L
L0L
(lp658
(lp659
tp660
a(L1205645677L
L1880226080L
(lp661
(lp662
Vesp_log_early_timestamp
p663
aVabort
p664
atp665
a(L2093105293L
L0L
(lp666
(lp667
tp668
a(L3020187L
L0L
(lp669
(lp670
tp671
a(L3028481L
L0L
(lp672
(lp673
tp674
a(L38508693L
L0L
(lp675
(lp676
tp677
a(L187152368L
L0L
(lp678
(lp679
tp680
a(L1161083655L
L0L
(lp681
(lp682
tp683
a(L1395485899L
L0L
(lp684
(lp685
tp686
a(L2070600034L
L0L
(lp687
(lp688
tp689
atp690
sI1074244392
(Vefuse_hal_get_rated_freq_mhz
p691
(lp692
(L3387138627L
L0L
(lp693
(lp694
tp695
a(L3671388797L
L0L
(lp696
(lp697
tp698
a(L3360570486L
L0L
(lp699
(lp700
tp701
atp702
sI1074267960
(Vbootloader_init
p703
(lp704
(L1256100286L
L3785322319L
(lp705
(lp706
Vbootloader_init_mem
p707
atp708
a(L2496550926L
L0L
(lp709
(lp710
tp711
a(L2027378118L
L3785322319L
(lp712
(lp713
V__assert_func
p714
atp715
a(L408886226L
L0L
(lp716
(lp717
tp718
a(L3771730718L
L0L
(lp719
(lp720
tp721
a(L3813782018L
L0L
(lp722
(lp723
tp724
a(L1676258143L
L0L
(lp725
(lp726
tp727
a(L3027019L
L0L
(lp728
(lp729
tp730
a(L2165555555L
L0L
(lp731
(lp732
tp733
a(L1797062121L
L1832448559L
(lp734
(lp735
Vbootloader_clear_bss_section
p736
aVbootloader_common_vddsdio_configure
p737
aVbootloader_clock_get_rated_freq_mhz
p738
atp739
a(L3987130017L
L1157885199L
(lp740
(lp741
Vbootloader_clock_configure
p742
aVbootloader_console_init
p743
aVbootloader_print_banner
p744
aVbootloader_flash_update_id
p745
aVbootloader_flash_xmc_startup
p746
atp747
a(L1371217416L
L3785322319L
(lp748
(lp749
Vesp_log_early_timestamp
p750
atp751
a(L2835491336L
L3785322319L
(lp752
(lp753
Vesp_log_early_timestamp
p754
atp755
a(L3360570486L
L0L
(lp756
(lp757
tp758
a(L1375577398L
L3785322319L
(lp759
(lp760
Vbootloader_read_bootloader_header
p761
atp762
a(L2444883382L
L3785322319L
(lp763
(lp764
Vbootloader_check_bootloader_validity
p765
atp766
a(L1153606775L
L2485746240L
(lp767
(lp768
Vbootloader_flash_gpio_config
p769
aVbootloader_flash_dummy_config
p770
aVbootloader_flash_cs_timing_config
p771
aVbootloader_flash_unlock
p772
atp773
a(L93837694L
L0L
(lp774
(lp775
tp776
a(L106L
L0L
(lp777
(lp778
tp779
a(L3226039662L
L0L
(lp780
(lp781
tp782
a(L1265057524L
L0L
(lp783
(lp784
tp785
a(L2806354006L
L0L
(lp786
(lp787
tp788
a(L1944969037L
L3785322319L
(lp789
(lp790
Vbootloader_enable_wp
p791
atp792
a(L378895346L
L0L
(lp793
(lp794
tp795
a(L1895147922L
L0L
(lp796
(lp797
tp798
a(L3457636795L
L3785322319L
(lp799
(lp800
Vesp_log_early_timestamp
p801
atp802
a(L1837681143L
L0L
(lp803
(lp804
tp805
a(L1873516030L
L0L
(lp806
(lp807
tp808
a(L1895147922L
L0L
(lp809
(lp810
tp811
a(L14182512L
L3785322319L
(lp812
(lp813
Vesp_log_early_timestamp
p814
atp815
a(L4263191691L
L1880226080L
(lp816
(lp817
Vwdt_reset_info_dump
p818
aVwdt_reset_info_dump
p819
atp820
a(L385083117L
L0L
(lp821
(lp822
tp823
a(L3028481L
L0L
(lp824
(lp825
tp826
a(L2920982674L
L1880226080L
(lp827
(lp828
Vbootloader_config_wdt
p829
aVbootloader_enable_random
p830
atp831
atp832
sI1074244144
(Vwdt_hal_write_protect_disable
p833
(lp834
(L1657773300L
L0L
(lp835
(lp836
tp837
a(L4195472003L
L0L
(lp838
(lp839
tp840
a(L3360570486L
L0L
(lp841
(lp842
tp843
a(L1210571996L
L0L
(lp844
(lp845
tp846
atp847
sI1074240304
(Vbootloader_sha256_data
p848
(lp849
(L4066096136L
L0L
(lp850
(lp851
tp852
a(L1556310480L
L0L
(lp853
(lp854
tp855
a(L792144543L
L3785322319L
(lp856
(lp857
V__assert_func
p858
atp859
a(L498498478L
L0L
(lp860
(lp861
tp862
a(L2106768940L
L0L
(lp863
(lp864
tp865
a(L2910371777L
L0L
(lp866
(lp867
tp868
a(L3360570486L
L0L
(lp869
(lp870
tp871
a(L2562755902L
L0L
(lp872
(lp873
tp874
a(L541898147L
L0L
(lp875
(lp876
tp877
a(L202733164L
L0L
(lp878
(lp879
tp880
a(L415778995L
L0L
(lp881
(lp882
tp883
a(L1812002120L
L0L
(lp884
(lp885
tp886
a(L2032890799L
L0L
(lp887
(lp888
tp889
a(L3028464L
L0L
(lp890
(lp891
tp892
a(L1716524891L
L0L
(lp893
(lp894
tp895
a(L2923346413L
L0L
(lp896
(lp897
tp898
atp899
sI1074245168
(Vrtc_clk_slow_src_get
p900
(lp901
(L376617603L
L3785322319L
(lp902
(lp903
Vclk_ll_rtc_slow_get_src
p904
atp905
atp906
sI1074245180
(Vrtc_clk_slow_freq_get_hz
p907
(lp908
(L1826267122L
L3785322319L
(lp909
(lp910
Vclk_ll_rtc_slow_get_src
p911
atp912
a(L4026793049L
L0L
(lp913
(lp914
tp915
a(L3631005815L
L0L
(lp916
(lp917
tp918
a(L702739859L
L0L
(lp919
(lp920
tp921
a(L3360570486L
L0L
(lp922
(lp923
tp924
atp925
sI1074247492
(Vesp_rom_spiflash_erase_sector
p926
(lp927
(L4132175760L
L0L
(lp928
(lp929
tp930
a(L2258688483L
L0L
(lp931
(lp932
tp933
a(L3360570486L
L0L
(lp934
(lp935
tp936
a(L3212356251L
L3785322319L
(lp937
(lp938
Vesp_rom_spiflash_enable_write
p939
atp940
a(L184152988L
L0L
(lp941
(lp942
tp943
a(L1649828081L
L3785322319L
(lp944
(lp945
Vesp_rom_spiflash_wait_idle
p946
atp947
a(L3333707777L
L0L
(lp948
(lp949
tp950
a(L3582858798L
L3785322319L
(lp951
(lp952
Vesp_rom_spiflash_wait_idle
p953
atp954
atp955
sI1074270540
(Vbootloader_print_banner
p956
(lp957
(L2100504542L
L0L
(lp958
(lp959
tp960
atp961
sI1074235456
(Vbootloader_flash_read_sfdp
p962
(lp963
(L711701400L
L0L
(lp964
(lp965
tp966
a(L3334003234L
L3785322319L
(lp967
(lp968
V__assert_func
p969
atp970
a(L3704332455L
L3785322319L
(lp971
(lp972
Vbootloader_flash_execute_command_common
p973
atp974
atp975
sI1074246476
(Vrtc_clk_cal_internal
p976
(lp977
(L1883690701L
L0L
(lp978
(lp979
tp980
a(L4262452036L
L3785322319L
(lp981
(lp982
V__assert_func
p983
atp984
a(L678778680L
L0L
(lp985
(lp986
tp987
a(L54826884L
L0L
(lp988
(lp989
tp990
a(L234746575L
L0L
(lp991
(lp992
tp993
a(L861896856L
L3785322319L
(lp994
(lp995
Vrtc_clk_8m_enable
p996
atp997
a(L4273380925L
L3785322319L
(lp998
(lp999
Vrtc_clk_slow_src_get
p1000
atp1001
a(L1211065969L
L0L
(lp1002
(lp1003
tp1004
a(L97689L
L0L
(lp1005
(lp1006
tp1007
a(L1571791292L
L0L
(lp1008
(lp1009
tp1010
a(L3028464L
L0L
(lp1011
(lp1012
tp1013
a(L3028481L
L0L
(lp1014
(lp1015
tp1016
a(L3450258550L
L0L
(lp1017
(lp1018
tp1019
a(L3730520838L
L3785322319L
(lp1020
(lp1021
Vrtc_clk_xtal_freq_get
p1022
atp1023
a(L2780079961L
L0L
(lp1024
(lp1025
tp1026
a(L1037195011L
L0L
(lp1027
(lp1028
tp1029
a(L1732394985L
L3785322319L
(lp1030
(lp1031
Vesp_log_early_timestamp
p1032
atp1033
a(L3360570486L
L0L
(lp1034
(lp1035
tp1036
a(L1929618180L
L0L
(lp1037
(lp1038
tp1039
a(L2997319531L
L0L
(lp1040
(lp1041
tp1042
a(L2910371777L
L0L
(lp1043
(lp1044
tp1045
a(L2902417580L
L0L
(lp1046
(lp1047
tp1048
a(L2698423615L
L0L
(lp1049
(lp1050
tp1051
a(L3631005548L
L0L
(lp1052
(lp1053
tp1054
a(L3584126839L
L0L
(lp1055
(lp1056
tp1057
a(L3352263364L
L0L
(lp1058
(lp1059
tp1060
a(L3028464L
L0L
(lp1061
(lp1062
tp1063
a(L743141986L
L3785322319L
(lp1064
(lp1065
Vrtc_clk_8m_enable
p1066
atp1067
atp1068
sI1074247240
(Vesp_rom_spiflash_enable_write
p1069
(lp1070
(L1732876573L
L3785322319L
(lp1071
(lp1072
Vesp_rom_spiflash_wait_idle
p1073
atp1074
a(L3137194272L
L0L
(lp1075
(lp1076
tp1077
a(L2258718275L
L0L
(lp1078
(lp1079
tp1080
a(L99543895L
L0L
(lp1081
(lp1082
tp1083
a(L2993202392L
L0L
(lp1084
(lp1085
tp1086
a(L1804543818L
L3785322319L
(lp1087
(lp1088
Vesp_rom_spiflash_read_status
p1089
atp1090
atp1091
sI1074267740
(Vwdt_reset_info_dump
p1092
(lp1093
(L4037466985L
L0L
(lp1094
(lp1095
tp1096
a(L826419141L
L0L
(lp1097
(lp1098
tp1099
a(L527117834L
L0L
(lp1100
(lp1101
tp1102
a(L1103285333L
L0L
(lp1103
(lp1104
tp1105
a(L897464656L
L3785322319L
(lp1106
(lp1107
Vesp_log_early_timestamp
p1108
atp1109
a(L2967992533L
L0L
(lp1110
(lp1111
tp1112
a(L144195250L
L3785322319L
(lp1113
(lp1114
Vesp_log_early_timestamp
p1115
atp1116
a(L2899013701L
L0L
(lp1117
(lp1118
tp1119
atp1120
sI1074244432
(Vclk_ll_rtc_slow_get_src
p1121
(lp1122
(L3224093877L
L0L
(lp1123
(lp1124
tp1125
a(L3020187L
L0L
(lp1126
(lp1127
tp1128
a(L2902417580L
L0L
(lp1129
(lp1130
tp1131
a(L2258688485L
L0L
(lp1132
(lp1133
tp1134
a(L3360570486L
L0L
(lp1135
(lp1136
tp1137
atp1138
sI1074244176
(Vwdt_hal_set_flashboot_en
p1139
(lp1140
(L2375320464L
L0L
(lp1141
(lp1142
tp1143
a(L3915867581L
L0L
(lp1144
(lp1145
tp1146
a(L3360570486L
L0L
(lp1147
(lp1148
tp1149
a(L2321842085L
L0L
(lp1150
(lp1151
tp1152
atp1153
sI1074238544
(Vbootloader_clock_get_rated_freq_mhz
p1154
(lp1155
(L376617603L
L3785322319L
(lp1156
(lp1157
Vefuse_hal_get_rated_freq_mhz
p1158
atp1159
atp1160
sI1074238556
(Vlog_invalid_app_partition
p1161
(lp1162
(L2707828686L
L0L
(lp1163
(lp1164
tp1165
a(L3028464L
L0L
(lp1166
(lp1167
tp1168
a(L2298485649L
L3785322319L
(lp1169
(lp1170
Vesp_log_early_timestamp
p1171
atp1172
a(L3833270346L
L0L
(lp1173
(lp1174
tp1175
a(L3360570486L
L0L
(lp1176
(lp1177
tp1178
a(L3570313202L
L3785322319L
(lp1179
(lp1180
Vesp_log_early_timestamp
p1181
atp1182
a(L116508190L
L3785322319L
(lp1183
(lp1184
Vesp_log_early_timestamp
p1185
atp1186
atp1187
sI1074241116
(Vbootloader_util_regions_overlap
p1188
(lp1189
(L2762640130L
L0L
(lp1190
(lp1191
tp1192
a(L3400746973L
L0L
(lp1193
(lp1194
tp1195
a(L1364132917L
L3785322319L
(lp1196
(lp1197
V__assert_func
p1198
atp1199
a(L97642L
L0L
(lp1200
(lp1201
tp1202
a(L695383512L
L0L
(lp1203
(lp1204
tp1205
a(L366123053L
L0L
(lp1206
(lp1207
tp1208
a(L2258867228L
L0L
(lp1209
(lp1210
tp1211
a(L1253626734L
L0L
(lp1212
(lp1213
tp1214
a(L2258897019L
L0L
(lp1215
(lp1216
tp1217
a(L3109269495L
L0L
(lp1218
(lp1219
tp1220
atp1221
sI1074270548
(Vmpu_hal_set_region_access
p1222
(lp1223
(L3538356822L
L0L
(lp1224
(lp1225
tp1226
a(L93674324L
L0L
(lp1227
(lp1228
tp1229
a(L2910371777L
L0L
(lp1230
(lp1231
tp1232
a(L3472092938L
L0L
(lp1233
(lp1234
tp1235
a(L3020187L
L0L
(lp1236
(lp1237
tp1238
a(L3360570486L
L0L
(lp1239
(lp1240
tp1241
a(L2258718273L
L0L
(lp1242
(lp1243
tp1244
a(L3446648619L
L0L
(lp1245
(lp1246
tp1247
a(L3739532189L
L0L
(lp1248
(lp1249
tp1250
a(L1300789895L
L0L
(lp1251
(lp1252
tp1253
atp1254
sI1074245208
(Vrtc_clk_fast_src_set
p1255
(lp1256
(L1794473941L
L0L
(lp1257
(lp1258
tp1259
a(L3020187L
L0L
(lp1260
(lp1261
tp1262
a(L3827921190L
L3785322319L
(lp1263
(lp1264
Vabort
p1265
atp1266
a(L2904656757L
L0L
(lp1267
(lp1268
tp1269
a(L2553436348L
L0L
(lp1270
(lp1271
tp1272
a(L300459962L
L0L
(lp1273
(lp1274
tp1275
atp1276
sI1074236516
(Vesp_rom_uart_set_clock_baudrate
p1277
(lp1278
(L3381693543L
L0L
(lp1279
(lp1280
tp1281
a(L2334982986L
L0L
(lp1282
(lp1283
tp1284
a(L2805931264L
L0L
(lp1285
(lp1286
tp1287
a(L3887231631L
L0L
(lp1288
(lp1289
tp1290
atp1291
sI1074238816
(Vtry_load_partition
p1292
(lp1293
(L1898493800L
L0L
(lp1294
(lp1295
tp1296
a(L2454209732L
L3785322319L
(lp1297
(lp1298
Vbootloader_load_image
p1299
atp1300
a(L3360570486L
L0L
(lp1301
(lp1302
tp1303
atp1304
sI1074242912
(Vbootloader_load_image
p1305
(lp1306
(L1155870502L
L3785322319L
(lp1307
(lp1308
Vimage_load
p1309
atp1310
atp1311
sI1074242412
(Vimage_load
p1312
(lp1313
(L3559420668L
L0L
(lp1314
(lp1315
tp1316
a(L1899869541L
L0L
(lp1317
(lp1318
tp1319
a(L979631281L
L0L
(lp1320
(lp1321
tp1322
a(L1525480527L
L0L
(lp1323
(lp1324
tp1325
a(L1043148059L
L0L
(lp1326
(lp1327
tp1328
a(L2796536461L
L0L
(lp1329
(lp1330
tp1331
a(L3304643468L
L3785322319L
(lp1332
(lp1333
Vesp_log_early_timestamp
p1334
atp1335
a(L2068384292L
L0L
(lp1336
(lp1337
tp1338
a(L1968553470L
L3785322319L
(lp1339
(lp1340
Vbootloader_sha256_finish
p1341
atp1342
a(L1918045353L
L0L
(lp1343
(lp1344
tp1345
a(L3225218531L
L0L
(lp1346
(lp1347
tp1348
a(L3802071166L
L0L
(lp1349
(lp1350
tp1351
a(L1301867039L
L3785322319L
(lp1352
(lp1353
Vprocess_image_header
p1354
atp1355
a(L560228796L
L0L
(lp1356
(lp1357
tp1358
a(L4185758499L
L0L
(lp1359
(lp1360
tp1361
a(L1530940255L
L3785322319L
(lp1362
(lp1363
Vprocess_segments
p1364
atp1365
a(L1233227930L
L0L
(lp1366
(lp1367
tp1368
a(L2656707586L
L0L
(lp1369
(lp1370
tp1371
a(L2570888687L
L3785322319L
(lp1372
(lp1373
Vprocess_checksum
p1374
atp1375
a(L425503098L
L3785322319L
(lp1376
(lp1377
Vprocess_appended_hash_and_sig
p1378
atp1379
a(L780930979L
L0L
(lp1380
(lp1381
tp1382
a(L2334355956L
L0L
(lp1383
(lp1384
tp1385
a(L1430247473L
L0L
(lp1386
(lp1387
tp1388
a(L370263451L
L1880226080L
(lp1389
(lp1390
Vbootloader_sha256_finish
p1391
aVbootloader_debug_buffer
p1392
atp1393
a(L1903213756L
L1880226080L
(lp1394
(lp1395
Vesp_log_early_timestamp
p1396
aVbootloader_debug_buffer
p1397
atp1398
a(L1087646176L
L0L
(lp1399
(lp1400
tp1401
a(L2068384292L
L0L
(lp1402
(lp1403
tp1404
a(L3021148818L
L3785322319L
(lp1405
(lp1406
Vbootloader_sha256_finish
p1407
atp1408
a(L3028481L
L0L
(lp1409
(lp1410
tp1411
a(L139701033L
L0L
(lp1412
(lp1413
tp1414
a(L843241619L
L0L
(lp1415
(lp1416
tp1417
a(L772115669L
L0L
(lp1418
(lp1419
tp1420
a(L2787789065L
L0L
(lp1421
(lp1422
tp1423
a(L85798113L
L0L
(lp1424
(lp1425
tp1426
a(L1351513776L
L0L
(lp1427
(lp1428
tp1429
a(L159346313L
L3785322319L
(lp1430
(lp1431
Vshould_load
p1432
atp1433
a(L4218574503L
L0L
(lp1434
(lp1435
tp1436
a(L3338774213L
L0L
(lp1437
(lp1438
tp1439
a(L3464541874L
L0L
(lp1440
(lp1441
tp1442
a(L3349572949L
L0L
(lp1443
(lp1444
tp1445
a(L2192292519L
L0L
(lp1446
(lp1447
tp1448
a(L106L
L0L
(lp1449
(lp1450
tp1451
a(L26615924L
L0L
(lp1452
(lp1453
tp1454
a(L1299866312L
L0L
(lp1455
(lp1456
tp1457
a(L490060329L
L0L
(lp1458
(lp1459
tp1460
atp1461
sI1074244460
(Vrtc_clk_32k_enable_common
p1462
(lp1463
(L1797488440L
L0L
(lp1464
(lp1465
tp1466
a(L97689L
L0L
(lp1467
(lp1468
tp1469
a(L2218417250L
L0L
(lp1470
(lp1471
tp1472
a(L2062311415L
L0L
(lp1473
(lp1474
tp1475
a(L51458058L
L0L
(lp1476
(lp1477
tp1478
atp1479
sI1074270308
(Vrtc_vddsdio_get_config
p1480
(lp1481
(L1133339736L
L0L
(lp1482
(lp1483
tp1484
a(L3421108135L
L0L
(lp1485
(lp1486
tp1487
a(L3002774692L
L0L
(lp1488
(lp1489
tp1490
a(L526269410L
L0L
(lp1491
(lp1492
tp1493
a(L3892776265L
L0L
(lp1494
(lp1495
tp1496
a(L1813596024L
L0L
(lp1497
(lp1498
tp1499
a(L1306330959L
L0L
(lp1500
(lp1501
tp1502
a(L3813608488L
L0L
(lp1503
(lp1504
tp1505
atp1506
sI1074239604
(Vbootloader_utility_get_selected_boot_partition
p1507
(lp1508
(L2803238495L
L0L
(lp1509
(lp1510
tp1511
a(L1299867982L
L0L
(lp1512
(lp1513
tp1514
a(L3360570486L
L0L
(lp1515
(lp1516
tp1517
a(L3321193961L
L0L
(lp1518
(lp1519
tp1520
a(L3324438917L
L3785322319L
(lp1521
(lp1522
Vesp_log_early_timestamp
p1523
atp1524
a(L1726674248L
L0L
(lp1525
(lp1526
tp1527
a(L1375577398L
L3785322319L
(lp1528
(lp1529
Vbootloader_mmap
p1530
atp1531
a(L690258938L
L3785322319L
(lp1532
(lp1533
Vesp_log_early_timestamp
p1534
atp1535
a(L2297207609L
L1880226080L
(lp1536
(lp1537
Vbootloader_munmap
p1538
aVbootloader_common_ota_select_invalid
p1539
atp1540
a(L1103573946L
L0L
(lp1541
(lp1542
tp1543
a(L1876827316L
L3785322319L
(lp1544
(lp1545
Vbootloader_common_get_active_otadata
p1546
atp1547
a(L569346373L
L0L
(lp1548
(lp1549
tp1550
a(L3111084448L
L3785322319L
(lp1551
(lp1552
Vbootloader_common_ota_select_invalid
p1553
atp1554
a(L45272527L
L0L
(lp1555
(lp1556
tp1557
a(L847230968L
L0L
(lp1558
(lp1559
tp1560
a(L505081345L
L0L
(lp1561
(lp1562
tp1563
a(L919052234L
L3785322319L
(lp1564
(lp1565
Vbootloader_common_ota_select_crc
p1566
atp1567
a(L2287680455L
L0L
(lp1568
(lp1569
tp1570
a(L3542558037L
L3785322319L
(lp1571
(lp1572
Vbootloader_common_ota_select_crc
p1573
atp1574
a(L1299866312L
L0L
(lp1575
(lp1576
tp1577
a(L534083833L
L0L
(lp1578
(lp1579
tp1580
a(L3512937694L
L3785322319L
(lp1581
(lp1582
Vesp_log_early_timestamp
p1583
atp1584
a(L2867263840L
L0L
(lp1585
(lp1586
tp1587
a(L4142632904L
L3785322319L
(lp1588
(lp1589
Vesp_log_early_timestamp
p1590
atp1591
atp1592
sI1074236788
(Vesp_log_early_timestamp
p1593
(lp1594
(L387765101L
L0L
(lp1595
(lp1596
tp1597
atp1598
sI1074235508
(Vbootloader_read_flash_id
p1599
(lp1600
(L549578328L
L3785322319L
(lp1601
(lp1602
Vbootloader_execute_flash_command
p1603
atp1604
atp1605
sI1074245748
(Vrtc_clk_cpu_freq_set_config
p1606
(lp1607
(L2905802440L
L3785322319L
(lp1608
(lp1609
Vrtc_clk_xtal_freq_get
p1610
atp1611
a(L3020187L
L0L
(lp1612
(lp1613
tp1614
a(L3028464L
L0L
(lp1615
(lp1616
tp1617
a(L264223053L
L1880226080L
(lp1618
(lp1619
Vrtc_clk_cpu_freq_to_xtal
p1620
aVrtc_clk_wait_for_slow_cycle
p1621
atp1622
a(L94425498L
L3785322319L
(lp1623
(lp1624
Vrtc_clk_bbpll_disable
p1625
atp1626
a(L3978916712L
L0L
(lp1627
(lp1628
tp1629
a(L2977209154L
L0L
(lp1630
(lp1631
tp1632
a(L2736411858L
L3785322319L
(lp1633
(lp1634
Vrtc_clk_cpu_freq_to_xtal
p1635
atp1636
a(L3360570486L
L0L
(lp1637
(lp1638
tp1639
a(L3020187L
L0L
(lp1640
(lp1641
tp1642
a(L106L
L0L
(lp1643
(lp1644
tp1645
a(L1623900789L
L1880226080L
(lp1646
(lp1647
Vrtc_clk_wait_for_slow_cycle
p1648
aVrtc_clk_xtal_freq_get
p1649
atp1650
a(L106L
L0L
(lp1651
(lp1652
tp1653
a(L283665098L
L0L
(lp1654
(lp1655
tp1656
a(L106L
L0L
(lp1657
(lp1658
tp1659
a(L83268611L
L0L
(lp1660
(lp1661
tp1662
a(L106L
L0L
(lp1663
(lp1664
tp1665
a(L82344823L
L0L
(lp1666
(lp1667
tp1668
a(L106L
L0L
(lp1669
(lp1670
tp1671
a(L1274797871L
L0L
(lp1672
(lp1673
tp1674
a(L4039217794L
L0L
(lp1675
(lp1676
tp1677
a(L245023096L
L1880226080L
(lp1678
(lp1679
Vclk_ll_rtc_slow_get_src
p1680
aVrtc_clk_cpu_freq_to_pll_mhz
p1681
atp1682
a(L519052461L
L0L
(lp1683
(lp1684
tp1685
a(L83268344L
L0L
(lp1686
(lp1687
tp1688
a(L82345090L
L0L
(lp1689
(lp1690
tp1691
a(L1299628291L
L0L
(lp1692
(lp1693
tp1694
a(L1457222360L
L0L
(lp1695
(lp1696
tp1697
a(L2258807646L
L0L
(lp1698
(lp1699
tp1700
a(L878473564L
L0L
(lp1701
(lp1702
tp1703
a(L2389426015L
L0L
(lp1704
(lp1705
tp1706
a(L1596574736L
L0L
(lp1707
(lp1708
tp1709
a(L2086626670L
L0L
(lp1710
(lp1711
tp1712
a(L1302638456L
L0L
(lp1713
(lp1714
tp1715
a(L810137203L
L0L
(lp1716
(lp1717
tp1718
a(L87353900L
L0L
(lp1719
(lp1720
tp1721
a(L3020187L
L0L
(lp1722
(lp1723
tp1724
a(L106L
L0L
(lp1725
(lp1726
tp1727
a(L4246636353L
L0L
(lp1728
(lp1729
tp1730
atp1731
sI1074236272
(Vbootloader_flash_dummy_config
p1732
(lp1733
(L379397211L
L0L
(lp1734
(lp1735
tp1736
a(L2761717557L
L0L
(lp1737
(lp1738
tp1739
a(L1849044936L
L0L
(lp1740
(lp1741
tp1742
a(L3702150741L
L0L
(lp1743
(lp1744
tp1745
a(L1010450057L
L0L
(lp1746
(lp1747
tp1748
a(L3020204L
L0L
(lp1749
(lp1750
tp1751
a(L1610443405L
L0L
(lp1752
(lp1753
tp1754
a(L4032120524L
L0L
(lp1755
(lp1756
tp1757
a(L2336993863L
L0L
(lp1758
(lp1759
tp1760
a(L1298875775L
L0L
(lp1761
(lp1762
tp1763
a(L3880393601L
L0L
(lp1764
(lp1765
tp1766
a(L3433671740L
L0L
(lp1767
(lp1768
tp1769
a(L1610443436L
L0L
(lp1770
(lp1771
tp1772
atp1773
sI1074237296
(Vbootloader_common_ota_select_invalid
p1774
(lp1775
(L4027567199L
L0L
(lp1776
(lp1777
tp1778
a(L3397985842L
L0L
(lp1779
(lp1780
tp1781
a(L2258867228L
L0L
(lp1782
(lp1783
tp1784
a(L3785235668L
L0L
(lp1785
(lp1786
tp1787
atp1788
sI1074242928
(Vbootloader_load_image_no_verify
p1789
(lp1790
(L3412781509L
L3785322319L
(lp1791
(lp1792
Vimage_load
p1793
atp1794
atp1795
sI1074247792
(Vesp_rom_spiflash_write_encrypted
p1796
(lp1797
(L1944247967L
L0L
(lp1798
(lp1799
tp1800
a(L1748820868L
L0L
(lp1801
(lp1802
tp1803
a(L97689L
L0L
(lp1804
(lp1805
tp1806
a(L3061232074L
L0L
(lp1807
(lp1808
tp1809
a(L1285878496L
L0L
(lp1810
(lp1811
tp1812
a(L1309309703L
L3785322319L
(lp1813
(lp1814
Vesp_rom_spiflash_write
p1815
atp1816
a(L2371036837L
L0L
(lp1817
(lp1818
tp1819
a(L735741265L
L0L
(lp1820
(lp1821
tp1822
atp1823
sI1074241660
(Vshould_load
p1824
(lp1825
(L3879152057L
L0L
(lp1826
(lp1827
tp1828
a(L1182990556L
L0L
(lp1829
(lp1830
tp1831
a(L169554709L
L0L
(lp1832
(lp1833
tp1834
a(L2306467100L
L0L
(lp1835
(lp1836
tp1837
a(L524505062L
L0L
(lp1838
(lp1839
tp1840
a(L2258897019L
L0L
(lp1841
(lp1842
tp1843
a(L3781799363L
L0L
(lp1844
(lp1845
tp1846
a(L3028464L
L0L
(lp1847
(lp1848
tp1849
a(L3683702757L
L0L
(lp1850
(lp1851
tp1852
a(L4277114872L
L0L
(lp1853
(lp1854
tp1855
a(L2824381917L
L0L
(lp1856
(lp1857
tp1858
a(L1243412227L
L0L
(lp1859
(lp1860
tp1861
a(L2011157548L
L0L
(lp1862
(lp1863
tp1864
a(L3126521138L
L0L
(lp1865
(lp1866
tp1867
a(L1305407438L
L0L
(lp1868
(lp1869
tp1870
a(L1305407469L
L0L
(lp1871
(lp1872
tp1873
atp1874
sI1074247300
(Vesp_rom_spiflash_program_page_internal
p1875
(lp1876
(L2569069283L
L0L
(lp1877
(lp1878
tp1879
a(L2258688483L
L0L
(lp1880
(lp1881
tp1882
a(L3360570486L
L0L
(lp1883
(lp1884
tp1885
a(L2757683300L
L0L
(lp1886
(lp1887
tp1888
a(L4235661475L
L3785322319L
(lp1889
(lp1890
Vesp_rom_spiflash_wait_idle
p1891
atp1892
a(L1299866312L
L0L
(lp1893
(lp1894
tp1895
a(L3212356251L
L3785322319L
(lp1896
(lp1897
Vesp_rom_spiflash_enable_write
p1898
atp1899
a(L2861339156L
L0L
(lp1900
(lp1901
tp1902
a(L1023242343L
L0L
(lp1903
(lp1904
tp1905
a(L2953702749L
L0L
(lp1906
(lp1907
tp1908
a(L2989032L
L0L
(lp1909
(lp1910
tp1911
a(L1965622133L
L0L
(lp1912
(lp1913
tp1914
a(L2606475588L
L0L
(lp1915
(lp1916
tp1917
a(L1958113242L
L0L
(lp1918
(lp1919
tp1920
a(L106L
L0L
(lp1921
(lp1922
tp1923
a(L3112950080L
L0L
(lp1924
(lp1925
tp1926
a(L1868606439L
L0L
(lp1927
(lp1928
tp1929
a(L1008983796L
L0L
(lp1930
(lp1931
tp1932
a(L1933954923L
L0L
(lp1933
(lp1934
tp1935
a(L1147866918L
L0L
(lp1936
(lp1937
tp1938
a(L3871602522L
L0L
(lp1939
(lp1940
tp1941
atp1942
sI1074238848
(Vcache_ll_l1_enable_bus
p1943
(lp1944
(L1408514293L
L0L
(lp1945
(lp1946
tp1947
atp1948
sI1074242944
(Vesp_partition_table_verify
p1949
(lp1950
(L4221019429L
L0L
(lp1951
(lp1952
tp1953
a(L2891289599L
L0L
(lp1954
(lp1955
tp1956
a(L4090921686L
L0L
(lp1957
(lp1958
tp1959
a(L2910371777L
L0L
(lp1960
(lp1961
tp1962
a(L2810785767L
L0L
(lp1963
(lp1964
tp1965
a(L3360570486L
L0L
(lp1966
(lp1967
tp1968
a(L3190337587L
L0L
(lp1969
(lp1970
tp1971
a(L2069928857L
L0L
(lp1972
(lp1973
tp1974
a(L3020204L
L0L
(lp1975
(lp1976
tp1977
a(L3505186244L
L3785322319L
(lp1978
(lp1979
Vesp_log_early_timestamp
p1980
atp1981
a(L88865580L
L3785322319L
(lp1982
(lp1983
Vesp_log_early_timestamp
p1984
atp1985
a(L2249653215L
L0L
(lp1986
(lp1987
tp1988
a(L2902417580L
L0L
(lp1989
(lp1990
tp1991
a(L3020204L
L0L
(lp1992
(lp1993
tp1994
a(L1637091147L
L3785322319L
(lp1995
(lp1996
Vesp_log_early_timestamp
p1997
atp1998
a(L2867263840L
L0L
(lp1999
(lp2000
tp2001
a(L173039372L
L0L
(lp2002
(lp2003
tp2004
a(L2902417580L
L0L
(lp2005
(lp2006
tp2007
a(L3505186740L
L3785322319L
(lp2008
(lp2009
Vesp_log_early_timestamp
p2010
atp2011
a(L1305407469L
L0L
(lp2012
(lp2013
tp2014
a(L1167861556L
L0L
(lp2015
(lp2016
tp2017
a(L3914073261L
L0L
(lp2018
(lp2019
tp2020
a(L2910371777L
L0L
(lp2021
(lp2022
tp2023
a(L1235012932L
L0L
(lp2024
(lp2025
tp2026
a(L1704747097L
L3785322319L
(lp2027
(lp2028
Vesp_log_early_timestamp
p2029
atp2030
atp2031
sI1074237324
(Vbootloader_common_select_otadata
p2032
(lp2033
(L4071767857L
L0L
(lp2034
(lp2035
tp2036
a(L1999329187L
L0L
(lp2037
(lp2038
tp2039
a(L3846398843L
L0L
(lp2040
(lp2041
tp2042
a(L2501968171L
L0L
(lp2043
(lp2044
tp2045
a(L3360570486L
L0L
(lp2046
(lp2047
tp2048
a(L2045232488L
L0L
(lp2049
(lp2050
tp2051
a(L1243525916L
L0L
(lp2052
(lp2053
tp2054
a(L3094144427L
L0L
(lp2055
(lp2056
tp2057
a(L2399509845L
L0L
(lp2058
(lp2059
tp2060
a(L1641201884L
L0L
(lp2061
(lp2062
tp2063
atp2064
sI1074239880
(Vbootloader_utility_load_boot_image_from_deep_sleep
p2065
(lp2066
(L4133243683L
L0L
(lp2067
(lp2068
tp2069
a(L3212347974L
L3785322319L
(lp2070
(lp2071
Vbootloader_common_get_rtc_retain_mem_partition
p2072
atp2073
a(L392176478L
L3785322319L
(lp2074
(lp2075
Vbootloader_load_image_no_verify
p2076
atp2077
a(L4017103105L
L1880226080L
(lp2078
(lp2079
Vbootloader_common_update_rtc_retain_mem
p2080
aVload_image
p2081
atp2082
a(L651825095L
L3785322319L
(lp2083
(lp2084
Vesp_log_early_timestamp
p2085
atp2086
a(L3360570486L
L0L
(lp2087
(lp2088
tp2089
atp2090
sI1074245000
(Vrtc_clk_8m_enabled
p2091
(lp2092
(L1444987666L
L0L
(lp2093
(lp2094
tp2095
atp2096
sI1074236820
(Vcheck_rtc_retain_mem
p2097
(lp2098
(L3145564885L
L0L
(lp2099
(lp2100
tp2101
atp2102
sI1074241172
(Vverify_load_addresses
p2103
(lp2104
(L2764487219L
L0L
(lp2105
(lp2106
tp2107
a(L106L
L0L
(lp2108
(lp2109
tp2110
a(L97642L
L0L
(lp2111
(lp2112
tp2113
a(L2985904631L
L3785322319L
(lp2114
(lp2115
V__assert_func
p2116
atp2117
a(L2163779609L
L0L
(lp2118
(lp2119
tp2120
a(L106L
L0L
(lp2121
(lp2122
tp2123
a(L1147599122L
L0L
(lp2124
(lp2125
tp2126
a(L106L
L0L
(lp2127
(lp2128
tp2129
a(L2913539835L
L3785322319L
(lp2130
(lp2131
Vbootloader_util_regions_overlap
p2132
atp2133
a(L1877843542L
L3785322319L
(lp2134
(lp2135
Vbootloader_util_regions_overlap
p2136
atp2137
a(L3028481L
L0L
(lp2138
(lp2139
tp2140
a(L3888971565L
L3785322319L
(lp2141
(lp2142
Vbootloader_util_regions_overlap
p2143
atp2144
a(L3803041105L
L0L
(lp2145
(lp2146
tp2147
a(L74281630L
L0L
(lp2148
(lp2149
tp2150
a(L2159320281L
L0L
(lp2151
(lp2152
tp2153
a(L2661576437L
L0L
(lp2154
(lp2155
tp2156
a(L2503437888L
L0L
(lp2157
(lp2158
tp2159
a(L677569396L
L3785322319L
(lp2160
(lp2161
Vverify_load_addresses
p2162
atp2163
a(L1351513776L
L0L
(lp2164
(lp2165
tp2166
a(L3061261803L
L0L
(lp2167
(lp2168
tp2169
a(L2743341656L
L0L
(lp2170
(lp2171
tp2172
a(L3568332191L
L0L
(lp2173
(lp2174
tp2175
a(L3854037930L
L0L
(lp2176
(lp2177
tp2178
a(L1749436142L
L3785322319L
(lp2179
(lp2180
Vbootloader_util_regions_overlap
p2181
atp2182
a(L3028481L
L0L
(lp2183
(lp2184
tp2185
a(L3181504662L
L3785322319L
(lp2186
(lp2187
Vbootloader_util_regions_overlap
p2188
atp2189
a(L2807115423L
L0L
(lp2190
(lp2191
tp2192
a(L3731334795L
L0L
(lp2193
(lp2194
tp2195
a(L4103836658L
L0L
(lp2196
(lp2197
tp2198
a(L3245153844L
L0L
(lp2199
(lp2200
tp2201
a(L307916718L
L0L
(lp2202
(lp2203
tp2204
a(L697239146L
L0L
(lp2205
(lp2206
tp2207
a(L106L
L0L
(lp2208
(lp2209
tp2210
a(L955501070L
L0L
(lp2211
(lp2212
tp2213
a(L307917253L
L0L
(lp2214
(lp2215
tp2216
a(L490080443L
L0L
(lp2217
(lp2218
tp2219
a(L106L
L0L
(lp2220
(lp2221
tp2222
a(L3795569406L
L3785322319L
(lp2223
(lp2224
Vesp_log_early_timestamp
p2225
atp2226
a(L955501690L
L0L
(lp2227
(lp2228
tp2229
a(L1303560427L
L0L
(lp2230
(lp2231
tp2232
atp2233
sI1074244244
(Vwdt_hal_write_protect_enable
p2234
(lp2235
(L387778158L
L0L
(lp2236
(lp2237
tp2238
a(L4195472003L
L0L
(lp2239
(lp2240
tp2241
a(L3360570486L
L0L
(lp2242
(lp2243
tp2244
a(L802523425L
L0L
(lp2245
(lp2246
tp2247
atp2248
sI1074268572
(Vbootloader_common_vddsdio_configure
p2249
(lp2250
(L1829974089L
L3785322319L
(lp2251
(lp2252
Vrtc_vddsdio_get_config
p2253
atp2254
a(L3047969944L
L3785322319L
(lp2255
(lp2256
Vrtc_vddsdio_set_config
p2257
atp2258
a(L3360570486L
L0L
(lp2259
(lp2260
tp2261
atp2262
sI1074269596
(Vbootloader_enable_random
p2263
(lp2264
(L1287383080L
L3785322319L
(lp2265
(lp2266
Vbootloader_random_enable
p2267
atp2268
atp2269
sI1074240656
(Vbootloader_console_deinit
p2270
(lp2271
(L879327750L
L0L
(lp2272
(lp2273
tp2274
atp2275
sI1074244752
(Vrtc_clk_bbpll_disable
p2276
(lp2277
(L255598929L
L0L
(lp2278
(lp2279
tp2280
a(L2472207241L
L0L
(lp2281
(lp2282
tp2283
a(L3360570486L
L0L
(lp2284
(lp2285
tp2286
atp2287
sI1074235804
(Vbootloader_flash_gpio_config
p2288
(lp2289
(L3448878117L
L3785322319L
(lp2290
(lp2291
Vbootloader_common_get_chip_ver_pkg
p2292
atp2293
a(L106L
L0L
(lp2294
(lp2295
tp2296
a(L1998579353L
L0L
(lp2297
(lp2298
tp2299
a(L106L
L0L
(lp2300
(lp2301
tp2302
a(L961479410L
L0L
(lp2303
(lp2304
tp2305
a(L1365162803L
L0L
(lp2306
(lp2307
tp2308
a(L106L
L0L
(lp2309
(lp2310
tp2311
a(L4003626558L
L0L
(lp2312
(lp2313
tp2314
a(L2656511625L
L0L
(lp2315
(lp2316
tp2317
a(L3360570486L
L0L
(lp2318
(lp2319
tp2320
atp2321
sI1074240924
(Vprocess_image_header
p2322
(lp2323
(L781939813L
L3785322319L
(lp2324
(lp2325
Vbootloader_flash_read
p2326
atp2327
a(L3020204L
L0L
(lp2328
(lp2329
tp2330
a(L4130667142L
L0L
(lp2331
(lp2332
tp2333
a(L3131381282L
L0L
(lp2334
(lp2335
tp2336
a(L1161397362L
L3785322319L
(lp2337
(lp2338
Vbootloader_sha256_start
p2339
atp2340
a(L1948257695L
L3785322319L
(lp2341
(lp2342
Vbootloader_sha256_data
p2343
atp2344
a(L1095449651L
L0L
(lp2345
(lp2346
tp2347
a(L3020204L
L0L
(lp2348
(lp2349
tp2350
a(L702738154L
L0L
(lp2351
(lp2352
tp2353
a(L3360570486L
L0L
(lp2354
(lp2355
tp2356
a(L1537814359L
L3785322319L
(lp2357
(lp2358
Vesp_log_early_timestamp
p2359
atp2360
a(L3718883008L
L3785322319L
(lp2361
(lp2362
Vbootloader_common_check_chip_validity
p2363
atp2364
a(L3677035427L
L0L
(lp2365
(lp2366
tp2367
a(L3028481L
L0L
(lp2368
(lp2369
tp2370
a(L1105925277L
L3785322319L
(lp2371
(lp2372
Vesp_log_early_timestamp
p2373
atp2374
a(L2250109166L
L0L
(lp2375
(lp2376
tp2377
a(L1235012870L
L0L
(lp2378
(lp2379
tp2380
a(L3063569071L
L0L
(lp2381
(lp2382
tp2383
atp2384
sI1074245272
(Vrtc_clk_fast_src_get
p2385
(lp2386
(L1449975984L
L0L
(lp2387
(lp2388
tp2389
atp2390
sI1074235556
(Vbootloader_flash_xmc_startup
p2391
(lp2392
(L2007527597L
L3785322319L
(lp2393
(lp2394
Vis_xmc_chip_strict
p2395
atp2396
a(L2258688482L
L0L
(lp2397
(lp2398
tp2399
a(L3360570486L
L0L
(lp2400
(lp2401
tp2402
a(L251913992L
L3785322319L
(lp2403
(lp2404
Vbootloader_flash_read_sfdp
p2405
atp2406
a(L3093183620L
L267944800L
(lp2407
(lp2408
Vbootloader_execute_flash_command
p2409
aVbootloader_execute_flash_command
p2410
aVbootloader_execute_flash_command
p2411
aVbootloader_execute_flash_command
p2412
aVbootloader_read_flash_id
p2413
aVis_xmc_chip_strict
p2414
atp2415
a(L3994954364L
L3785322319L
(lp2416
(lp2417
Vesp_log_early_timestamp
p2418
atp2419
atp2420
sI1074269356
(Vbootloader_flash_update_id
p2421
(lp2422
(L3994864411L
L3785322319L
(lp2423
(lp2424
Vbootloader_read_flash_id
p2425
atp2426
atp2427
sI1074240672
(V__assert_func
p2428
(lp2429
(L1224639954L
L0L
(lp2430
(lp2431
tp2432
a(L106L
L0L
(lp2433
(lp2434
tp2435
atp2436
sI1074239392
(Vbootloader_utility_load_partition_table
p2437
(lp2438
(L3128219304L
L3785322319L
(lp2439
(lp2440
Vbootloader_mmap
p2441
atp2442
a(L1655739003L
L3785322319L
(lp2443
(lp2444
Vesp_log_early_timestamp
p2445
atp2446
a(L2258688482L
L0L
(lp2447
(lp2448
tp2449
a(L3360570486L
L0L
(lp2450
(lp2451
tp2452
a(L255479872L
L3785322319L
(lp2453
(lp2454
Vesp_partition_table_verify
p2455
atp2456
a(L1224062835L
L0L
(lp2457
(lp2458
tp2459
a(L3761768803L
L0L
(lp2460
(lp2461
tp2462
a(L2311047843L
L3785322319L
(lp2463
(lp2464
Vbootloader_munmap
p2465
atp2466
a(L4036689553L
L3785322319L
(lp2467
(lp2468
Vesp_log_early_timestamp
p2469
atp2470
a(L3927622121L
L0L
(lp2471
(lp2472
tp2473
a(L3020187L
L0L
(lp2474
(lp2475
tp2476
a(L1532853611L
L0L
(lp2477
(lp2478
tp2479
a(L1036489382L
L0L
(lp2480
(lp2481
tp2482
a(L3020187L
L0L
(lp2483
(lp2484
tp2485
a(L475586725L
L0L
(lp2486
(lp2487
tp2488
a(L529263765L
L0L
(lp2489
(lp2490
tp2491
a(L775434204L
L0L
(lp2492
(lp2493
tp2494
a(L3579705151L
L0L
(lp2495
(lp2496
tp2497
a(L2387139071L
L0L
(lp2498
(lp2499
tp2500
a(L1599920163L
L0L
(lp2501
(lp2502
tp2503
atp2504
sI1074243232
(Vwdt_hal_init
p2505
(lp2506
(L3721950950L
L0L
(lp2507
(lp2508
tp2509
a(L3755358284L
L0L
(lp2510
(lp2511
tp2512
a(L2805932892L
L0L
(lp2513
(lp2514
tp2515
a(L3332467775L
L0L
(lp2516
(lp2517
tp2518
a(L964795394L
L0L
(lp2519
(lp2520
tp2521
a(L3360570486L
L0L
(lp2522
(lp2523
tp2524
a(L1382852082L
L0L
(lp2525
(lp2526
tp2527
atp2528
sI1074245024
(Vrtc_clk_8md256_enabled
p2529
(lp2530
(L600515795L
L0L
(lp2531
(lp2532
tp2533
atp2534
sI1074269604
(Vbootloader_console_init
p2535
(lp2536
(L3761484553L
L1832448559L
(lp2537
(lp2538
Vesp_rom_uart_tx_wait_idle
p2539
aVrtc_clk_apb_freq_get
p2540
aVesp_rom_uart_set_clock_baudrate
p2541
atp2542
atp2543
sI1074238120
(Vbootloader_enable_wp
p2544
(lp2545
(L1117825804L
L3785322319L
(lp2546
(lp2547
Vbootloader_execute_flash_command
p2548
atp2549
atp2550
sI1074245288
(Vrtc_clk_xtal_freq_get
p2551
(lp2552
(L2814399712L
L0L
(lp2553
(lp2554
tp2555
a(L2847936993L
L0L
(lp2556
(lp2557
tp2558
a(L1251847234L
L0L
(lp2559
(lp2560
tp2561
a(L3360570486L
L0L
(lp2562
(lp2563
tp2564
atp2565
sI1074236596
(Vefuse_hal_chip_revision
p2566
(lp2567
(L2719302832L
L1880226080L
(lp2568
(lp2569
Vefuse_hal_get_major_chip_version
p2570
aVefuse_hal_get_minor_chip_version
p2571
atp2572
atp2573
sI1074238900
(Vload_image
p2574
(lp2575
(L4278320029L
L1880226080L
(lp2576
(lp2577
Vbootloader_random_disable
p2578
aVbootloader_ana_clock_glitch_reset_config
p2579
atp2580
a(L3893505478L
L0L
(lp2581
(lp2582
tp2583
a(L106L
L0L
(lp2584
(lp2585
tp2586
a(L3820571690L
L3758435744L
(lp2587
(lp2588
Vmmu_hal_init
p2589
aVcache_ll_l1_get_bus
p2590
aVcache_ll_l1_enable_bus
p2591
aVcache_ll_l1_get_bus
p2592
aVcache_ll_l1_enable_bus
p2593
aVcache_ll_l1_get_bus
p2594
aVcache_ll_l1_enable_bus
p2595
aVcache_ll_l1_get_bus
p2596
aVcache_ll_l1_enable_bus
p2597
aVbootloader_console_deinit
p2598
atp2599
a(L2993421526L
L0L
(lp2600
(lp2601
tp2602
a(L2902417580L
L0L
(lp2603
(lp2604
tp2605
a(L985163029L
L3785322319L
(lp2606
(lp2607
Vesp_log_early_timestamp
p2608
atp2609
a(L3455620645L
L0L
(lp2610
(lp2611
tp2612
a(L1265426453L
L0L
(lp2613
(lp2614
tp2615
a(L3020204L
L0L
(lp2616
(lp2617
tp2618
a(L2839508566L
L3785322319L
(lp2619
(lp2620
Vesp_log_early_timestamp
p2621
atp2622
a(L3093629574L
L0L
(lp2623
(lp2624
tp2625
a(L4254185231L
L0L
(lp2626
(lp2627
tp2628
atp2629
sI1074268860
(Vbootloader_init_mem
p2630
(lp2631
(L1287383080L
L3785322319L
(lp2632
(lp2633
Vesp_cpu_configure_region_protection
p2634
atp2635
atp2636
sI1074269372
(Vbootloader_clear_bss_section
p2637
(lp2638
(L1035474915L
L0L
(lp2639
(lp2640
tp2641
atp2642
sI1074244272
(Vwdt_hal_enable
p2643
(lp2644
(L2299130915L
L0L
(lp2645
(lp2646
tp2647
a(L165794138L
L0L
(lp2648
(lp2649
tp2650
a(L3360570486L
L0L
(lp2651
(lp2652
tp2653
a(L2847657174L
L0L
(lp2654
(lp2655
tp2656
atp2657
sI1074238640
(Vcache_ll_l1_get_bus
p2658
(lp2659
(L3823717336L
L0L
(lp2660
(lp2661
tp2662
a(L94425498L
L3785322319L
(lp2663
(lp2664
Vabort
p2665
atp2666
a(L3182782096L
L0L
(lp2667
(lp2668
tp2669
a(L2331017562L
L0L
(lp2670
(lp2671
tp2672
a(L892952750L
L0L
(lp2673
(lp2674
tp2675
a(L1182811810L
L0L
(lp2676
(lp2677
tp2678
a(L1101742417L
L0L
(lp2679
(lp2680
tp2681
a(L1100767927L
L0L
(lp2682
(lp2683
tp2684
a(L3360570486L
L0L
(lp2685
(lp2686
tp2687
a(L2748641547L
L0L
(lp2688
(lp2689
tp2690
a(L892952750L
L0L
(lp2691
(lp2692
tp2693
a(L2258688482L
L0L
(lp2694
(lp2695
tp2696
a(L4048494219L
L0L
(lp2697
(lp2698
tp2699
a(L2258718273L
L0L
(lp2700
(lp2701
tp2702
a(L2938197270L
L0L
(lp2703
(lp2704
tp2705
a(L2752335631L
L0L
(lp2706
(lp2707
tp2708
a(L2756034985L
L0L
(lp2709
(lp2710
tp2711
a(L1641149277L
L0L
(lp2712
(lp2713
tp2714
a(L3251117380L
L0L
(lp2715
(lp2716
tp2717
a(L3027019L
L0L
(lp2718
(lp2719
tp2720
a(L1299866560L
L0L
(lp2721
(lp2722
tp2723
a(L1299866436L
L0L
(lp2724
(lp2725
tp2726
atp2727
sI1074269872
(Vrtc_clk_init
p2728
(lp2729
(L3027191313L
L0L
(lp2730
(lp2731
tp2732
a(L42671777L
L3785322319L
(lp2733
(lp2734
Vrtc_clk_cpu_freq_to_xtal
p2735
atp2736
a(L1050335063L
L3785322319L
(lp2737
(lp2738
Vrtc_clk_xtal_freq_get
p2739
atp2740
a(L89029051L
L0L
(lp2741
(lp2742
tp2743
a(L4187693717L
L3785322319L
(lp2744
(lp2745
Vrtc_clk_xtal_freq_estimate
p2746
atp2747
a(L1165738187L
L3785322319L
(lp2748
(lp2749
Vesp_log_early_timestamp
p2750
atp2751
a(L1235539582L
L1157885199L
(lp2752
(lp2753
Vesp_rom_uart_tx_wait_idle
p2754
aVrtc_clk_xtal_freq_update
p2755
aVrtc_clk_apb_freq_update
p2756
aVrtc_clk_cpu_freq_get_config
p2757
aVrtc_clk_cpu_freq_mhz_to_config
p2758
atp2759
a(L1472250234L
L1880226080L
(lp2760
(lp2761
Vesp_log_early_timestamp
p2762
aVabort
p2763
atp2764
a(L3028481L
L0L
(lp2765
(lp2766
tp2767
a(L4070631611L
L3785322319L
(lp2768
(lp2769
Vrtc_clk_xtal_freq_estimate
p2770
atp2771
a(L3368302670L
L3785322319L
(lp2772
(lp2773
Vesp_log_early_timestamp
p2774
atp2775
a(L2242669021L
L3785322319L
(lp2776
(lp2777
Vrtc_clk_cpu_freq_set_config
p2778
atp2779
a(L912310138L
L3785322319L
(lp2780
(lp2781
Vrtc_clk_32k_enable
p2782
atp2783
a(L3191820416L
L1832448559L
(lp2784
(lp2785
Vrtc_clk_8m_enable
p2786
aVrtc_clk_fast_src_set
p2787
aVrtc_clk_slow_src_set
p2788
atp2789
a(L1232958848L
L0L
(lp2790
(lp2791
tp2792
atp2793
sI1074238140
(Vbootloader_mmap_get_free_pages
p2794
(lp2795
(L1496516875L
L0L
(lp2796
(lp2797
tp2798
atp2799
sI1074240696
(Vabort
p2800
(lp2801
(L2850606941L
L0L
(lp2802
(lp2803
tp2804
a(L409471316L
L0L
(lp2805
(lp2806
tp2807
a(L106L
L0L
(lp2808
(lp2809
tp2810
atp2811
sI1074245048
(Vrtc_clk_slow_src_set
p2812
(lp2813
(L3127994918L
L0L
(lp2814
(lp2815
tp2816
a(L3020187L
L0L
(lp2817
(lp2818
tp2819
a(L3028481L
L0L
(lp2820
(lp2821
tp2822
a(L487821223L
L0L
(lp2823
(lp2824
tp2825
a(L1254255655L
L0L
(lp2826
(lp2827
tp2828
a(L1851908495L
L0L
(lp2829
(lp2830
tp2831
a(L2729394930L
L0L
(lp2832
(lp2833
tp2834
a(L3138544334L
L0L
(lp2835
(lp2836
tp2837
a(L94425498L
L3785322319L
(lp2838
(lp2839
Vabort
p2840
atp2841
atp2842
sI1074245560
(Vrtc_clk_xtal_freq_update
p2843
(lp2844
(L4131331546L
L0L
(lp2845
(lp2846
tp2847
a(L3509357017L
L0L
(lp2848
(lp2849
tp2850
a(L2266180931L
L0L
(lp2851
(lp2852
tp2853
atp2854
sI1074248632
(V_fini
p2855
(lp2856
(L3493042598L
L0L
(lp2857
(lp2858
tp2859
atp2860
sI1074269640
(Vesp_cpu_configure_region_protection
p2861
(lp2862
(L2370813982L
L0L
(lp2863
(lp2864
tp2865
a(L180431425L
L3785322319L
(lp2866
(lp2867
Vmpu_hal_set_region_access
p2868
atp2869
a(L2537388152L
L3785322319L
(lp2870
(lp2871
Vmpu_hal_set_region_access
p2872
atp2873
atp2874
sI1074238148
(Vbootloader_fill_random
p2875
(lp2876
(L1731424088L
L0L
(lp2877
(lp2878
tp2879
a(L1931639696L
L3785322319L
(lp2880
(lp2881
V__assert_func
p2882
atp2883
a(L1882547218L
L0L
(lp2884
(lp2885
tp2886
a(L2910371777L
L0L
(lp2887
(lp2888
tp2889
a(L95634693L
L0L
(lp2890
(lp2891
tp2892
a(L3630908706L
L0L
(lp2893
(lp2894
tp2895
a(L160162640L
L0L
(lp2896
(lp2897
tp2898
a(L97689L
L0L
(lp2899
(lp2900
tp2901
a(L3360570486L
L0L
(lp2902
(lp2903
tp2904
atp2905
sI1074236864
(Vbootloader_common_ota_select_crc
p2906
(lp2907
(L3214440559L
L0L
(lp2908
(lp2909
tp2910
atp2911
sI1074239936
(Vbootloader_reset
p2912
(lp2913
(L3846851451L
L3785322319L
(lp2914
(lp2915
Vbootloader_console_deinit
p2916
atp2917
a(L106L
L0L
(lp2918
(lp2919
tp2920
atp2921
sI1074247104
(Vesp_rom_spiflash_read_status
p2922
(lp2923
(L2938520357L
L0L
(lp2924
(lp2925
tp2926
a(L1182811815L
L0L
(lp2927
(lp2928
tp2929
a(L545033973L
L0L
(lp2930
(lp2931
tp2932
a(L106L
L0L
(lp2933
(lp2934
tp2935
a(L784422336L
L0L
(lp2936
(lp2937
tp2938
a(L3274807848L
L0L
(lp2939
(lp2940
tp2941
a(L2123059967L
L0L
(lp2942
(lp2943
tp2944
a(L3146966332L
L0L
(lp2945
(lp2946
tp2947
a(L2392720019L
L0L
(lp2948
(lp2949
tp2950
atp2951
sI1074236620
(Vefuse_hal_get_major_chip_version
p2952
(lp2953
(L1638136297L
L0L
(lp2954
(lp2955
tp2956
a(L894792960L
L0L
(lp2957
(lp2958
tp2959
a(L3783348505L
L0L
(lp2960
(lp2961
tp2962
a(L3360570486L
L0L
(lp2963
(lp2964
tp2965
atp2966
sI1074240460
(Vbootloader_sha256_finish
p2967
(lp2968
(L4066096136L
L0L
(lp2969
(lp2970
tp2971
a(L276446913L
L0L
(lp2972
(lp2973
tp2974
a(L792144543L
L3785322319L
(lp2975
(lp2976
V__assert_func
p2977
atp2978
a(L3020204L
L0L
(lp2979
(lp2980
tp2981
a(L1843692520L
L0L
(lp2982
(lp2983
tp2984
a(L2534656226L
L0L
(lp2985
(lp2986
tp2987
a(L1799405898L
L3785322319L
(lp2988
(lp2989
Vbootloader_sha256_data
p2990
atp2991
a(L1968575810L
L0L
(lp2992
(lp2993
tp2994
a(L2146378219L
L3785322319L
(lp2995
(lp2996
Vbootloader_sha256_data
p2997
atp2998
a(L2013840504L
L0L
(lp2999
(lp3000
tp3001
a(L657425439L
L0L
(lp3002
(lp3003
tp3004
a(L3128170966L
L0L
(lp3005
(lp3006
tp3007
a(L657425439L
L0L
(lp3008
(lp3009
tp3010
a(L2748668276L
L0L
(lp3011
(lp3012
tp3013
a(L1638329535L
L0L
(lp3014
(lp3015
tp3016
a(L3347778L
L0L
(lp3017
(lp3018
tp3019
a(L3360570486L
L0L
(lp3020
(lp3021
tp3022
atp3023
sI1074244812
(Vrtc_clk_32k_enable
p3024
(lp3025
(L753387299L
L0L
(lp3026
(lp3027
tp3028
a(L3776007933L
L3785322319L
(lp3029
(lp3030
Vrtc_clk_32k_enable_common
p3031
atp3032
a(L3496950L
L0L
(lp3033
(lp3034
tp3035
a(L1706405080L
L0L
(lp3036
(lp3037
tp3038
atp3039
sI1074247628
(Vesp_rom_spiflash_write
p3040
(lp3041
(L1747660291L
L0L
(lp3042
(lp3043
tp3044
a(L2258688483L
L0L
(lp3045
(lp3046
tp3047
a(L3360570486L
L0L
(lp3048
(lp3049
tp3050
a(L3368132847L
L0L
(lp3051
(lp3052
tp3053
a(L3106685981L
L0L
(lp3054
(lp3055
tp3056
a(L3488660639L
L3785322319L
(lp3057
(lp3058
Vesp_rom_spiflash_program_page_internal
p3059
atp3060
a(L3543402353L
L3785322319L
(lp3061
(lp3062
Vesp_rom_spiflash_program_page_internal
p3063
atp3064
a(L4222526342L
L0L
(lp3065
(lp3066
tp3067
a(L2004208511L
L0L
(lp3068
(lp3069
tp3070
a(L564470656L
L0L
(lp3071
(lp3072
tp3073
a(L2988842384L
L3785322319L
(lp3074
(lp3075
Vesp_rom_spiflash_program_page_internal
p3076
atp3077
a(L2302069176L
L0L
(lp3078
(lp3079
tp3080
atp3081
sI1074268868
(Vbootloader_random_enable
p3082
(lp3083
(L2481830133L
L0L
(lp3084
(lp3085
tp3086
atp3087
sI1074247880
(Vesp_rom_spiflash_read
p3088
(lp3089
(L1595458742L
L0L
(lp3090
(lp3091
tp3092
a(L3557040110L
L0L
(lp3093
(lp3094
tp3095
a(L340311750L
L0L
(lp3096
(lp3097
tp3098
a(L2355528925L
L0L
(lp3099
(lp3100
tp3101
a(L106L
L0L
(lp3102
(lp3103
tp3104
a(L633884026L
L0L
(lp3105
(lp3106
tp3107
a(L106L
L0L
(lp3108
(lp3109
tp3110
a(L573637122L
L0L
(lp3111
(lp3112
tp3113
a(L4017882081L
L0L
(lp3114
(lp3115
tp3116
a(L863842694L
L0L
(lp3117
(lp3118
tp3119
a(L336550648L
L0L
(lp3120
(lp3121
tp3122
a(L4102960242L
L0L
(lp3123
(lp3124
tp3125
a(L106L
L0L
(lp3126
(lp3127
tp3128
a(L1261376020L
L3785322319L
(lp3129
(lp3130
Vesp_rom_spiflash_wait_idle
p3131
atp3132
a(L3021737L
L0L
(lp3133
(lp3134
tp3135
a(L106L
L0L
(lp3136
(lp3137
tp3138
a(L1868280504L
L0L
(lp3139
(lp3140
tp3141
a(L106L
L0L
(lp3142
(lp3143
tp3144
a(L1504811087L
L0L
(lp3145
(lp3146
tp3147
a(L1221163038L
L0L
(lp3148
(lp3149
tp3150
a(L4122060822L
L0L
(lp3151
(lp3152
tp3153
a(L2449909959L
L0L
(lp3154
(lp3155
tp3156
a(L2989032L
L0L
(lp3157
(lp3158
tp3159
a(L3819849625L
L0L
(lp3160
(lp3161
tp3162
a(L3319041088L
L0L
(lp3163
(lp3164
tp3165
a(L1429756495L
L0L
(lp3166
(lp3167
tp3168
a(L3901822013L
L0L
(lp3169
(lp3170
tp3171
a(L3696637123L
L0L
(lp3172
(lp3173
tp3174
a(L2921907736L
L0L
(lp3175
(lp3176
tp3177
a(L4023125337L
L0L
(lp3178
(lp3179
tp3180
a(L3028911994L
L0L
(lp3181
(lp3182
tp3183
a(L924239444L
L0L
(lp3184
(lp3185
tp3186
a(L1996371968L
L0L
(lp3187
(lp3188
tp3189
a(L781550816L
L0L
(lp3190
(lp3191
tp3192
a(L2687789892L
L0L
(lp3193
(lp3194
tp3195
a(L1405253496L
L0L
(lp3196
(lp3197
tp3198
a(L4223869220L
L0L
(lp3199
(lp3200
tp3201
a(L97689L
L0L
(lp3202
(lp3203
tp3204
a(L1183020347L
L0L
(lp3205
(lp3206
tp3207
a(L4014024819L
L0L
(lp3208
(lp3209
tp3210
a(L3621567083L
L0L
(lp3211
(lp3212
tp3213
atp3214
sI1074236884
(Vbootloader_common_ota_select_valid
p3215
(lp3216
(L1563399710L
L3785322319L
(lp3217
(lp3218
Vbootloader_common_ota_select_invalid
p3219
atp3220
a(L3814720849L
L3785322319L
(lp3221
(lp3222
Vbootloader_common_ota_select_crc
p3223
atp3224
a(L3360570486L
L0L
(lp3225
(lp3226
tp3227
atp3228
sI1074240208
(Vindex_to_partition
p3229
(lp3230
(L4066096119L
L0L
(lp3231
(lp3232
tp3233
a(L1739185955L
L0L
(lp3234
(lp3235
tp3236
a(L2171552758L
L0L
(lp3237
(lp3238
tp3239
a(L2808906342L
L0L
(lp3240
(lp3241
tp3242
a(L2101481936L
L0L
(lp3243
(lp3244
tp3245
a(L3698927993L
L0L
(lp3246
(lp3247
tp3248
a(L2808826781L
L0L
(lp3249
(lp3250
tp3251
a(L3003398163L
L0L
(lp3252
(lp3253
tp3254
a(L2880709161L
L0L
(lp3255
(lp3256
tp3257
a(L1087646172L
L0L
(lp3258
(lp3259
tp3260
atp3261
sI1074245328
(Vrtc_clk_cpu_freq_mhz_to_config
p3262
(lp3263
(L908718885L
L3785322319L
(lp3264
(lp3265
Vrtc_clk_xtal_freq_get
p3266
atp3267
a(L60460069L
L0L
(lp3268
(lp3269
tp3270
a(L3802072124L
L0L
(lp3271
(lp3272
tp3273
a(L3159006042L
L0L
(lp3274
(lp3275
tp3276
a(L3360570486L
L0L
(lp3277
(lp3278
tp3279
a(L895147205L
L0L
(lp3280
(lp3281
tp3282
a(L3970036657L
L0L
(lp3283
(lp3284
tp3285
a(L2731353429L
L0L
(lp3286
(lp3287
tp3288
a(L1555485793L
L0L
(lp3289
(lp3290
tp3291
a(L2258897023L
L0L
(lp3292
(lp3293
tp3294
a(L1947499251L
L0L
(lp3295
(lp3296
tp3297
a(L1306331021L
L0L
(lp3298
(lp3299
tp3300
atp3301
sI1074268628
(Vbootloader_clock_configure
p3302
(lp3303
(L2559598596L
L1880226080L
(lp3304
(lp3305
Vesp_rom_uart_tx_wait_idle
p3306
aVefuse_hal_chip_revision
p3307
atp3308
a(L377556189L
L0L
(lp3309
(lp3310
tp3311
a(L883406775L
L0L
(lp3312
(lp3313
tp3314
a(L106L
L0L
(lp3315
(lp3316
tp3317
a(L4055587691L
L1832448559L
(lp3318
(lp3319
Vrtc_clk_slow_src_get
p3320
aVrtc_clk_fast_src_get
p3321
aVrtc_clk_init
p3322
atp3323
a(L2555738642L
L0L
(lp3324
(lp3325
tp3326
a(L1660176588L
L3785322319L
(lp3327
(lp3328
Vrtc_clk_apb_freq_get
p3329
atp3330
a(L106L
L0L
(lp3331
(lp3332
tp3333
a(L106L
L0L
(lp3334
(lp3335
tp3336
atp3337
sI1074269396
(Vbootloader_read_bootloader_header
p3338
(lp3339
(L2653072919L
L3785322319L
(lp3340
(lp3341
Vbootloader_flash_read
p3342
atp3343
a(L740409177L
L3785322319L
(lp3344
(lp3345
Vesp_log_early_timestamp
p3346
atp3347
a(L735741265L
L0L
(lp3348
(lp3349
tp3350
atp3351
sI1074237656
(Vbootloader_munmap
p3352
(lp3353
(L2004081002L
L0L
(lp3354
(lp3355
tp3356
a(L3267444640L
L0L
(lp3357
(lp3358
tp3359
a(L3360570486L
L0L
(lp3360
(lp3361
tp3362
atp3363
sI1074237400
(Vspi_to_esp_err
p3364
(lp3365
(L3502410875L
L0L
(lp3366
(lp3367
tp3368
a(L2406094103L
L0L
(lp3369
(lp3370
tp3371
a(L3952441574L
L0L
(lp3372
(lp3373
tp3374
a(L3126521138L
L0L
(lp3375
(lp3376
tp3377
atp3378
sI1074245604
(Vrtc_clk_apb_freq_update
p3379
(lp3380
(L1720241949L
L0L
(lp3381
(lp3382
tp3383
atp3384
sI1074267628
(Vcall_start_cpu0
p3385
(lp3386
(L1137852827L
L0L
(lp3387
(lp3388
tp3389
a(L549459388L
L0L
(lp3390
(lp3391
tp3392
a(L3212347974L
L3785322319L
(lp3393
(lp3394
Vbootloader_init
p3395
atp3396
a(L94425498L
L3785322319L
(lp3397
(lp3398
Vbootloader_reset
p3399
atp3400
a(L1122046408L
L0L
(lp3401
(lp3402
tp3403
a(L4099474112L
L0L
(lp3404
(lp3405
tp3406
a(L4004585570L
L1880226080L
(lp3407
(lp3408
Vbootloader_utility_load_boot_image_from_deep_sleep
p3409
aVbootloader_utility_load_partition_table
p3410
atp3411
a(L2761094216L
L3785322319L
(lp3412
(lp3413
Vesp_log_early_timestamp
p3414
atp3415
a(L736289835L
L3785322319L
(lp3416
(lp3417
Vbootloader_utility_get_selected_boot_partition
p3418
atp3419
a(L344825785L
L3785322319L
(lp3420
(lp3421
Vbootloader_utility_load_boot_image
p3422
atp3423
atp3424
sI1074239968
(Vbootloader_utility_load_boot_image
p3425
(lp3426
(L1274108245L
L0L
(lp3427
(lp3428
tp3429
a(L2177418995L
L3785322319L
(lp3430
(lp3431
Vtry_load_partition
p3432
atp3433
a(L1305243774L
L3785322319L
(lp3434
(lp3435
Vload_image
p3436
atp3437
a(L1933091738L
L3785322319L
(lp3438
(lp3439
Vesp_log_early_timestamp
p3440
atp3441
a(L3827921190L
L3785322319L
(lp3442
(lp3443
Vbootloader_reset
p3444
atp3445
a(L1953693036L
L3785322319L
(lp3446
(lp3447
Vindex_to_partition
p3448
atp3449
a(L1204373741L
L3785322319L
(lp3450
(lp3451
Vtry_load_partition
p3452
atp3453
a(L1899865696L
L0L
(lp3454
(lp3455
tp3456
a(L2695355117L
L3785322319L
(lp3457
(lp3458
Vset_actual_ota_seq
p3459
atp3460
a(L1868897605L
L3785322319L
(lp3461
(lp3462
Vlog_invalid_app_partition
p3463
atp3464
a(L831650730L
L0L
(lp3465
(lp3466
tp3467
a(L3021737L
L0L
(lp3468
(lp3469
tp3470
a(L695456438L
L0L
(lp3471
(lp3472
tp3473
a(L1133226200L
L3785322319L
(lp3474
(lp3475
Vtry_load_partition
p3476
atp3477
a(L4152494764L
L3785322319L
(lp3478
(lp3479
Vesp_log_early_timestamp
p3480
atp3481
a(L2347390157L
L3785322319L
(lp3482
(lp3483
Vindex_to_partition
p3484
atp3485
a(L1204373741L
L3785322319L
(lp3486
(lp3487
Vtry_load_partition
p3488
atp3489
a(L3061261803L
L0L
(lp3490
(lp3491
tp3492
a(L3582858798L
L3785322319L
(lp3493
(lp3494
Vlog_invalid_app_partition
p3495
atp3496
a(L1237779208L
L3785322319L
(lp3497
(lp3498
Vesp_log_early_timestamp
p3499
atp3500
atp3501
sI1074237152
(Vbootloader_common_get_active_otadata
p3502
(lp3503
(L3317503532L
L0L
(lp3504
(lp3505
tp3506
a(L2503049265L
L1832448559L
(lp3507
(lp3508
Vbootloader_common_ota_select_valid
p3509
aVbootloader_common_ota_select_valid
p3510
aVbootloader_common_select_otadata
p3511
atp3512
a(L735741265L
L0L
(lp3513
(lp3514
tp3515
atp3516
sI1074240744
(Vbootloader_ana_clock_glitch_reset_config
p3517
(lp3518
(L2100504542L
L0L
(lp3519
(lp3520
tp3521
atp3522
sI1074269688
(Vrtc_clk_xtal_freq_estimate
p3523
(lp3524
(L3845076426L
L1880226080L
(lp3525
(lp3526
Vrtc_clk_8m_enabled
p3527
aVrtc_clk_8md256_enabled
p3528
atp3529
a(L2449794434L
L3785322319L
(lp3530
(lp3531
Vrtc_clk_8m_enable
p3532
atp3533
a(L293008461L
L3785322319L
(lp3534
(lp3535
Vrtc_clk_cal_ratio
p3536
atp3537
a(L1894802584L
L0L
(lp3538
(lp3539
tp3540
a(L1915120046L
L0L
(lp3541
(lp3542
tp3543
a(L2740879690L
L0L
(lp3544
(lp3545
tp3546
a(L1059750288L
L3785322319L
(lp3547
(lp3548
Vrtc_clk_8m_enable
p3549
atp3550
a(L3401468681L
L3785322319L
(lp3551
(lp3552
Vesp_log_early_timestamp
p3553
atp3554
a(L2894376164L
L0L
(lp3555
(lp3556
tp3557
a(L1641150486L
L0L
(lp3558
(lp3559
tp3560
a(L2507662435L
L3785322319L
(lp3561
(lp3562
Vesp_log_early_timestamp
p3563
atp3564
a(L2081406323L
L3785322319L
(lp3565
(lp3566
Vesp_log_early_timestamp
p3567
atp3568
atp3569
sI1074234612
(Vesp_flash_encryption_enabled
p3570
(lp3571
(L2932383536L
L0L
(lp3572
(lp3573
tp3574
a(L2910371777L
L0L
(lp3575
(lp3576
tp3577
a(L3360570486L
L0L
(lp3578
(lp3579
tp3580
a(L3016870L
L0L
(lp3581
(lp3582
tp3583
a(L3745038218L
L0L
(lp3584
(lp3585
tp3586
a(L957607403L
L0L
(lp3587
(lp3588
tp3589
atp3590
sI1074243828
(Vwdt_hal_config_stage
p3591
(lp3592
(L331558507L
L0L
(lp3593
(lp3594
tp3595
a(L4279082939L
L0L
(lp3596
(lp3597
tp3598
a(L93674324L
L0L
(lp3599
(lp3600
tp3601
a(L2902417580L
L0L
(lp3602
(lp3603
tp3604
a(L177760103L
L0L
(lp3605
(lp3606
tp3607
a(L3020187L
L0L
(lp3608
(lp3609
tp3610
a(L94425498L
L3785322319L
(lp3611
(lp3612
Vabort
p3613
atp3614
a(L583583424L
L0L
(lp3615
(lp3616
tp3617
a(L3360570486L
L0L
(lp3618
(lp3619
tp3620
a(L952154508L
L0L
(lp3621
(lp3622
tp3623
a(L1012758146L
L0L
(lp3624
(lp3625
tp3626
a(L4278159418L
L0L
(lp3627
(lp3628
tp3629
a(L93674324L
L0L
(lp3630
(lp3631
tp3632
a(L3020204L
L0L
(lp3633
(lp3634
tp3635
a(L2067421300L
L0L
(lp3636
(lp3637
tp3638
a(L3020187L
L0L
(lp3639
(lp3640
tp3641
a(L106L
L0L
(lp3642
(lp3643
tp3644
a(L3660949161L
L0L
(lp3645
(lp3646
tp3647
a(L873628278L
L0L
(lp3648
(lp3649
tp3650
a(L2016454155L
L0L
(lp3651
(lp3652
tp3653
atp3654
sI1074244596
(Vrtc_clk_cpu_freq_to_pll_mhz
p3655
(lp3656
(L1393544349L
L0L
(lp3657
(lp3658
tp3659
a(L2948700517L
L0L
(lp3660
(lp3661
tp3662
a(L2946975786L
L0L
(lp3663
(lp3664
tp3665
a(L3298441904L
L0L
(lp3666
(lp3667
tp3668
a(L3680579786L
L0L
(lp3669
(lp3670
tp3671
a(L1298905564L
L0L
(lp3672
(lp3673
tp3674
a(L4149229916L
L3785322319L
(lp3675
(lp3676
Vrtc_clk_wait_for_slow_cycle
p3677
atp3678
a(L1611366957L
L0L
(lp3679
(lp3680
tp3681
a(L1611366988L
L0L
(lp3682
(lp3683
tp3684
a(L94425498L
L3785322319L
(lp3685
(lp3686
Vabort
p3687
atp3688
atp3689
sI1074240752
(Vprocess_checksum
p3690
(lp3691
(L3560019325L
L0L
(lp3692
(lp3693
tp3694
a(L2910371777L
L0L
(lp3695
(lp3696
tp3697
a(L186886970L
L0L
(lp3698
(lp3699
tp3700
a(L2910371777L
L0L
(lp3701
(lp3702
tp3703
a(L3020204L
L0L
(lp3704
(lp3705
tp3706
a(L2480703612L
L3785322319L
(lp3707
(lp3708
Vbootloader_sha256_data
p3709
atp3710
a(L4179073442L
L0L
(lp3711
(lp3712
tp3713
a(L1811888222L
L3785322319L
(lp3714
(lp3715
Vbootloader_flash_read
p3716
atp3717
a(L3126521138L
L0L
(lp3718
(lp3719
tp3720
a(L2867862897L
L0L
(lp3721
(lp3722
tp3723
a(L251340764L
L3785322319L
(lp3724
(lp3725
Vesp_log_early_timestamp
p3726
atp3727
atp3728
sI1074235132
(Vbootloader_execute_flash_command
p3729
(lp3730
(L2481595632L
L3785322319L
(lp3731
(lp3732
Vbootloader_flash_execute_command_common
p3733
atp3734
atp3735
sI1074241788
(Vprocess_segments
p3736
(lp3737
(L933567253L
L0L
(lp3738
(lp3739
tp3740
a(L3285816417L
L0L
(lp3741
(lp3742
tp3743
a(L2393526353L
L0L
(lp3744
(lp3745
tp3746
a(L106L
L0L
(lp3747
(lp3748
tp3749
a(L1184913234L
L0L
(lp3750
(lp3751
tp3752
a(L3937471831L
L3785322319L
(lp3753
(lp3754
Vesp_log_early_timestamp
p3755
atp3756
a(L3491764960L
L3785322319L
(lp3757
(lp3758
Vbootloader_flash_read
p3759
atp3760
a(L1972571465L
L3785322319L
(lp3761
(lp3762
Vesp_log_early_timestamp
p3763
atp3764
a(L3871473710L
L0L
(lp3765
(lp3766
tp3767
a(L1300630146L
L0L
(lp3768
(lp3769
tp3770
a(L738857969L
L3785322319L
(lp3771
(lp3772
Vbootloader_sha256_data
p3773
atp3774
a(L3124001501L
L0L
(lp3775
(lp3776
tp3777
a(L974643385L
L0L
(lp3778
(lp3779
tp3780
a(L2400946509L
L0L
(lp3781
(lp3782
tp3783
a(L3707716257L
L0L
(lp3784
(lp3785
tp3786
a(L106L
L0L
(lp3787
(lp3788
tp3789
a(L141486068L
L0L
(lp3790
(lp3791
tp3792
a(L2587042390L
L0L
(lp3793
(lp3794
tp3795
a(L1525393941L
L3785322319L
(lp3796
(lp3797
Vesp_log_early_timestamp
p3798
atp3799
a(L1114137787L
L0L
(lp3800
(lp3801
tp3802
a(L568211838L
L0L
(lp3803
(lp3804
tp3805
a(L3568619011L
L3785322319L
(lp3806
(lp3807
Vesp_log_early_timestamp
p3808
atp3809
a(L2347770645L
L3785322319L
(lp3810
(lp3811
Vverify_load_addresses
p3812
atp3813
a(L106L
L0L
(lp3814
(lp3815
tp3816
a(L299546812L
L0L
(lp3817
(lp3818
tp3819
a(L262831199L
L0L
(lp3820
(lp3821
tp3822
a(L3735077394L
L3785322319L
(lp3823
(lp3824
Vbootloader_mmap
p3825
atp3826
a(L1539613665L
L3785322319L
(lp3827
(lp3828
Vesp_log_early_timestamp
p3829
atp3830
a(L674351763L
L0L
(lp3831
(lp3832
tp3833
a(L409016270L
L0L
(lp3834
(lp3835
tp3836
a(L1652679798L
L3785322319L
(lp3837
(lp3838
Vbootloader_munmap
p3839
atp3840
a(L3425676091L
L0L
(lp3841
(lp3842
tp3843
a(L1782223905L
L3785322319L
(lp3844
(lp3845
Vbootloader_fill_random
p3846
atp3847
a(L3570641403L
L0L
(lp3848
(lp3849
tp3850
a(L3574335487L
L0L
(lp3851
(lp3852
tp3853
a(L3450268858L
L0L
(lp3854
(lp3855
tp3856
a(L3021749L
L0L
(lp3857
(lp3858
tp3859
a(L4179164843L
L0L
(lp3860
(lp3861
tp3862
a(L1084626871L
L0L
(lp3863
(lp3864
tp3865
a(L2902417580L
L0L
(lp3866
(lp3867
tp3868
a(L1513353276L
L0L
(lp3869
(lp3870
tp3871
a(L1797921642L
L0L
(lp3872
(lp3873
tp3874
a(L3437071223L
L0L
(lp3875
(lp3876
tp3877
a(L3396129621L
L0L
(lp3878
(lp3879
tp3880
a(L670934548L
L0L
(lp3881
(lp3882
tp3883
a(L363643669L
L3785322319L
(lp3884
(lp3885
Vbootloader_sha256_data
p3886
atp3887
a(L90548756L
L0L
(lp3888
(lp3889
tp3890
a(L4195963580L
L0L
(lp3891
(lp3892
tp3893
a(L2394204398L
L0L
(lp3894
(lp3895
tp3896
a(L617933722L
L0L
(lp3897
(lp3898
tp3899
a(L308896050L
L3785322319L
(lp3900
(lp3901
Vshould_load
p3902
atp3903
a(L630320211L
L0L
(lp3904
(lp3905
tp3906
a(L3028481L
L0L
(lp3907
(lp3908
tp3909
a(L2176699418L
L3785322319L
(lp3910
(lp3911
Vbootloader_mmap_get_free_pages
p3912
atp3913
a(L847230985L
L0L
(lp3914
(lp3915
tp3916
a(L3103552037L
L0L
(lp3917
(lp3918
tp3919
atp3920
sI1074236920
(Vbootloader_common_check_chip_validity
p3921
(lp3922
(L392423210L
L0L
(lp3923
(lp3924
tp3925
a(L62642320L
L3785322319L
(lp3926
(lp3927
Vesp_log_early_timestamp
p3928
atp3929
a(L522103407L
L3785322319L
(lp3930
(lp3931
Vefuse_hal_chip_revision
p3932
atp3933
a(L106L
L0L
(lp3934
(lp3935
tp3936
a(L1989150608L
L0L
(lp3937
(lp3938
tp3939
a(L720806035L
L3785322319L
(lp3940
(lp3941
Vesp_log_early_timestamp
p3942
atp3943
a(L3028464L
L0L
(lp3944
(lp3945
tp3946
a(L1397322129L
L0L
(lp3947
(lp3948
tp3949
a(L3021749L
L0L
(lp3950
(lp3951
tp3952
a(L3790510041L
L3785322319L
(lp3953
(lp3954
Vesp_log_early_timestamp
p3955
atp3956
a(L1299867982L
L0L
(lp3957
(lp3958
tp3959
a(L3360570486L
L0L
(lp3960
(lp3961
tp3962
atp3963
sI1074237432
(Vbootloader_mmap
p3964
(lp3965
(L1582260584L
L0L
(lp3966
(lp3967
tp3968
a(L3227798873L
L3785322319L
(lp3969
(lp3970
Vesp_log_early_timestamp
p3971
atp3972
a(L3871473710L
L0L
(lp3973
(lp3974
tp3975
a(L3729184599L
L0L
(lp3976
(lp3977
tp3978
a(L318571938L
L3785322319L
(lp3979
(lp3980
Vesp_log_early_timestamp
p3981
atp3982
a(L4137098504L
L0L
(lp3983
(lp3984
tp3985
a(L2604084251L
L3785322319L
(lp3986
(lp3987
Vesp_log_early_timestamp
p3988
atp3989
a(L1849001032L
L0L
(lp3990
(lp3991
tp3992
a(L3688378814L
L3785322319L
(lp3993
(lp3994
Vesp_log_early_timestamp
p3995
atp3996
a(L1558023356L
L0L
(lp3997
(lp3998
tp3999
atp4000
sI1074244344
(Vmmu_hal_init
p4001
(lp4002
(L3251987510L
L0L
(lp4003
(lp4004
tp4005
a(L2010554219L
L0L
(lp4006
(lp4007
tp4008
a(L3268103L
L0L
(lp4009
(lp4010
tp4011
a(L3212334523L
L0L
(lp4012
(lp4013
tp4014
a(L2010554219L
L0L
(lp4015
(lp4016
tp4017
a(L3360570486L
L0L
(lp4018
(lp4019
tp4020
atp4021
ssS'functionsdups'
p4022
g11
((lp4023
tp4024
Rp4025
sS'immediatedups'
p4026
g11
((lp4027
tp4028
Rp4029
sS'functiondups'
p4030
g11
((lp4031
tp4032
Rp4033
sS'fuzzy'
p4034
(dp4035
L1536L
I1074240672
sL438947497L
I1074245048
sL2170867428L
I1074269872
sL617583950L
I1074236920
sL430153639L
I1074235804
sL3121027072L
I1074270308
sL1655084846L
I1074237228
sL2082889262L
I1074241568
sL291131346L
I1074244596
sL835568324L
I1074246476
sL1340445289L
I1074235556
sL2919016435L
I1074235164
sL16208487L
I1074234652
sL2319042089L
I1074245180
sL1907123383L
I1074238900
sL3881399234L
I1074245632
sL151789201L
I1074269688
sL1419132215L
I1074238148
sL114144873L
I1074237212
sL2469233929L
I1074240460
sL701833459L
I1074268628
sL2475522855L
I1074269604
sL1270034334L
I1074267628
sL3897252859L
I1074238556
sL1065525808L
I1074236716
sL1766137975L
I1074238816
sL2327783177L
I1074240752
sL2272466760L
I1074245420
sL2117292686L
I1074241172
sL1188065553L
I1074237708
sL1370949492L
I1074239880
sL1415908896L
I1074241788
sL94556391L
I1074245208
sL3210669721L
I1074244812
sL1332800441L
I1074237152
sL2884218272L
I1074267740
sL1345429244L
I1074240924
sL3190020590L
I1074242412
sL477634984L
I1074267960
sL4160102055L
I1074239936
sL4202185385L
I1074247192
sL1768086576L
I1074236272
sL4171975289L
I1074247492
sL1565254297L
I1074247792
sL1205407754L
I1074239968
sL2191698036L
I1074269468
sL1635528231L
I1074243828
sL519424169L
I1074246944
sL1060788199L
I1074245328
sL2800733194L
I1074239276
sL406720601L
I1074238640
sL737694352L
I1074247300
sL503029138L
I1074247240
sL1616763831L
I1074247880
sL2262558768L
I1074247104
sL424867129L
I1074247628
sL3834155367L
I1074241116
sL3338518926L
I1074237432
sL1299206787L
I1074239392
sL2123938668L
I1074245748
sL3883282432L
I1074241660
sL4173399607L
I1074242944
sL4278077574L
I1074239604
sL1667054119L
I1074240304
sL206902443L
I1074237980
ssb.