ccopy_reg
_reconstructor
p0
(crizzo
RizzoSignature
p1
c__builtin__
object
p2
Ntp3
Rp4
(dp5
S'formal'
p6
(dp7
L4129448738L
I1074268052
sL2399612421L
I1074245480
sL1207862518L
I1074240588
sL250925565L
I1074238604
sL1741170115L
I1074237924
sL247137719L
I1074247508
sL3505757179L
I1074234704
sL2423107704L
I1074239268
sL138009647L
I1074234744
sL1237733855L
I1074238828
sL1348277828L
I1074245628
sL4213015302L
I1074243136
sL2940696155L
I1074245840
sL1696635966L
I1074245256
sL3545118830L
I1074267832
sL3230852531L
I1074238192
sL3098316936L
I1074270048
sL693028457L
I1074240412
sL3232221579L
I1074244640
sL142168405L
I1074245812
sL2702580795L
I1074237288
sL1458472899L
I1074236628
sL3646029665L
I1074244804
sL2896295319L
I1074236828
sL944494460L
I1074245020
sL2285799430L
I1074244600
sL1674148343L
I1074245536
sL2030740789L
I1074246640
sL4171974888L
I1074269888
sL2485902447L
I1074236708
sL2460396001L
I1074248000
sL3333913339L
I1074243440
sL2741930811L
I1074240064
sL3791484843L
I1074267139
sL1585823442L
I1074244452
sL1622896354L
I1074244480
sL3259090715L
I1074247152
sL3213302492L
I1074269624
sL617669774L
I1074247312
sL3392225391L
I1074269916
sL426938157L
I1074235256
sL3705747329L
I1074247400
sL878917889L
I1074238112
sL1016500464L
I1074244960
sL2186980156L
I1074245080
sL2951847322L
I1074244668
sL1568446217L
I1074236532
sL3476917835L
I1074236988
sL2635990884L
I1074241916
sL1259414891L
I1074245208
sL1056742531L
I1074236384
sL768348750L
I1074238776
sL426984944L
I1074236900
sL4117027047L
I1074268824
sL676927194L
I1074269112
sL2945163535L
I1074240096
sL2277098556L
I1074236800
sL3307282855L
I1074238084
sL1853923591L
I1074245388
sL1072211552L
I1074270668
sL911764690L
I1074237620
sL1923374634L
I1074245956
sL1043339424L
I1074240336
sL3837755948L
I1074240432
sL60374282L
I1074245232
sL1191319953L
I1074269964
sL692183250L
I1074270232
sL2543988023L
I1074240824
sL2472605942L
I1074245768
sL1109026444L
I1074269760
sL2956233896L
I1074242636
sL798282249L
I1074270000
sL1189478010L
I1074241696
sL1687894276L
I1074244352
sL3514307815L
I1074248088
sL4038945309L
I1074235600
sL696241373L
I1074237672
sL2373957340L
I1074245416
sL518463041L
I1074235804
sL2626436395L
I1074236932
sL3978280629L
I1074241300
sL1275163307L
I1074244552
sL2901532506L
I1074239388
sL1709641802L
I1074239752
sL17106344L
I1074269692
sL3050555005L
I1074247120
sL2997001746L
I1074237220
sL952722552L
I1074247448
sL2363736404L
I1074243152
sL4079247507L
I1074241052
sL1332374493L
I1074269608
sL2819127986L
I1074236952
sL3980264325L
I1074246684
sL149978958L
I1074236564
sL1877634603L
I1074270900
sL3518743416L
I1074238520
sL3310923163L
I1074238728
sL3379108269L
I1074244036
sL2987381963L
I1074269120
sL3459889393L
I1074244384
sL790507223L
I1074236732
sL1168915326L
I1074235548
sL873382621L
I1074235916
sL404293581L
I1074237364
sL2263182908L
I1074238104
sL3732155567L
I1074247700
sL700866072L
I1074237944
sL3630163135L
I1074236816
sL188664287L
I1074235224
sL782838600L
I1074240784
sL2587289812L
I1074235648
sL4138236490L
I1074240880
sL3075360168L
I1074241244
sL692536993L
I1074237260
sL829503895L
I1074247836
sL2218866089L
I1074238880
sL2114693345L
I1074241788
sL3300000600L
I1074268880
sL144857933L
I1074240800
sL1652676726L
I1074270828
sL3018942732L
I1074267724
sL366071084L
I1074269648
sL906556151L
I1074237396
sL2398800133L
I1074245496
ssS'immediates'
p8
(dp9
sS'formaldups'
p10
c__builtin__
set
p11
((lp12
tp13
Rp14
sS'stringdups'
p15
g11
((lp16
tp17
Rp18
sS'fuzzydups'
p19
g11
((lp20
tp21
Rp22
sS'strings'
p23
(dp24
sS'functions'
p25
(dp26
I1074236932
(Vbootloader_common_ota_select_crc
p27
(lp28
(L3214440559L
L0L
(lp29
(lp30
tp31
atp32
sI1074269964
(Vbootloader_console_init
p33
(lp34
(L2283227580L
L1832448559L
(lp35
(lp36
Vesp_rom_uart_tx_wait_idle
p37
aVrtc_clk_apb_freq_get
p38
aVesp_rom_uart_set_clock_baudrate
p39
atp40
atp41
sI1074244352
(Vwdt_hal_write_protect_disable
p42
(lp43
(L3345031483L
L0L
(lp44
(lp45
tp46
a(L4195472003L
L0L
(lp47
(lp48
tp49
a(L3360570486L
L0L
(lp50
(lp51
tp52
a(L1210571996L
L0L
(lp53
(lp54
tp55
atp56
sI1074235648
(Vbootloader_flash_xmc_startup
p57
(lp58
(L3680458509L
L3785322319L
(lp59
(lp60
Vis_xmc_chip_strict
p61
atp62
a(L2258688482L
L0L
(lp63
(lp64
tp65
a(L3360570486L
L0L
(lp66
(lp67
tp68
a(L2860324232L
L3785322319L
(lp69
(lp70
Vbootloader_flash_read_sfdp
p71
atp72
a(L2097895665L
L2567856111L
(lp73
(lp74
Vesp_log_early_timestamp
p75
aVbootloader_execute_flash_command
p76
aVbootloader_execute_flash_command
p77
aVbootloader_execute_flash_command
p78
aVbootloader_execute_flash_command
p79
aVbootloader_read_flash_id
p80
aVis_xmc_chip_strict
p81
atp82
a(L4062067944L
L3785322319L
(lp83
(lp84
Vesp_log_early_timestamp
p85
atp86
atp87
sI1074245376
(Vrtc_clk_slow_src_get
p88
(lp89
(L376617603L
L3785322319L
(lp90
(lp91
Vclk_ll_rtc_slow_get_src
p92
atp93
atp94
sI1074267136
(V_init
p95
(lp96
(L3493042598L
L0L
(lp97
(lp98
tp99
atp100
sI1074235916
(Vbootloader_flash_gpio_config
p101
(lp102
(L3448878117L
L3785322319L
(lp103
(lp104
Vbootloader_common_get_chip_ver_pkg
p105
atp106
a(L106L
L0L
(lp107
(lp108
tp109
a(L1998579353L
L0L
(lp110
(lp111
tp112
a(L106L
L0L
(lp113
(lp114
tp115
a(L1029428446L
L0L
(lp116
(lp117
tp118
a(L4242290324L
L0L
(lp119
(lp120
tp121
a(L106L
L0L
(lp122
(lp123
tp124
a(L4003626558L
L0L
(lp125
(lp126
tp127
a(L1553523094L
L0L
(lp128
(lp129
tp130
a(L3360570486L
L0L
(lp131
(lp132
tp133
atp134
sI1074245388
(Vrtc_clk_slow_freq_get_hz
p135
(lp136
(L1826267122L
L3785322319L
(lp137
(lp138
Vclk_ll_rtc_slow_get_src
p139
atp140
a(L4158856552L
L0L
(lp141
(lp142
tp143
a(L3631005815L
L0L
(lp144
(lp145
tp146
a(L702740041L
L0L
(lp147
(lp148
tp149
a(L3360570486L
L0L
(lp150
(lp151
tp152
atp153
sI1074267139
(V_text_start
p154
(lp155
(L1817914933L
L0L
(lp156
(lp157
tp158
a(L536106224L
L0L
(lp159
(lp160
tp161
atp162
sI1074239752
(Vbootloader_utility_get_selected_boot_partition
p163
(lp164
(L2184143128L
L0L
(lp165
(lp166
tp167
a(L3562950348L
L0L
(lp168
(lp169
tp170
a(L2305665381L
L3785322319L
(lp171
(lp172
Vesp_log_early_timestamp
p173
atp174
a(L194246498L
L0L
(lp175
(lp176
tp177
a(L3360570486L
L0L
(lp178
(lp179
tp180
a(L1375577398L
L3785322319L
(lp181
(lp182
Vbootloader_mmap
p183
atp184
a(L4068127698L
L3785322319L
(lp185
(lp186
Vesp_log_early_timestamp
p187
atp188
a(L2463613311L
L1880226080L
(lp189
(lp190
Vbootloader_munmap
p191
aVbootloader_common_ota_select_invalid
p192
atp193
a(L1103573946L
L0L
(lp194
(lp195
tp196
a(L1876835593L
L3785322319L
(lp197
(lp198
Vbootloader_common_get_active_otadata
p199
atp200
a(L106L
L0L
(lp201
(lp202
tp203
a(L569346373L
L0L
(lp204
(lp205
tp206
a(L788494392L
L3785322319L
(lp207
(lp208
Vbootloader_common_ota_select_invalid
p209
atp210
a(L2801470901L
L0L
(lp211
(lp212
tp213
a(L1838181073L
L3785322319L
(lp214
(lp215
Vesp_log_early_timestamp
p216
atp217
a(L2440848641L
L3785322319L
(lp218
(lp219
Vesp_log_early_timestamp
p220
atp221
a(L505081345L
L0L
(lp222
(lp223
tp224
a(L919052234L
L3785322319L
(lp225
(lp226
Vbootloader_common_ota_select_crc
p227
atp228
a(L2287680455L
L0L
(lp229
(lp230
tp231
a(L3542558037L
L3785322319L
(lp232
(lp233
Vbootloader_common_ota_select_crc
p234
atp235
a(L1299866312L
L0L
(lp236
(lp237
tp238
a(L1279036405L
L0L
(lp239
(lp240
tp241
a(L1406565969L
L3785322319L
(lp242
(lp243
Vesp_log_early_timestamp
p244
atp245
a(L2867263840L
L0L
(lp246
(lp247
tp248
a(L4142614645L
L3785322319L
(lp249
(lp250
Vesp_log_early_timestamp
p251
atp252
atp253
sI1074238728
(Vtry_load_partition
p254
(lp255
(L1263750142L
L0L
(lp256
(lp257
tp258
a(L2258688482L
L0L
(lp259
(lp260
tp261
a(L3360570486L
L0L
(lp262
(lp263
tp264
a(L530241438L
L3785322319L
(lp265
(lp266
Vbootloader_load_image
p267
atp268
a(L3010049260L
L3785322319L
(lp269
(lp270
Vesp_log_early_timestamp
p271
atp272
atp273
sI1074270232
(Vrtc_clk_init
p274
(lp275
(L1433536254L
L0L
(lp276
(lp277
tp278
a(L42671777L
L3785322319L
(lp279
(lp280
Vrtc_clk_cpu_freq_to_xtal
p281
atp282
a(L1950731570L
L3785322319L
(lp283
(lp284
Vrtc_clk_xtal_freq_get
p285
atp286
a(L89029051L
L0L
(lp287
(lp288
tp289
a(L4187693717L
L3785322319L
(lp290
(lp291
Vrtc_clk_xtal_freq_estimate
p292
atp293
a(L3965386186L
L3785322319L
(lp294
(lp295
Vesp_log_early_timestamp
p296
atp297
a(L2928127184L
L1157885199L
(lp298
(lp299
Vesp_rom_uart_tx_wait_idle
p300
aVrtc_clk_xtal_freq_update
p301
aVrtc_clk_apb_freq_update
p302
aVrtc_clk_cpu_freq_get_config
p303
aVrtc_clk_cpu_freq_mhz_to_config
p304
atp305
a(L170300763L
L1880226080L
(lp306
(lp307
Vesp_log_early_timestamp
p308
aVabort
p309
atp310
a(L3028481L
L0L
(lp311
(lp312
tp313
a(L4070631611L
L3785322319L
(lp314
(lp315
Vrtc_clk_xtal_freq_estimate
p316
atp317
a(L2871935663L
L3785322319L
(lp318
(lp319
Vesp_log_early_timestamp
p320
atp321
a(L2976141507L
L3785322319L
(lp322
(lp323
Vrtc_clk_cpu_freq_set_config
p324
atp325
a(L912310138L
L3785322319L
(lp326
(lp327
Vrtc_clk_32k_enable
p328
atp329
a(L3191820416L
L1832448559L
(lp330
(lp331
Vrtc_clk_8m_enable
p332
aVrtc_clk_fast_src_set
p333
aVrtc_clk_slow_src_set
p334
atp335
a(L1232958848L
L0L
(lp336
(lp337
tp338
atp339
sI1074241300
(Vverify_load_addresses
p340
(lp341
(L2764487219L
L0L
(lp342
(lp343
tp344
a(L106L
L0L
(lp345
(lp346
tp347
a(L97642L
L0L
(lp348
(lp349
tp350
a(L532903251L
L3785322319L
(lp351
(lp352
V__assert_func
p353
atp354
a(L170023642L
L0L
(lp355
(lp356
tp357
a(L106L
L0L
(lp358
(lp359
tp360
a(L993824775L
L0L
(lp361
(lp362
tp363
a(L106L
L0L
(lp364
(lp365
tp366
a(L3188534306L
L3785322319L
(lp367
(lp368
Vbootloader_util_regions_overlap
p369
atp370
a(L3284083279L
L3785322319L
(lp371
(lp372
Vbootloader_util_regions_overlap
p373
atp374
a(L3028481L
L0L
(lp375
(lp376
tp377
a(L1178890466L
L3785322319L
(lp378
(lp379
Vbootloader_util_regions_overlap
p380
atp381
a(L2117228786L
L0L
(lp382
(lp383
tp384
a(L273144354L
L0L
(lp385
(lp386
tp387
a(L1016222393L
L0L
(lp388
(lp389
tp390
a(L2661576437L
L0L
(lp391
(lp392
tp393
a(L2503437888L
L0L
(lp394
(lp395
tp396
a(L677569396L
L3785322319L
(lp397
(lp398
Vverify_load_addresses
p399
atp400
a(L1351513776L
L0L
(lp401
(lp402
tp403
a(L3061261803L
L0L
(lp404
(lp405
tp406
a(L2743341656L
L0L
(lp407
(lp408
tp409
a(L791897016L
L0L
(lp410
(lp411
tp412
a(L729859039L
L0L
(lp413
(lp414
tp415
a(L4026856790L
L3785322319L
(lp416
(lp417
Vbootloader_util_regions_overlap
p418
atp419
a(L3028481L
L0L
(lp420
(lp421
tp422
a(L1567678174L
L3785322319L
(lp423
(lp424
Vbootloader_util_regions_overlap
p425
atp426
a(L2782864159L
L0L
(lp427
(lp428
tp429
a(L476078031L
L0L
(lp430
(lp431
tp432
a(L1301487450L
L0L
(lp433
(lp434
tp435
a(L1527375920L
L0L
(lp436
(lp437
tp438
a(L307916850L
L0L
(lp439
(lp440
tp441
a(L697239146L
L0L
(lp442
(lp443
tp444
a(L106L
L0L
(lp445
(lp446
tp447
a(L955505162L
L0L
(lp448
(lp449
tp450
a(L307917400L
L0L
(lp451
(lp452
tp453
a(L490080443L
L0L
(lp454
(lp455
tp456
a(L106L
L0L
(lp457
(lp458
tp459
a(L131589412L
L3785322319L
(lp460
(lp461
Vesp_log_early_timestamp
p462
atp463
a(L955505038L
L0L
(lp464
(lp465
tp466
a(L1303560427L
L0L
(lp467
(lp468
tp469
atp470
sI1074247700
(Vesp_rom_spiflash_erase_sector
p471
(lp472
(L1384786480L
L0L
(lp473
(lp474
tp475
a(L2258688483L
L0L
(lp476
(lp477
tp478
a(L3360570486L
L0L
(lp479
(lp480
tp481
a(L3212356251L
L3785322319L
(lp482
(lp483
Vesp_rom_spiflash_enable_write
p484
atp485
a(L184152988L
L0L
(lp486
(lp487
tp488
a(L991301353L
L3785322319L
(lp489
(lp490
Vesp_rom_spiflash_wait_idle
p491
atp492
a(L3333707777L
L0L
(lp493
(lp494
tp495
a(L3582858798L
L3785322319L
(lp496
(lp497
Vesp_rom_spiflash_wait_idle
p498
atp499
atp500
sI1074240784
(Vbootloader_console_deinit
p501
(lp502
(L4005071210L
L0L
(lp503
(lp504
tp505
atp506
sI1074241052
(Vprocess_image_header
p507
(lp508
(L4286422149L
L3785322319L
(lp509
(lp510
Vbootloader_flash_read
p511
atp512
a(L3020204L
L0L
(lp513
(lp514
tp515
a(L4130667142L
L0L
(lp516
(lp517
tp518
a(L3131381282L
L0L
(lp519
(lp520
tp521
a(L1161397362L
L3785322319L
(lp522
(lp523
Vbootloader_sha256_start
p524
atp525
a(L1948257695L
L3785322319L
(lp526
(lp527
Vbootloader_sha256_data
p528
atp529
a(L1095449651L
L0L
(lp530
(lp531
tp532
a(L3020204L
L0L
(lp533
(lp534
tp535
a(L702739510L
L0L
(lp536
(lp537
tp538
a(L3360570486L
L0L
(lp539
(lp540
tp541
a(L1435924568L
L3785322319L
(lp542
(lp543
Vesp_log_early_timestamp
p544
atp545
a(L3718883008L
L3785322319L
(lp546
(lp547
Vbootloader_common_check_chip_validity
p548
atp549
a(L3677035427L
L0L
(lp550
(lp551
tp552
a(L3028481L
L0L
(lp553
(lp554
tp555
a(L4249612150L
L3785322319L
(lp556
(lp557
Vesp_log_early_timestamp
p558
atp559
a(L2250109166L
L0L
(lp560
(lp561
tp562
a(L1235012870L
L0L
(lp563
(lp564
tp565
a(L3063569071L
L0L
(lp566
(lp567
tp568
atp569
sI1074246684
(Vrtc_clk_cal_internal
p570
(lp571
(L3168308412L
L0L
(lp572
(lp573
tp574
a(L3863152980L
L3785322319L
(lp575
(lp576
V__assert_func
p577
atp578
a(L4026264710L
L0L
(lp579
(lp580
tp581
a(L54826884L
L0L
(lp582
(lp583
tp584
a(L234746575L
L0L
(lp585
(lp586
tp587
a(L861896856L
L3785322319L
(lp588
(lp589
Vrtc_clk_8m_enable
p590
atp591
a(L2689039534L
L3785322319L
(lp592
(lp593
Vrtc_clk_slow_src_get
p594
atp595
a(L1211065969L
L0L
(lp596
(lp597
tp598
a(L97689L
L0L
(lp599
(lp600
tp601
a(L1703854795L
L0L
(lp602
(lp603
tp604
a(L3028464L
L0L
(lp605
(lp606
tp607
a(L3028481L
L0L
(lp608
(lp609
tp610
a(L3450258732L
L0L
(lp611
(lp612
tp613
a(L944966L
L3785322319L
(lp614
(lp615
Vrtc_clk_xtal_freq_get
p616
atp617
a(L2780079961L
L0L
(lp618
(lp619
tp620
a(L3848725940L
L0L
(lp621
(lp622
tp623
a(L4169951882L
L3785322319L
(lp624
(lp625
Vesp_log_early_timestamp
p626
atp627
a(L3360570486L
L0L
(lp628
(lp629
tp630
a(L794862694L
L0L
(lp631
(lp632
tp633
a(L3245477987L
L0L
(lp634
(lp635
tp636
a(L2910371777L
L0L
(lp637
(lp638
tp639
a(L2902417580L
L0L
(lp640
(lp641
tp642
a(L4153720753L
L0L
(lp643
(lp644
tp645
a(L3631005548L
L0L
(lp646
(lp647
tp648
a(L2144990312L
L0L
(lp649
(lp650
tp651
a(L3352263364L
L0L
(lp652
(lp653
tp654
a(L3028464L
L0L
(lp655
(lp656
tp657
a(L1325746132L
L3785322319L
(lp658
(lp659
Vrtc_clk_8m_enable
p660
atp661
atp662
sI1074236952
(Vbootloader_common_ota_select_valid
p663
(lp664
(L1563399710L
L3785322319L
(lp665
(lp666
Vbootloader_common_ota_select_invalid
p667
atp668
a(L3814720849L
L3785322319L
(lp669
(lp670
Vbootloader_common_ota_select_crc
p671
atp672
a(L3360570486L
L0L
(lp673
(lp674
tp675
atp676
sI1074247448
(Vesp_rom_spiflash_enable_write
p677
(lp678
(L2890359061L
L3785322319L
(lp679
(lp680
Vesp_rom_spiflash_wait_idle
p681
atp682
a(L3137194272L
L0L
(lp683
(lp684
tp685
a(L2258718275L
L0L
(lp686
(lp687
tp688
a(L99543895L
L0L
(lp689
(lp690
tp691
a(L2993202392L
L0L
(lp692
(lp693
tp694
a(L1804543818L
L3785322319L
(lp695
(lp696
Vesp_rom_spiflash_read_status
p697
atp698
atp699
sI1074237220
(Vbootloader_common_get_active_otadata
p700
(lp701
(L3317503532L
L0L
(lp702
(lp703
tp704
a(L2503049265L
L1832448559L
(lp705
(lp706
Vbootloader_common_ota_select_valid
p707
aVbootloader_common_ota_select_valid
p708
aVbootloader_common_select_otadata
p709
atp710
a(L735741265L
L0L
(lp711
(lp712
tp713
atp714
sI1074236708
(Vefuse_hal_chip_revision
p715
(lp716
(L2719302832L
L1880226080L
(lp717
(lp718
Vefuse_hal_get_major_chip_version
p719
aVefuse_hal_get_minor_chip_version
p720
atp721
atp722
sI1074239268
(Vset_actual_ota_seq
p723
(lp724
(L4094723830L
L0L
(lp725
(lp726
tp727
a(L2573507321L
L0L
(lp728
(lp729
tp730
a(L3461827603L
L1832448559L
(lp731
(lp732
Vbootloader_common_ota_select_crc
p733
aVesp_flash_encryption_enabled
p734
aVbootloader_flash_erase_sector
p735
atp736
a(L3292941333L
L3785322319L
(lp737
(lp738
Vbootloader_flash_write
p739
atp740
a(L1764870441L
L3785322319L
(lp741
(lp742
Vesp_log_early_timestamp
p743
atp744
a(L2939835162L
L3785322319L
(lp745
(lp746
Vesp_log_early_timestamp
p747
atp748
a(L3360570486L
L0L
(lp749
(lp750
tp751
atp752
sI1074244640
(Vclk_ll_rtc_slow_get_src
p753
(lp754
(L416280487L
L0L
(lp755
(lp756
tp757
a(L3020187L
L0L
(lp758
(lp759
tp760
a(L2902417580L
L0L
(lp761
(lp762
tp763
a(L2258688485L
L0L
(lp764
(lp765
tp766
a(L3360570486L
L0L
(lp767
(lp768
tp769
atp770
sI1074244384
(Vwdt_hal_set_flashboot_en
p771
(lp772
(L2375320464L
L0L
(lp773
(lp774
tp775
a(L3915867581L
L0L
(lp776
(lp777
tp778
a(L3360570486L
L0L
(lp779
(lp780
tp781
a(L1643092119L
L0L
(lp782
(lp783
tp784
atp785
sI1074240800
(V__assert_func
p786
(lp787
(L1697582622L
L0L
(lp788
(lp789
tp790
a(L106L
L0L
(lp791
(lp792
tp793
atp794
sI1074238508
(Vbootloader_clock_get_rated_freq_mhz
p795
(lp796
(L376617603L
L3785322319L
(lp797
(lp798
Vefuse_hal_get_rated_freq_mhz
p799
atp800
atp801
sI1074245416
(Vrtc_clk_fast_src_set
p802
(lp803
(L1233611555L
L0L
(lp804
(lp805
tp806
a(L3020187L
L0L
(lp807
(lp808
tp809
a(L3827921190L
L3785322319L
(lp810
(lp811
Vabort
p812
atp813
a(L2904656757L
L0L
(lp814
(lp815
tp816
a(L206212292L
L0L
(lp817
(lp818
tp819
a(L300459962L
L0L
(lp820
(lp821
tp822
atp823
sI1074270000
(Vesp_cpu_configure_region_protection
p824
(lp825
(L2123781700L
L0L
(lp826
(lp827
tp828
a(L180431425L
L3785322319L
(lp829
(lp830
Vmpu_hal_set_region_access
p831
atp832
a(L2537388152L
L3785322319L
(lp833
(lp834
Vmpu_hal_set_region_access
p835
atp836
atp837
sI1074236732
(Vefuse_hal_get_major_chip_version
p838
(lp839
(L1242126302L
L0L
(lp840
(lp841
tp842
a(L894792960L
L0L
(lp843
(lp844
tp845
a(L3783348505L
L0L
(lp846
(lp847
tp848
a(L3360570486L
L0L
(lp849
(lp850
tp851
atp852
sI1074236988
(Vbootloader_common_check_chip_validity
p853
(lp854
(L392423210L
L0L
(lp855
(lp856
tp857
a(L62642320L
L3785322319L
(lp858
(lp859
Vesp_log_early_timestamp
p860
atp861
a(L522103407L
L3785322319L
(lp862
(lp863
Vefuse_hal_chip_revision
p864
atp865
a(L106L
L0L
(lp866
(lp867
tp868
a(L1989150608L
L0L
(lp869
(lp870
tp871
a(L720806035L
L3785322319L
(lp872
(lp873
Vesp_log_early_timestamp
p874
atp875
a(L3028464L
L0L
(lp876
(lp877
tp878
a(L1397322129L
L0L
(lp879
(lp880
tp881
a(L3021749L
L0L
(lp882
(lp883
tp884
a(L3790510041L
L3785322319L
(lp885
(lp886
Vesp_log_early_timestamp
p887
atp888
a(L1299867982L
L0L
(lp889
(lp890
tp891
a(L3360570486L
L0L
(lp892
(lp893
tp894
atp895
sI1074244668
(Vrtc_clk_32k_enable_common
p896
(lp897
(L1442393279L
L0L
(lp898
(lp899
tp900
a(L97689L
L0L
(lp901
(lp902
tp903
a(L2218417250L
L0L
(lp904
(lp905
tp906
a(L533879761L
L0L
(lp907
(lp908
tp909
a(L51458058L
L0L
(lp910
(lp911
tp912
atp913
sI1074238520
(Vlog_invalid_app_partition
p914
(lp915
(L3121159614L
L0L
(lp916
(lp917
tp918
a(L3028464L
L0L
(lp919
(lp920
tp921
a(L1381405837L
L3785322319L
(lp922
(lp923
Vesp_log_early_timestamp
p924
atp925
a(L3833270346L
L0L
(lp926
(lp927
tp928
a(L3360570486L
L0L
(lp929
(lp930
tp931
a(L3430459325L
L3785322319L
(lp932
(lp933
Vesp_log_early_timestamp
p934
atp935
a(L3309219235L
L3785322319L
(lp936
(lp937
Vesp_log_early_timestamp
p938
atp939
atp940
sI1074238776
(Vcache_ll_l1_enable_bus
p941
(lp942
(L1908488057L
L0L
(lp943
(lp944
tp945
atp946
sI1074240824
(Vabort
p947
(lp948
(L56968919L
L0L
(lp949
(lp950
tp951
a(L409471316L
L0L
(lp952
(lp953
tp954
a(L106L
L0L
(lp955
(lp956
tp957
atp958
sI1074245956
(Vrtc_clk_cpu_freq_set_config
p959
(lp960
(L97989050L
L3785322319L
(lp961
(lp962
Vrtc_clk_xtal_freq_get
p963
atp964
a(L3020187L
L0L
(lp965
(lp966
tp967
a(L3028464L
L0L
(lp968
(lp969
tp970
a(L264223053L
L1880226080L
(lp971
(lp972
Vrtc_clk_cpu_freq_to_xtal
p973
aVrtc_clk_wait_for_slow_cycle
p974
atp975
a(L94425498L
L3785322319L
(lp976
(lp977
Vrtc_clk_bbpll_disable
p978
atp979
a(L3978916712L
L0L
(lp980
(lp981
tp982
a(L2977209154L
L0L
(lp983
(lp984
tp985
a(L2736411858L
L3785322319L
(lp986
(lp987
Vrtc_clk_cpu_freq_to_xtal
p988
atp989
a(L3360570486L
L0L
(lp990
(lp991
tp992
a(L3020187L
L0L
(lp993
(lp994
tp995
a(L106L
L0L
(lp996
(lp997
tp998
a(L4139299579L
L1880226080L
(lp999
(lp1000
Vrtc_clk_wait_for_slow_cycle
p1001
aVrtc_clk_xtal_freq_get
p1002
atp1003
a(L106L
L0L
(lp1004
(lp1005
tp1006
a(L1388483569L
L0L
(lp1007
(lp1008
tp1009
a(L106L
L0L
(lp1010
(lp1011
tp1012
a(L83268611L
L0L
(lp1013
(lp1014
tp1015
a(L106L
L0L
(lp1016
(lp1017
tp1018
a(L82344823L
L0L
(lp1019
(lp1020
tp1021
a(L106L
L0L
(lp1022
(lp1023
tp1024
a(L1274797871L
L0L
(lp1025
(lp1026
tp1027
a(L2960675980L
L0L
(lp1028
(lp1029
tp1030
a(L2332426982L
L1880226080L
(lp1031
(lp1032
Vclk_ll_rtc_slow_get_src
p1033
aVrtc_clk_cpu_freq_to_pll_mhz
p1034
atp1035
a(L97866512L
L0L
(lp1036
(lp1037
tp1038
a(L83268344L
L0L
(lp1039
(lp1040
tp1041
a(L82345090L
L0L
(lp1042
(lp1043
tp1044
a(L1299628291L
L0L
(lp1045
(lp1046
tp1047
a(L2382164494L
L0L
(lp1048
(lp1049
tp1050
a(L2258807646L
L0L
(lp1051
(lp1052
tp1053
a(L878473564L
L0L
(lp1054
(lp1055
tp1056
a(L2389426015L
L0L
(lp1057
(lp1058
tp1059
a(L1596574736L
L0L
(lp1060
(lp1061
tp1062
a(L2086626670L
L0L
(lp1063
(lp1064
tp1065
a(L1302638456L
L0L
(lp1066
(lp1067
tp1068
a(L810137203L
L0L
(lp1069
(lp1070
tp1071
a(L87353900L
L0L
(lp1072
(lp1073
tp1074
a(L3020187L
L0L
(lp1075
(lp1076
tp1077
a(L106L
L0L
(lp1078
(lp1079
tp1080
a(L1226014053L
L0L
(lp1081
(lp1082
tp1083
atp1084
sI1074267724
(Vcall_start_cpu0
p1085
(lp1086
(L1137852827L
L0L
(lp1087
(lp1088
tp1089
a(L549459388L
L0L
(lp1090
(lp1091
tp1092
a(L3212347974L
L3785322319L
(lp1093
(lp1094
Vbootloader_init
p1095
atp1096
a(L94425498L
L3785322319L
(lp1097
(lp1098
Vbootloader_reset
p1099
atp1100
a(L1122046408L
L0L
(lp1101
(lp1102
tp1103
a(L4099474112L
L0L
(lp1104
(lp1105
tp1106
a(L3015046664L
L3785322319L
(lp1107
(lp1108
Vbootloader_utility_load_partition_table
p1109
atp1110
a(L2761094216L
L3785322319L
(lp1111
(lp1112
Vesp_log_early_timestamp
p1113
atp1114
a(L405422123L
L3785322319L
(lp1115
(lp1116
Vbootloader_utility_get_selected_boot_partition
p1117
atp1118
a(L2055385849L
L3785322319L
(lp1119
(lp1120
Vbootloader_utility_load_boot_image
p1121
atp1122
atp1123
sI1074240064
(Vbootloader_reset
p1124
(lp1125
(L4123387220L
L3785322319L
(lp1126
(lp1127
Vbootloader_console_deinit
p1128
atp1129
a(L106L
L0L
(lp1130
(lp1131
tp1132
atp1133
sI1074243136
(Vbootloader_load_image
p1134
(lp1135
(L1155870502L
L3785322319L
(lp1136
(lp1137
Vimage_load
p1138
atp1139
atp1140
sI1074248000
(Vesp_rom_spiflash_write_encrypted
p1141
(lp1142
(L1944247967L
L0L
(lp1143
(lp1144
tp1145
a(L3637183229L
L0L
(lp1146
(lp1147
tp1148
a(L97689L
L0L
(lp1149
(lp1150
tp1151
a(L3061232074L
L0L
(lp1152
(lp1153
tp1154
a(L1678068038L
L0L
(lp1155
(lp1156
tp1157
a(L1309309703L
L3785322319L
(lp1158
(lp1159
Vesp_rom_spiflash_write
p1160
atp1161
a(L3850908019L
L0L
(lp1162
(lp1163
tp1164
a(L735741265L
L0L
(lp1165
(lp1166
tp1167
atp1168
sI1074269760
(Vbootloader_config_wdt
p1169
(lp1170
(L197822005L
L505859776L
(lp1171
(lp1172
Vwdt_hal_write_protect_disable
p1173
aVwdt_hal_set_flashboot_en
p1174
aVwdt_hal_write_protect_enable
p1175
aVwdt_hal_init
p1176
aVrtc_clk_slow_freq_get_hz
p1177
aVwdt_hal_write_protect_disable
p1178
aVwdt_hal_config_stage
p1179
aVwdt_hal_enable
p1180
aVwdt_hal_write_protect_enable
p1181
aVwdt_hal_write_protect_disable
p1182
aVwdt_hal_set_flashboot_en
p1183
aVwdt_hal_write_protect_enable
p1184
atp1185
atp1186
sI1074237260
(Vbootloader_common_ota_select_invalid
p1187
(lp1188
(L4027567199L
L0L
(lp1189
(lp1190
tp1191
a(L3397985842L
L0L
(lp1192
(lp1193
tp1194
a(L2258867228L
L0L
(lp1195
(lp1196
tp1197
a(L3785235668L
L0L
(lp1198
(lp1199
tp1200
atp1201
sI1074240588
(Vbootloader_sha256_finish
p1202
(lp1203
(L4066096136L
L0L
(lp1204
(lp1205
tp1206
a(L3125987449L
L0L
(lp1207
(lp1208
tp1209
a(L3884092851L
L3785322319L
(lp1210
(lp1211
V__assert_func
p1212
atp1213
a(L3020204L
L0L
(lp1214
(lp1215
tp1216
a(L1816853500L
L0L
(lp1217
(lp1218
tp1219
a(L2534656226L
L0L
(lp1220
(lp1221
tp1222
a(L551614134L
L3785322319L
(lp1223
(lp1224
Vbootloader_sha256_data
p1225
atp1226
a(L3281735505L
L0L
(lp1227
(lp1228
tp1229
a(L841302101L
L3785322319L
(lp1230
(lp1231
Vbootloader_sha256_data
p1232
atp1233
a(L3768329152L
L0L
(lp1234
(lp1235
tp1236
a(L657425439L
L0L
(lp1237
(lp1238
tp1239
a(L3930848034L
L0L
(lp1240
(lp1241
tp1242
a(L657425439L
L0L
(lp1243
(lp1244
tp1245
a(L4116699460L
L0L
(lp1246
(lp1247
tp1248
a(L3511307343L
L0L
(lp1249
(lp1250
tp1251
a(L3347778L
L0L
(lp1252
(lp1253
tp1254
a(L3360570486L
L0L
(lp1255
(lp1256
tp1257
atp1258
sI1074242636
(Vimage_load
p1259
(lp1260
(L3559420668L
L0L
(lp1261
(lp1262
tp1263
a(L1899869541L
L0L
(lp1264
(lp1265
tp1266
a(L979631281L
L0L
(lp1267
(lp1268
tp1269
a(L1525480527L
L0L
(lp1270
(lp1271
tp1272
a(L1043148059L
L0L
(lp1273
(lp1274
tp1275
a(L2796536461L
L0L
(lp1276
(lp1277
tp1278
a(L2974022397L
L3785322319L
(lp1279
(lp1280
Vesp_log_early_timestamp
p1281
atp1282
a(L2068384292L
L0L
(lp1283
(lp1284
tp1285
a(L1968553470L
L3785322319L
(lp1286
(lp1287
Vbootloader_sha256_finish
p1288
atp1289
a(L4209044681L
L0L
(lp1290
(lp1291
tp1292
a(L3225218531L
L0L
(lp1293
(lp1294
tp1295
a(L3802071166L
L0L
(lp1296
(lp1297
tp1298
a(L1301867039L
L3785322319L
(lp1299
(lp1300
Vprocess_image_header
p1301
atp1302
a(L560228796L
L0L
(lp1303
(lp1304
tp1305
a(L4185758499L
L0L
(lp1306
(lp1307
tp1308
a(L1530940255L
L3785322319L
(lp1309
(lp1310
Vprocess_segments
p1311
atp1312
a(L1233227930L
L0L
(lp1313
(lp1314
tp1315
a(L2539156582L
L0L
(lp1316
(lp1317
tp1318
a(L2570888687L
L3785322319L
(lp1319
(lp1320
Vprocess_checksum
p1321
atp1322
a(L425503098L
L3785322319L
(lp1323
(lp1324
Vprocess_appended_hash_and_sig
p1325
atp1326
a(L780930979L
L0L
(lp1327
(lp1328
tp1329
a(L2334355956L
L0L
(lp1330
(lp1331
tp1332
a(L3470740557L
L0L
(lp1333
(lp1334
tp1335
a(L2727908192L
L1880226080L
(lp1336
(lp1337
Vbootloader_sha256_finish
p1338
aVbootloader_debug_buffer
p1339
atp1340
a(L764308364L
L1880226080L
(lp1341
(lp1342
Vesp_log_early_timestamp
p1343
aVbootloader_debug_buffer
p1344
atp1345
a(L1087646176L
L0L
(lp1346
(lp1347
tp1348
a(L2068384292L
L0L
(lp1349
(lp1350
tp1351
a(L3021148818L
L3785322319L
(lp1352
(lp1353
Vbootloader_sha256_finish
p1354
atp1355
a(L3028481L
L0L
(lp1356
(lp1357
tp1358
a(L139701033L
L0L
(lp1359
(lp1360
tp1361
a(L2510919588L
L0L
(lp1362
(lp1363
tp1364
a(L772115669L
L0L
(lp1365
(lp1366
tp1367
a(L2787789065L
L0L
(lp1368
(lp1369
tp1370
a(L85798113L
L0L
(lp1371
(lp1372
tp1373
a(L1351513776L
L0L
(lp1374
(lp1375
tp1376
a(L159346313L
L3785322319L
(lp1377
(lp1378
Vshould_load
p1379
atp1380
a(L4218574503L
L0L
(lp1381
(lp1382
tp1383
a(L3338774213L
L0L
(lp1384
(lp1385
tp1386
a(L3464541874L
L0L
(lp1387
(lp1388
tp1389
a(L3349572949L
L0L
(lp1390
(lp1391
tp1392
a(L2192292519L
L0L
(lp1393
(lp1394
tp1395
a(L106L
L0L
(lp1396
(lp1397
tp1398
a(L26615924L
L0L
(lp1399
(lp1400
tp1401
a(L1299866312L
L0L
(lp1402
(lp1403
tp1404
a(L490060329L
L0L
(lp1405
(lp1406
tp1407
atp1408
sI1074247508
(Vesp_rom_spiflash_program_page_internal
p1409
(lp1410
(L2569069283L
L0L
(lp1411
(lp1412
tp1413
a(L2258688483L
L0L
(lp1414
(lp1415
tp1416
a(L3360570486L
L0L
(lp1417
(lp1418
tp1419
a(L792610006L
L0L
(lp1420
(lp1421
tp1422
a(L4235661475L
L3785322319L
(lp1423
(lp1424
Vesp_rom_spiflash_wait_idle
p1425
atp1426
a(L1299866312L
L0L
(lp1427
(lp1428
tp1429
a(L3212356251L
L3785322319L
(lp1430
(lp1431
Vesp_rom_spiflash_enable_write
p1432
atp1433
a(L3383370082L
L0L
(lp1434
(lp1435
tp1436
a(L2209840608L
L0L
(lp1437
(lp1438
tp1439
a(L2953702749L
L0L
(lp1440
(lp1441
tp1442
a(L2989032L
L0L
(lp1443
(lp1444
tp1445
a(L1965622133L
L0L
(lp1446
(lp1447
tp1448
a(L1351235542L
L0L
(lp1449
(lp1450
tp1451
a(L1958113242L
L0L
(lp1452
(lp1453
tp1454
a(L106L
L0L
(lp1455
(lp1456
tp1457
a(L3112950080L
L0L
(lp1458
(lp1459
tp1460
a(L1868606439L
L0L
(lp1461
(lp1462
tp1463
a(L1008983195L
L0L
(lp1464
(lp1465
tp1466
a(L1933954923L
L0L
(lp1467
(lp1468
tp1469
a(L1147866918L
L0L
(lp1470
(lp1471
tp1472
a(L3871602522L
L0L
(lp1473
(lp1474
tp1475
atp1476
sI1074243152
(Vesp_partition_table_verify
p1477
(lp1478
(L4221019429L
L0L
(lp1479
(lp1480
tp1481
a(L3688263406L
L0L
(lp1482
(lp1483
tp1484
a(L4090921686L
L0L
(lp1485
(lp1486
tp1487
a(L2910371777L
L0L
(lp1488
(lp1489
tp1490
a(L2810785767L
L0L
(lp1491
(lp1492
tp1493
a(L3360570486L
L0L
(lp1494
(lp1495
tp1496
a(L3190337587L
L0L
(lp1497
(lp1498
tp1499
a(L2069928857L
L0L
(lp1500
(lp1501
tp1502
a(L3020204L
L0L
(lp1503
(lp1504
tp1505
a(L4240560509L
L3785322319L
(lp1506
(lp1507
Vesp_log_early_timestamp
p1508
atp1509
a(L2526422477L
L3785322319L
(lp1510
(lp1511
Vesp_log_early_timestamp
p1512
atp1513
a(L510839312L
L0L
(lp1514
(lp1515
tp1516
a(L2902417580L
L0L
(lp1517
(lp1518
tp1519
a(L3020204L
L0L
(lp1520
(lp1521
tp1522
a(L2215002226L
L3785322319L
(lp1523
(lp1524
Vesp_log_early_timestamp
p1525
atp1526
a(L2867263840L
L0L
(lp1527
(lp1528
tp1529
a(L3655331517L
L0L
(lp1530
(lp1531
tp1532
a(L2902417580L
L0L
(lp1533
(lp1534
tp1535
a(L4240559796L
L3785322319L
(lp1536
(lp1537
Vesp_log_early_timestamp
p1538
atp1539
a(L1305407469L
L0L
(lp1540
(lp1541
tp1542
a(L1167861556L
L0L
(lp1543
(lp1544
tp1545
a(L3914073261L
L0L
(lp1546
(lp1547
tp1548
a(L2910371777L
L0L
(lp1549
(lp1550
tp1551
a(L1235012932L
L0L
(lp1552
(lp1553
tp1554
a(L4142303994L
L3785322319L
(lp1555
(lp1556
Vesp_log_early_timestamp
p1557
atp1558
atp1559
sI1074240336
(Vindex_to_partition
p1560
(lp1561
(L4066096119L
L0L
(lp1562
(lp1563
tp1564
a(L1739185955L
L0L
(lp1565
(lp1566
tp1567
a(L2171552758L
L0L
(lp1568
(lp1569
tp1570
a(L2808906342L
L0L
(lp1571
(lp1572
tp1573
a(L2101481936L
L0L
(lp1574
(lp1575
tp1576
a(L3698927993L
L0L
(lp1577
(lp1578
tp1579
a(L2808826781L
L0L
(lp1580
(lp1581
tp1582
a(L3003398163L
L0L
(lp1583
(lp1584
tp1585
a(L2880709161L
L0L
(lp1586
(lp1587
tp1588
a(L1087646172L
L0L
(lp1589
(lp1590
tp1591
atp1592
sI1074234704
(Vesp_flash_encryption_enabled
p1593
(lp1594
(L2932383536L
L0L
(lp1595
(lp1596
tp1597
a(L2910371777L
L0L
(lp1598
(lp1599
tp1600
a(L3360570486L
L0L
(lp1601
(lp1602
tp1603
a(L3016870L
L0L
(lp1604
(lp1605
tp1606
a(L3745038218L
L0L
(lp1607
(lp1608
tp1609
a(L957607403L
L0L
(lp1610
(lp1611
tp1612
atp1613
sI1074235224
(Vbootloader_execute_flash_command
p1614
(lp1615
(L2481595632L
L3785322319L
(lp1616
(lp1617
Vbootloader_flash_execute_command_common
p1618
atp1619
atp1620
sI1074245208
(Vrtc_clk_8m_enabled
p1621
(lp1622
(L2802140000L
L0L
(lp1623
(lp1624
tp1625
atp1626
sI1074244452
(Vwdt_hal_write_protect_enable
p1627
(lp1628
(L387778158L
L0L
(lp1629
(lp1630
tp1631
a(L4195472003L
L0L
(lp1632
(lp1633
tp1634
a(L3360570486L
L0L
(lp1635
(lp1636
tp1637
a(L802523425L
L0L
(lp1638
(lp1639
tp1640
atp1641
sI1074270828
(Vrtc_vddsdio_set_config
p1642
(lp1643
(L924138034L
L0L
(lp1644
(lp1645
tp1646
atp1647
sI1074240096
(Vbootloader_utility_load_boot_image
p1648
(lp1649
(L1375294773L
L0L
(lp1650
(lp1651
tp1652
a(L2177418995L
L3785322319L
(lp1653
(lp1654
Vtry_load_partition
p1655
atp1656
a(L1305243774L
L3785322319L
(lp1657
(lp1658
Vload_image
p1659
atp1660
a(L1481893282L
L3785322319L
(lp1661
(lp1662
Vesp_log_early_timestamp
p1663
atp1664
a(L3827921190L
L3785322319L
(lp1665
(lp1666
Vbootloader_reset
p1667
atp1668
a(L1953693036L
L3785322319L
(lp1669
(lp1670
Vindex_to_partition
p1671
atp1672
a(L1204373741L
L3785322319L
(lp1673
(lp1674
Vtry_load_partition
p1675
atp1676
a(L1899865696L
L0L
(lp1677
(lp1678
tp1679
a(L2695355117L
L3785322319L
(lp1680
(lp1681
Vset_actual_ota_seq
p1682
atp1683
a(L1868897605L
L3785322319L
(lp1684
(lp1685
Vlog_invalid_app_partition
p1686
atp1687
a(L831650730L
L0L
(lp1688
(lp1689
tp1690
a(L3021737L
L0L
(lp1691
(lp1692
tp1693
a(L695456438L
L0L
(lp1694
(lp1695
tp1696
a(L1129532116L
L3785322319L
(lp1697
(lp1698
Vtry_load_partition
p1699
atp1700
a(L4022121633L
L3785322319L
(lp1701
(lp1702
Vesp_log_early_timestamp
p1703
atp1704
a(L2347390157L
L3785322319L
(lp1705
(lp1706
Vindex_to_partition
p1707
atp1708
a(L1204373741L
L3785322319L
(lp1709
(lp1710
Vtry_load_partition
p1711
atp1712
a(L3061261803L
L0L
(lp1713
(lp1714
tp1715
a(L3582858798L
L3785322319L
(lp1716
(lp1717
Vlog_invalid_app_partition
p1718
atp1719
a(L1285752117L
L3785322319L
(lp1720
(lp1721
Vesp_log_early_timestamp
p1722
atp1723
atp1724
sI1074244960
(Vrtc_clk_bbpll_disable
p1725
(lp1726
(L2525111280L
L0L
(lp1727
(lp1728
tp1729
a(L2472207241L
L0L
(lp1730
(lp1731
tp1732
a(L3360570486L
L0L
(lp1733
(lp1734
tp1735
atp1736
sI1074270048
(Vrtc_clk_xtal_freq_estimate
p1737
(lp1738
(L3845076426L
L1880226080L
(lp1739
(lp1740
Vrtc_clk_8m_enabled
p1741
aVrtc_clk_8md256_enabled
p1742
atp1743
a(L2449794434L
L3785322319L
(lp1744
(lp1745
Vrtc_clk_8m_enable
p1746
atp1747
a(L2541226969L
L3785322319L
(lp1748
(lp1749
Vrtc_clk_cal_ratio
p1750
atp1751
a(L1894802584L
L0L
(lp1752
(lp1753
tp1754
a(L1915120046L
L0L
(lp1755
(lp1756
tp1757
a(L2740879690L
L0L
(lp1758
(lp1759
tp1760
a(L1059750288L
L3785322319L
(lp1761
(lp1762
Vrtc_clk_8m_enable
p1763
atp1764
a(L636060329L
L3785322319L
(lp1765
(lp1766
Vesp_log_early_timestamp
p1767
atp1768
a(L2894376164L
L0L
(lp1769
(lp1770
tp1771
a(L1641150486L
L0L
(lp1772
(lp1773
tp1774
a(L3097803779L
L3785322319L
(lp1775
(lp1776
Vesp_log_early_timestamp
p1777
atp1778
a(L3100578259L
L3785322319L
(lp1779
(lp1780
Vesp_log_early_timestamp
p1781
atp1782
atp1783
sI1074238828
(Vcache_ll_l1_enable_bus
p1784
(lp1785
(L1408514293L
L0L
(lp1786
(lp1787
tp1788
atp1789
sI1074237288
(Vbootloader_common_select_otadata
p1790
(lp1791
(L4071767857L
L0L
(lp1792
(lp1793
tp1794
a(L1999329187L
L0L
(lp1795
(lp1796
tp1797
a(L3846398843L
L0L
(lp1798
(lp1799
tp1800
a(L2501968171L
L0L
(lp1801
(lp1802
tp1803
a(L3360570486L
L0L
(lp1804
(lp1805
tp1806
a(L2045232488L
L0L
(lp1807
(lp1808
tp1809
a(L1243525916L
L0L
(lp1810
(lp1811
tp1812
a(L3094144427L
L0L
(lp1813
(lp1814
tp1815
a(L2399509845L
L0L
(lp1816
(lp1817
tp1818
a(L1641201884L
L0L
(lp1819
(lp1820
tp1821
atp1822
sI1074240872
(Vbootloader_ana_clock_glitch_reset_config
p1823
(lp1824
(L2100504542L
L0L
(lp1825
(lp1826
tp1827
atp1828
sI1074245480
(Vrtc_clk_fast_src_get
p1829
(lp1830
(L380770082L
L0L
(lp1831
(lp1832
tp1833
atp1834
sI1074236532
(Vbootloader_common_get_chip_ver_pkg
p1835
(lp1836
(L2886103845L
L0L
(lp1837
(lp1838
tp1839
atp1840
sI1074245232
(Vrtc_clk_8md256_enabled
p1841
(lp1842
(L1957668129L
L0L
(lp1843
(lp1844
tp1845
atp1846
sI1074243440
(Vwdt_hal_init
p1847
(lp1848
(L509746487L
L0L
(lp1849
(lp1850
tp1851
a(L745008699L
L0L
(lp1852
(lp1853
tp1854
a(L2805934244L
L0L
(lp1855
(lp1856
tp1857
a(L3115097993L
L0L
(lp1858
(lp1859
tp1860
a(L1129008730L
L0L
(lp1861
(lp1862
tp1863
a(L3360570486L
L0L
(lp1864
(lp1865
tp1866
a(L3022237171L
L0L
(lp1867
(lp1868
tp1869
atp1870
sI1074240880
(Vprocess_checksum
p1871
(lp1872
(L226873693L
L0L
(lp1873
(lp1874
tp1875
a(L2910371777L
L0L
(lp1876
(lp1877
tp1878
a(L186886970L
L0L
(lp1879
(lp1880
tp1881
a(L2910371777L
L0L
(lp1882
(lp1883
tp1884
a(L3020204L
L0L
(lp1885
(lp1886
tp1887
a(L2480703612L
L3785322319L
(lp1888
(lp1889
Vbootloader_sha256_data
p1890
atp1891
a(L4179073442L
L0L
(lp1892
(lp1893
tp1894
a(L1811888222L
L3785322319L
(lp1895
(lp1896
Vbootloader_flash_read
p1897
atp1898
a(L3126521138L
L0L
(lp1899
(lp1900
tp1901
a(L4120157373L
L0L
(lp1902
(lp1903
tp1904
a(L3278991908L
L3785322319L
(lp1905
(lp1906
Vesp_log_early_timestamp
p1907
atp1908
atp1909
sI1074241916
(Vprocess_segments
p1910
(lp1911
(L1018786970L
L0L
(lp1912
(lp1913
tp1914
a(L3285816417L
L0L
(lp1915
(lp1916
tp1917
a(L3782401745L
L0L
(lp1918
(lp1919
tp1920
a(L106L
L0L
(lp1921
(lp1922
tp1923
a(L2411199274L
L0L
(lp1924
(lp1925
tp1926
a(L669991150L
L3785322319L
(lp1927
(lp1928
Vesp_log_early_timestamp
p1929
atp1930
a(L3085209925L
L3785322319L
(lp1931
(lp1932
Vbootloader_flash_read
p1933
atp1934
a(L125419343L
L3785322319L
(lp1935
(lp1936
Vesp_log_early_timestamp
p1937
atp1938
a(L3871473710L
L0L
(lp1939
(lp1940
tp1941
a(L234193771L
L0L
(lp1942
(lp1943
tp1944
a(L1635713494L
L3785322319L
(lp1945
(lp1946
Vbootloader_sha256_data
p1947
atp1948
a(L165187679L
L0L
(lp1949
(lp1950
tp1951
a(L334484485L
L0L
(lp1952
(lp1953
tp1954
a(L451332327L
L0L
(lp1955
(lp1956
tp1957
a(L3802067325L
L0L
(lp1958
(lp1959
tp1960
a(L3592389343L
L0L
(lp1961
(lp1962
tp1963
a(L2258867228L
L0L
(lp1964
(lp1965
tp1966
a(L1255782415L
L0L
(lp1967
(lp1968
tp1969
a(L1756760227L
L0L
(lp1970
(lp1971
tp1972
a(L1849436849L
L0L
(lp1973
(lp1974
tp1975
a(L1947739089L
L3785322319L
(lp1976
(lp1977
Vesp_log_early_timestamp
p1978
atp1979
a(L3601900694L
L0L
(lp1980
(lp1981
tp1982
a(L568253874L
L0L
(lp1983
(lp1984
tp1985
a(L3182428709L
L3785322319L
(lp1986
(lp1987
Vesp_log_early_timestamp
p1988
atp1989
a(L1973629750L
L3785322319L
(lp1990
(lp1991
Vverify_load_addresses
p1992
atp1993
a(L106L
L0L
(lp1994
(lp1995
tp1996
a(L914132342L
L0L
(lp1997
(lp1998
tp1999
a(L291460350L
L0L
(lp2000
(lp2001
tp2002
a(L4151532718L
L3785322319L
(lp2003
(lp2004
Vbootloader_mmap
p2005
atp2006
a(L3589484614L
L3785322319L
(lp2007
(lp2008
Vesp_log_early_timestamp
p2009
atp2010
a(L2994776696L
L0L
(lp2011
(lp2012
tp2013
a(L2942377727L
L0L
(lp2014
(lp2015
tp2016
a(L1652679798L
L3785322319L
(lp2017
(lp2018
Vbootloader_munmap
p2019
atp2020
a(L2993622008L
L0L
(lp2021
(lp2022
tp2023
a(L1216016797L
L3785322319L
(lp2024
(lp2025
Vbootloader_fill_random
p2026
atp2027
a(L3570641403L
L0L
(lp2028
(lp2029
tp2030
a(L3574335487L
L0L
(lp2031
(lp2032
tp2033
a(L3450268858L
L0L
(lp2034
(lp2035
tp2036
a(L3021749L
L0L
(lp2037
(lp2038
tp2039
a(L1609678444L
L0L
(lp2040
(lp2041
tp2042
a(L1777728568L
L0L
(lp2043
(lp2044
tp2045
a(L3020204L
L0L
(lp2046
(lp2047
tp2048
a(L1312354573L
L0L
(lp2049
(lp2050
tp2051
a(L2076461546L
L0L
(lp2052
(lp2053
tp2054
a(L3844184503L
L0L
(lp2055
(lp2056
tp2057
a(L1749969336L
L0L
(lp2058
(lp2059
tp2060
a(L670934548L
L0L
(lp2061
(lp2062
tp2063
a(L781506066L
L3785322319L
(lp2064
(lp2065
Vbootloader_sha256_data
p2066
atp2067
a(L90548756L
L0L
(lp2068
(lp2069
tp2070
a(L4195963580L
L0L
(lp2071
(lp2072
tp2073
a(L2422333549L
L0L
(lp2074
(lp2075
tp2076
a(L3132743422L
L0L
(lp2077
(lp2078
tp2079
a(L249537906L
L3785322319L
(lp2080
(lp2081
Vshould_load
p2082
atp2083
a(L2378267508L
L0L
(lp2084
(lp2085
tp2086
a(L3098292588L
L3785322319L
(lp2087
(lp2088
Vesp_log_early_timestamp
p2089
atp2090
a(L1263395604L
L0L
(lp2091
(lp2092
tp2093
a(L307916924L
L0L
(lp2094
(lp2095
tp2096
a(L3421814691L
L0L
(lp2097
(lp2098
tp2099
a(L81630008L
L0L
(lp2100
(lp2101
tp2102
a(L2742376716L
L0L
(lp2103
(lp2104
tp2105
a(L3786494677L
L3785322319L
(lp2106
(lp2107
Vbootloader_mmap_get_free_pages
p2108
atp2109
a(L2685118414L
L0L
(lp2110
(lp2111
tp2112
a(L2091285670L
L0L
(lp2113
(lp2114
tp2115
atp2116
sI1074235256
(Vbootloader_flash_unlock
p2117
(lp2118
(L2142380611L
L3785322319L
(lp2119
(lp2120
Vesp_rom_spiflash_wait_idle
p2121
atp2122
a(L4212373562L
L0L
(lp2123
(lp2124
tp2125
a(L4292483033L
L3785322319L
(lp2126
(lp2127
Vbootloader_execute_flash_command
p2128
atp2129
a(L106L
L0L
(lp2130
(lp2131
tp2132
a(L1303560644L
L0L
(lp2133
(lp2134
tp2135
a(L610618440L
L0L
(lp2136
(lp2137
tp2138
a(L106L
L0L
(lp2139
(lp2140
tp2141
a(L345249462L
L0L
(lp2142
(lp2143
tp2144
a(L106L
L0L
(lp2145
(lp2146
tp2147
a(L1024465569L
L0L
(lp2148
(lp2149
tp2150
a(L106L
L0L
(lp2151
(lp2152
tp2153
a(L1481761147L
L1880226080L
(lp2154
(lp2155
Vbootloader_execute_flash_command
p2156
aVbootloader_execute_flash_command
p2157
atp2158
a(L2258807654L
L0L
(lp2159
(lp2160
tp2161
a(L489806350L
L1832448559L
(lp2162
(lp2163
Vesp_rom_spiflash_wait_idle
p2164
aVbootloader_execute_flash_command
p2165
aVbootloader_execute_flash_command
p2166
atp2167
a(L879744646L
L1832448559L
(lp2168
(lp2169
Vesp_rom_spiflash_wait_idle
p2170
aVbootloader_execute_flash_command
p2171
aVbootloader_execute_flash_command
p2172
atp2173
a(L1840772931L
L1880226080L
(lp2174
(lp2175
Vesp_rom_spiflash_wait_idle
p2176
aVbootloader_execute_flash_command
p2177
atp2178
a(L2993202392L
L0L
(lp2179
(lp2180
tp2181
a(L508800419L
L1880226080L
(lp2182
(lp2183
Vbootloader_execute_flash_command
p2184
aVbootloader_execute_flash_command
p2185
atp2186
a(L1303560369L
L0L
(lp2187
(lp2188
tp2189
a(L1596544945L
L0L
(lp2190
(lp2191
tp2192
a(L97689L
L0L
(lp2193
(lp2194
tp2195
a(L106L
L0L
(lp2196
(lp2197
tp2198
atp2199
sI1074234744
(Vbootloader_flash_execute_command_common
p2200
(lp2201
(L3865052895L
L0L
(lp2202
(lp2203
tp2204
a(L3287175998L
L0L
(lp2205
(lp2206
tp2207
a(L4121451103L
L3785322319L
(lp2208
(lp2209
V__assert_func
p2210
atp2211
a(L3021749L
L0L
(lp2212
(lp2213
tp2214
a(L3999871974L
L0L
(lp2215
(lp2216
tp2217
a(L543316797L
L0L
(lp2218
(lp2219
tp2220
a(L2091933878L
L0L
(lp2221
(lp2222
tp2223
a(L1702379862L
L0L
(lp2224
(lp2225
tp2226
a(L3432464320L
L0L
(lp2227
(lp2228
tp2229
a(L3539375712L
L0L
(lp2230
(lp2231
tp2232
a(L3244449450L
L0L
(lp2233
(lp2234
tp2235
a(L4233404408L
L0L
(lp2236
(lp2237
tp2238
a(L2990329343L
L0L
(lp2239
(lp2240
tp2241
a(L2051090536L
L0L
(lp2242
(lp2243
tp2244
a(L3333696662L
L0L
(lp2245
(lp2246
tp2247
a(L963425213L
L0L
(lp2248
(lp2249
tp2250
a(L339491738L
L0L
(lp2251
(lp2252
tp2253
a(L3360570486L
L0L
(lp2254
(lp2255
tp2256
atp2257
sI1074245496
(Vrtc_clk_xtal_freq_get
p2258
(lp2259
(L436198866L
L0L
(lp2260
(lp2261
tp2262
a(L2847936993L
L0L
(lp2263
(lp2264
tp2265
a(L4141094988L
L0L
(lp2266
(lp2267
tp2268
a(L3360570486L
L0L
(lp2269
(lp2270
tp2271
atp2272
sI1074238084
(Vbootloader_enable_wp
p2273
(lp2274
(L1117825804L
L3785322319L
(lp2275
(lp2276
Vbootloader_execute_flash_command
p2277
atp2278
atp2279
sI1074244480
(Vwdt_hal_enable
p2280
(lp2281
(L2299130915L
L0L
(lp2282
(lp2283
tp2284
a(L165794138L
L0L
(lp2285
(lp2286
tp2287
a(L3360570486L
L0L
(lp2288
(lp2289
tp2290
a(L2847657174L
L0L
(lp2291
(lp2292
tp2293
atp2294
sI1074236800
(Vefuse_hal_get_minor_chip_version
p2295
(lp2296
(L1213965243L
L0L
(lp2297
(lp2298
tp2299
atp2300
sI1074238604
(Vcache_ll_l1_get_bus
p2301
(lp2302
(L3820023252L
L0L
(lp2303
(lp2304
tp2305
a(L94425498L
L3785322319L
(lp2306
(lp2307
Vabort
p2308
atp2309
a(L3179088012L
L0L
(lp2310
(lp2311
tp2312
a(L1844424101L
L0L
(lp2313
(lp2314
tp2315
a(L892952750L
L0L
(lp2316
(lp2317
tp2318
a(L1182811810L
L0L
(lp2319
(lp2320
tp2321
a(L1101742417L
L0L
(lp2322
(lp2323
tp2324
a(L1100767927L
L0L
(lp2325
(lp2326
tp2327
a(L3360570486L
L0L
(lp2328
(lp2329
tp2330
a(L2767111967L
L0L
(lp2331
(lp2332
tp2333
a(L892952750L
L0L
(lp2334
(lp2335
tp2336
a(L2258688482L
L0L
(lp2337
(lp2338
tp2339
a(L1353797152L
L0L
(lp2340
(lp2341
tp2342
a(L2258718273L
L0L
(lp2343
(lp2344
tp2345
a(L2938197270L
L0L
(lp2346
(lp2347
tp2348
a(L2748641547L
L0L
(lp2349
(lp2350
tp2351
a(L2752340901L
L0L
(lp2352
(lp2353
tp2354
a(L1641149277L
L0L
(lp2355
(lp2356
tp2357
a(L3211405977L
L0L
(lp2358
(lp2359
tp2360
a(L3027019L
L0L
(lp2361
(lp2362
tp2363
a(L1299866560L
L0L
(lp2364
(lp2365
tp2366
a(L1299866436L
L0L
(lp2367
(lp2368
tp2369
atp2370
sI1074245256
(Vrtc_clk_slow_src_set
p2371
(lp2372
(L1719649901L
L0L
(lp2373
(lp2374
tp2375
a(L3020187L
L0L
(lp2376
(lp2377
tp2378
a(L3028481L
L0L
(lp2379
(lp2380
tp2381
a(L487821223L
L0L
(lp2382
(lp2383
tp2384
a(L185049753L
L0L
(lp2385
(lp2386
tp2387
a(L1851908495L
L0L
(lp2388
(lp2389
tp2390
a(L382170874L
L0L
(lp2391
(lp2392
tp2393
a(L3138544334L
L0L
(lp2394
(lp2395
tp2396
a(L94425498L
L3785322319L
(lp2397
(lp2398
Vabort
p2399
atp2400
atp2401
sI1074245768
(Vrtc_clk_xtal_freq_update
p2402
(lp2403
(L1422638466L
L0L
(lp2404
(lp2405
tp2406
a(L3509357017L
L0L
(lp2407
(lp2408
tp2409
a(L2266180931L
L0L
(lp2410
(lp2411
tp2412
atp2413
sI1074248840
(V_fini
p2414
(lp2415
(L3493042598L
L0L
(lp2416
(lp2417
tp2418
atp2419
sI1074268824
(Vbootloader_common_vddsdio_configure
p2420
(lp2421
(L1829974089L
L3785322319L
(lp2422
(lp2423
Vrtc_vddsdio_get_config
p2424
atp2425
a(L1489249795L
L3785322319L
(lp2426
(lp2427
Vrtc_vddsdio_set_config
p2428
atp2429
a(L3360570486L
L0L
(lp2430
(lp2431
tp2432
atp2433
sI1074240404
(Vbootloader_debug_buffer
p2434
(lp2435
(L2100504542L
L0L
(lp2436
(lp2437
tp2438
atp2439
sI1074236564
(Vesp_rom_uart_tx_wait_idle
p2440
(lp2441
(L3957152286L
L0L
(lp2442
(lp2443
tp2444
a(L1301079727L
L0L
(lp2445
(lp2446
tp2447
a(L3597746521L
L0L
(lp2448
(lp2449
tp2450
a(L3694491048L
L0L
(lp2451
(lp2452
tp2453
a(L3055926844L
L0L
(lp2454
(lp2455
tp2456
a(L3360570486L
L0L
(lp2457
(lp2458
tp2459
atp2460
sI1074236816
(Vesp_dport_access_reg_read
p2461
(lp2462
(L1099794772L
L0L
(lp2463
(lp2464
tp2465
atp2466
sI1074247312
(Vesp_rom_spiflash_read_status
p2467
(lp2468
(L2938520357L
L0L
(lp2469
(lp2470
tp2471
a(L1182811815L
L0L
(lp2472
(lp2473
tp2474
a(L1827921062L
L0L
(lp2475
(lp2476
tp2477
a(L106L
L0L
(lp2478
(lp2479
tp2480
a(L619542702L
L0L
(lp2481
(lp2482
tp2483
a(L3274807848L
L0L
(lp2484
(lp2485
tp2486
a(L2123059967L
L0L
(lp2487
(lp2488
tp2489
a(L3146966332L
L0L
(lp2490
(lp2491
tp2492
a(L2392720019L
L0L
(lp2493
(lp2494
tp2495
atp2496
sI1074245020
(Vrtc_clk_32k_enable
p2497
(lp2498
(L753387299L
L0L
(lp2499
(lp2500
tp2501
a(L3776007933L
L3785322319L
(lp2502
(lp2503
Vrtc_clk_32k_enable_common
p2504
atp2505
a(L3496950L
L0L
(lp2506
(lp2507
tp2508
a(L2501812159L
L0L
(lp2509
(lp2510
tp2511
atp2512
sI1074240412
(Vbootloader_sha256_start
p2513
(lp2514
(L260677377L
L0L
(lp2515
(lp2516
tp2517
atp2518
sI1074239388
(Vbootloader_utility_load_partition_table
p2519
(lp2520
(L973068460L
L3785322319L
(lp2521
(lp2522
Vbootloader_mmap
p2523
atp2524
a(L1894723508L
L3785322319L
(lp2525
(lp2526
Vesp_log_early_timestamp
p2527
atp2528
a(L2258688482L
L0L
(lp2529
(lp2530
tp2531
a(L3360570486L
L0L
(lp2532
(lp2533
tp2534
a(L3881596654L
L3785322319L
(lp2535
(lp2536
Vesp_partition_table_verify
p2537
atp2538
a(L418712718L
L3785322319L
(lp2539
(lp2540
Vesp_log_early_timestamp
p2541
atp2542
a(L3331315958L
L1880226080L
(lp2543
(lp2544
Vesp_log_early_timestamp
p2545
aVesp_log_early_timestamp
p2546
atp2547
a(L650140130L
L0L
(lp2548
(lp2549
tp2550
a(L3929231144L
L1880226080L
(lp2551
(lp2552
Vbootloader_munmap
p2553
aVesp_log_early_timestamp
p2554
atp2555
a(L521126897L
L0L
(lp2556
(lp2557
tp2558
a(L3028464L
L0L
(lp2559
(lp2560
tp2561
a(L106L
L0L
(lp2562
(lp2563
tp2564
a(L1403802546L
L0L
(lp2565
(lp2566
tp2567
a(L352196314L
L3785322319L
(lp2568
(lp2569
Vesp_log_early_timestamp
p2570
atp2571
a(L3990577774L
L0L
(lp2572
(lp2573
tp2574
a(L3020187L
L0L
(lp2575
(lp2576
tp2577
a(L2318212397L
L0L
(lp2578
(lp2579
tp2580
a(L4208504540L
L0L
(lp2581
(lp2582
tp2583
a(L1859217843L
L0L
(lp2584
(lp2585
tp2586
a(L2546691246L
L0L
(lp2587
(lp2588
tp2589
a(L3797730446L
L0L
(lp2590
(lp2591
tp2592
a(L106L
L0L
(lp2593
(lp2594
tp2595
a(L93674324L
L0L
(lp2596
(lp2597
tp2598
a(L1583301205L
L0L
(lp2599
(lp2600
tp2601
a(L1938133383L
L0L
(lp2602
(lp2603
tp2604
a(L1630400759L
L0L
(lp2605
(lp2606
tp2607
a(L106L
L0L
(lp2608
(lp2609
tp2610
a(L928516522L
L0L
(lp2611
(lp2612
tp2613
a(L106L
L0L
(lp2614
(lp2615
tp2616
a(L568204863L
L0L
(lp2617
(lp2618
tp2619
atp2620
sI1074235548
(Vbootloader_flash_read_sfdp
p2621
(lp2622
(L711701400L
L0L
(lp2623
(lp2624
tp2625
a(L3334003234L
L3785322319L
(lp2626
(lp2627
V__assert_func
p2628
atp2629
a(L3704332455L
L3785322319L
(lp2630
(lp2631
Vbootloader_flash_execute_command_common
p2632
atp2633
atp2634
sI1074235804
(Vbootloader_flash_cs_timing_config
p2635
(lp2636
(L1940014330L
L0L
(lp2637
(lp2638
tp2639
atp2640
sI1074236828
(Vis_xmc_chip_strict
p2641
(lp2642
(L1286841609L
L0L
(lp2643
(lp2644
tp2645
a(L2234016759L
L0L
(lp2646
(lp2647
tp2648
a(L1069027148L
L0L
(lp2649
(lp2650
tp2651
a(L3021749L
L0L
(lp2652
(lp2653
tp2654
a(L1900148749L
L0L
(lp2655
(lp2656
tp2657
a(L1936875721L
L0L
(lp2658
(lp2659
tp2660
a(L3356166509L
L0L
(lp2661
(lp2662
tp2663
a(L1937769451L
L0L
(lp2664
(lp2665
tp2666
a(L2137658907L
L0L
(lp2667
(lp2668
tp2669
a(L4265949734L
L0L
(lp2670
(lp2671
tp2672
a(L3360570486L
L0L
(lp2673
(lp2674
tp2675
atp2676
sI1074247836
(Vesp_rom_spiflash_write
p2677
(lp2678
(L1176662179L
L0L
(lp2679
(lp2680
tp2681
a(L2258688483L
L0L
(lp2682
(lp2683
tp2684
a(L3360570486L
L0L
(lp2685
(lp2686
tp2687
a(L3368132847L
L0L
(lp2688
(lp2689
tp2690
a(L3106685981L
L0L
(lp2691
(lp2692
tp2693
a(L3488660639L
L3785322319L
(lp2694
(lp2695
Vesp_rom_spiflash_program_page_internal
p2696
atp2697
a(L3543402353L
L3785322319L
(lp2698
(lp2699
Vesp_rom_spiflash_program_page_internal
p2700
atp2701
a(L4222526342L
L0L
(lp2702
(lp2703
tp2704
a(L2004208511L
L0L
(lp2705
(lp2706
tp2707
a(L564470656L
L0L
(lp2708
(lp2709
tp2710
a(L2988842384L
L3785322319L
(lp2711
(lp2712
Vesp_rom_spiflash_program_page_internal
p2713
atp2714
a(L2302069176L
L0L
(lp2715
(lp2716
tp2717
atp2718
sI1074268052
(Vbootloader_init
p2719
(lp2720
(L270395025L
L3785322319L
(lp2721
(lp2722
Vbootloader_init_mem
p2723
atp2724
a(L1265242158L
L0L
(lp2725
(lp2726
tp2727
a(L1494621136L
L3785322319L
(lp2728
(lp2729
V__assert_func
p2730
atp2731
a(L4126189388L
L0L
(lp2732
(lp2733
tp2734
a(L4255864574L
L0L
(lp2735
(lp2736
tp2737
a(L3813782018L
L0L
(lp2738
(lp2739
tp2740
a(L1364096344L
L0L
(lp2741
(lp2742
tp2743
a(L3027019L
L0L
(lp2744
(lp2745
tp2746
a(L3563591778L
L0L
(lp2747
(lp2748
tp2749
a(L883461841L
L1832448559L
(lp2750
(lp2751
Vbootloader_clear_bss_section
p2752
aVbootloader_common_vddsdio_configure
p2753
aVbootloader_clock_get_rated_freq_mhz
p2754
atp2755
a(L1592161825L
L1157885199L
(lp2756
(lp2757
Vbootloader_clock_configure
p2758
aVbootloader_console_init
p2759
aVbootloader_print_banner
p2760
aVbootloader_flash_update_id
p2761
aVbootloader_flash_xmc_startup
p2762
atp2763
a(L1920341648L
L3785322319L
(lp2764
(lp2765
Vesp_log_early_timestamp
p2766
atp2767
a(L4223921168L
L3785322319L
(lp2768
(lp2769
Vesp_log_early_timestamp
p2770
atp2771
a(L3360570486L
L0L
(lp2772
(lp2773
tp2774
a(L2444883382L
L3785322319L
(lp2775
(lp2776
Vbootloader_read_bootloader_header
p2777
atp2778
a(L2444883382L
L3785322319L
(lp2779
(lp2780
Vbootloader_check_bootloader_validity
p2781
atp2782
a(L1449254892L
L2485746240L
(lp2783
(lp2784
Vbootloader_flash_gpio_config
p2785
aVbootloader_flash_dummy_config
p2786
aVbootloader_flash_cs_timing_config
p2787
aVbootloader_flash_unlock
p2788
atp2789
a(L51029731L
L0L
(lp2790
(lp2791
tp2792
a(L471947987L
L0L
(lp2793
(lp2794
tp2795
a(L1404489890L
L0L
(lp2796
(lp2797
tp2798
a(L3674001403L
L3785322319L
(lp2799
(lp2800
Vesp_log_early_timestamp
p2801
atp2802
a(L92454083L
L0L
(lp2803
(lp2804
tp2805
a(L96148167L
L0L
(lp2806
(lp2807
tp2808
a(L99842251L
L0L
(lp2809
(lp2810
tp2811
a(L139553654L
L0L
(lp2812
(lp2813
tp2814
a(L1404491141L
L0L
(lp2815
(lp2816
tp2817
a(L1852744844L
L3785322319L
(lp2818
(lp2819
Vesp_log_early_timestamp
p2820
atp2821
a(L93837694L
L0L
(lp2822
(lp2823
tp2824
a(L106L
L0L
(lp2825
(lp2826
tp2827
a(L258083190L
L0L
(lp2828
(lp2829
tp2830
a(L2752571198L
L0L
(lp2831
(lp2832
tp2833
a(L3902507129L
L0L
(lp2834
(lp2835
tp2836
a(L1701707570L
L3785322319L
(lp2837
(lp2838
Vesp_log_early_timestamp
p2839
atp2840
a(L93837694L
L0L
(lp2841
(lp2842
tp2843
a(L106L
L0L
(lp2844
(lp2845
tp2846
a(L3029526157L
L0L
(lp2847
(lp2848
tp2849
a(L2772639124L
L0L
(lp2850
(lp2851
tp2852
a(L2807278488L
L0L
(lp2853
(lp2854
tp2855
a(L3379747486L
L3785322319L
(lp2856
(lp2857
Vbootloader_enable_wp
p2858
atp2859
a(L1266399027L
L0L
(lp2860
(lp2861
tp2862
a(L1895147922L
L0L
(lp2863
(lp2864
tp2865
a(L2166009126L
L3785322319L
(lp2866
(lp2867
Vesp_log_early_timestamp
p2868
atp2869
a(L3639065141L
L0L
(lp2870
(lp2871
tp2872
a(L3616326365L
L0L
(lp2873
(lp2874
tp2875
a(L1129025932L
L0L
(lp2876
(lp2877
tp2878
a(L1569238687L
L3785322319L
(lp2879
(lp2880
Vesp_log_early_timestamp
p2881
atp2882
a(L4263191691L
L1880226080L
(lp2883
(lp2884
Vwdt_reset_info_dump
p2885
aVwdt_reset_info_dump
p2886
atp2887
a(L2752562921L
L0L
(lp2888
(lp2889
tp2890
a(L106L
L0L
(lp2891
(lp2892
tp2893
a(L718636321L
L0L
(lp2894
(lp2895
tp2896
a(L1767021965L
L0L
(lp2897
(lp2898
tp2899
a(L3028481L
L0L
(lp2900
(lp2901
tp2902
a(L3981500492L
L1880226080L
(lp2903
(lp2904
Vbootloader_config_wdt
p2905
aVbootloader_enable_random
p2906
atp2907
atp2908
sI1074238104
(Vbootloader_mmap_get_free_pages
p2909
(lp2910
(L1496516875L
L0L
(lp2911
(lp2912
tp2913
atp2914
sI1074248088
(Vesp_rom_spiflash_read
p2915
(lp2916
(L2864722771L
L0L
(lp2917
(lp2918
tp2919
a(L3013250324L
L0L
(lp2920
(lp2921
tp2922
a(L340311750L
L0L
(lp2923
(lp2924
tp2925
a(L2355528925L
L0L
(lp2926
(lp2927
tp2928
a(L106L
L0L
(lp2929
(lp2930
tp2931
a(L633884026L
L0L
(lp2932
(lp2933
tp2934
a(L106L
L0L
(lp2935
(lp2936
tp2937
a(L12774736L
L0L
(lp2938
(lp2939
tp2940
a(L3571878573L
L0L
(lp2941
(lp2942
tp2943
a(L2884772704L
L0L
(lp2944
(lp2945
tp2946
a(L336550648L
L0L
(lp2947
(lp2948
tp2949
a(L493932352L
L0L
(lp2950
(lp2951
tp2952
a(L106L
L0L
(lp2953
(lp2954
tp2955
a(L2549202597L
L3785322319L
(lp2956
(lp2957
Vesp_rom_spiflash_wait_idle
p2958
atp2959
a(L3021737L
L0L
(lp2960
(lp2961
tp2962
a(L106L
L0L
(lp2963
(lp2964
tp2965
a(L1868280504L
L0L
(lp2966
(lp2967
tp2968
a(L106L
L0L
(lp2969
(lp2970
tp2971
a(L4024100605L
L0L
(lp2972
(lp2973
tp2974
a(L1221163038L
L0L
(lp2975
(lp2976
tp2977
a(L4122060822L
L0L
(lp2978
(lp2979
tp2980
a(L1406217664L
L0L
(lp2981
(lp2982
tp2983
a(L2989032L
L0L
(lp2984
(lp2985
tp2986
a(L3819849625L
L0L
(lp2987
(lp2988
tp2989
a(L726363469L
L0L
(lp2990
(lp2991
tp2992
a(L932902197L
L0L
(lp2993
(lp2994
tp2995
a(L3901821451L
L0L
(lp2996
(lp2997
tp2998
a(L3187605261L
L0L
(lp2999
(lp3000
tp3001
a(L2921907736L
L0L
(lp3002
(lp3003
tp3004
a(L4023125337L
L0L
(lp3005
(lp3006
tp3007
a(L384659096L
L0L
(lp3008
(lp3009
tp3010
a(L708728610L
L0L
(lp3011
(lp3012
tp3013
a(L1400585318L
L0L
(lp3014
(lp3015
tp3016
a(L781550816L
L0L
(lp3017
(lp3018
tp3019
a(L2687789892L
L0L
(lp3020
(lp3021
tp3022
a(L1405253496L
L0L
(lp3023
(lp3024
tp3025
a(L1756022091L
L0L
(lp3026
(lp3027
tp3028
a(L97689L
L0L
(lp3029
(lp3030
tp3031
a(L1183020347L
L0L
(lp3032
(lp3033
tp3034
a(L4014024819L
L0L
(lp3035
(lp3036
tp3037
a(L3621567083L
L0L
(lp3038
(lp3039
tp3040
atp3041
sI1074269608
(Vbootloader_flash_update_id
p3042
(lp3043
(L3149875550L
L3785322319L
(lp3044
(lp3045
Vbootloader_read_flash_id
p3046
atp3047
atp3048
sI1074241696
(Vprocess_appended_hash_and_sig
p3049
(lp3050
(L1668084157L
L0L
(lp3051
(lp3052
tp3053
a(L2910371777L
L0L
(lp3054
(lp3055
tp3056
a(L1591589631L
L0L
(lp3057
(lp3058
tp3059
a(L2551256078L
L0L
(lp3060
(lp3061
tp3062
a(L2688085881L
L0L
(lp3063
(lp3064
tp3065
a(L3399920573L
L3785322319L
(lp3066
(lp3067
Vesp_log_early_timestamp
p3068
atp3069
a(L2268304300L
L3785322319L
(lp3070
(lp3071
Vbootloader_flash_read
p3072
atp3073
a(L3871473710L
L0L
(lp3074
(lp3075
tp3076
atp3077
sI1074238112
(Vbootloader_fill_random
p3078
(lp3079
(L1233865241L
L0L
(lp3080
(lp3081
tp3082
a(L2195342884L
L3785322319L
(lp3083
(lp3084
V__assert_func
p3085
atp3086
a(L1882547218L
L0L
(lp3087
(lp3088
tp3089
a(L2910371777L
L0L
(lp3090
(lp3091
tp3092
a(L95634693L
L0L
(lp3093
(lp3094
tp3095
a(L3630908706L
L0L
(lp3096
(lp3097
tp3098
a(L160162640L
L0L
(lp3099
(lp3100
tp3101
a(L97689L
L0L
(lp3102
(lp3103
tp3104
a(L3360570486L
L0L
(lp3105
(lp3106
tp3107
atp3108
sI1074238880
(Vload_image
p3109
(lp3110
(L162490783L
L1832448559L
(lp3111
(lp3112
Vesp_log_early_timestamp
p3113
aVbootloader_random_disable
p3114
aVbootloader_ana_clock_glitch_reset_config
p3115
atp3116
a(L2118498116L
L0L
(lp3117
(lp3118
tp3119
a(L106L
L0L
(lp3120
(lp3121
tp3122
a(L1789307221L
L3758435744L
(lp3123
(lp3124
Vmmu_hal_init
p3125
aVcache_ll_l1_get_bus
p3126
aVcache_ll_l1_enable_bus
p3127
aVcache_ll_l1_get_bus
p3128
aVcache_ll_l1_enable_bus
p3129
aVcache_ll_l1_get_bus
p3130
aVcache_ll_l1_enable_bus
p3131
aVcache_ll_l1_get_bus
p3132
aVcache_ll_l1_enable_bus
p3133
aVbootloader_console_deinit
p3134
atp3135
a(L746432701L
L0L
(lp3136
(lp3137
tp3138
a(L2902417580L
L0L
(lp3139
(lp3140
tp3141
a(L1366048922L
L3785322319L
(lp3142
(lp3143
Vesp_log_early_timestamp
p3144
atp3145
a(L3064806881L
L0L
(lp3146
(lp3147
tp3148
a(L839502558L
L0L
(lp3149
(lp3150
tp3151
a(L3020204L
L0L
(lp3152
(lp3153
tp3154
a(L3328497686L
L3785322319L
(lp3155
(lp3156
Vesp_log_early_timestamp
p3157
atp3158
a(L3644183142L
L0L
(lp3159
(lp3160
tp3161
a(L356605111L
L0L
(lp3162
(lp3163
tp3164
atp3165
sI1074245536
(Vrtc_clk_cpu_freq_mhz_to_config
p3166
(lp3167
(L908718885L
L3785322319L
(lp3168
(lp3169
Vrtc_clk_xtal_freq_get
p3170
atp3171
a(L60460069L
L0L
(lp3172
(lp3173
tp3174
a(L3802072124L
L0L
(lp3175
(lp3176
tp3177
a(L3159006042L
L0L
(lp3178
(lp3179
tp3180
a(L3360570486L
L0L
(lp3181
(lp3182
tp3183
a(L895147205L
L0L
(lp3184
(lp3185
tp3186
a(L3970036657L
L0L
(lp3187
(lp3188
tp3189
a(L2731353429L
L0L
(lp3190
(lp3191
tp3192
a(L1555485793L
L0L
(lp3193
(lp3194
tp3195
a(L2258897023L
L0L
(lp3196
(lp3197
tp3198
a(L1947499251L
L0L
(lp3199
(lp3200
tp3201
a(L1306331021L
L0L
(lp3202
(lp3203
tp3204
atp3205
sI1074267832
(Vwdt_reset_info_dump
p3206
(lp3207
(L4037466985L
L0L
(lp3208
(lp3209
tp3210
a(L826419141L
L0L
(lp3211
(lp3212
tp3213
a(L527117834L
L0L
(lp3214
(lp3215
tp3216
a(L1103285333L
L0L
(lp3217
(lp3218
tp3219
a(L897464656L
L3785322319L
(lp3220
(lp3221
Vesp_log_early_timestamp
p3222
atp3223
a(L2967992533L
L0L
(lp3224
(lp3225
tp3226
a(L144195250L
L3785322319L
(lp3227
(lp3228
Vesp_log_early_timestamp
p3229
atp3230
a(L2899013701L
L0L
(lp3231
(lp3232
tp3233
atp3234
sI1074269112
(Vbootloader_init_mem
p3235
(lp3236
(L1287383080L
L3785322319L
(lp3237
(lp3238
Vesp_cpu_configure_region_protection
p3239
atp3240
atp3241
sI1074269624
(Vbootloader_clear_bss_section
p3242
(lp3243
(L1133714402L
L0L
(lp3244
(lp3245
tp3246
atp3247
sI1074237364
(Vspi_to_esp_err
p3248
(lp3249
(L3520881295L
L0L
(lp3250
(lp3251
tp3252
a(L2402400019L
L0L
(lp3253
(lp3254
tp3255
a(L3952441574L
L0L
(lp3256
(lp3257
tp3258
a(L3126521138L
L0L
(lp3259
(lp3260
tp3261
atp3262
sI1074237620
(Vbootloader_munmap
p3263
(lp3264
(L1697403118L
L0L
(lp3265
(lp3266
tp3267
a(L3761142808L
L0L
(lp3268
(lp3269
tp3270
a(L3360570486L
L0L
(lp3271
(lp3272
tp3273
atp3274
sI1074245812
(Vrtc_clk_apb_freq_update
p3275
(lp3276
(L723331471L
L0L
(lp3277
(lp3278
tp3279
atp3280
sI1074240432
(Vbootloader_sha256_data
p3281
(lp3282
(L4066096136L
L0L
(lp3283
(lp3284
tp3285
a(L110883720L
L0L
(lp3286
(lp3287
tp3288
a(L3884092851L
L3785322319L
(lp3289
(lp3290
V__assert_func
p3291
atp3292
a(L498498478L
L0L
(lp3293
(lp3294
tp3295
a(L1040021824L
L0L
(lp3296
(lp3297
tp3298
a(L2910371777L
L0L
(lp3299
(lp3300
tp3301
a(L3360570486L
L0L
(lp3302
(lp3303
tp3304
a(L1788837773L
L0L
(lp3305
(lp3306
tp3307
a(L541898147L
L0L
(lp3308
(lp3309
tp3310
a(L2604061911L
L0L
(lp3311
(lp3312
tp3313
a(L8683590L
L0L
(lp3314
(lp3315
tp3316
a(L3387118333L
L0L
(lp3317
(lp3318
tp3319
a(L2032890799L
L0L
(lp3320
(lp3321
tp3322
a(L3028464L
L0L
(lp3323
(lp3324
tp3325
a(L707876039L
L0L
(lp3326
(lp3327
tp3328
a(L498156265L
L0L
(lp3329
(lp3330
tp3331
atp3332
sI1074270900
(Vmpu_hal_set_region_access
p3333
(lp3334
(L3538356822L
L0L
(lp3335
(lp3336
tp3337
a(L93674324L
L0L
(lp3338
(lp3339
tp3340
a(L2910371777L
L0L
(lp3341
(lp3342
tp3343
a(L3472092938L
L0L
(lp3344
(lp3345
tp3346
a(L3020187L
L0L
(lp3347
(lp3348
tp3349
a(L3360570486L
L0L
(lp3350
(lp3351
tp3352
a(L2258718273L
L0L
(lp3353
(lp3354
tp3355
a(L3446648619L
L0L
(lp3356
(lp3357
tp3358
a(L3739532189L
L0L
(lp3359
(lp3360
tp3361
a(L1300789895L
L0L
(lp3362
(lp3363
tp3364
atp3365
sI1074244804
(Vrtc_clk_cpu_freq_to_pll_mhz
p3366
(lp3367
(L1393544349L
L0L
(lp3368
(lp3369
tp3370
a(L405771233L
L0L
(lp3371
(lp3372
tp3373
a(L2930233244L
L0L
(lp3374
(lp3375
tp3376
a(L3298441904L
L0L
(lp3377
(lp3378
tp3379
a(L3680579786L
L0L
(lp3380
(lp3381
tp3382
a(L1298905564L
L0L
(lp3383
(lp3384
tp3385
a(L46269790L
L3785322319L
(lp3386
(lp3387
Vrtc_clk_wait_for_slow_cycle
p3388
atp3389
a(L1611366957L
L0L
(lp3390
(lp3391
tp3392
a(L1611366988L
L0L
(lp3393
(lp3394
tp3395
a(L94425498L
L3785322319L
(lp3396
(lp3397
Vabort
p3398
atp3399
atp3400
sI1074244036
(Vwdt_hal_config_stage
p3401
(lp3402
(L331558507L
L0L
(lp3403
(lp3404
tp3405
a(L4279082939L
L0L
(lp3406
(lp3407
tp3408
a(L93674324L
L0L
(lp3409
(lp3410
tp3411
a(L2902417580L
L0L
(lp3412
(lp3413
tp3414
a(L1485495983L
L0L
(lp3415
(lp3416
tp3417
a(L3020187L
L0L
(lp3418
(lp3419
tp3420
a(L94425498L
L3785322319L
(lp3421
(lp3422
Vabort
p3423
atp3424
a(L2718517169L
L0L
(lp3425
(lp3426
tp3427
a(L3360570486L
L0L
(lp3428
(lp3429
tp3430
a(L1996799187L
L0L
(lp3431
(lp3432
tp3433
a(L2771194801L
L0L
(lp3434
(lp3435
tp3436
a(L4278159418L
L0L
(lp3437
(lp3438
tp3439
a(L93674324L
L0L
(lp3440
(lp3441
tp3442
a(L3020204L
L0L
(lp3443
(lp3444
tp3445
a(L3391750594L
L0L
(lp3446
(lp3447
tp3448
a(L3020187L
L0L
(lp3449
(lp3450
tp3451
a(L106L
L0L
(lp3452
(lp3453
tp3454
a(L239610384L
L0L
(lp3455
(lp3456
tp3457
a(L831450820L
L0L
(lp3458
(lp3459
tp3460
a(L3340783449L
L0L
(lp3461
(lp3462
tp3463
atp3464
sI1074270668
(Vrtc_vddsdio_get_config
p3465
(lp3466
(L1424863558L
L0L
(lp3467
(lp3468
tp3469
a(L3421108135L
L0L
(lp3470
(lp3471
tp3472
a(L3002774692L
L0L
(lp3473
(lp3474
tp3475
a(L253680180L
L0L
(lp3476
(lp3477
tp3478
a(L2961852087L
L0L
(lp3479
(lp3480
tp3481
a(L2194851786L
L0L
(lp3482
(lp3483
tp3484
a(L1306330959L
L0L
(lp3485
(lp3486
tp3487
a(L1997193082L
L0L
(lp3488
(lp3489
tp3490
atp3491
sI1074269120
(Vbootloader_random_enable
p3492
(lp3493
(L1578364810L
L0L
(lp3494
(lp3495
tp3496
atp3497
sI1074269888
(Vbootloader_enable_random
p3498
(lp3499
(L1278562623L
L1880226080L
(lp3500
(lp3501
Vesp_log_early_timestamp
p3502
aVbootloader_random_enable
p3503
atp3504
atp3505
sI1074244552
(Vmmu_hal_init
p3506
(lp3507
(L1381828061L
L0L
(lp3508
(lp3509
tp3510
a(L2010554219L
L0L
(lp3511
(lp3512
tp3513
a(L3268103L
L0L
(lp3514
(lp3515
tp3516
a(L3212334523L
L0L
(lp3517
(lp3518
tp3519
a(L2010554219L
L0L
(lp3520
(lp3521
tp3522
a(L3360570486L
L0L
(lp3523
(lp3524
tp3525
atp3526
sI1074236628
(Vesp_rom_uart_set_clock_baudrate
p3527
(lp3528
(L2889646162L
L0L
(lp3529
(lp3530
tp3531
a(L2316512566L
L0L
(lp3532
(lp3533
tp3534
a(L2805931268L
L0L
(lp3535
(lp3536
tp3537
a(L2901979283L
L0L
(lp3538
(lp3539
tp3540
atp3541
sI1074237396
(Vbootloader_mmap
p3542
(lp3543
(L3624397292L
L0L
(lp3544
(lp3545
tp3546
a(L3762918116L
L3785322319L
(lp3547
(lp3548
Vesp_log_early_timestamp
p3549
atp3550
a(L3871473710L
L0L
(lp3551
(lp3552
tp3553
a(L3729184599L
L0L
(lp3554
(lp3555
tp3556
a(L3066168078L
L3785322319L
(lp3557
(lp3558
Vesp_log_early_timestamp
p3559
atp3560
a(L1864365708L
L0L
(lp3561
(lp3562
tp3563
a(L2872111263L
L3785322319L
(lp3564
(lp3565
Vesp_log_early_timestamp
p3566
atp3567
a(L258722864L
L0L
(lp3568
(lp3569
tp3570
a(L3746164654L
L3785322319L
(lp3571
(lp3572
Vesp_log_early_timestamp
p3573
atp3574
a(L2535155408L
L0L
(lp3575
(lp3576
tp3577
atp3578
sI1074269916
(Vbootloader_print_banner
p3579
(lp3580
(L137307312L
L1880226080L
(lp3581
(lp3582
Vesp_log_early_timestamp
p3583
aVesp_log_early_timestamp
p3584
atp3585
atp3586
sI1074235600
(Vbootloader_read_flash_id
p3587
(lp3588
(L549578328L
L3785322319L
(lp3589
(lp3590
Vbootloader_execute_flash_command
p3591
atp3592
atp3593
sI1074245840
(Vrtc_clk_cpu_freq_to_xtal
p3594
(lp3595
(L2382625401L
L0L
(lp3596
(lp3597
tp3598
a(L94425498L
L3785322319L
(lp3599
(lp3600
Vabort
p3601
atp3602
a(L2975556993L
L3785322319L
(lp3603
(lp3604
Vrtc_clk_apb_freq_update
p3605
atp3606
a(L2258867232L
L0L
(lp3607
(lp3608
tp3609
a(L362206021L
L0L
(lp3610
(lp3611
tp3612
atp3613
sI1074247120
(Vrtc_clk_cal_ratio
p3614
(lp3615
(L1201925337L
L3785322319L
(lp3616
(lp3617
Vrtc_clk_cal_internal
p3618
atp3619
atp3620
sI1074268880
(Vbootloader_clock_configure
p3621
(lp3622
(L2559598596L
L1880226080L
(lp3623
(lp3624
Vesp_rom_uart_tx_wait_idle
p3625
aVefuse_hal_chip_revision
p3626
atp3627
a(L4006799969L
L0L
(lp3628
(lp3629
tp3630
a(L883406775L
L0L
(lp3631
(lp3632
tp3633
a(L106L
L0L
(lp3634
(lp3635
tp3636
a(L4161070602L
L1832448559L
(lp3637
(lp3638
Vrtc_clk_slow_src_get
p3639
aVrtc_clk_fast_src_get
p3640
aVrtc_clk_init
p3641
atp3642
a(L2587354260L
L0L
(lp3643
(lp3644
tp3645
a(L1108834551L
L3785322319L
(lp3646
(lp3647
Vrtc_clk_apb_freq_get
p3648
atp3649
a(L106L
L0L
(lp3650
(lp3651
tp3652
a(L106L
L0L
(lp3653
(lp3654
tp3655
atp3656
sI1074269648
(Vbootloader_read_bootloader_header
p3657
(lp3658
(L1158061215L
L3785322319L
(lp3659
(lp3660
Vbootloader_flash_read
p3661
atp3662
a(L996487665L
L3785322319L
(lp3663
(lp3664
Vesp_log_early_timestamp
p3665
atp3666
a(L735741265L
L0L
(lp3667
(lp3668
tp3669
atp3670
sI1074241244
(Vbootloader_util_regions_overlap
p3671
(lp3672
(L2762640130L
L0L
(lp3673
(lp3674
tp3675
a(L2198512677L
L0L
(lp3676
(lp3677
tp3678
a(L2217655633L
L3785322319L
(lp3679
(lp3680
V__assert_func
p3681
atp3682
a(L97642L
L0L
(lp3683
(lp3684
tp3685
a(L996187529L
L0L
(lp3686
(lp3687
tp3688
a(L366123053L
L0L
(lp3689
(lp3690
tp3691
a(L2258867228L
L0L
(lp3692
(lp3693
tp3694
a(L1253626734L
L0L
(lp3695
(lp3696
tp3697
a(L2258897019L
L0L
(lp3698
(lp3699
tp3700
a(L3109269495L
L0L
(lp3701
(lp3702
tp3703
atp3704
sI1074245080
(Vrtc_clk_8m_enable
p3705
(lp3706
(L1843101924L
L0L
(lp3707
(lp3708
tp3709
a(L3147299128L
L0L
(lp3710
(lp3711
tp3712
a(L2151320156L
L0L
(lp3713
(lp3714
tp3715
a(L711175840L
L0L
(lp3716
(lp3717
tp3718
a(L3360570486L
L0L
(lp3719
(lp3720
tp3721
a(L1318267208L
L0L
(lp3722
(lp3723
tp3724
a(L512411289L
L0L
(lp3725
(lp3726
tp3727
atp3728
sI1074236900
(Vesp_log_early_timestamp
p3729
(lp3730
(L3733265409L
L0L
(lp3731
(lp3732
tp3733
atp3734
sI1074237924
(Vbootloader_flash_erase_sector
p3735
(lp3736
(L4129137686L
L1880226080L
(lp3737
(lp3738
Vesp_rom_spiflash_erase_sector
p3739
aVspi_to_esp_err
p3740
atp3741
atp3742
sI1074236384
(Vbootloader_flash_dummy_config
p3743
(lp3744
(L262000646L
L0L
(lp3745
(lp3746
tp3747
a(L2761717557L
L0L
(lp3748
(lp3749
tp3750
a(L1849044936L
L0L
(lp3751
(lp3752
tp3753
a(L708753936L
L0L
(lp3754
(lp3755
tp3756
a(L1010450057L
L0L
(lp3757
(lp3758
tp3759
a(L3020204L
L0L
(lp3760
(lp3761
tp3762
a(L1610443405L
L0L
(lp3763
(lp3764
tp3765
a(L4032120524L
L0L
(lp3766
(lp3767
tp3768
a(L2336993863L
L0L
(lp3769
(lp3770
tp3771
a(L1298875775L
L0L
(lp3772
(lp3773
tp3774
a(L3880393601L
L0L
(lp3775
(lp3776
tp3777
a(L3328946209L
L0L
(lp3778
(lp3779
tp3780
a(L1610443436L
L0L
(lp3781
(lp3782
tp3783
atp3784
sI1074237672
(Vbootloader_flash_read
p3785
(lp3786
(L728393898L
L0L
(lp3787
(lp3788
tp3789
a(L1489400095L
L3785322319L
(lp3790
(lp3791
Vesp_log_early_timestamp
p3792
atp3793
a(L1941789336L
L0L
(lp3794
(lp3795
tp3796
a(L3360570486L
L0L
(lp3797
(lp3798
tp3799
a(L2660352519L
L0L
(lp3800
(lp3801
tp3802
a(L1179571938L
L3785322319L
(lp3803
(lp3804
Vesp_log_early_timestamp
p3805
atp3806
a(L162336582L
L0L
(lp3807
(lp3808
tp3809
a(L814874711L
L3785322319L
(lp3810
(lp3811
Vesp_log_early_timestamp
p3812
atp3813
a(L3020204L
L0L
(lp3814
(lp3815
tp3816
a(L3893043951L
L0L
(lp3817
(lp3818
tp3819
a(L97422L
L0L
(lp3820
(lp3821
tp3822
a(L1190291857L
L0L
(lp3823
(lp3824
tp3825
a(L2961856275L
L0L
(lp3826
(lp3827
tp3828
a(L2859434406L
L3785322319L
(lp3829
(lp3830
V__assert_func
p3831
atp3832
a(L1539897528L
L0L
(lp3833
(lp3834
tp3835
a(L1915165223L
L0L
(lp3836
(lp3837
tp3838
a(L1336007148L
L1880226080L
(lp3839
(lp3840
Vesp_rom_spiflash_read
p3841
aVspi_to_esp_err
p3842
atp3843
atp3844
sI1074247400
(Vesp_rom_spiflash_wait_idle
p3845
(lp3846
(L3233077286L
L0L
(lp3847
(lp3848
tp3849
a(L2023766174L
L0L
(lp3850
(lp3851
tp3852
a(L2805935267L
L0L
(lp3853
(lp3854
tp3855
a(L3086959262L
L0L
(lp3856
(lp3857
tp3858
a(L4161019926L
L3785322319L
(lp3859
(lp3860
Vesp_rom_spiflash_read_status
p3861
atp3862
atp3863
sI1074269692
(Vbootloader_check_bootloader_validity
p3864
(lp3865
(L3216107859L
L1832448559L
(lp3866
(lp3867
Vefuse_hal_chip_revision
p3868
aVesp_log_early_timestamp
p3869
aVbootloader_common_check_chip_validity
p3870
atp3871
atp3872
sI1074238192
(Vbootloader_random_disable
p3873
(lp3874
(L2825582328L
L0L
(lp3875
(lp3876
tp3877
atp3878
sI1074246640
(Vrtc_clk_apb_freq_get
p3879
(lp3880
(L3268507198L
L0L
(lp3881
(lp3882
tp3883
atp3884
sI1074247152
(Vrtc_clk_wait_for_slow_cycle
p3885
(lp3886
(L57851970L
L0L
(lp3887
(lp3888
tp3889
a(L287687718L
L0L
(lp3890
(lp3891
tp3892
a(L3360570486L
L0L
(lp3893
(lp3894
tp3895
a(L2237399032L
L0L
(lp3896
(lp3897
tp3898
a(L2994547433L
L0L
(lp3899
(lp3900
tp3901
a(L2206597745L
L0L
(lp3902
(lp3903
tp3904
a(L788148307L
L3785322319L
(lp3905
(lp3906
Vesp_log_early_timestamp
p3907
atp3908
atp3909
sI1074241788
(Vshould_load
p3910
(lp3911
(L1379502686L
L0L
(lp3912
(lp3913
tp3914
a(L1182990556L
L0L
(lp3915
(lp3916
tp3917
a(L1188500889L
L0L
(lp3918
(lp3919
tp3920
a(L2306467100L
L0L
(lp3921
(lp3922
tp3923
a(L524505062L
L0L
(lp3924
(lp3925
tp3926
a(L2258897019L
L0L
(lp3927
(lp3928
tp3929
a(L3781799363L
L0L
(lp3930
(lp3931
tp3932
a(L3028464L
L0L
(lp3933
(lp3934
tp3935
a(L2219325068L
L0L
(lp3936
(lp3937
tp3938
a(L4277114872L
L0L
(lp3939
(lp3940
tp3941
a(L2824381917L
L0L
(lp3942
(lp3943
tp3944
a(L1243412227L
L0L
(lp3945
(lp3946
tp3947
a(L2011157548L
L0L
(lp3948
(lp3949
tp3950
a(L3126521138L
L0L
(lp3951
(lp3952
tp3953
a(L1305407438L
L0L
(lp3954
(lp3955
tp3956
a(L1305407469L
L0L
(lp3957
(lp3958
tp3959
atp3960
sI1074245628
(Vrtc_clk_cpu_freq_get_config
p3961
(lp3962
(L3852097526L
L0L
(lp3963
(lp3964
tp3965
a(L3020187L
L0L
(lp3966
(lp3967
tp3968
a(L3020187L
L0L
(lp3969
(lp3970
tp3971
a(L1339883774L
L3785322319L
(lp3972
(lp3973
Vrtc_clk_xtal_freq_get
p3974
atp3975
a(L3789795478L
L0L
(lp3976
(lp3977
tp3978
a(L1876772334L
L1880226080L
(lp3979
(lp3980
Vesp_log_early_timestamp
p3981
aVabort
p3982
atp3983
a(L3035450075L
L0L
(lp3984
(lp3985
tp3986
a(L3020187L
L0L
(lp3987
(lp3988
tp3989
a(L3028481L
L0L
(lp3990
(lp3991
tp3992
a(L38508693L
L0L
(lp3993
(lp3994
tp3995
a(L187152368L
L0L
(lp3996
(lp3997
tp3998
a(L1161083655L
L0L
(lp3999
(lp4000
tp4001
a(L1395485899L
L0L
(lp4002
(lp4003
tp4004
a(L2070600034L
L0L
(lp4005
(lp4006
tp4007
atp4008
sI1074244600
(Vefuse_hal_get_rated_freq_mhz
p4009
(lp4010
(L3936657855L
L0L
(lp4011
(lp4012
tp4013
a(L3671388797L
L0L
(lp4014
(lp4015
tp4016
a(L3360570486L
L0L
(lp4017
(lp4018
tp4019
atp4020
sI1074237944
(Vbootloader_flash_write
p4021
(lp4022
(L3770380603L
L0L
(lp4023
(lp4024
tp4025
a(L2615366646L
L3785322319L
(lp4026
(lp4027
Vesp_log_early_timestamp
p4028
atp4029
a(L3833270346L
L0L
(lp4030
(lp4031
tp4032
a(L1610445075L
L0L
(lp4033
(lp4034
tp4035
a(L735741265L
L0L
(lp4036
(lp4037
tp4038
a(L3291333414L
L0L
(lp4039
(lp4040
tp4041
a(L1873007406L
L3785322319L
(lp4042
(lp4043
Vesp_log_early_timestamp
p4044
atp4045
a(L3283691850L
L0L
(lp4046
(lp4047
tp4048
a(L2141475974L
L3785322319L
(lp4049
(lp4050
Vesp_log_early_timestamp
p4051
atp4052
a(L3212356251L
L3785322319L
(lp4053
(lp4054
Vbootloader_flash_unlock
p4055
atp4056
a(L1799218633L
L0L
(lp4057
(lp4058
tp4059
a(L94425498L
L3785322319L
(lp4060
(lp4061
Vesp_rom_spiflash_write_encrypted
p4062
atp4063
a(L2927190544L
L3785322319L
(lp4064
(lp4065
Vspi_to_esp_err
p4066
atp4067
a(L2927190544L
L3785322319L
(lp4068
(lp4069
Vesp_rom_spiflash_write
p4070
atp4071
atp4072
ssS'functionsdups'
p4073
g11
((lp4074
tp4075
Rp4076
sS'immediatedups'
p4077
g11
((lp4078
tp4079
Rp4080
sS'functiondups'
p4081
g11
((lp4082
tp4083
Rp4084
sS'fuzzy'
p4085
(dp4086
L438947497L
I1074245256
sL2170867428L
I1074270232
sL617583950L
I1074236988
sL430153639L
I1074235916
sL3121027072L
I1074270668
sL2082889262L
I1074241696
sL291131346L
I1074244804
sL835568324L
I1074246684
sL2919016435L
I1074235256
sL16208487L
I1074234744
sL2319042089L
I1074245388
sL3881399234L
I1074245840
sL2919036513L
I1074238880
sL151789201L
I1074270048
sL2680783959L
I1074235648
sL3512578114L
I1074238728
sL1419132215L
I1074238112
sL2469233929L
I1074240588
sL701833459L
I1074268880
sL3897252859L
I1074238520
sL1065525808L
I1074236828
sL2327783177L
I1074240880
sL1164839255L
I1074241916
sL2272466760L
I1074245628
sL2117292686L
I1074241300
sL2044047637L
I1074239388
sL1188065553L
I1074237672
sL94556391L
I1074245416
sL3210669721L
I1074245020
sL1332800441L
I1074237220
sL2884218272L
I1074267832
sL1168466927L
I1074268052
sL1345429244L
I1074241052
sL3190020590L
I1074242636
sL2828970830L
I1074239268
sL4160102055L
I1074240064
sL4202185385L
I1074247400
sL1768086576L
I1074236384
sL4171975289L
I1074247700
sL1565254297L
I1074248000
sL1205407754L
I1074240096
sL2191698036L
I1074269760
sL1513350244L
I1074239752
sL1635528231L
I1074244036
sL519424169L
I1074247152
sL1060788199L
I1074245536
sL406720601L
I1074238604
sL737694352L
I1074247508
sL503029138L
I1074247448
sL1616763831L
I1074248088
sL2262558768L
I1074247312
sL424867129L
I1074247836
sL3834155367L
I1074241244
sL2405032630L
I1074267724
sL3338518926L
I1074237396
sL2123938668L
I1074245956
sL3883282432L
I1074241788
sL4173399607L
I1074243152
sL1667054119L
I1074240432
sL206902443L
I1074237944
ssb.