ccopy_reg
_reconstructor
p0
(crizzo
RizzoSignature
p1
c__builtin__
object
p2
Ntp3
Rp4
(dp5
S'formal'
p6
(dp7
L4129448738L
I1074268056
sL3583069589L
I1074242076
sL3942486265L
I1074245784
sL1741170115L
I1074238088
sL3024445257L
I1074237356
sL3505757179L
I1074234720
sL3942909205L
I1074245932
sL138009647L
I1074234760
sL1237733855L
I1074238892
sL4213015302L
I1074243424
sL2105543580L
I1074243744
sL1217847178L
I1074244944
sL779644773L
I1074241088
sL956556060L
I1074237528
sL3545118830L
I1074267836
sL3098316936L
I1074270052
sL4106531553L
I1074245536
sL1779398953L
I1074237340
sL2679917712L
I1074248392
sL3226534268L
I1074238276
sL2702580795L
I1074237452
sL1458472899L
I1074236644
sL3289828409L
I1074246072
sL1062003324L
I1074242204
sL2897186972L
I1074240876
sL2056207546L
I1074245720
sL2896295319L
I1074236844
sL3284957946L
I1074267724
sL2285799430L
I1074244904
sL2330705106L
I1074240720
sL666019467L
I1074245800
sL2016785928L
I1074241588
sL3680231013L
I1074239936
sL1674148343L
I1074245840
sL4171974888L
I1074269892
sL2485902447L
I1074236724
sL3777532524L
I1074246944
sL2829752047L
I1074238684
sL1361679215L
I1074237048
sL4158184850L
I1074247424
sL2894402769L
I1074244856
sL1132938192L
I1074238944
sL1585823442L
I1074244756
sL1622896354L
I1074244784
sL3213302492L
I1074269628
sL1852033855L
I1074246144
sL3392225391L
I1074269920
sL426938157L
I1074235272
sL985941158L
I1074237784
sL3537851837L
I1074248304
sL649984984L
I1074237560
sL227907582L
I1074240700
sL1804662015L
I1074241168
sL712004097L
I1074236992
sL1568446217L
I1074236548
sL3533580523L
I1074237836
sL903192239L
I1074239044
sL1056742531L
I1074236400
sL2911254023L
I1074242924
sL426984944L
I1074236916
sL2178777950L
I1074241340
sL2485736362L
I1074267139
sL4117027047L
I1074268828
sL676927194L
I1074269116
sL2277098556L
I1074236816
sL3307282855L
I1074238248
sL1072211552L
I1074270672
sL727144152L
I1074246260
sL2703760551L
I1074247456
sL1043339424L
I1074240624
sL3015335465L
I1074244688
sL1191319953L
I1074269968
sL692183250L
I1074270236
sL1109026444L
I1074269764
sL3870456869L
I1074236948
sL2189301476L
I1074245108
sL798282249L
I1074270004
sL4038945309L
I1074235616
sL668490105L
I1074245692
sL518463041L
I1074235820
sL1418376237L
I1074245384
sL1020798325L
I1074241984
sL17106344L
I1074269696
sL2997001746L
I1074237280
sL3211463386L
I1074240380
sL1676245851L
I1074237320
sL1387660805L
I1074247704
sL368241221L
I1074244340
sL1332374493L
I1074269612
sL2819127986L
I1074237012
sL2574371274L
I1074239432
sL2774874584L
I1074239572
sL3521822039L
I1074248004
sL149978958L
I1074236580
sL1877634603L
I1074270904
sL2987381963L
I1074269124
sL97988882L
I1074244656
sL71888000L
I1074240348
sL790507223L
I1074236748
sL701333505L
I1074244972
sL948754268L
I1074247812
sL1168915326L
I1074235564
sL2639205533L
I1074245324
sL1216067753L
I1074246116
sL873382621L
I1074235932
sL2263182908L
I1074238268
sL3630163135L
I1074236832
sL2287234484L
I1074238768
sL188664287L
I1074235240
sL2547128115L
I1074238108
sL2355043774L
I1074238356
sL2587289812L
I1074235664
sL692536993L
I1074237424
sL3828320200L
I1074241112
sL3063310718L
I1074245264
sL3300000600L
I1074268884
sL1644702180L
I1074243456
sL311797112L
I1074245512
sL2998939693L
I1074247752
sL1621098576L
I1074243440
sL3902393197L
I1074241072
sL3179222923L
I1074246988
sL3063749482L
I1074240248
sL1805017185L
I1074248140
sL1652676726L
I1074270832
sL1127977411L
I1074245560
sL763831419L
I1074241532
sL366071084L
I1074269652
sL3084277288L
I1074247616
sL801329980L
I1074238992
ssS'immediates'
p8
(dp9
sS'formaldups'
p10
c__builtin__
set
p11
((lp12
tp13
Rp14
sS'stringdups'
p15
g11
((lp16
tp17
Rp18
sS'fuzzydups'
p19
g11
((lp20
tp21
Rp22
sS'strings'
p23
(dp24
sS'functions'
p25
(dp26
I1074246144
(Vrtc_clk_cpu_freq_to_xtal
p27
(lp28
(L1877066776L
L0L
(lp29
(lp30
tp31
a(L94425498L
L3785322319L
(lp32
(lp33
Vabort
p34
atp35
a(L3010191712L
L3785322319L
(lp36
(lp37
Vrtc_clk_apb_freq_update
p38
atp39
a(L2258867232L
L0L
(lp40
(lp41
tp42
a(L2484631171L
L0L
(lp43
(lp44
tp45
atp46
sI1074247424
(Vrtc_clk_cal_ratio
p47
(lp48
(L1134918584L
L3785322319L
(lp49
(lp50
Vrtc_clk_cal_internal
p51
atp52
atp53
sI1074267136
(V_init
p54
(lp55
(L3493042598L
L0L
(lp56
(lp57
tp58
atp59
sI1074269696
(Vbootloader_check_bootloader_validity
p60
(lp61
(L3216107859L
L1832448559L
(lp62
(lp63
Vefuse_hal_chip_revision
p64
aVesp_log_early_timestamp
p65
aVbootloader_common_check_chip_validity
p66
atp67
atp68
sI1074237452
(Vbootloader_common_select_otadata
p69
(lp70
(L4071767857L
L0L
(lp71
(lp72
tp73
a(L1999329187L
L0L
(lp74
(lp75
tp76
a(L3846398843L
L0L
(lp77
(lp78
tp79
a(L2501968171L
L0L
(lp80
(lp81
tp82
a(L3360570486L
L0L
(lp83
(lp84
tp85
a(L2045232488L
L0L
(lp86
(lp87
tp88
a(L1243525916L
L0L
(lp89
(lp90
tp91
a(L3094144427L
L0L
(lp92
(lp93
tp94
a(L2399509845L
L0L
(lp95
(lp96
tp97
a(L1641201884L
L0L
(lp98
(lp99
tp100
atp101
sI1074267139
(V_text_start
p102
(lp103
(L1817914933L
L0L
(lp104
(lp105
tp106
a(L348696462L
L0L
(lp107
(lp108
tp109
atp110
sI1074245384
(Vrtc_clk_8m_enable
p111
(lp112
(L3008681732L
L0L
(lp113
(lp114
tp115
a(L3590910551L
L0L
(lp116
(lp117
tp118
a(L2151320156L
L0L
(lp119
(lp120
tp121
a(L711175840L
L0L
(lp122
(lp123
tp124
a(L3360570486L
L0L
(lp125
(lp126
tp127
a(L1318267208L
L0L
(lp128
(lp129
tp130
a(L504651930L
L0L
(lp131
(lp132
tp133
atp134
sI1074236948
(Vcheck_rtc_retain_mem
p135
(lp136
(L2257480021L
L0L
(lp137
(lp138
tp139
atp140
sI1074270236
(Vrtc_clk_init
p141
(lp142
(L1433536254L
L0L
(lp143
(lp144
tp145
a(L42671777L
L3785322319L
(lp146
(lp147
Vrtc_clk_cpu_freq_to_xtal
p148
atp149
a(L1950731570L
L3785322319L
(lp150
(lp151
Vrtc_clk_xtal_freq_get
p152
atp153
a(L89029051L
L0L
(lp154
(lp155
tp156
a(L4187693717L
L3785322319L
(lp157
(lp158
Vrtc_clk_xtal_freq_estimate
p159
atp160
a(L3965386186L
L3785322319L
(lp161
(lp162
Vesp_log_early_timestamp
p163
atp164
a(L2928127184L
L1157885199L
(lp165
(lp166
Vesp_rom_uart_tx_wait_idle
p167
aVrtc_clk_xtal_freq_update
p168
aVrtc_clk_apb_freq_update
p169
aVrtc_clk_cpu_freq_get_config
p170
aVrtc_clk_cpu_freq_mhz_to_config
p171
atp172
a(L170300763L
L1880226080L
(lp173
(lp174
Vesp_log_early_timestamp
p175
aVabort
p176
atp177
a(L3028481L
L0L
(lp178
(lp179
tp180
a(L4070631611L
L3785322319L
(lp181
(lp182
Vrtc_clk_xtal_freq_estimate
p183
atp184
a(L2871935663L
L3785322319L
(lp185
(lp186
Vesp_log_early_timestamp
p187
atp188
a(L2976141507L
L3785322319L
(lp189
(lp190
Vrtc_clk_cpu_freq_set_config
p191
atp192
a(L912310138L
L3785322319L
(lp193
(lp194
Vrtc_clk_32k_enable
p195
atp196
a(L3191820416L
L1832448559L
(lp197
(lp198
Vrtc_clk_8m_enable
p199
aVrtc_clk_fast_src_set
p200
aVrtc_clk_slow_src_set
p201
atp202
a(L1232958848L
L0L
(lp203
(lp204
tp205
atp206
sI1074238992
(Vcache_ll_l1_enable_bus
p207
(lp208
(L902531686L
L0L
(lp209
(lp210
tp211
atp212
sI1074235664
(Vbootloader_flash_xmc_startup
p213
(lp214
(L3680458509L
L3785322319L
(lp215
(lp216
Vis_xmc_chip_strict
p217
atp218
a(L2258688482L
L0L
(lp219
(lp220
tp221
a(L3360570486L
L0L
(lp222
(lp223
tp224
a(L2860324232L
L3785322319L
(lp225
(lp226
Vbootloader_flash_read_sfdp
p227
atp228
a(L2097895665L
L2567856111L
(lp229
(lp230
Vesp_log_early_timestamp
p231
aVbootloader_execute_flash_command
p232
aVbootloader_execute_flash_command
p233
aVbootloader_execute_flash_command
p234
aVbootloader_execute_flash_command
p235
aVbootloader_read_flash_id
p236
aVis_xmc_chip_strict
p237
atp238
a(L4062067944L
L3785322319L
(lp239
(lp240
Vesp_log_early_timestamp
p241
atp242
atp243
sI1074269968
(Vbootloader_console_init
p244
(lp245
(L2283227580L
L1832448559L
(lp246
(lp247
Vesp_rom_uart_tx_wait_idle
p248
aVrtc_clk_apb_freq_get
p249
aVesp_rom_uart_set_clock_baudrate
p250
atp251
atp252
sI1074242076
(Vshould_load
p253
(lp254
(L712089227L
L0L
(lp255
(lp256
tp257
a(L1182990556L
L0L
(lp258
(lp259
tp260
a(L3445575825L
L0L
(lp261
(lp262
tp263
a(L2306467100L
L0L
(lp264
(lp265
tp266
a(L524505062L
L0L
(lp267
(lp268
tp269
a(L2258897019L
L0L
(lp270
(lp271
tp272
a(L3781799363L
L0L
(lp273
(lp274
tp275
a(L3028464L
L0L
(lp276
(lp277
tp278
a(L1926545939L
L0L
(lp279
(lp280
tp281
a(L4277114872L
L0L
(lp282
(lp283
tp284
a(L2824381917L
L0L
(lp285
(lp286
tp287
a(L1243412227L
L0L
(lp288
(lp289
tp290
a(L2011157548L
L0L
(lp291
(lp292
tp293
a(L3126521138L
L0L
(lp294
(lp295
tp296
a(L1305407438L
L0L
(lp297
(lp298
tp299
a(L1305407469L
L0L
(lp300
(lp301
tp302
atp303
sI1074235932
(Vbootloader_flash_gpio_config
p304
(lp305
(L3448878117L
L3785322319L
(lp306
(lp307
Vbootloader_common_get_chip_ver_pkg
p308
atp309
a(L106L
L0L
(lp310
(lp311
tp312
a(L1998579353L
L0L
(lp313
(lp314
tp315
a(L106L
L0L
(lp316
(lp317
tp318
a(L1029428446L
L0L
(lp319
(lp320
tp321
a(L4242290324L
L0L
(lp322
(lp323
tp324
a(L106L
L0L
(lp325
(lp326
tp327
a(L4003626558L
L0L
(lp328
(lp329
tp330
a(L1553523094L
L0L
(lp331
(lp332
tp333
a(L3360570486L
L0L
(lp334
(lp335
tp336
atp337
sI1074247704
(Vesp_rom_spiflash_wait_idle
p338
(lp339
(L3233076573L
L0L
(lp340
(lp341
tp342
a(L2023766174L
L0L
(lp343
(lp344
tp345
a(L2805934554L
L0L
(lp346
(lp347
tp348
a(L3086959262L
L0L
(lp349
(lp350
tp351
a(L4161019926L
L3785322319L
(lp352
(lp353
Vesp_rom_spiflash_read_status
p354
atp355
atp356
sI1074246944
(Vrtc_clk_apb_freq_get
p357
(lp358
(L2346600719L
L0L
(lp359
(lp360
tp361
atp362
sI1074247456
(Vrtc_clk_wait_for_slow_cycle
p363
(lp364
(L2001810661L
L0L
(lp365
(lp366
tp367
a(L287687718L
L0L
(lp368
(lp369
tp370
a(L3360570486L
L0L
(lp371
(lp372
tp373
a(L2237399032L
L0L
(lp374
(lp375
tp376
a(L2994547433L
L0L
(lp377
(lp378
tp379
a(L3451362226L
L0L
(lp380
(lp381
tp382
a(L3129979507L
L3785322319L
(lp383
(lp384
Vesp_log_early_timestamp
p385
atp386
atp387
sI1074245932
(Vrtc_clk_cpu_freq_get_config
p388
(lp389
(L4181863287L
L0L
(lp390
(lp391
tp392
a(L3020187L
L0L
(lp393
(lp394
tp395
a(L3020187L
L0L
(lp396
(lp397
tp398
a(L2294112669L
L3785322319L
(lp399
(lp400
Vrtc_clk_xtal_freq_get
p401
atp402
a(L3789795478L
L0L
(lp403
(lp404
tp405
a(L1386526734L
L1880226080L
(lp406
(lp407
Vesp_log_early_timestamp
p408
aVabort
p409
atp410
a(L690783034L
L0L
(lp411
(lp412
tp413
a(L3020187L
L0L
(lp414
(lp415
tp416
a(L3028481L
L0L
(lp417
(lp418
tp419
a(L38508693L
L0L
(lp420
(lp421
tp422
a(L187152368L
L0L
(lp423
(lp424
tp425
a(L1161083655L
L0L
(lp426
(lp427
tp428
a(L1395485899L
L0L
(lp429
(lp430
tp431
a(L2070600034L
L0L
(lp432
(lp433
tp434
atp435
sI1074244904
(Vefuse_hal_get_rated_freq_mhz
p436
(lp437
(L3936657855L
L0L
(lp438
(lp439
tp440
a(L3671388797L
L0L
(lp441
(lp442
tp443
a(L3360570486L
L0L
(lp444
(lp445
tp446
atp447
sI1074238248
(Vbootloader_enable_wp
p448
(lp449
(L1117825804L
L3785322319L
(lp450
(lp451
Vbootloader_execute_flash_command
p452
atp453
atp454
sI1074236724
(Vefuse_hal_chip_revision
p455
(lp456
(L2719302832L
L1880226080L
(lp457
(lp458
Vefuse_hal_get_major_chip_version
p459
aVefuse_hal_get_minor_chip_version
p460
atp461
atp462
sI1074241588
(Vverify_load_addresses
p463
(lp464
(L2764487219L
L0L
(lp465
(lp466
tp467
a(L106L
L0L
(lp468
(lp469
tp470
a(L97642L
L0L
(lp471
(lp472
tp473
a(L3391460592L
L3785322319L
(lp474
(lp475
V__assert_func
p476
atp477
a(L425286117L
L0L
(lp478
(lp479
tp480
a(L106L
L0L
(lp481
(lp482
tp483
a(L304997764L
L0L
(lp484
(lp485
tp486
a(L106L
L0L
(lp487
(lp488
tp489
a(L3707201346L
L3785322319L
(lp490
(lp491
Vbootloader_util_regions_overlap
p492
atp493
a(L3476204718L
L3785322319L
(lp494
(lp495
Vbootloader_util_regions_overlap
p496
atp497
a(L3028481L
L0L
(lp498
(lp499
tp500
a(L3999645471L
L3785322319L
(lp501
(lp502
Vbootloader_util_regions_overlap
p503
atp504
a(L2545616466L
L0L
(lp505
(lp506
tp507
a(L2206735340L
L0L
(lp508
(lp509
tp510
a(L3467570085L
L0L
(lp511
(lp512
tp513
a(L2661576437L
L0L
(lp514
(lp515
tp516
a(L2503437888L
L0L
(lp517
(lp518
tp519
a(L677569396L
L3785322319L
(lp520
(lp521
Vverify_load_addresses
p522
atp523
a(L1351513776L
L0L
(lp524
(lp525
tp526
a(L3061261803L
L0L
(lp527
(lp528
tp529
a(L2743341656L
L0L
(lp530
(lp531
tp532
a(L401691722L
L0L
(lp533
(lp534
tp535
a(L215176348L
L0L
(lp536
(lp537
tp538
a(L832687151L
L3785322319L
(lp539
(lp540
Vbootloader_util_regions_overlap
p541
atp542
a(L3028481L
L0L
(lp543
(lp544
tp545
a(L2777071190L
L3785322319L
(lp546
(lp547
Vbootloader_util_regions_overlap
p548
atp549
a(L61399800L
L0L
(lp550
(lp551
tp552
a(L421747395L
L0L
(lp553
(lp554
tp555
a(L1379075193L
L0L
(lp556
(lp557
tp558
a(L3780206508L
L0L
(lp559
(lp560
tp561
a(L307916924L
L0L
(lp562
(lp563
tp564
a(L697239146L
L0L
(lp565
(lp566
tp567
a(L106L
L0L
(lp568
(lp569
tp570
a(L955484392L
L0L
(lp571
(lp572
tp573
a(L307916691L
L0L
(lp574
(lp575
tp576
a(L490080443L
L0L
(lp577
(lp578
tp579
a(L106L
L0L
(lp580
(lp581
tp582
a(L3243478892L
L3785322319L
(lp583
(lp584
Vesp_log_early_timestamp
p585
atp586
a(L955483059L
L0L
(lp587
(lp588
tp589
a(L1303560427L
L0L
(lp590
(lp591
tp592
atp593
sI1074244656
(Vwdt_hal_write_protect_disable
p594
(lp595
(L792874522L
L0L
(lp596
(lp597
tp598
a(L4195472003L
L0L
(lp599
(lp600
tp601
a(L3360570486L
L0L
(lp602
(lp603
tp604
a(L1210571996L
L0L
(lp605
(lp606
tp607
atp608
sI1074241072
(Vbootloader_console_deinit
p609
(lp610
(L777638133L
L0L
(lp611
(lp612
tp613
atp614
sI1074238768
(Vcache_ll_l1_get_bus
p615
(lp616
(L3827411420L
L0L
(lp617
(lp618
tp619
a(L94425498L
L3785322319L
(lp620
(lp621
Vabort
p622
atp623
a(L3222493499L
L0L
(lp624
(lp625
tp626
a(L2104695022L
L0L
(lp627
(lp628
tp629
a(L892952750L
L0L
(lp630
(lp631
tp632
a(L1182811810L
L0L
(lp633
(lp634
tp635
a(L1101742417L
L0L
(lp636
(lp637
tp638
a(L1100767927L
L0L
(lp639
(lp640
tp641
a(L3360570486L
L0L
(lp642
(lp643
tp644
a(L2752335631L
L0L
(lp645
(lp646
tp647
a(L892952750L
L0L
(lp648
(lp649
tp650
a(L2258688482L
L0L
(lp651
(lp652
tp653
a(L1996083063L
L0L
(lp654
(lp655
tp656
a(L2258718273L
L0L
(lp657
(lp658
tp659
a(L2938197270L
L0L
(lp660
(lp661
tp662
a(L2756029715L
L0L
(lp663
(lp664
tp665
a(L2795746388L
L0L
(lp666
(lp667
tp668
a(L1641149277L
L0L
(lp669
(lp670
tp671
a(L3232646960L
L0L
(lp672
(lp673
tp674
a(L3027019L
L0L
(lp675
(lp676
tp677
a(L1299866560L
L0L
(lp678
(lp679
tp680
a(L1299866436L
L0L
(lp681
(lp682
tp683
atp684
sI1074245680
(Vrtc_clk_slow_src_get
p685
(lp686
(L376617603L
L3785322319L
(lp687
(lp688
Vclk_ll_rtc_slow_get_src
p689
atp690
atp691
sI1074238268
(Vbootloader_mmap_get_free_pages
p692
(lp693
(L1496516875L
L0L
(lp694
(lp695
tp696
atp697
sI1074241340
(Vprocess_image_header
p698
(lp699
(L3187818489L
L3785322319L
(lp700
(lp701
Vbootloader_flash_read
p702
atp703
a(L3020204L
L0L
(lp704
(lp705
tp706
a(L4130667142L
L0L
(lp707
(lp708
tp709
a(L3131381282L
L0L
(lp710
(lp711
tp712
a(L1161397362L
L3785322319L
(lp713
(lp714
Vbootloader_sha256_start
p715
atp716
a(L1948257695L
L3785322319L
(lp717
(lp718
Vbootloader_sha256_data
p719
atp720
a(L1095449651L
L0L
(lp721
(lp722
tp723
a(L3020204L
L0L
(lp724
(lp725
tp726
a(L702739545L
L0L
(lp727
(lp728
tp729
a(L3360570486L
L0L
(lp730
(lp731
tp732
a(L838399760L
L3785322319L
(lp733
(lp734
Vesp_log_early_timestamp
p735
atp736
a(L3718883008L
L3785322319L
(lp737
(lp738
Vbootloader_common_check_chip_validity
p739
atp740
a(L3677035427L
L0L
(lp741
(lp742
tp743
a(L3028481L
L0L
(lp744
(lp745
tp746
a(L565397782L
L3785322319L
(lp747
(lp748
Vesp_log_early_timestamp
p749
atp750
a(L2250109166L
L0L
(lp751
(lp752
tp753
a(L1235012870L
L0L
(lp754
(lp755
tp756
a(L3063569071L
L0L
(lp757
(lp758
tp759
atp760
sI1074245692
(Vrtc_clk_slow_freq_get_hz
p761
(lp762
(L1826267122L
L3785322319L
(lp763
(lp764
Vclk_ll_rtc_slow_get_src
p765
atp766
a(L4187485703L
L0L
(lp767
(lp768
tp769
a(L3631005815L
L0L
(lp770
(lp771
tp772
a(L702740072L
L0L
(lp773
(lp774
tp775
a(L3360570486L
L0L
(lp776
(lp777
tp778
atp779
sI1074270004
(Vesp_cpu_configure_region_protection
p780
(lp781
(L2123781700L
L0L
(lp782
(lp783
tp784
a(L180431425L
L3785322319L
(lp785
(lp786
Vmpu_hal_set_region_access
p787
atp788
a(L2537388152L
L3785322319L
(lp789
(lp790
Vmpu_hal_set_region_access
p791
atp792
atp793
sI1074238276
(Vbootloader_fill_random
p794
(lp795
(L1799492288L
L0L
(lp796
(lp797
tp798
a(L39210299L
L3785322319L
(lp799
(lp800
V__assert_func
p801
atp802
a(L1882547218L
L0L
(lp803
(lp804
tp805
a(L2910371777L
L0L
(lp806
(lp807
tp808
a(L95634693L
L0L
(lp809
(lp810
tp811
a(L3630908706L
L0L
(lp812
(lp813
tp814
a(L160162640L
L0L
(lp815
(lp816
tp817
a(L97689L
L0L
(lp818
(lp819
tp820
a(L3360570486L
L0L
(lp821
(lp822
tp823
atp824
sI1074239044
(Vload_image
p825
(lp826
(L22234992L
L1832448559L
(lp827
(lp828
Vesp_log_early_timestamp
p829
aVbootloader_random_disable
p830
aVbootloader_ana_clock_glitch_reset_config
p831
atp832
a(L2118498116L
L0L
(lp833
(lp834
tp835
a(L106L
L0L
(lp836
(lp837
tp838
a(L2562655772L
L3758435744L
(lp839
(lp840
Vmmu_hal_init
p841
aVcache_ll_l1_get_bus
p842
aVcache_ll_l1_enable_bus
p843
aVcache_ll_l1_get_bus
p844
aVcache_ll_l1_enable_bus
p845
aVcache_ll_l1_get_bus
p846
aVcache_ll_l1_enable_bus
p847
aVcache_ll_l1_get_bus
p848
aVcache_ll_l1_enable_bus
p849
aVbootloader_console_deinit
p850
atp851
a(L2580592325L
L0L
(lp852
(lp853
tp854
a(L2902417580L
L0L
(lp855
(lp856
tp857
a(L1020225962L
L3785322319L
(lp858
(lp859
Vesp_log_early_timestamp
p860
atp861
a(L3064806881L
L0L
(lp862
(lp863
tp864
a(L2440259366L
L0L
(lp865
(lp866
tp867
a(L3020204L
L0L
(lp868
(lp869
tp870
a(L29635846L
L3785322319L
(lp871
(lp872
Vesp_log_early_timestamp
p873
atp874
a(L3644183142L
L0L
(lp875
(lp876
tp877
a(L356605111L
L0L
(lp878
(lp879
tp880
atp881
sI1074248004
(Vesp_rom_spiflash_erase_sector
p882
(lp883
(L3080458502L
L0L
(lp884
(lp885
tp886
a(L2258688483L
L0L
(lp887
(lp888
tp889
a(L3360570486L
L0L
(lp890
(lp891
tp892
a(L3212356251L
L3785322319L
(lp893
(lp894
Vesp_rom_spiflash_enable_write
p895
atp896
a(L184152988L
L0L
(lp897
(lp898
tp899
a(L201796810L
L3785322319L
(lp900
(lp901
Vesp_rom_spiflash_wait_idle
p902
atp903
a(L3333707777L
L0L
(lp904
(lp905
tp906
a(L3582858798L
L3785322319L
(lp907
(lp908
Vesp_rom_spiflash_wait_idle
p909
atp910
atp911
sI1074267724
(Vcall_start_cpu0
p912
(lp913
(L1137852827L
L0L
(lp914
(lp915
tp916
a(L549459388L
L0L
(lp917
(lp918
tp919
a(L3212347974L
L3785322319L
(lp920
(lp921
Vbootloader_init
p922
atp923
a(L94425498L
L3785322319L
(lp924
(lp925
Vbootloader_reset
p926
atp927
a(L1122046408L
L0L
(lp928
(lp929
tp930
a(L4099474112L
L0L
(lp931
(lp932
tp933
a(L4004585570L
L1880226080L
(lp934
(lp935
Vbootloader_utility_load_boot_image_from_deep_sleep
p936
aVbootloader_utility_load_partition_table
p937
atp938
a(L2761094216L
L3785322319L
(lp939
(lp940
Vesp_log_early_timestamp
p941
atp942
a(L736289835L
L3785322319L
(lp943
(lp944
Vbootloader_utility_get_selected_boot_partition
p945
atp946
a(L344825785L
L3785322319L
(lp947
(lp948
Vbootloader_utility_load_boot_image
p949
atp950
atp951
sI1074241088
(V__assert_func
p952
(lp953
(L2983076609L
L0L
(lp954
(lp955
tp956
a(L106L
L0L
(lp957
(lp958
tp959
atp960
sI1074236992
(Vbootloader_common_ota_select_crc
p961
(lp962
(L3898531187L
L0L
(lp963
(lp964
tp965
atp966
sI1074236748
(Vefuse_hal_get_major_chip_version
p967
(lp968
(L1242126302L
L0L
(lp969
(lp970
tp971
a(L894792960L
L0L
(lp972
(lp973
tp974
a(L3783348505L
L0L
(lp975
(lp976
tp977
a(L3360570486L
L0L
(lp978
(lp979
tp980
atp981
sI1074246988
(Vrtc_clk_cal_internal
p982
(lp983
(L3196937563L
L0L
(lp984
(lp985
tp986
a(L4222104019L
L3785322319L
(lp987
(lp988
V__assert_func
p989
atp990
a(L4261942885L
L0L
(lp991
(lp992
tp993
a(L54826884L
L0L
(lp994
(lp995
tp996
a(L234746575L
L0L
(lp997
(lp998
tp999
a(L861896856L
L3785322319L
(lp1000
(lp1001
Vrtc_clk_8m_enable
p1002
atp1003
a(L633299024L
L3785322319L
(lp1004
(lp1005
Vrtc_clk_slow_src_get
p1006
atp1007
a(L1211065969L
L0L
(lp1008
(lp1009
tp1010
a(L97689L
L0L
(lp1011
(lp1012
tp1013
a(L1732483946L
L0L
(lp1014
(lp1015
tp1016
a(L3028464L
L0L
(lp1017
(lp1018
tp1019
a(L3028481L
L0L
(lp1020
(lp1021
tp1022
a(L3450258763L
L0L
(lp1023
(lp1024
tp1025
a(L829335718L
L3785322319L
(lp1026
(lp1027
Vrtc_clk_xtal_freq_get
p1028
atp1029
a(L2780079961L
L0L
(lp1030
(lp1031
tp1032
a(L907068341L
L0L
(lp1033
(lp1034
tp1035
a(L2369635498L
L3785322319L
(lp1036
(lp1037
Vesp_log_early_timestamp
p1038
atp1039
a(L3360570486L
L0L
(lp1040
(lp1041
tp1042
a(L3221193832L
L0L
(lp1043
(lp1044
tp1045
a(L3245477987L
L0L
(lp1046
(lp1047
tp1048
a(L2910371777L
L0L
(lp1049
(lp1050
tp1051
a(L2902417580L
L0L
(lp1052
(lp1053
tp1054
a(L489212082L
L0L
(lp1055
(lp1056
tp1057
a(L3631005548L
L0L
(lp1058
(lp1059
tp1060
a(L2495790249L
L0L
(lp1061
(lp1062
tp1063
a(L3352263364L
L0L
(lp1064
(lp1065
tp1066
a(L3028464L
L0L
(lp1067
(lp1068
tp1069
a(L1247755861L
L3785322319L
(lp1070
(lp1071
Vrtc_clk_8m_enable
p1072
atp1073
atp1074
sI1074269764
(Vbootloader_config_wdt
p1075
(lp1076
(L197822005L
L505859776L
(lp1077
(lp1078
Vwdt_hal_write_protect_disable
p1079
aVwdt_hal_set_flashboot_en
p1080
aVwdt_hal_write_protect_enable
p1081
aVwdt_hal_init
p1082
aVrtc_clk_slow_freq_get_hz
p1083
aVwdt_hal_write_protect_disable
p1084
aVwdt_hal_config_stage
p1085
aVwdt_hal_enable
p1086
aVwdt_hal_write_protect_enable
p1087
aVwdt_hal_write_protect_disable
p1088
aVwdt_hal_set_flashboot_en
p1089
aVwdt_hal_write_protect_enable
p1090
atp1091
atp1092
sI1074247752
(Vesp_rom_spiflash_enable_write
p1093
(lp1094
(L2249402766L
L3785322319L
(lp1095
(lp1096
Vesp_rom_spiflash_wait_idle
p1097
atp1098
a(L3137194272L
L0L
(lp1099
(lp1100
tp1101
a(L2258718275L
L0L
(lp1102
(lp1103
tp1104
a(L99543895L
L0L
(lp1105
(lp1106
tp1107
a(L2993202392L
L0L
(lp1108
(lp1109
tp1110
a(L1804543818L
L3785322319L
(lp1111
(lp1112
Vesp_rom_spiflash_read_status
p1113
atp1114
atp1115
sI1074237012
(Vbootloader_common_ota_select_valid
p1116
(lp1117
(L1563399710L
L3785322319L
(lp1118
(lp1119
Vbootloader_common_ota_select_invalid
p1120
atp1121
a(L3814720849L
L3785322319L
(lp1122
(lp1123
Vbootloader_common_ota_select_crc
p1124
atp1125
a(L3360570486L
L0L
(lp1126
(lp1127
tp1128
atp1129
sI1074239572
(Vbootloader_utility_load_partition_table
p1130
(lp1131
(L3778130612L
L3785322319L
(lp1132
(lp1133
Vbootloader_mmap
p1134
atp1135
a(L1750684064L
L3785322319L
(lp1136
(lp1137
Vesp_log_early_timestamp
p1138
atp1139
a(L2258688482L
L0L
(lp1140
(lp1141
tp1142
a(L3360570486L
L0L
(lp1143
(lp1144
tp1145
a(L3881596654L
L3785322319L
(lp1146
(lp1147
Vesp_partition_table_verify
p1148
atp1149
a(L225713418L
L3785322319L
(lp1150
(lp1151
Vesp_log_early_timestamp
p1152
atp1153
a(L1982925679L
L1880226080L
(lp1154
(lp1155
Vesp_log_early_timestamp
p1156
aVesp_log_early_timestamp
p1157
atp1158
a(L650140130L
L0L
(lp1159
(lp1160
tp1161
a(L2134444588L
L1880226080L
(lp1162
(lp1163
Vbootloader_munmap
p1164
aVesp_log_early_timestamp
p1165
atp1166
a(L521126897L
L0L
(lp1167
(lp1168
tp1169
a(L3028464L
L0L
(lp1170
(lp1171
tp1172
a(L106L
L0L
(lp1173
(lp1174
tp1175
a(L1403802589L
L0L
(lp1176
(lp1177
tp1178
a(L2169919598L
L3785322319L
(lp1179
(lp1180
Vesp_log_early_timestamp
p1181
atp1182
a(L3990577774L
L0L
(lp1183
(lp1184
tp1185
a(L3020187L
L0L
(lp1186
(lp1187
tp1188
a(L2299741977L
L0L
(lp1189
(lp1190
tp1191
a(L4208504664L
L0L
(lp1192
(lp1193
tp1194
a(L1859217967L
L0L
(lp1195
(lp1196
tp1197
a(L2546691370L
L0L
(lp1198
(lp1199
tp1200
a(L3837441849L
L0L
(lp1201
(lp1202
tp1203
a(L106L
L0L
(lp1204
(lp1205
tp1206
a(L93674324L
L0L
(lp1207
(lp1208
tp1209
a(L1586995289L
L0L
(lp1210
(lp1211
tp1212
a(L1938134716L
L0L
(lp1213
(lp1214
tp1215
a(L924830715L
L0L
(lp1216
(lp1217
tp1218
a(L106L
L0L
(lp1219
(lp1220
tp1221
a(L932210606L
L0L
(lp1222
(lp1223
tp1224
a(L106L
L0L
(lp1225
(lp1226
tp1227
a(L568204987L
L0L
(lp1228
(lp1229
tp1230
atp1231
sI1074244944
(Vclk_ll_rtc_slow_get_src
p1232
(lp1233
(L3788564200L
L0L
(lp1234
(lp1235
tp1236
a(L3020187L
L0L
(lp1237
(lp1238
tp1239
a(L2902417580L
L0L
(lp1240
(lp1241
tp1242
a(L2258688485L
L0L
(lp1243
(lp1244
tp1245
a(L3360570486L
L0L
(lp1246
(lp1247
tp1248
atp1249
sI1074244688
(Vwdt_hal_set_flashboot_en
p1250
(lp1251
(L2375320464L
L0L
(lp1252
(lp1253
tp1254
a(L3915867581L
L0L
(lp1255
(lp1256
tp1257
a(L3360570486L
L0L
(lp1258
(lp1259
tp1260
a(L3614031576L
L0L
(lp1261
(lp1262
tp1263
atp1264
sI1074240348
(Vbootloader_reset
p1265
(lp1266
(L823107534L
L3785322319L
(lp1267
(lp1268
Vbootloader_console_deinit
p1269
atp1270
a(L106L
L0L
(lp1271
(lp1272
tp1273
atp1274
sI1074237528
(Vspi_to_esp_err
p1275
(lp1276
(L3506104959L
L0L
(lp1277
(lp1278
tp1279
a(L2409788187L
L0L
(lp1280
(lp1281
tp1282
a(L3952441574L
L0L
(lp1283
(lp1284
tp1285
a(L3126521138L
L0L
(lp1286
(lp1287
tp1288
atp1289
sI1074237784
(Vbootloader_munmap
p1290
(lp1291
(L2079642783L
L0L
(lp1292
(lp1293
tp1294
a(L2908476086L
L0L
(lp1295
(lp1296
tp1297
a(L3360570486L
L0L
(lp1298
(lp1299
tp1300
atp1301
sI1074241112
(Vabort
p1302
(lp1303
(L1089406431L
L0L
(lp1304
(lp1305
tp1306
a(L409471316L
L0L
(lp1307
(lp1308
tp1309
a(L106L
L0L
(lp1310
(lp1311
tp1312
atp1313
sI1074245720
(Vrtc_clk_fast_src_set
p1314
(lp1315
(L2976421890L
L0L
(lp1316
(lp1317
tp1318
a(L3020187L
L0L
(lp1319
(lp1320
tp1321
a(L3827921190L
L3785322319L
(lp1322
(lp1323
Vabort
p1324
atp1325
a(L2904656757L
L0L
(lp1326
(lp1327
tp1328
a(L206212292L
L0L
(lp1329
(lp1330
tp1331
a(L300459962L
L0L
(lp1332
(lp1333
tp1334
atp1335
sI1074237280
(Vbootloader_common_get_active_otadata
p1336
(lp1337
(L3317503532L
L0L
(lp1338
(lp1339
tp1340
a(L2503049265L
L1832448559L
(lp1341
(lp1342
Vbootloader_common_ota_select_valid
p1343
aVbootloader_common_ota_select_valid
p1344
aVbootloader_common_select_otadata
p1345
atp1346
a(L735741265L
L0L
(lp1347
(lp1348
tp1349
atp1350
sI1074234720
(Vesp_flash_encryption_enabled
p1351
(lp1352
(L2932383536L
L0L
(lp1353
(lp1354
tp1355
a(L2910371777L
L0L
(lp1356
(lp1357
tp1358
a(L3360570486L
L0L
(lp1359
(lp1360
tp1361
a(L3016870L
L0L
(lp1362
(lp1363
tp1364
a(L3745038218L
L0L
(lp1365
(lp1366
tp1367
a(L957607403L
L0L
(lp1368
(lp1369
tp1370
atp1371
sI1074243424
(Vbootloader_load_image
p1372
(lp1373
(L1155870502L
L3785322319L
(lp1374
(lp1375
Vimage_load
p1376
atp1377
atp1378
sI1074240876
(Vbootloader_sha256_finish
p1379
(lp1380
(L4066096136L
L0L
(lp1381
(lp1382
tp1383
a(L840115176L
L0L
(lp1384
(lp1385
tp1386
a(L591145840L
L3785322319L
(lp1387
(lp1388
V__assert_func
p1389
atp1390
a(L3020204L
L0L
(lp1391
(lp1392
tp1393
a(L3478420729L
L0L
(lp1394
(lp1395
tp1396
a(L2534656226L
L0L
(lp1397
(lp1398
tp1399
a(L18240658L
L3785322319L
(lp1400
(lp1401
Vbootloader_sha256_data
p1402
atp1403
a(L699336714L
L0L
(lp1404
(lp1405
tp1406
a(L3666528998L
L3785322319L
(lp1407
(lp1408
Vbootloader_sha256_data
p1409
atp1410
a(L473014360L
L0L
(lp1411
(lp1412
tp1413
a(L657425439L
L0L
(lp1414
(lp1415
tp1416
a(L4242965061L
L0L
(lp1417
(lp1418
tp1419
a(L657425439L
L0L
(lp1420
(lp1421
tp1422
a(L4237898673L
L0L
(lp1423
(lp1424
tp1425
a(L2718449270L
L0L
(lp1426
(lp1427
tp1428
a(L3347778L
L0L
(lp1429
(lp1430
tp1431
a(L3360570486L
L0L
(lp1432
(lp1433
tp1434
atp1435
sI1074242924
(Vimage_load
p1436
(lp1437
(L3559420668L
L0L
(lp1438
(lp1439
tp1440
a(L1899869541L
L0L
(lp1441
(lp1442
tp1443
a(L979631281L
L0L
(lp1444
(lp1445
tp1446
a(L1525480527L
L0L
(lp1447
(lp1448
tp1449
a(L1043148059L
L0L
(lp1450
(lp1451
tp1452
a(L2796536461L
L0L
(lp1453
(lp1454
tp1455
a(L4204411986L
L3785322319L
(lp1456
(lp1457
Vesp_log_early_timestamp
p1458
atp1459
a(L2068384292L
L0L
(lp1460
(lp1461
tp1462
a(L1968553470L
L3785322319L
(lp1463
(lp1464
Vbootloader_sha256_finish
p1465
atp1466
a(L1421577021L
L0L
(lp1467
(lp1468
tp1469
a(L3225218531L
L0L
(lp1470
(lp1471
tp1472
a(L3802071166L
L0L
(lp1473
(lp1474
tp1475
a(L1301867039L
L3785322319L
(lp1476
(lp1477
Vprocess_image_header
p1478
atp1479
a(L560228796L
L0L
(lp1480
(lp1481
tp1482
a(L4185758499L
L0L
(lp1483
(lp1484
tp1485
a(L1530940255L
L3785322319L
(lp1486
(lp1487
Vprocess_segments
p1488
atp1489
a(L1233227930L
L0L
(lp1490
(lp1491
tp1492
a(L232008881L
L0L
(lp1493
(lp1494
tp1495
a(L2570888687L
L3785322319L
(lp1496
(lp1497
Vprocess_checksum
p1498
atp1499
a(L425503098L
L3785322319L
(lp1500
(lp1501
Vprocess_appended_hash_and_sig
p1502
atp1503
a(L780930979L
L0L
(lp1504
(lp1505
tp1506
a(L2334355956L
L0L
(lp1507
(lp1508
tp1509
a(L595683170L
L0L
(lp1510
(lp1511
tp1512
a(L2673234211L
L1880226080L
(lp1513
(lp1514
Vbootloader_sha256_finish
p1515
aVbootloader_debug_buffer
p1516
atp1517
a(L297335634L
L1880226080L
(lp1518
(lp1519
Vesp_log_early_timestamp
p1520
aVbootloader_debug_buffer
p1521
atp1522
a(L1087646176L
L0L
(lp1523
(lp1524
tp1525
a(L2068384292L
L0L
(lp1526
(lp1527
tp1528
a(L3021148818L
L3785322319L
(lp1529
(lp1530
Vbootloader_sha256_finish
p1531
atp1532
a(L3028481L
L0L
(lp1533
(lp1534
tp1535
a(L139701033L
L0L
(lp1536
(lp1537
tp1538
a(L2722270501L
L0L
(lp1539
(lp1540
tp1541
a(L772115669L
L0L
(lp1542
(lp1543
tp1544
a(L2787789065L
L0L
(lp1545
(lp1546
tp1547
a(L85798113L
L0L
(lp1548
(lp1549
tp1550
a(L1351513776L
L0L
(lp1551
(lp1552
tp1553
a(L159346313L
L3785322319L
(lp1554
(lp1555
Vshould_load
p1556
atp1557
a(L4218574503L
L0L
(lp1558
(lp1559
tp1560
a(L3338774213L
L0L
(lp1561
(lp1562
tp1563
a(L3464541874L
L0L
(lp1564
(lp1565
tp1566
a(L3349572949L
L0L
(lp1567
(lp1568
tp1569
a(L2192292519L
L0L
(lp1570
(lp1571
tp1572
a(L106L
L0L
(lp1573
(lp1574
tp1575
a(L26615924L
L0L
(lp1576
(lp1577
tp1578
a(L1299866312L
L0L
(lp1579
(lp1580
tp1581
a(L490060329L
L0L
(lp1582
(lp1583
tp1584
atp1585
sI1074244972
(Vrtc_clk_32k_enable_common
p1586
(lp1587
(L1037633247L
L0L
(lp1588
(lp1589
tp1590
a(L97689L
L0L
(lp1591
(lp1592
tp1593
a(L2218417250L
L0L
(lp1594
(lp1595
tp1596
a(L2593802258L
L0L
(lp1597
(lp1598
tp1599
a(L51458058L
L0L
(lp1600
(lp1601
tp1602
atp1603
sI1074270052
(Vrtc_clk_xtal_freq_estimate
p1604
(lp1605
(L3845076426L
L1880226080L
(lp1606
(lp1607
Vrtc_clk_8m_enabled
p1608
aVrtc_clk_8md256_enabled
p1609
atp1610
a(L2449794434L
L3785322319L
(lp1611
(lp1612
Vrtc_clk_8m_enable
p1613
atp1614
a(L2541226969L
L3785322319L
(lp1615
(lp1616
Vrtc_clk_cal_ratio
p1617
atp1618
a(L1894802584L
L0L
(lp1619
(lp1620
tp1621
a(L1915120046L
L0L
(lp1622
(lp1623
tp1624
a(L2740879690L
L0L
(lp1625
(lp1626
tp1627
a(L1059750288L
L3785322319L
(lp1628
(lp1629
Vrtc_clk_8m_enable
p1630
atp1631
a(L636060329L
L3785322319L
(lp1632
(lp1633
Vesp_log_early_timestamp
p1634
atp1635
a(L2894376164L
L0L
(lp1636
(lp1637
tp1638
a(L1641150486L
L0L
(lp1639
(lp1640
tp1641
a(L3097803779L
L3785322319L
(lp1642
(lp1643
Vesp_log_early_timestamp
p1644
atp1645
a(L3100578259L
L3785322319L
(lp1646
(lp1647
Vesp_log_early_timestamp
p1648
atp1649
atp1650
sI1074235240
(Vbootloader_execute_flash_command
p1651
(lp1652
(L2481595632L
L3785322319L
(lp1653
(lp1654
Vbootloader_flash_execute_command_common
p1655
atp1656
atp1657
sI1074246260
(Vrtc_clk_cpu_freq_set_config
p1658
(lp1659
(L3470272763L
L3785322319L
(lp1660
(lp1661
Vrtc_clk_xtal_freq_get
p1662
atp1663
a(L3020187L
L0L
(lp1664
(lp1665
tp1666
a(L3028464L
L0L
(lp1667
(lp1668
tp1669
a(L264223053L
L1880226080L
(lp1670
(lp1671
Vrtc_clk_cpu_freq_to_xtal
p1672
aVrtc_clk_wait_for_slow_cycle
p1673
atp1674
a(L94425498L
L3785322319L
(lp1675
(lp1676
Vrtc_clk_bbpll_disable
p1677
atp1678
a(L3978916712L
L0L
(lp1679
(lp1680
tp1681
a(L2977209154L
L0L
(lp1682
(lp1683
tp1684
a(L2736411858L
L3785322319L
(lp1685
(lp1686
Vrtc_clk_cpu_freq_to_xtal
p1687
atp1688
a(L3360570486L
L0L
(lp1689
(lp1690
tp1691
a(L3020187L
L0L
(lp1692
(lp1693
tp1694
a(L106L
L0L
(lp1695
(lp1696
tp1697
a(L3856580364L
L1880226080L
(lp1698
(lp1699
Vrtc_clk_wait_for_slow_cycle
p1700
aVrtc_clk_xtal_freq_get
p1701
atp1702
a(L106L
L0L
(lp1703
(lp1704
tp1705
a(L3875603344L
L0L
(lp1706
(lp1707
tp1708
a(L106L
L0L
(lp1709
(lp1710
tp1711
a(L83268611L
L0L
(lp1712
(lp1713
tp1714
a(L106L
L0L
(lp1715
(lp1716
tp1717
a(L82344823L
L0L
(lp1718
(lp1719
tp1720
a(L106L
L0L
(lp1721
(lp1722
tp1723
a(L1274797871L
L0L
(lp1724
(lp1725
tp1726
a(L3541539508L
L0L
(lp1727
(lp1728
tp1729
a(L2598094085L
L1880226080L
(lp1730
(lp1731
Vclk_ll_rtc_slow_get_src
p1732
aVrtc_clk_cpu_freq_to_pll_mhz
p1733
atp1734
a(L3864468207L
L0L
(lp1735
(lp1736
tp1737
a(L83268344L
L0L
(lp1738
(lp1739
tp1740
a(L82345090L
L0L
(lp1741
(lp1742
tp1743
a(L1299628291L
L0L
(lp1744
(lp1745
tp1746
a(L3209064678L
L0L
(lp1747
(lp1748
tp1749
a(L2258807646L
L0L
(lp1750
(lp1751
tp1752
a(L878473564L
L0L
(lp1753
(lp1754
tp1755
a(L2389426015L
L0L
(lp1756
(lp1757
tp1758
a(L1596574736L
L0L
(lp1759
(lp1760
tp1761
a(L2086626670L
L0L
(lp1762
(lp1763
tp1764
a(L1302638456L
L0L
(lp1765
(lp1766
tp1767
a(L810137203L
L0L
(lp1768
(lp1769
tp1770
a(L87353900L
L0L
(lp1771
(lp1772
tp1773
a(L3020187L
L0L
(lp1774
(lp1775
tp1776
a(L106L
L0L
(lp1777
(lp1778
tp1779
a(L280317847L
L0L
(lp1780
(lp1781
tp1782
atp1783
sI1074240624
(Vindex_to_partition
p1784
(lp1785
(L4066096119L
L0L
(lp1786
(lp1787
tp1788
a(L1739185955L
L0L
(lp1789
(lp1790
tp1791
a(L2171552758L
L0L
(lp1792
(lp1793
tp1794
a(L2808906342L
L0L
(lp1795
(lp1796
tp1797
a(L2101481936L
L0L
(lp1798
(lp1799
tp1800
a(L3698927993L
L0L
(lp1801
(lp1802
tp1803
a(L2808826781L
L0L
(lp1804
(lp1805
tp1806
a(L3003398163L
L0L
(lp1807
(lp1808
tp1809
a(L2880709161L
L0L
(lp1810
(lp1811
tp1812
a(L1087646172L
L0L
(lp1813
(lp1814
tp1815
atp1816
sI1074243440
(Vbootloader_load_image_no_verify
p1817
(lp1818
(L3412781509L
L3785322319L
(lp1819
(lp1820
Vimage_load
p1821
atp1822
atp1823
sI1074248304
(Vesp_rom_spiflash_write_encrypted
p1824
(lp1825
(L1944247967L
L0L
(lp1826
(lp1827
tp1828
a(L695525630L
L0L
(lp1829
(lp1830
tp1831
a(L97689L
L0L
(lp1832
(lp1833
tp1834
a(L3061232074L
L0L
(lp1835
(lp1836
tp1837
a(L1807150757L
L0L
(lp1838
(lp1839
tp1840
a(L1309309703L
L3785322319L
(lp1841
(lp1842
Vesp_rom_spiflash_write
p1843
atp1844
a(L1812851730L
L0L
(lp1845
(lp1846
tp1847
a(L735741265L
L0L
(lp1848
(lp1849
tp1850
atp1851
sI1074270832
(Vrtc_vddsdio_set_config
p1852
(lp1853
(L924138034L
L0L
(lp1854
(lp1855
tp1856
atp1857
sI1074240380
(Vbootloader_utility_load_boot_image
p1858
(lp1859
(L2848044097L
L0L
(lp1860
(lp1861
tp1862
a(L2177418995L
L3785322319L
(lp1863
(lp1864
Vtry_load_partition
p1865
atp1866
a(L1305243774L
L3785322319L
(lp1867
(lp1868
Vload_image
p1869
atp1870
a(L2207889764L
L3785322319L
(lp1871
(lp1872
Vesp_log_early_timestamp
p1873
atp1874
a(L3827921190L
L3785322319L
(lp1875
(lp1876
Vbootloader_reset
p1877
atp1878
a(L1953693036L
L3785322319L
(lp1879
(lp1880
Vindex_to_partition
p1881
atp1882
a(L1204373741L
L3785322319L
(lp1883
(lp1884
Vtry_load_partition
p1885
atp1886
a(L1899865696L
L0L
(lp1887
(lp1888
tp1889
a(L2695355117L
L3785322319L
(lp1890
(lp1891
Vset_actual_ota_seq
p1892
atp1893
a(L1868897605L
L3785322319L
(lp1894
(lp1895
Vlog_invalid_app_partition
p1896
atp1897
a(L831650730L
L0L
(lp1898
(lp1899
tp1900
a(L3021737L
L0L
(lp1901
(lp1902
tp1903
a(L695456438L
L0L
(lp1904
(lp1905
tp1906
a(L1136920284L
L3785322319L
(lp1907
(lp1908
Vtry_load_partition
p1909
atp1910
a(L3385815862L
L3785322319L
(lp1911
(lp1912
Vesp_log_early_timestamp
p1913
atp1914
a(L2347390157L
L3785322319L
(lp1915
(lp1916
Vindex_to_partition
p1917
atp1918
a(L1204373741L
L3785322319L
(lp1919
(lp1920
Vtry_load_partition
p1921
atp1922
a(L3061261803L
L0L
(lp1923
(lp1924
tp1925
a(L3582858798L
L3785322319L
(lp1926
(lp1927
Vlog_invalid_app_partition
p1928
atp1929
a(L1720805286L
L3785322319L
(lp1930
(lp1931
Vesp_log_early_timestamp
p1932
atp1933
atp1934
sI1074237560
(Vbootloader_mmap
p1935
(lp1936
(L1104127453L
L0L
(lp1937
(lp1938
tp1939
a(L480202733L
L3785322319L
(lp1940
(lp1941
Vesp_log_early_timestamp
p1942
atp1943
a(L3871473710L
L0L
(lp1944
(lp1945
tp1946
a(L3729184599L
L0L
(lp1947
(lp1948
tp1949
a(L868091166L
L3785322319L
(lp1950
(lp1951
Vesp_log_early_timestamp
p1952
atp1953
a(L2114864004L
L0L
(lp1954
(lp1955
tp1956
a(L4017761168L
L3785322319L
(lp1957
(lp1958
Vesp_log_early_timestamp
p1959
atp1960
a(L4146309025L
L0L
(lp1961
(lp1962
tp1963
a(L605750710L
L3785322319L
(lp1964
(lp1965
Vesp_log_early_timestamp
p1966
atp1967
a(L35462848L
L0L
(lp1968
(lp1969
tp1970
atp1971
sI1074237048
(Vbootloader_common_check_chip_validity
p1972
(lp1973
(L392423210L
L0L
(lp1974
(lp1975
tp1976
a(L1870659343L
L3785322319L
(lp1977
(lp1978
Vesp_log_early_timestamp
p1979
atp1980
a(L522103407L
L3785322319L
(lp1981
(lp1982
Vefuse_hal_chip_revision
p1983
atp1984
a(L106L
L0L
(lp1985
(lp1986
tp1987
a(L1552047764L
L0L
(lp1988
(lp1989
tp1990
a(L2497758912L
L3785322319L
(lp1991
(lp1992
Vesp_log_early_timestamp
p1993
atp1994
a(L3028464L
L0L
(lp1995
(lp1996
tp1997
a(L1397322129L
L0L
(lp1998
(lp1999
tp2000
a(L3021749L
L0L
(lp2001
(lp2002
tp2003
a(L2848615925L
L3785322319L
(lp2004
(lp2005
Vesp_log_early_timestamp
p2006
atp2007
a(L1299867982L
L0L
(lp2008
(lp2009
tp2010
a(L3360570486L
L0L
(lp2011
(lp2012
tp2013
atp2014
sI1074236548
(Vbootloader_common_get_chip_ver_pkg
p2015
(lp2016
(L2886103845L
L0L
(lp2017
(lp2018
tp2019
atp2020
sI1074247812
(Vesp_rom_spiflash_program_page_internal
p2021
(lp2022
(L2569069283L
L0L
(lp2023
(lp2024
tp2025
a(L2258688483L
L0L
(lp2026
(lp2027
tp2028
a(L3360570486L
L0L
(lp2029
(lp2030
tp2031
a(L1797932095L
L0L
(lp2032
(lp2033
tp2034
a(L4235661475L
L3785322319L
(lp2035
(lp2036
Vesp_rom_spiflash_wait_idle
p2037
atp2038
a(L1299866312L
L0L
(lp2039
(lp2040
tp2041
a(L3212356251L
L3785322319L
(lp2042
(lp2043
Vesp_rom_spiflash_enable_write
p2044
atp2045
a(L3316363329L
L0L
(lp2046
(lp2047
tp2048
a(L26163681L
L0L
(lp2049
(lp2050
tp2051
a(L2953702749L
L0L
(lp2052
(lp2053
tp2054
a(L2989032L
L0L
(lp2055
(lp2056
tp2057
a(L1965622133L
L0L
(lp2058
(lp2059
tp2060
a(L2232244568L
L0L
(lp2061
(lp2062
tp2063
a(L1958113242L
L0L
(lp2064
(lp2065
tp2066
a(L106L
L0L
(lp2067
(lp2068
tp2069
a(L3112950080L
L0L
(lp2070
(lp2071
tp2072
a(L1868606439L
L0L
(lp2073
(lp2074
tp2075
a(L1008983226L
L0L
(lp2076
(lp2077
tp2078
a(L1933954923L
L0L
(lp2079
(lp2080
tp2081
a(L1147866918L
L0L
(lp2082
(lp2083
tp2084
a(L3871602522L
L0L
(lp2085
(lp2086
tp2087
atp2088
sI1074243456
(Vesp_partition_table_verify
p2089
(lp2090
(L4221019429L
L0L
(lp2091
(lp2092
tp2093
a(L2504916109L
L0L
(lp2094
(lp2095
tp2096
a(L4090921686L
L0L
(lp2097
(lp2098
tp2099
a(L2910371777L
L0L
(lp2100
(lp2101
tp2102
a(L2810785767L
L0L
(lp2103
(lp2104
tp2105
a(L3360570486L
L0L
(lp2106
(lp2107
tp2108
a(L3190337587L
L0L
(lp2109
(lp2110
tp2111
a(L2069928857L
L0L
(lp2112
(lp2113
tp2114
a(L3020204L
L0L
(lp2115
(lp2116
tp2117
a(L3831737245L
L3785322319L
(lp2118
(lp2119
Vesp_log_early_timestamp
p2120
atp2121
a(L726106093L
L3785322319L
(lp2122
(lp2123
Vesp_log_early_timestamp
p2124
atp2125
a(L722190225L
L0L
(lp2126
(lp2127
tp2128
a(L2902417580L
L0L
(lp2129
(lp2130
tp2131
a(L3020204L
L0L
(lp2132
(lp2133
tp2134
a(L1370530386L
L3785322319L
(lp2135
(lp2136
Vesp_log_early_timestamp
p2137
atp2138
a(L2867263840L
L0L
(lp2139
(lp2140
tp2141
a(L4177735199L
L0L
(lp2142
(lp2143
tp2144
a(L2902417580L
L0L
(lp2145
(lp2146
tp2147
a(L3831736532L
L3785322319L
(lp2148
(lp2149
Vesp_log_early_timestamp
p2150
atp2151
a(L1305407469L
L0L
(lp2152
(lp2153
tp2154
a(L1167861556L
L0L
(lp2155
(lp2156
tp2157
a(L3914073261L
L0L
(lp2158
(lp2159
tp2160
a(L2910371777L
L0L
(lp2161
(lp2162
tp2163
a(L1235012932L
L0L
(lp2164
(lp2165
tp2166
a(L2341987610L
L3785322319L
(lp2167
(lp2168
Vesp_log_early_timestamp
p2169
atp2170
atp2171
sI1074237836
(Vbootloader_flash_read
p2172
(lp2173
(L728393898L
L0L
(lp2174
(lp2175
tp2176
a(L3109191798L
L3785322319L
(lp2177
(lp2178
Vesp_log_early_timestamp
p2179
atp2180
a(L1941789336L
L0L
(lp2181
(lp2182
tp2183
a(L3360570486L
L0L
(lp2184
(lp2185
tp2186
a(L2660352519L
L0L
(lp2187
(lp2188
tp2189
a(L28820722L
L3785322319L
(lp2190
(lp2191
Vesp_log_early_timestamp
p2192
atp2193
a(L162336582L
L0L
(lp2194
(lp2195
tp2196
a(L3537733967L
L3785322319L
(lp2197
(lp2198
Vesp_log_early_timestamp
p2199
atp2200
a(L3020204L
L0L
(lp2201
(lp2202
tp2203
a(L3893043951L
L0L
(lp2204
(lp2205
tp2206
a(L97422L
L0L
(lp2207
(lp2208
tp2209
a(L3560938121L
L0L
(lp2210
(lp2211
tp2212
a(L1066422594L
L0L
(lp2213
(lp2214
tp2215
a(L1532584991L
L3785322319L
(lp2216
(lp2217
V__assert_func
p2218
atp2219
a(L2942240672L
L0L
(lp2220
(lp2221
tp2222
a(L2825774166L
L0L
(lp2223
(lp2224
tp2225
a(L2862923013L
L1880226080L
(lp2226
(lp2227
Vesp_rom_spiflash_read
p2228
aVspi_to_esp_err
p2229
atp2230
atp2231
sI1074241160
(Vbootloader_ana_clock_glitch_reset_config
p2232
(lp2233
(L2100504542L
L0L
(lp2234
(lp2235
tp2236
atp2237
sI1074234760
(Vbootloader_flash_execute_command_common
p2238
(lp2239
(L3865052895L
L0L
(lp2240
(lp2241
tp2242
a(L3287175998L
L0L
(lp2243
(lp2244
tp2245
a(L4121451103L
L3785322319L
(lp2246
(lp2247
V__assert_func
p2248
atp2249
a(L3021749L
L0L
(lp2250
(lp2251
tp2252
a(L3999871974L
L0L
(lp2253
(lp2254
tp2255
a(L543316797L
L0L
(lp2256
(lp2257
tp2258
a(L2091933878L
L0L
(lp2259
(lp2260
tp2261
a(L1702379862L
L0L
(lp2262
(lp2263
tp2264
a(L3432464320L
L0L
(lp2265
(lp2266
tp2267
a(L3539375712L
L0L
(lp2268
(lp2269
tp2270
a(L3244449450L
L0L
(lp2271
(lp2272
tp2273
a(L4233404408L
L0L
(lp2274
(lp2275
tp2276
a(L2990329343L
L0L
(lp2277
(lp2278
tp2279
a(L2051090536L
L0L
(lp2280
(lp2281
tp2282
a(L3333696662L
L0L
(lp2283
(lp2284
tp2285
a(L963425213L
L0L
(lp2286
(lp2287
tp2288
a(L339491738L
L0L
(lp2289
(lp2290
tp2291
a(L3360570486L
L0L
(lp2292
(lp2293
tp2294
atp2295
sI1074235272
(Vbootloader_flash_unlock
p2296
(lp2297
(L2142380611L
L3785322319L
(lp2298
(lp2299
Vesp_rom_spiflash_wait_idle
p2300
atp2301
a(L4212373562L
L0L
(lp2302
(lp2303
tp2304
a(L4292483033L
L3785322319L
(lp2305
(lp2306
Vbootloader_execute_flash_command
p2307
atp2308
a(L106L
L0L
(lp2309
(lp2310
tp2311
a(L1303560644L
L0L
(lp2312
(lp2313
tp2314
a(L610618440L
L0L
(lp2315
(lp2316
tp2317
a(L106L
L0L
(lp2318
(lp2319
tp2320
a(L345249462L
L0L
(lp2321
(lp2322
tp2323
a(L106L
L0L
(lp2324
(lp2325
tp2326
a(L1024465569L
L0L
(lp2327
(lp2328
tp2329
a(L106L
L0L
(lp2330
(lp2331
tp2332
a(L1481761147L
L1880226080L
(lp2333
(lp2334
Vbootloader_execute_flash_command
p2335
aVbootloader_execute_flash_command
p2336
atp2337
a(L2258807654L
L0L
(lp2338
(lp2339
tp2340
a(L489806350L
L1832448559L
(lp2341
(lp2342
Vesp_rom_spiflash_wait_idle
p2343
aVbootloader_execute_flash_command
p2344
aVbootloader_execute_flash_command
p2345
atp2346
a(L879744646L
L1832448559L
(lp2347
(lp2348
Vesp_rom_spiflash_wait_idle
p2349
aVbootloader_execute_flash_command
p2350
aVbootloader_execute_flash_command
p2351
atp2352
a(L1840772931L
L1880226080L
(lp2353
(lp2354
Vesp_rom_spiflash_wait_idle
p2355
aVbootloader_execute_flash_command
p2356
atp2357
a(L2993202392L
L0L
(lp2358
(lp2359
tp2360
a(L508800419L
L1880226080L
(lp2361
(lp2362
Vbootloader_execute_flash_command
p2363
aVbootloader_execute_flash_command
p2364
atp2365
a(L1303560369L
L0L
(lp2366
(lp2367
tp2368
a(L1596544945L
L0L
(lp2369
(lp2370
tp2371
a(L97689L
L0L
(lp2372
(lp2373
tp2374
a(L106L
L0L
(lp2375
(lp2376
tp2377
atp2378
sI1074237320
(Vbootloader_common_reset_rtc_retain_mem
p2379
(lp2380
(L1186611531L
L0L
(lp2381
(lp2382
tp2383
atp2384
sI1074238088
(Vbootloader_flash_erase_sector
p2385
(lp2386
(L4129137686L
L1880226080L
(lp2387
(lp2388
Vesp_rom_spiflash_erase_sector
p2389
aVspi_to_esp_err
p2390
atp2391
atp2392
sI1074245512
(Vrtc_clk_8m_enabled
p2393
(lp2394
(L2903051967L
L0L
(lp2395
(lp2396
tp2397
atp2398
sI1074268056
(Vbootloader_init
p2399
(lp2400
(L270395025L
L3785322319L
(lp2401
(lp2402
Vbootloader_init_mem
p2403
atp2404
a(L1265242158L
L0L
(lp2405
(lp2406
tp2407
a(L1494621136L
L3785322319L
(lp2408
(lp2409
V__assert_func
p2410
atp2411
a(L4126189388L
L0L
(lp2412
(lp2413
tp2414
a(L4255864574L
L0L
(lp2415
(lp2416
tp2417
a(L3813782018L
L0L
(lp2418
(lp2419
tp2420
a(L1364096344L
L0L
(lp2421
(lp2422
tp2423
a(L3027019L
L0L
(lp2424
(lp2425
tp2426
a(L3563591778L
L0L
(lp2427
(lp2428
tp2429
a(L883461841L
L1832448559L
(lp2430
(lp2431
Vbootloader_clear_bss_section
p2432
aVbootloader_common_vddsdio_configure
p2433
aVbootloader_clock_get_rated_freq_mhz
p2434
atp2435
a(L1592161825L
L1157885199L
(lp2436
(lp2437
Vbootloader_clock_configure
p2438
aVbootloader_console_init
p2439
aVbootloader_print_banner
p2440
aVbootloader_flash_update_id
p2441
aVbootloader_flash_xmc_startup
p2442
atp2443
a(L1920341648L
L3785322319L
(lp2444
(lp2445
Vesp_log_early_timestamp
p2446
atp2447
a(L4223921168L
L3785322319L
(lp2448
(lp2449
Vesp_log_early_timestamp
p2450
atp2451
a(L3360570486L
L0L
(lp2452
(lp2453
tp2454
a(L2444883382L
L3785322319L
(lp2455
(lp2456
Vbootloader_read_bootloader_header
p2457
atp2458
a(L2444883382L
L3785322319L
(lp2459
(lp2460
Vbootloader_check_bootloader_validity
p2461
atp2462
a(L1449254892L
L2485746240L
(lp2463
(lp2464
Vbootloader_flash_gpio_config
p2465
aVbootloader_flash_dummy_config
p2466
aVbootloader_flash_cs_timing_config
p2467
aVbootloader_flash_unlock
p2468
atp2469
a(L51029731L
L0L
(lp2470
(lp2471
tp2472
a(L471947987L
L0L
(lp2473
(lp2474
tp2475
a(L1404489890L
L0L
(lp2476
(lp2477
tp2478
a(L3674001403L
L3785322319L
(lp2479
(lp2480
Vesp_log_early_timestamp
p2481
atp2482
a(L92454083L
L0L
(lp2483
(lp2484
tp2485
a(L96148167L
L0L
(lp2486
(lp2487
tp2488
a(L99842251L
L0L
(lp2489
(lp2490
tp2491
a(L139553654L
L0L
(lp2492
(lp2493
tp2494
a(L1404491141L
L0L
(lp2495
(lp2496
tp2497
a(L1852744844L
L3785322319L
(lp2498
(lp2499
Vesp_log_early_timestamp
p2500
atp2501
a(L93837694L
L0L
(lp2502
(lp2503
tp2504
a(L106L
L0L
(lp2505
(lp2506
tp2507
a(L258083190L
L0L
(lp2508
(lp2509
tp2510
a(L2752571198L
L0L
(lp2511
(lp2512
tp2513
a(L3902507129L
L0L
(lp2514
(lp2515
tp2516
a(L1701707570L
L3785322319L
(lp2517
(lp2518
Vesp_log_early_timestamp
p2519
atp2520
a(L93837694L
L0L
(lp2521
(lp2522
tp2523
a(L106L
L0L
(lp2524
(lp2525
tp2526
a(L3029526157L
L0L
(lp2527
(lp2528
tp2529
a(L2772639124L
L0L
(lp2530
(lp2531
tp2532
a(L2807278488L
L0L
(lp2533
(lp2534
tp2535
a(L3379747486L
L3785322319L
(lp2536
(lp2537
Vbootloader_enable_wp
p2538
atp2539
a(L1266399027L
L0L
(lp2540
(lp2541
tp2542
a(L1895147922L
L0L
(lp2543
(lp2544
tp2545
a(L2166009126L
L3785322319L
(lp2546
(lp2547
Vesp_log_early_timestamp
p2548
atp2549
a(L3639065141L
L0L
(lp2550
(lp2551
tp2552
a(L3616326365L
L0L
(lp2553
(lp2554
tp2555
a(L1129025932L
L0L
(lp2556
(lp2557
tp2558
a(L1569238687L
L3785322319L
(lp2559
(lp2560
Vesp_log_early_timestamp
p2561
atp2562
a(L4263191691L
L1880226080L
(lp2563
(lp2564
Vwdt_reset_info_dump
p2565
aVwdt_reset_info_dump
p2566
atp2567
a(L2752562921L
L0L
(lp2568
(lp2569
tp2570
a(L106L
L0L
(lp2571
(lp2572
tp2573
a(L718636321L
L0L
(lp2574
(lp2575
tp2576
a(L1767021965L
L0L
(lp2577
(lp2578
tp2579
a(L3028481L
L0L
(lp2580
(lp2581
tp2582
a(L3981500492L
L1880226080L
(lp2583
(lp2584
Vbootloader_config_wdt
p2585
aVbootloader_enable_random
p2586
atp2587
atp2588
sI1074238356
(Vbootloader_random_disable
p2589
(lp2590
(L2955563290L
L0L
(lp2591
(lp2592
tp2593
atp2594
sI1074244756
(Vwdt_hal_write_protect_enable
p2595
(lp2596
(L387778158L
L0L
(lp2597
(lp2598
tp2599
a(L4195472003L
L0L
(lp2600
(lp2601
tp2602
a(L3360570486L
L0L
(lp2603
(lp2604
tp2605
a(L802523425L
L0L
(lp2606
(lp2607
tp2608
atp2609
sI1074268828
(Vbootloader_common_vddsdio_configure
p2610
(lp2611
(L1829974089L
L3785322319L
(lp2612
(lp2613
Vrtc_vddsdio_get_config
p2614
atp2615
a(L1489249795L
L3785322319L
(lp2616
(lp2617
Vrtc_vddsdio_set_config
p2618
atp2619
a(L3360570486L
L0L
(lp2620
(lp2621
tp2622
atp2623
sI1074236816
(Vefuse_hal_get_minor_chip_version
p2624
(lp2625
(L1213965243L
L0L
(lp2626
(lp2627
tp2628
atp2629
sI1074241168
(Vprocess_checksum
p2630
(lp2631
(L2795935849L
L0L
(lp2632
(lp2633
tp2634
a(L2910371777L
L0L
(lp2635
(lp2636
tp2637
a(L186886970L
L0L
(lp2638
(lp2639
tp2640
a(L2910371777L
L0L
(lp2641
(lp2642
tp2643
a(L3020204L
L0L
(lp2644
(lp2645
tp2646
a(L2480703612L
L3785322319L
(lp2647
(lp2648
Vbootloader_sha256_data
p2649
atp2650
a(L4179073442L
L0L
(lp2651
(lp2652
tp2653
a(L1811888222L
L3785322319L
(lp2654
(lp2655
Vbootloader_flash_read
p2656
atp2657
a(L3126521138L
L0L
(lp2658
(lp2659
tp2660
a(L4152480608L
L0L
(lp2661
(lp2662
tp2663
a(L422683837L
L3785322319L
(lp2664
(lp2665
Vesp_log_early_timestamp
p2666
atp2667
atp2668
sI1074245264
(Vrtc_clk_bbpll_disable
p2669
(lp2670
(L1638670101L
L0L
(lp2671
(lp2672
tp2673
a(L2472207241L
L0L
(lp2674
(lp2675
tp2676
a(L3360570486L
L0L
(lp2677
(lp2678
tp2679
atp2680
sI1074237340
(Vbootloader_common_get_rtc_retain_mem_partition
p2681
(lp2682
(L1838455070L
L3785322319L
(lp2683
(lp2684
Vcheck_rtc_retain_mem
p2685
atp2686
a(L702737592L
L0L
(lp2687
(lp2688
tp2689
a(L3360570486L
L0L
(lp2690
(lp2691
tp2692
atp2693
sI1074238108
(Vbootloader_flash_write
p2694
(lp2695
(L3770380603L
L0L
(lp2696
(lp2697
tp2698
a(L11206654L
L3785322319L
(lp2699
(lp2700
Vesp_log_early_timestamp
p2701
atp2702
a(L3833270346L
L0L
(lp2703
(lp2704
tp2705
a(L1610445075L
L0L
(lp2706
(lp2707
tp2708
a(L735741265L
L0L
(lp2709
(lp2710
tp2711
a(L3291333414L
L0L
(lp2712
(lp2713
tp2714
a(L4133105311L
L3785322319L
(lp2715
(lp2716
Vesp_log_early_timestamp
p2717
atp2718
a(L3283691850L
L0L
(lp2719
(lp2720
tp2721
a(L3153727887L
L3785322319L
(lp2722
(lp2723
Vesp_log_early_timestamp
p2724
atp2725
a(L3212356251L
L3785322319L
(lp2726
(lp2727
Vbootloader_flash_unlock
p2728
atp2729
a(L1799218633L
L0L
(lp2730
(lp2731
tp2732
a(L94425498L
L3785322319L
(lp2733
(lp2734
Vesp_rom_spiflash_write_encrypted
p2735
atp2736
a(L2927190544L
L3785322319L
(lp2737
(lp2738
Vspi_to_esp_err
p2739
atp2740
a(L2927190544L
L3785322319L
(lp2741
(lp2742
Vesp_rom_spiflash_write
p2743
atp2744
atp2745
sI1074242204
(Vprocess_segments
p2746
(lp2747
(L1018786970L
L0L
(lp2748
(lp2749
tp2750
a(L3285816417L
L0L
(lp2751
(lp2752
tp2753
a(L3782401745L
L0L
(lp2754
(lp2755
tp2756
a(L106L
L0L
(lp2757
(lp2758
tp2759
a(L2411199274L
L0L
(lp2760
(lp2761
tp2762
a(L3859115794L
L3785322319L
(lp2763
(lp2764
Vesp_log_early_timestamp
p2765
atp2766
a(L3085209925L
L3785322319L
(lp2767
(lp2768
Vbootloader_flash_read
p2769
atp2770
a(L1321941419L
L3785322319L
(lp2771
(lp2772
Vesp_log_early_timestamp
p2773
atp2774
a(L3871473710L
L0L
(lp2775
(lp2776
tp2777
a(L234193771L
L0L
(lp2778
(lp2779
tp2780
a(L1635713494L
L3785322319L
(lp2781
(lp2782
Vbootloader_sha256_data
p2783
atp2784
a(L165187679L
L0L
(lp2785
(lp2786
tp2787
a(L334484485L
L0L
(lp2788
(lp2789
tp2790
a(L779903791L
L0L
(lp2791
(lp2792
tp2793
a(L3802067325L
L0L
(lp2794
(lp2795
tp2796
a(L4154583783L
L0L
(lp2797
(lp2798
tp2799
a(L2258867228L
L0L
(lp2800
(lp2801
tp2802
a(L1255782415L
L0L
(lp2803
(lp2804
tp2805
a(L1756760227L
L0L
(lp2806
(lp2807
tp2808
a(L1849436849L
L0L
(lp2809
(lp2810
tp2811
a(L2721353973L
L3785322319L
(lp2812
(lp2813
Vesp_log_early_timestamp
p2814
atp2815
a(L3601900694L
L0L
(lp2816
(lp2817
tp2818
a(L568254959L
L0L
(lp2819
(lp2820
tp2821
a(L2076586057L
L3785322319L
(lp2822
(lp2823
Vesp_log_early_timestamp
p2824
atp2825
a(L1973629750L
L3785322319L
(lp2826
(lp2827
Vverify_load_addresses
p2828
atp2829
a(L106L
L0L
(lp2830
(lp2831
tp2832
a(L914132342L
L0L
(lp2833
(lp2834
tp2835
a(L291460350L
L0L
(lp2836
(lp2837
tp2838
a(L4151532718L
L3785322319L
(lp2839
(lp2840
Vbootloader_mmap
p2841
atp2842
a(L841469546L
L3785322319L
(lp2843
(lp2844
Vesp_log_early_timestamp
p2845
atp2846
a(L442619735L
L0L
(lp2847
(lp2848
tp2849
a(L2651945963L
L0L
(lp2850
(lp2851
tp2852
a(L1652679798L
L3785322319L
(lp2853
(lp2854
Vbootloader_munmap
p2855
atp2856
a(L2993622008L
L0L
(lp2857
(lp2858
tp2859
a(L1216016797L
L3785322319L
(lp2860
(lp2861
Vbootloader_fill_random
p2862
atp2863
a(L3570641403L
L0L
(lp2864
(lp2865
tp2866
a(L3574335487L
L0L
(lp2867
(lp2868
tp2869
a(L3450268858L
L0L
(lp2870
(lp2871
tp2872
a(L3021749L
L0L
(lp2873
(lp2874
tp2875
a(L1609678444L
L0L
(lp2876
(lp2877
tp2878
a(L1777728568L
L0L
(lp2879
(lp2880
tp2881
a(L3020204L
L0L
(lp2882
(lp2883
tp2884
a(L2199858254L
L0L
(lp2885
(lp2886
tp2887
a(L2076461546L
L0L
(lp2888
(lp2889
tp2890
a(L3844184503L
L0L
(lp2891
(lp2892
tp2893
a(L1749969336L
L0L
(lp2894
(lp2895
tp2896
a(L670934548L
L0L
(lp2897
(lp2898
tp2899
a(L781506066L
L3785322319L
(lp2900
(lp2901
Vbootloader_sha256_data
p2902
atp2903
a(L90548756L
L0L
(lp2904
(lp2905
tp2906
a(L4195963580L
L0L
(lp2907
(lp2908
tp2909
a(L2422333549L
L0L
(lp2910
(lp2911
tp2912
a(L3132743422L
L0L
(lp2913
(lp2914
tp2915
a(L249537906L
L3785322319L
(lp2916
(lp2917
Vshould_load
p2918
atp2919
a(L2378267508L
L0L
(lp2920
(lp2921
tp2922
a(L546135627L
L3785322319L
(lp2923
(lp2924
Vesp_log_early_timestamp
p2925
atp2926
a(L3006205939L
L0L
(lp2927
(lp2928
tp2929
a(L307916955L
L0L
(lp2930
(lp2931
tp2932
a(L2800105671L
L0L
(lp2933
(lp2934
tp2935
a(L81630008L
L0L
(lp2936
(lp2937
tp2938
a(L2742376716L
L0L
(lp2939
(lp2940
tp2941
a(L3786494677L
L3785322319L
(lp2942
(lp2943
Vbootloader_mmap_get_free_pages
p2944
atp2945
a(L2685118414L
L0L
(lp2946
(lp2947
tp2948
a(L2091285670L
L0L
(lp2949
(lp2950
tp2951
atp2952
sI1074245784
(Vrtc_clk_fast_src_get
p2953
(lp2954
(L2740077091L
L0L
(lp2955
(lp2956
tp2957
atp2958
sI1074236580
(Vesp_rom_uart_tx_wait_idle
p2959
(lp2960
(L3957152286L
L0L
(lp2961
(lp2962
tp2963
a(L1301079727L
L0L
(lp2964
(lp2965
tp2966
a(L3597746521L
L0L
(lp2967
(lp2968
tp2969
a(L3694491048L
L0L
(lp2970
(lp2971
tp2972
a(L3055926844L
L0L
(lp2973
(lp2974
tp2975
a(L3360570486L
L0L
(lp2976
(lp2977
tp2978
atp2979
sI1074269612
(Vbootloader_flash_update_id
p2980
(lp2981
(L3149875550L
L3785322319L
(lp2982
(lp2983
Vbootloader_read_flash_id
p2984
atp2985
atp2986
sI1074236832
(Vesp_dport_access_reg_read
p2987
(lp2988
(L1099794772L
L0L
(lp2989
(lp2990
tp2991
atp2992
sI1074243744
(Vwdt_hal_init
p2993
(lp2994
(L4007990316L
L0L
(lp2995
(lp2996
tp2997
a(L773637850L
L0L
(lp2998
(lp2999
tp3000
a(L2805934275L
L0L
(lp3001
(lp3002
tp3003
a(L3656214667L
L0L
(lp3004
(lp3005
tp3006
a(L2632832722L
L0L
(lp3007
(lp3008
tp3009
a(L3360570486L
L0L
(lp3010
(lp3011
tp3012
a(L828084267L
L0L
(lp3013
(lp3014
tp3015
atp3016
sI1074245536
(Vrtc_clk_8md256_enabled
p3017
(lp3018
(L2058580096L
L0L
(lp3019
(lp3020
tp3021
atp3022
sI1074238892
(Vcache_ll_l1_enable_bus
p3023
(lp3024
(L1408514293L
L0L
(lp3025
(lp3026
tp3027
atp3028
sI1074237356
(Vbootloader_common_update_rtc_retain_mem
p3029
(lp3030
(L2958000229L
L0L
(lp3031
(lp3032
tp3033
a(L3212356251L
L3785322319L
(lp3034
(lp3035
Vcheck_rtc_retain_mem
p3036
atp3037
a(L94425498L
L3785322319L
(lp3038
(lp3039
Vbootloader_common_reset_rtc_retain_mem
p3040
atp3041
a(L3432218896L
L0L
(lp3042
(lp3043
tp3044
a(L4140856694L
L0L
(lp3045
(lp3046
tp3047
a(L4196778341L
L0L
(lp3048
(lp3049
tp3050
a(L1466453772L
L0L
(lp3051
(lp3052
tp3053
a(L445832892L
L0L
(lp3054
(lp3055
tp3056
atp3057
sI1074236844
(Vis_xmc_chip_strict
p3058
(lp3059
(L1286841609L
L0L
(lp3060
(lp3061
tp3062
a(L2234016759L
L0L
(lp3063
(lp3064
tp3065
a(L1069027148L
L0L
(lp3066
(lp3067
tp3068
a(L3021749L
L0L
(lp3069
(lp3070
tp3071
a(L1900148749L
L0L
(lp3072
(lp3073
tp3074
a(L1936875721L
L0L
(lp3075
(lp3076
tp3077
a(L3356166509L
L0L
(lp3078
(lp3079
tp3080
a(L1937769451L
L0L
(lp3081
(lp3082
tp3083
a(L2137658907L
L0L
(lp3084
(lp3085
tp3086
a(L4265949734L
L0L
(lp3087
(lp3088
tp3089
a(L3360570486L
L0L
(lp3090
(lp3091
tp3092
atp3093
sI1074235564
(Vbootloader_flash_read_sfdp
p3094
(lp3095
(L711701400L
L0L
(lp3096
(lp3097
tp3098
a(L3334003234L
L3785322319L
(lp3099
(lp3100
V__assert_func
p3101
atp3102
a(L3704332455L
L3785322319L
(lp3103
(lp3104
Vbootloader_flash_execute_command_common
p3105
atp3106
atp3107
sI1074235820
(Vbootloader_flash_cs_timing_config
p3108
(lp3109
(L1940014330L
L0L
(lp3110
(lp3111
tp3112
atp3113
sI1074245800
(Vrtc_clk_xtal_freq_get
p3114
(lp3115
(L4123089299L
L0L
(lp3116
(lp3117
tp3118
a(L2847936993L
L0L
(lp3119
(lp3120
tp3121
a(L2344143629L
L0L
(lp3122
(lp3123
tp3124
a(L3360570486L
L0L
(lp3125
(lp3126
tp3127
atp3128
sI1074270904
(Vmpu_hal_set_region_access
p3129
(lp3130
(L3538356822L
L0L
(lp3131
(lp3132
tp3133
a(L93674324L
L0L
(lp3134
(lp3135
tp3136
a(L2910371777L
L0L
(lp3137
(lp3138
tp3139
a(L3472092938L
L0L
(lp3140
(lp3141
tp3142
a(L3020187L
L0L
(lp3143
(lp3144
tp3145
a(L3360570486L
L0L
(lp3146
(lp3147
tp3148
a(L2258718273L
L0L
(lp3149
(lp3150
tp3151
a(L3446648619L
L0L
(lp3152
(lp3153
tp3154
a(L3739532189L
L0L
(lp3155
(lp3156
tp3157
a(L1300789895L
L0L
(lp3158
(lp3159
tp3160
atp3161
sI1074240692
(Vbootloader_debug_buffer
p3162
(lp3163
(L2100504542L
L0L
(lp3164
(lp3165
tp3166
atp3167
sI1074267836
(Vwdt_reset_info_dump
p3168
(lp3169
(L4037466985L
L0L
(lp3170
(lp3171
tp3172
a(L826419141L
L0L
(lp3173
(lp3174
tp3175
a(L527117834L
L0L
(lp3176
(lp3177
tp3178
a(L1103285333L
L0L
(lp3179
(lp3180
tp3181
a(L897464656L
L3785322319L
(lp3182
(lp3183
Vesp_log_early_timestamp
p3184
atp3185
a(L2967992533L
L0L
(lp3186
(lp3187
tp3188
a(L144195250L
L3785322319L
(lp3189
(lp3190
Vesp_log_early_timestamp
p3191
atp3192
a(L2899013701L
L0L
(lp3193
(lp3194
tp3195
atp3196
sI1074269116
(Vbootloader_init_mem
p3197
(lp3198
(L1287383080L
L3785322319L
(lp3199
(lp3200
Vesp_cpu_configure_region_protection
p3201
atp3202
atp3203
sI1074269628
(Vbootloader_clear_bss_section
p3204
(lp3205
(L1133714402L
L0L
(lp3206
(lp3207
tp3208
atp3209
sI1074244784
(Vwdt_hal_enable
p3210
(lp3211
(L2299130915L
L0L
(lp3212
(lp3213
tp3214
a(L165794138L
L0L
(lp3215
(lp3216
tp3217
a(L3360570486L
L0L
(lp3218
(lp3219
tp3220
a(L2847657174L
L0L
(lp3221
(lp3222
tp3223
atp3224
sI1074240700
(Vbootloader_sha256_start
p3225
(lp3226
(L3193196334L
L0L
(lp3227
(lp3228
tp3229
atp3230
sI1074245560
(Vrtc_clk_slow_src_set
p3231
(lp3232
(L2985655365L
L0L
(lp3233
(lp3234
tp3235
a(L3020187L
L0L
(lp3236
(lp3237
tp3238
a(L3028481L
L0L
(lp3239
(lp3240
tp3241
a(L487821223L
L0L
(lp3242
(lp3243
tp3244
a(L2544356762L
L0L
(lp3245
(lp3246
tp3247
a(L1851908495L
L0L
(lp3248
(lp3249
tp3250
a(L382170874L
L0L
(lp3251
(lp3252
tp3253
a(L3138544334L
L0L
(lp3254
(lp3255
tp3256
a(L94425498L
L3785322319L
(lp3257
(lp3258
Vabort
p3259
atp3260
atp3261
sI1074246072
(Vrtc_clk_xtal_freq_update
p3262
(lp3263
(L3699742562L
L0L
(lp3264
(lp3265
tp3266
a(L3509357017L
L0L
(lp3267
(lp3268
tp3269
a(L2266180931L
L0L
(lp3270
(lp3271
tp3272
atp3273
sI1074249144
(V_fini
p3274
(lp3275
(L3493042598L
L0L
(lp3276
(lp3277
tp3278
atp3279
sI1074239936
(Vbootloader_utility_get_selected_boot_partition
p3280
(lp3281
(L2184143128L
L0L
(lp3282
(lp3283
tp3284
a(L3566644432L
L0L
(lp3285
(lp3286
tp3287
a(L552913186L
L3785322319L
(lp3288
(lp3289
Vesp_log_early_timestamp
p3290
atp3291
a(L194246498L
L0L
(lp3292
(lp3293
tp3294
a(L3360570486L
L0L
(lp3295
(lp3296
tp3297
a(L1375577398L
L3785322319L
(lp3298
(lp3299
Vbootloader_mmap
p3300
atp3301
a(L1607319406L
L3785322319L
(lp3302
(lp3303
Vesp_log_early_timestamp
p3304
atp3305
a(L1172158639L
L1880226080L
(lp3306
(lp3307
Vbootloader_munmap
p3308
aVbootloader_common_ota_select_invalid
p3309
atp3310
a(L1103573946L
L0L
(lp3311
(lp3312
tp3313
a(L1876835593L
L3785322319L
(lp3314
(lp3315
Vbootloader_common_get_active_otadata
p3316
atp3317
a(L106L
L0L
(lp3318
(lp3319
tp3320
a(L569346373L
L0L
(lp3321
(lp3322
tp3323
a(L788494392L
L3785322319L
(lp3324
(lp3325
Vbootloader_common_ota_select_invalid
p3326
atp3327
a(L2808859069L
L0L
(lp3328
(lp3329
tp3330
a(L4030290533L
L3785322319L
(lp3331
(lp3332
Vesp_log_early_timestamp
p3333
atp3334
a(L1478688125L
L3785322319L
(lp3335
(lp3336
Vesp_log_early_timestamp
p3337
atp3338
a(L505081345L
L0L
(lp3339
(lp3340
tp3341
a(L919052234L
L3785322319L
(lp3342
(lp3343
Vbootloader_common_ota_select_crc
p3344
atp3345
a(L2287680455L
L0L
(lp3346
(lp3347
tp3348
a(L3542558037L
L3785322319L
(lp3349
(lp3350
Vbootloader_common_ota_select_crc
p3351
atp3352
a(L1299866312L
L0L
(lp3353
(lp3354
tp3355
a(L4084098557L
L0L
(lp3356
(lp3357
tp3358
a(L2808695125L
L3785322319L
(lp3359
(lp3360
Vesp_log_early_timestamp
p3361
atp3362
a(L2867263840L
L0L
(lp3363
(lp3364
tp3365
a(L4142615978L
L3785322319L
(lp3366
(lp3367
Vesp_log_early_timestamp
p3368
atp3369
atp3370
sI1074241984
(Vprocess_appended_hash_and_sig
p3371
(lp3372
(L1668084157L
L0L
(lp3373
(lp3374
tp3375
a(L2910371777L
L0L
(lp3376
(lp3377
tp3378
a(L1591589631L
L0L
(lp3379
(lp3380
tp3381
a(L2551256078L
L0L
(lp3382
(lp3383
tp3384
a(L3685943644L
L0L
(lp3385
(lp3386
tp3387
a(L4010673501L
L3785322319L
(lp3388
(lp3389
Vesp_log_early_timestamp
p3390
atp3391
a(L2268304300L
L3785322319L
(lp3392
(lp3393
Vbootloader_flash_read
p3394
atp3395
a(L3871473710L
L0L
(lp3396
(lp3397
tp3398
atp3399
sI1074247616
(Vesp_rom_spiflash_read_status
p3400
(lp3401
(L2938520357L
L0L
(lp3402
(lp3403
tp3404
a(L1182811815L
L0L
(lp3405
(lp3406
tp3407
a(L2359095695L
L0L
(lp3408
(lp3409
tp3410
a(L106L
L0L
(lp3411
(lp3412
tp3413
a(L1725371117L
L0L
(lp3414
(lp3415
tp3416
a(L3274807848L
L0L
(lp3417
(lp3418
tp3419
a(L2123059967L
L0L
(lp3420
(lp3421
tp3422
a(L3146966332L
L0L
(lp3423
(lp3424
tp3425
a(L2392720019L
L0L
(lp3426
(lp3427
tp3428
atp3429
sI1074245324
(Vrtc_clk_32k_enable
p3430
(lp3431
(L753387299L
L0L
(lp3432
(lp3433
tp3434
a(L3776007933L
L3785322319L
(lp3435
(lp3436
Vrtc_clk_32k_enable_common
p3437
atp3438
a(L3496950L
L0L
(lp3439
(lp3440
tp3441
a(L3320730942L
L0L
(lp3442
(lp3443
tp3444
atp3445
sI1074248140
(Vesp_rom_spiflash_write
p3446
(lp3447
(L3687802361L
L0L
(lp3448
(lp3449
tp3450
a(L2258688483L
L0L
(lp3451
(lp3452
tp3453
a(L3360570486L
L0L
(lp3454
(lp3455
tp3456
a(L3368132847L
L0L
(lp3457
(lp3458
tp3459
a(L3106685981L
L0L
(lp3460
(lp3461
tp3462
a(L3488660639L
L3785322319L
(lp3463
(lp3464
Vesp_rom_spiflash_program_page_internal
p3465
atp3466
a(L3543402353L
L3785322319L
(lp3467
(lp3468
Vesp_rom_spiflash_program_page_internal
p3469
atp3470
a(L4222526342L
L0L
(lp3471
(lp3472
tp3473
a(L2004208511L
L0L
(lp3474
(lp3475
tp3476
a(L564470656L
L0L
(lp3477
(lp3478
tp3479
a(L2988842384L
L3785322319L
(lp3480
(lp3481
Vesp_rom_spiflash_program_page_internal
p3482
atp3483
a(L2302069176L
L0L
(lp3484
(lp3485
tp3486
atp3487
sI1074269124
(Vbootloader_random_enable
p3488
(lp3489
(L1578364810L
L0L
(lp3490
(lp3491
tp3492
atp3493
sI1074269892
(Vbootloader_enable_random
p3494
(lp3495
(L1278562623L
L1880226080L
(lp3496
(lp3497
Vesp_log_early_timestamp
p3498
aVbootloader_random_enable
p3499
atp3500
atp3501
sI1074239432
(Vset_actual_ota_seq
p3502
(lp3503
(L4094723830L
L0L
(lp3504
(lp3505
tp3506
a(L2784201201L
L0L
(lp3507
(lp3508
tp3509
a(L3443552365L
L1832448559L
(lp3510
(lp3511
Vbootloader_common_ota_select_crc
p3512
aVesp_flash_encryption_enabled
p3513
aVbootloader_flash_erase_sector
p3514
atp3515
a(L3103250323L
L3785322319L
(lp3516
(lp3517
Vbootloader_flash_write
p3518
atp3519
a(L2923693340L
L3785322319L
(lp3520
(lp3521
Vesp_log_early_timestamp
p3522
atp3523
a(L3069255795L
L3785322319L
(lp3524
(lp3525
Vesp_log_early_timestamp
p3526
atp3527
a(L889933560L
L1880226080L
(lp3528
(lp3529
Vindex_to_partition
p3530
aVbootloader_common_update_rtc_retain_mem
p3531
atp3532
atp3533
sI1074248392
(Vesp_rom_spiflash_read
p3534
(lp3535
(L3161167155L
L0L
(lp3536
(lp3537
tp3538
a(L2664405459L
L0L
(lp3539
(lp3540
tp3541
a(L340311750L
L0L
(lp3542
(lp3543
tp3544
a(L2355528925L
L0L
(lp3545
(lp3546
tp3547
a(L106L
L0L
(lp3548
(lp3549
tp3550
a(L633884026L
L0L
(lp3551
(lp3552
tp3553
a(L106L
L0L
(lp3554
(lp3555
tp3556
a(L1755585071L
L0L
(lp3557
(lp3558
tp3559
a(L2727407663L
L0L
(lp3560
(lp3561
tp3562
a(L2401097377L
L0L
(lp3563
(lp3564
tp3565
a(L336550648L
L0L
(lp3566
(lp3567
tp3568
a(L1935214967L
L0L
(lp3569
(lp3570
tp3571
a(L106L
L0L
(lp3572
(lp3573
tp3574
a(L3163031942L
L3785322319L
(lp3575
(lp3576
Vesp_rom_spiflash_wait_idle
p3577
atp3578
a(L3021737L
L0L
(lp3579
(lp3580
tp3581
a(L106L
L0L
(lp3582
(lp3583
tp3584
a(L1868280504L
L0L
(lp3585
(lp3586
tp3587
a(L106L
L0L
(lp3588
(lp3589
tp3590
a(L1915067387L
L0L
(lp3591
(lp3592
tp3593
a(L1221163038L
L0L
(lp3594
(lp3595
tp3596
a(L4122060822L
L0L
(lp3597
(lp3598
tp3599
a(L1159904577L
L0L
(lp3600
(lp3601
tp3602
a(L2989032L
L0L
(lp3603
(lp3604
tp3605
a(L3819849625L
L0L
(lp3606
(lp3607
tp3608
a(L3011903627L
L0L
(lp3609
(lp3610
tp3611
a(L961531348L
L0L
(lp3612
(lp3613
tp3614
a(L3901821482L
L0L
(lp3615
(lp3616
tp3617
a(L2760335532L
L0L
(lp3618
(lp3619
tp3620
a(L2921907736L
L0L
(lp3621
(lp3622
tp3623
a(L4023125337L
L0L
(lp3624
(lp3625
tp3626
a(L3542769657L
L0L
(lp3627
(lp3628
tp3629
a(L1790536897L
L0L
(lp3630
(lp3631
tp3632
a(L3350885573L
L0L
(lp3633
(lp3634
tp3635
a(L781550816L
L0L
(lp3636
(lp3637
tp3638
a(L2687789892L
L0L
(lp3639
(lp3640
tp3641
a(L1405253496L
L0L
(lp3642
(lp3643
tp3644
a(L4012933098L
L0L
(lp3645
(lp3646
tp3647
a(L97689L
L0L
(lp3648
(lp3649
tp3650
a(L1183020347L
L0L
(lp3651
(lp3652
tp3653
a(L4014024819L
L0L
(lp3654
(lp3655
tp3656
a(L3621567083L
L0L
(lp3657
(lp3658
tp3659
atp3660
sI1074240720
(Vbootloader_sha256_data
p3661
(lp3662
(L4066096136L
L0L
(lp3663
(lp3664
tp3665
a(L3455000336L
L0L
(lp3666
(lp3667
tp3668
a(L591145840L
L3785322319L
(lp3669
(lp3670
V__assert_func
p3671
atp3672
a(L498498478L
L0L
(lp3673
(lp3674
tp3675
a(L2722495741L
L0L
(lp3676
(lp3677
tp3678
a(L2910371777L
L0L
(lp3679
(lp3680
tp3681
a(L3360570486L
L0L
(lp3682
(lp3683
tp3684
a(L294747366L
L0L
(lp3685
(lp3686
tp3687
a(L541898147L
L0L
(lp3688
(lp3689
tp3690
a(L3411569314L
L0L
(lp3691
(lp3692
tp3693
a(L320800617L
L0L
(lp3694
(lp3695
tp3696
a(L1639420601L
L0L
(lp3697
(lp3698
tp3699
a(L2032890799L
L0L
(lp3700
(lp3701
tp3702
a(L3028464L
L0L
(lp3703
(lp3704
tp3705
a(L1216131626L
L0L
(lp3706
(lp3707
tp3708
a(L309934687L
L0L
(lp3709
(lp3710
tp3711
atp3712
sI1074238672
(Vbootloader_clock_get_rated_freq_mhz
p3713
(lp3714
(L376617603L
L3785322319L
(lp3715
(lp3716
Vefuse_hal_get_rated_freq_mhz
p3717
atp3718
atp3719
sI1074245840
(Vrtc_clk_cpu_freq_mhz_to_config
p3720
(lp3721
(L908718885L
L3785322319L
(lp3722
(lp3723
Vrtc_clk_xtal_freq_get
p3724
atp3725
a(L60460069L
L0L
(lp3726
(lp3727
tp3728
a(L3802072124L
L0L
(lp3729
(lp3730
tp3731
a(L3159006042L
L0L
(lp3732
(lp3733
tp3734
a(L3360570486L
L0L
(lp3735
(lp3736
tp3737
a(L895147205L
L0L
(lp3738
(lp3739
tp3740
a(L3970036657L
L0L
(lp3741
(lp3742
tp3743
a(L2731353429L
L0L
(lp3744
(lp3745
tp3746
a(L1555485793L
L0L
(lp3747
(lp3748
tp3749
a(L2258897023L
L0L
(lp3750
(lp3751
tp3752
a(L1947499251L
L0L
(lp3753
(lp3754
tp3755
a(L1306331021L
L0L
(lp3756
(lp3757
tp3758
atp3759
sI1074270672
(Vrtc_vddsdio_get_config
p3760
(lp3761
(L1424863558L
L0L
(lp3762
(lp3763
tp3764
a(L3421108135L
L0L
(lp3765
(lp3766
tp3767
a(L3002774692L
L0L
(lp3768
(lp3769
tp3770
a(L253680180L
L0L
(lp3771
(lp3772
tp3773
a(L2961852087L
L0L
(lp3774
(lp3775
tp3776
a(L2194851786L
L0L
(lp3777
(lp3778
tp3779
a(L1306330959L
L0L
(lp3780
(lp3781
tp3782
a(L1997193082L
L0L
(lp3783
(lp3784
tp3785
atp3786
sI1074238684
(Vlog_invalid_app_partition
p3787
(lp3788
(L1072650950L
L0L
(lp3789
(lp3790
tp3791
a(L3028464L
L0L
(lp3792
(lp3793
tp3794
a(L345933564L
L3785322319L
(lp3795
(lp3796
Vesp_log_early_timestamp
p3797
atp3798
a(L3833270346L
L0L
(lp3799
(lp3800
tp3801
a(L3360570486L
L0L
(lp3802
(lp3803
tp3804
a(L1843989741L
L3785322319L
(lp3805
(lp3806
Vesp_log_early_timestamp
p3807
atp3808
a(L1868546202L
L3785322319L
(lp3809
(lp3810
Vesp_log_early_timestamp
p3811
atp3812
atp3813
sI1074268884
(Vbootloader_clock_configure
p3814
(lp3815
(L2559598596L
L1880226080L
(lp3816
(lp3817
Vesp_rom_uart_tx_wait_idle
p3818
aVefuse_hal_chip_revision
p3819
atp3820
a(L4006799969L
L0L
(lp3821
(lp3822
tp3823
a(L883406775L
L0L
(lp3824
(lp3825
tp3826
a(L106L
L0L
(lp3827
(lp3828
tp3829
a(L4161070602L
L1832448559L
(lp3830
(lp3831
Vrtc_clk_slow_src_get
p3832
aVrtc_clk_fast_src_get
p3833
aVrtc_clk_init
p3834
atp3835
a(L2587354260L
L0L
(lp3836
(lp3837
tp3838
a(L1108834551L
L3785322319L
(lp3839
(lp3840
Vrtc_clk_apb_freq_get
p3841
atp3842
a(L106L
L0L
(lp3843
(lp3844
tp3845
a(L106L
L0L
(lp3846
(lp3847
tp3848
atp3849
sI1074269652
(Vbootloader_read_bootloader_header
p3850
(lp3851
(L1158061215L
L3785322319L
(lp3852
(lp3853
Vbootloader_flash_read
p3854
atp3855
a(L996487665L
L3785322319L
(lp3856
(lp3857
Vesp_log_early_timestamp
p3858
atp3859
a(L735741265L
L0L
(lp3860
(lp3861
tp3862
atp3863
sI1074236644
(Vesp_rom_uart_set_clock_baudrate
p3864
(lp3865
(L2889646162L
L0L
(lp3866
(lp3867
tp3868
a(L2316512566L
L0L
(lp3869
(lp3870
tp3871
a(L2805931268L
L0L
(lp3872
(lp3873
tp3874
a(L2901979283L
L0L
(lp3875
(lp3876
tp3877
atp3878
sI1074246116
(Vrtc_clk_apb_freq_update
p3879
(lp3880
(L2941089424L
L0L
(lp3881
(lp3882
tp3883
atp3884
sI1074238944
(Vtry_load_partition
p3885
(lp3886
(L1263750142L
L0L
(lp3887
(lp3888
tp3889
a(L2258688482L
L0L
(lp3890
(lp3891
tp3892
a(L3360570486L
L0L
(lp3893
(lp3894
tp3895
a(L530241438L
L3785322319L
(lp3896
(lp3897
Vbootloader_load_image
p3898
atp3899
a(L1342540504L
L3785322319L
(lp3900
(lp3901
Vesp_log_early_timestamp
p3902
atp3903
atp3904
sI1074235616
(Vbootloader_read_flash_id
p3905
(lp3906
(L549578328L
L3785322319L
(lp3907
(lp3908
Vbootloader_execute_flash_command
p3909
atp3910
atp3911
sI1074269920
(Vbootloader_print_banner
p3912
(lp3913
(L137307312L
L1880226080L
(lp3914
(lp3915
Vesp_log_early_timestamp
p3916
aVesp_log_early_timestamp
p3917
atp3918
atp3919
sI1074236916
(Vesp_log_early_timestamp
p3920
(lp3921
(L3733265409L
L0L
(lp3922
(lp3923
tp3924
atp3925
sI1074244340
(Vwdt_hal_config_stage
p3926
(lp3927
(L331558507L
L0L
(lp3928
(lp3929
tp3930
a(L4279082939L
L0L
(lp3931
(lp3932
tp3933
a(L93674324L
L0L
(lp3934
(lp3935
tp3936
a(L2902417580L
L0L
(lp3937
(lp3938
tp3939
a(L3605783182L
L0L
(lp3940
(lp3941
tp3942
a(L3020187L
L0L
(lp3943
(lp3944
tp3945
a(L94425498L
L3785322319L
(lp3946
(lp3947
Vabort
p3948
atp3949
a(L2509818866L
L0L
(lp3950
(lp3951
tp3952
a(L3360570486L
L0L
(lp3953
(lp3954
tp3955
a(L4117086386L
L0L
(lp3956
(lp3957
tp3958
a(L1249229480L
L0L
(lp3959
(lp3960
tp3961
a(L4278159418L
L0L
(lp3962
(lp3963
tp3964
a(L93674324L
L0L
(lp3965
(lp3966
tp3967
a(L3020204L
L0L
(lp3968
(lp3969
tp3970
a(L1217070497L
L0L
(lp3971
(lp3972
tp3973
a(L3020187L
L0L
(lp3974
(lp3975
tp3976
a(L106L
L0L
(lp3977
(lp3978
tp3979
a(L2359897583L
L0L
(lp3980
(lp3981
tp3982
a(L3604452795L
L0L
(lp3983
(lp3984
tp3985
a(L1166103352L
L0L
(lp3986
(lp3987
tp3988
atp3989
sI1074245108
(Vrtc_clk_cpu_freq_to_pll_mhz
p3990
(lp3991
(L1393544349L
L0L
(lp3992
(lp3993
tp3994
a(L405771233L
L0L
(lp3995
(lp3996
tp3997
a(L2931156765L
L0L
(lp3998
(lp3999
tp4000
a(L3298441904L
L0L
(lp4001
(lp4002
tp4003
a(L3680579786L
L0L
(lp4004
(lp4005
tp4006
a(L1298905564L
L0L
(lp4007
(lp4008
tp4009
a(L2151396284L
L3785322319L
(lp4010
(lp4011
Vrtc_clk_wait_for_slow_cycle
p4012
atp4013
a(L1611366957L
L0L
(lp4014
(lp4015
tp4016
a(L1611366988L
L0L
(lp4017
(lp4018
tp4019
a(L94425498L
L3785322319L
(lp4020
(lp4021
Vabort
p4022
atp4023
atp4024
sI1074236400
(Vbootloader_flash_dummy_config
p4025
(lp4026
(L262000646L
L0L
(lp4027
(lp4028
tp4029
a(L2761717557L
L0L
(lp4030
(lp4031
tp4032
a(L1849044936L
L0L
(lp4033
(lp4034
tp4035
a(L708753936L
L0L
(lp4036
(lp4037
tp4038
a(L1010450057L
L0L
(lp4039
(lp4040
tp4041
a(L3020204L
L0L
(lp4042
(lp4043
tp4044
a(L1610443405L
L0L
(lp4045
(lp4046
tp4047
a(L4032120524L
L0L
(lp4048
(lp4049
tp4050
a(L2336993863L
L0L
(lp4051
(lp4052
tp4053
a(L1298875775L
L0L
(lp4054
(lp4055
tp4056
a(L3880393601L
L0L
(lp4057
(lp4058
tp4059
a(L3328946209L
L0L
(lp4060
(lp4061
tp4062
a(L1610443436L
L0L
(lp4063
(lp4064
tp4065
atp4066
sI1074237424
(Vbootloader_common_ota_select_invalid
p4067
(lp4068
(L4027567199L
L0L
(lp4069
(lp4070
tp4071
a(L3397985842L
L0L
(lp4072
(lp4073
tp4074
a(L2258867228L
L0L
(lp4075
(lp4076
tp4077
a(L3785235668L
L0L
(lp4078
(lp4079
tp4080
atp4081
sI1074241532
(Vbootloader_util_regions_overlap
p4082
(lp4083
(L2762640130L
L0L
(lp4084
(lp4085
tp4086
a(L2834975998L
L0L
(lp4087
(lp4088
tp4089
a(L2532576294L
L3785322319L
(lp4090
(lp4091
V__assert_func
p4092
atp4093
a(L97642L
L0L
(lp4094
(lp4095
tp4096
a(L3546681296L
L0L
(lp4097
(lp4098
tp4099
a(L366123053L
L0L
(lp4100
(lp4101
tp4102
a(L2258867228L
L0L
(lp4103
(lp4104
tp4105
a(L1253626734L
L0L
(lp4106
(lp4107
tp4108
a(L2258897019L
L0L
(lp4109
(lp4110
tp4111
a(L3109269495L
L0L
(lp4112
(lp4113
tp4114
atp4115
sI1074240248
(Vbootloader_utility_load_boot_image_from_deep_sleep
p4116
(lp4117
(L3505610841L
L0L
(lp4118
(lp4119
tp4120
a(L4117910119L
L3785322319L
(lp4121
(lp4122
Vbootloader_common_get_rtc_retain_mem_partition
p4123
atp4124
a(L807480887L
L3785322319L
(lp4125
(lp4126
Vbootloader_load_image_no_verify
p4127
atp4128
a(L829797480L
L1832448559L
(lp4129
(lp4130
Vesp_log_early_timestamp
p4131
aVbootloader_common_update_rtc_retain_mem
p4132
aVload_image
p4133
atp4134
a(L828654923L
L1880226080L
(lp4135
(lp4136
Vesp_log_early_timestamp
p4137
aVesp_log_early_timestamp
p4138
atp4139
a(L3360570486L
L0L
(lp4140
(lp4141
tp4142
atp4143
sI1074244856
(Vmmu_hal_init
p4144
(lp4145
(L2407320060L
L0L
(lp4146
(lp4147
tp4148
a(L2010554219L
L0L
(lp4149
(lp4150
tp4151
a(L3268103L
L0L
(lp4152
(lp4153
tp4154
a(L3212334523L
L0L
(lp4155
(lp4156
tp4157
a(L2010554219L
L0L
(lp4158
(lp4159
tp4160
a(L3360570486L
L0L
(lp4161
(lp4162
tp4163
atp4164
ssS'functionsdups'
p4165
g11
((lp4166
tp4167
Rp4168
sS'immediatedups'
p4169
g11
((lp4170
tp4171
Rp4172
sS'functiondups'
p4173
g11
((lp4174
tp4175
Rp4176
sS'fuzzy'
p4177
(dp4178
L438947497L
I1074245560
sL2170867428L
I1074270236
sL617583950L
I1074237048
sL430153639L
I1074235932
sL3121027072L
I1074270672
sL1655084846L
I1074237356
sL2082889262L
I1074241984
sL291131346L
I1074245108
sL835568324L
I1074246988
sL2919016435L
I1074235272
sL16208487L
I1074234760
sL2319042089L
I1074245692
sL3881399234L
I1074246144
sL1613424182L
I1074240248
sL2919036513L
I1074239044
sL151789201L
I1074270052
sL2680783959L
I1074235664
sL3512578114L
I1074238944
sL1419132215L
I1074238276
sL114144873L
I1074237340
sL2469233929L
I1074240876
sL701833459L
I1074268884
sL1270034334L
I1074267724
sL3897252859L
I1074238684
sL1065525808L
I1074236844
sL2327783177L
I1074241168
sL1164839255L
I1074242204
sL2272466760L
I1074245932
sL2117292686L
I1074241588
sL2044047637L
I1074239572
sL1188065553L
I1074237836
sL94556391L
I1074245720
sL3210669721L
I1074245324
sL1332800441L
I1074237280
sL2884218272L
I1074267836
sL1168466927L
I1074268056
sL1345429244L
I1074241340
sL3190020590L
I1074242924
sL4160102055L
I1074240348
sL4202185385L
I1074247704
sL1768086576L
I1074236400
sL4171975289L
I1074248004
sL1565254297L
I1074248304
sL1205407754L
I1074240380
sL2191698036L
I1074269764
sL1513350244L
I1074239936
sL1635528231L
I1074244340
sL519424169L
I1074247456
sL1060788199L
I1074245840
sL99418163L
I1074239432
sL406720601L
I1074238768
sL737694352L
I1074247812
sL503029138L
I1074247752
sL1616763831L
I1074248392
sL2262558768L
I1074247616
sL424867129L
I1074248140
sL3834155367L
I1074241532
sL3338518926L
I1074237560
sL2123938668L
I1074246260
sL3883282432L
I1074242076
sL4173399607L
I1074243456
sL1667054119L
I1074240720
sL206902443L
I1074238108
ssb.