ccopy_reg
_reconstructor
p0
(crizzo
RizzoSignature
p1
c__builtin__
object
p2
Ntp3
Rp4
(dp5
S'formal'
p6
(dp7
L2005196428L
I1074245780
sL3016530374L
I1074248128
sL1741170115L
I1074238256
sL2087186284L
I1074236420
sL1913647619L
I1074270036
sL867946411L
I1074236568
sL3984280162L
I1074244760
sL3746738248L
I1074239648
sL2628804010L
I1074271284
sL4213015302L
I1074243548
sL461860251L
I1074247568
sL286550283L
I1074270104
sL3976424482L
I1074234720
sL552298442L
I1074235288
sL2767810776L
I1074238276
sL2771134728L
I1074240456
sL2400428086L
I1074270140
sL2702580795L
I1074237632
sL2610420647L
I1074269880
sL2896295319L
I1074237156
sL25479346L
I1074240936
sL438696979L
I1074270008
sL1123431371L
I1074239768
sL1331791455L
I1074245872
sL1674148343L
I1074245928
sL1786019146L
I1074247936
sL4023292303L
I1074237708
sL3256726111L
I1074248980
sL2485902447L
I1074236996
sL902150784L
I1074236616
sL723138898L
I1074238436
sL424336643L
I1074269744
sL366218909L
I1074270464
sL368505532L
I1074246204
sL848906711L
I1074249144
sL557383543L
I1074236716
sL353716291L
I1074244960
sL1585823442L
I1074244860
sL1622896354L
I1074244888
sL3092620558L
I1074235688
sL2521269785L
I1074237236
sL3129199843L
I1074236696
sL730944497L
I1074240132
sL2189223198L
I1074240696
sL3580313603L
I1074242200
sL2493713350L
I1074245636
sL827757374L
I1074236764
sL183144L
I1074239100
sL2930276314L
I1074235840
sL4161584248L
I1074268600
sL4175577751L
I1074245008
sL2723725103L
I1074241132
sL1633709340L
I1074245612
sL2813809866L
I1074237020
sL2366387314L
I1074271132
sL1330922710L
I1074247072
sL1731035566L
I1074236832
sL676927194L
I1074268888
sL244922653L
I1074243068
sL2691843063L
I1074246232
sL3307282855L
I1074238416
sL127813144L
I1074243832
sL2834351222L
I1074245180
sL3065846068L
I1074235588
sL3553146178L
I1074267756
sL2195669076L
I1074245588
sL1205792597L
I1074269452
sL357647324L
I1074268896
sL3361686224L
I1074268656
sL3042952135L
I1074267748
sL3721992006L
I1074241148
sL1160735408L
I1074242328
sL1662035087L
I1074267864
sL4038945309L
I1074235640
sL3041505513L
I1074237740
sL1435968304L
I1074245044
sL4178015136L
I1074247736
sL1992104215L
I1074237128
sL1112935418L
I1074234764
sL4020657674L
I1074246344
sL2931540503L
I1074247880
sL1382567621L
I1074238492
sL105563623L
I1074240768
sL2997001746L
I1074237564
sL59949349L
I1074241396
sL1087228788L
I1074239252
sL76756778L
I1074241228
sL556795273L
I1074269812
sL2819127986L
I1074237288
sL3195929028L
I1074240432
sL3101831263L
I1074268088
sL3024810484L
I1074270688
sL1481764497L
I1074237268
sL1877634603L
I1074271356
sL2411516799L
I1074236676
sL2687718384L
I1074243564
sL2789355142L
I1074244444
sL1098683832L
I1074245400
sL3015462521L
I1074238900
sL3066643969L
I1074247536
sL886840080L
I1074237324
sL2062758462L
I1074237060
sL1347401601L
I1074240788
sL2248158928L
I1074238572
sL660825523L
I1074245460
sL3362774716L
I1074236916
sL3338519854L
I1074246160
sL4163357170L
I1074269400
sL2195659785L
I1074245808
sL540472814L
I1074248844
sL2263182908L
I1074238484
sL965583188L
I1074246020
sL114336524L
I1074269768
sL282668036L
I1074244792
sL963291061L
I1074249232
sL3630163135L
I1074237144
sL188664287L
I1074235256
sL2743385701L
I1074269384
sL2404540336L
I1074245752
sL2485146564L
I1074241172
sL692536993L
I1074237604
sL822000404L
I1074245888
sL921639684L
I1074235952
sL235684320L
I1074238000
sL3364903294L
I1074247832
sL675504051L
I1074236816
sL1817360290L
I1074241640
sL917018201L
I1074237228
sL237904351L
I1074241584
sL2758712477L
I1074242112
sL309068699L
I1074245340
sL1140246287L
I1074247028
sL3322869492L
I1074236656
sL2570362575L
I1074238984
sL3958998789L
I1074237948
sL677806744L
I1074236592
sL4029637072L
I1074270512
ssS'immediates'
p8
(dp9
sS'formaldups'
p10
c__builtin__
set
p11
((lp12
tp13
Rp14
sS'stringdups'
p15
g11
((lp16
tp17
Rp18
sS'fuzzydups'
p19
g11
((lp20
tp21
Rp22
sS'strings'
p23
(dp24
sS'functions'
p25
(dp26
I1074236420
(Vbootloader_flash_dummy_config
p27
(lp28
(L2633298977L
L1443213481L
(lp29
(lp30
tp31
a(L2761717557L
L0L
(lp32
(lp33
tp34
a(L1849044936L
L0L
(lp35
(lp36
tp37
a(L2198646520L
L2195759072L
(lp38
(lp39
tp40
a(L1857500547L
L1443213481L
(lp41
(lp42
tp43
a(L3020204L
L0L
(lp44
(lp45
tp46
a(L1610443405L
L0L
(lp47
(lp48
tp49
a(L4032120524L
L0L
(lp50
(lp51
tp52
a(L2336993863L
L0L
(lp53
(lp54
tp55
a(L1298875775L
L0L
(lp56
(lp57
tp58
a(L3880393601L
L0L
(lp59
(lp60
tp61
a(L2272848587L
L1443213481L
(lp62
(lp63
tp64
a(L1610443436L
L0L
(lp65
(lp66
tp67
atp68
sI1074236676
(Vbootloader_write_status_8b_wrsr2
p69
(lp70
(L3772914914L
L3785322319L
(lp71
(lp72
Vbootloader_execute_flash_command
p73
atp74
atp75
sI1074245636
(Vrtc_clk_slow_src_set
p76
(lp77
(L585347011L
L2195759072L
(lp78
(lp79
tp80
a(L3020187L
L0L
(lp81
(lp82
tp83
a(L3028481L
L0L
(lp84
(lp85
tp86
a(L487821223L
L0L
(lp87
(lp88
tp89
a(L4271877108L
L1443213481L
(lp90
(lp91
tp92
a(L1851908495L
L0L
(lp93
(lp94
tp95
a(L1099319264L
L1443213481L
(lp96
(lp97
tp98
a(L3138544334L
L0L
(lp99
(lp100
tp101
a(L94425498L
L3785322319L
(lp102
(lp103
Vabort
p104
atp105
atp106
sI1074269452
(Vbootloader_init_spi_flash
p107
(lp108
(L1705008733L
L2141978918L
(lp109
(lp110
Vbootloader_flash_gpio_config
p111
aVbootloader_flash_dummy_config
p112
aVbootloader_flash_cs_timing_config
p113
aVbootloader_flash_unlock
p114
aVbootloader_enable_qio_mode
p115
atp116
a(L499308289L
L1443213481L
(lp117
(lp118
tp119
a(L1872507246L
L1443213481L
(lp120
(lp121
tp122
a(L147213506L
L1443213481L
(lp123
(lp124
tp125
a(L83726857L
L2426646996L
(lp126
(lp127
Vesp_log_early_timestamp
p128
aVbootloader_flash_get_spi_mode
p129
atp130
a(L93674324L
L0L
(lp131
(lp132
tp133
a(L4183135214L
L1443213481L
(lp134
(lp135
tp136
a(L147213506L
L1443213481L
(lp137
(lp138
tp139
a(L3875746660L
L362179215L
(lp140
(lp141
Vesp_log_early_timestamp
p142
atp143
a(L93674324L
L0L
(lp144
(lp145
tp146
a(L4183135214L
L1443213481L
(lp147
(lp148
tp149
a(L1872507229L
L1443213481L
(lp150
(lp151
tp152
a(L268651496L
L1443213481L
(lp153
(lp154
tp155
a(L1872507229L
L1443213481L
(lp156
(lp157
tp158
a(L1872507229L
L1443213481L
(lp159
(lp160
tp161
a(L268651496L
L1443213481L
(lp162
(lp163
tp164
a(L1872515506L
L1443213481L
(lp165
(lp166
tp167
a(L1005860105L
L3187408090L
(lp168
(lp169
Vesp_log_early_timestamp
p170
atp171
a(L93674324L
L0L
(lp172
(lp173
tp174
a(L3422553167L
L0L
(lp175
(lp176
tp177
a(L1707909459L
L0L
(lp178
(lp179
tp180
a(L4101522284L
L0L
(lp181
(lp182
tp183
a(L3944678822L
L2082837423L
(lp184
(lp185
Vbootloader_enable_wp
p186
atp187
a(L3907331784L
L0L
(lp188
(lp189
tp190
atp191
sI1074240768
(Vbootloader_sha256_start
p192
(lp193
(L1737386262L
L2534110409L
(lp194
(lp195
tp196
atp197
sI1074245888
(Vrtc_clk_xtal_freq_get
p198
(lp199
(L3313072792L
L1443213481L
(lp200
(lp201
tp202
a(L2847936993L
L0L
(lp203
(lp204
tp205
a(L2252934062L
L1443213481L
(lp206
(lp207
tp208
a(L3360570486L
L0L
(lp209
(lp210
tp211
atp212
sI1074247936
(Vesp_rom_spiflash_program_page_internal
p213
(lp214
(L2569069283L
L0L
(lp215
(lp216
tp217
a(L2258688483L
L0L
(lp218
(lp219
tp220
a(L3360570486L
L0L
(lp221
(lp222
tp223
a(L2295540031L
L1443213481L
(lp224
(lp225
tp226
a(L4235661475L
L3785322319L
(lp227
(lp228
Vesp_rom_spiflash_wait_idle
p229
atp230
a(L1299866312L
L0L
(lp231
(lp232
tp233
a(L3212356251L
L3785322319L
(lp234
(lp235
Vesp_rom_spiflash_enable_write
p236
atp237
a(L1834262847L
L2195759072L
(lp238
(lp239
tp240
a(L633937013L
L1443213481L
(lp241
(lp242
tp243
a(L2953702749L
L0L
(lp244
(lp245
tp246
a(L2989032L
L0L
(lp247
(lp248
tp249
a(L1965622133L
L0L
(lp250
(lp251
tp252
a(L809386272L
L2195759072L
(lp253
(lp254
tp255
a(L1958113242L
L0L
(lp256
(lp257
tp258
a(L106L
L0L
(lp259
(lp260
tp261
a(L3112950080L
L0L
(lp262
(lp263
tp264
a(L1868606439L
L0L
(lp265
(lp266
tp267
a(L147213506L
L1443213481L
(lp268
(lp269
tp270
a(L1933954923L
L0L
(lp271
(lp272
tp273
a(L1147866918L
L0L
(lp274
(lp275
tp276
a(L3871602522L
L0L
(lp277
(lp278
tp279
atp280
sI1074249984
(V_fini
p281
(lp282
(L3493042598L
L0L
(lp283
(lp284
tp285
atp286
sI1074267136
(V_init
p287
(lp288
(L3493042598L
L0L
(lp289
(lp290
tp291
atp292
sI1074270464
(Vesp_cpu_configure_region_protection
p293
(lp294
(L3233924472L
L581251951L
(lp295
(lp296
Vmemcpy
p297
atp298
a(L180431425L
L3785322319L
(lp299
(lp300
Vmpu_hal_set_region_access
p301
atp302
a(L2537388152L
L3785322319L
(lp303
(lp304
Vmpu_hal_set_region_access
p305
atp306
atp307
sI1074237708
(Vspi_to_esp_err
p308
(lp309
(L2749733621L
L1443213481L
(lp310
(lp311
tp312
a(L1872507229L
L1443213481L
(lp313
(lp314
tp315
a(L3952441574L
L0L
(lp316
(lp317
tp318
a(L3126521138L
L0L
(lp319
(lp320
tp321
atp322
sI1074238984
(Vcache_ll_l1_get_bus
p323
(lp324
(L2749735183L
L1443213481L
(lp325
(lp326
tp327
a(L94425498L
L3785322319L
(lp328
(lp329
Vabort
p330
atp331
a(L1872514061L
L1443213481L
(lp332
(lp333
tp334
a(L3824526338L
L1443213481L
(lp335
(lp336
tp337
a(L892952750L
L0L
(lp338
(lp339
tp340
a(L1182811810L
L0L
(lp341
(lp342
tp343
a(L1101742417L
L0L
(lp344
(lp345
tp346
a(L1100767927L
L0L
(lp347
(lp348
tp349
a(L3360570486L
L0L
(lp350
(lp351
tp352
a(L1872508791L
L1443213481L
(lp353
(lp354
tp355
a(L2882938163L
L0L
(lp356
(lp357
tp358
a(L2927201858L
L0L
(lp359
(lp360
tp361
a(L2258718273L
L0L
(lp362
(lp363
tp364
a(L2580713941L
L0L
(lp365
(lp366
tp367
a(L1872508791L
L1443213481L
(lp368
(lp369
tp370
a(L1872514061L
L1443213481L
(lp371
(lp372
tp373
a(L1641149277L
L0L
(lp374
(lp375
tp376
a(L1872508791L
L1443213481L
(lp377
(lp378
tp379
a(L3027019L
L0L
(lp380
(lp381
tp382
a(L1299866560L
L0L
(lp383
(lp384
tp385
a(L1299866436L
L0L
(lp386
(lp387
tp388
atp389
sI1074240788
(Vbootloader_sha256_data
p390
(lp391
(L4066096136L
L0L
(lp392
(lp393
tp394
a(L1697654611L
L2195759072L
(lp395
(lp396
tp397
a(L2213948952L
L242900614L
(lp398
(lp399
V__assert_func
p400
atp401
a(L498498478L
L0L
(lp402
(lp403
tp404
a(L3590389832L
L1443213481L
(lp405
(lp406
tp407
a(L2910371777L
L0L
(lp408
(lp409
tp410
a(L3360570486L
L0L
(lp411
(lp412
tp413
a(L1087685526L
L2195759072L
(lp414
(lp415
tp416
a(L426633611L
L1443213481L
(lp417
(lp418
tp419
a(L2584057186L
L1443213481L
(lp420
(lp421
tp422
a(L3342433287L
L1443213481L
(lp423
(lp424
tp425
a(L2526675390L
L242900614L
(lp426
(lp427
V__bswapsi2
p428
atp429
a(L942815853L
L2195759072L
(lp430
(lp431
tp432
a(L1872507229L
L1443213481L
(lp433
(lp434
tp435
a(L147213506L
L1443213481L
(lp436
(lp437
tp438
a(L3745004802L
L0L
(lp439
(lp440
tp441
atp442
sI1074239252
(Vload_image
p443
(lp444
(L3963348381L
L473788538L
(lp445
(lp446
Vesp_log_early_timestamp
p447
aVbootloader_random_disable
p448
aVbootloader_ana_clock_glitch_reset_config
p449
atp450
a(L2261049225L
L0L
(lp451
(lp452
tp453
a(L106L
L0L
(lp454
(lp455
tp456
a(L4185838750L
L1624138773L
(lp457
(lp458
Vmmu_hal_unmap_all
p459
aVcache_ll_l1_get_bus
p460
aVcache_ll_l1_enable_bus
p461
aVcache_ll_l1_get_bus
p462
aVcache_ll_l1_enable_bus
p463
aVcache_ll_l1_get_bus
p464
aVcache_ll_l1_enable_bus
p465
aVcache_ll_l1_get_bus
p466
aVcache_ll_l1_enable_bus
p467
aVbootloader_console_deinit
p468
atp469
a(L2843581588L
L1443213481L
(lp470
(lp471
tp472
a(L2902417580L
L0L
(lp473
(lp474
tp475
a(L3421811081L
L362179215L
(lp476
(lp477
Vesp_log_early_timestamp
p478
atp479
a(L2552261596L
L0L
(lp480
(lp481
tp482
a(L670464924L
L2195759072L
(lp483
(lp484
tp485
a(L3020204L
L0L
(lp486
(lp487
tp488
a(L3421811081L
L362179215L
(lp489
(lp490
Vesp_log_early_timestamp
p491
atp492
a(L3291469664L
L0L
(lp493
(lp494
tp495
a(L2591655545L
L0L
(lp496
(lp497
tp498
atp499
sI1074238484
(Vbootloader_mmap_get_free_pages
p500
(lp501
(L1496516875L
L0L
(lp502
(lp503
tp504
atp505
sI1074248980
(Vesp_rom_spiflash_write
p506
(lp507
(L924384987L
L1679261929L
(lp508
(lp509
tp510
a(L2258688483L
L0L
(lp511
(lp512
tp513
a(L3360570486L
L0L
(lp514
(lp515
tp516
a(L3368132847L
L0L
(lp517
(lp518
tp519
a(L3106685981L
L0L
(lp520
(lp521
tp522
a(L3488660639L
L3785322319L
(lp523
(lp524
Vesp_rom_spiflash_program_page_internal
p525
atp526
a(L3543402353L
L3785322319L
(lp527
(lp528
Vesp_rom_spiflash_program_page_internal
p529
atp530
a(L4222526342L
L0L
(lp531
(lp532
tp533
a(L2004208511L
L0L
(lp534
(lp535
tp536
a(L564470656L
L0L
(lp537
(lp538
tp539
a(L441922648L
L3785322319L
(lp540
(lp541
Vesp_rom_spiflash_program_page_internal
p542
atp543
a(L2302069176L
L0L
(lp544
(lp545
tp546
atp547
sI1074246160
(Vrtc_clk_xtal_freq_update
p548
(lp549
(L3023525581L
L2195759072L
(lp550
(lp551
tp552
a(L3509357017L
L0L
(lp553
(lp554
tp555
a(L2266180931L
L0L
(lp556
(lp557
tp558
atp559
sI1074249232
(Vesp_rom_spiflash_read
p560
(lp561
(L1499485309L
L1690040256L
(lp562
(lp563
tp564
a(L3114780042L
L1679261929L
(lp565
(lp566
tp567
a(L2860271684L
L0L
(lp568
(lp569
tp570
a(L1872504408L
L1443213481L
(lp571
(lp572
tp573
a(L106L
L0L
(lp574
(lp575
tp576
a(L633884026L
L0L
(lp577
(lp578
tp579
a(L106L
L0L
(lp580
(lp581
tp582
a(L1100272902L
L1443213481L
(lp583
(lp584
tp585
a(L1372101025L
L1690040256L
(lp586
(lp587
tp588
a(L974197278L
L2195759072L
(lp589
(lp590
tp591
a(L336550648L
L0L
(lp592
(lp593
tp594
a(L3167414617L
L1443213481L
(lp595
(lp596
tp597
a(L106L
L0L
(lp598
(lp599
tp600
a(L3138763340L
L362179215L
(lp601
(lp602
Vesp_rom_spiflash_wait_idle
p603
atp604
a(L3021737L
L0L
(lp605
(lp606
tp607
a(L106L
L0L
(lp608
(lp609
tp610
a(L1868280504L
L0L
(lp611
(lp612
tp613
a(L106L
L0L
(lp614
(lp615
tp616
a(L750281353L
L0L
(lp617
(lp618
tp619
a(L3897437082L
L0L
(lp620
(lp621
tp622
a(L4122060822L
L0L
(lp623
(lp624
tp625
a(L483218220L
L1443213481L
(lp626
(lp627
tp628
a(L2989032L
L0L
(lp629
(lp630
tp631
a(L3819849625L
L0L
(lp632
(lp633
tp634
a(L1082031446L
L2195759072L
(lp635
(lp636
tp637
a(L1872504408L
L1443213481L
(lp638
(lp639
tp640
a(L147213506L
L1443213481L
(lp641
(lp642
tp643
a(L2062799182L
L2534110409L
(lp644
(lp645
tp646
a(L2921907736L
L0L
(lp647
(lp648
tp649
a(L3677617742L
L1443213481L
(lp650
(lp651
tp652
a(L2483025066L
L1679261929L
(lp653
(lp654
tp655
a(L2136664087L
L1443213481L
(lp656
(lp657
tp658
a(L3000478599L
L2195759072L
(lp659
(lp660
tp661
a(L3333707777L
L0L
(lp662
(lp663
tp664
a(L3251955268L
L0L
(lp665
(lp666
tp667
a(L3418540920L
L0L
(lp668
(lp669
tp670
a(L4183823801L
L1443213481L
(lp671
(lp672
tp673
a(L97689L
L0L
(lp674
(lp675
tp676
a(L2258897019L
L0L
(lp677
(lp678
tp679
a(L4014024819L
L0L
(lp680
(lp681
tp682
a(L3621567083L
L0L
(lp683
(lp684
tp685
atp686
sI1074238492
(Vbootloader_fill_random
p687
(lp688
(L3377511333L
L2195759072L
(lp689
(lp690
tp691
a(L4033043682L
L4032149094L
(lp692
(lp693
V__assert_func
p694
atp695
a(L1882547218L
L0L
(lp696
(lp697
tp698
a(L2910371777L
L0L
(lp699
(lp700
tp701
a(L95634693L
L0L
(lp702
(lp703
tp704
a(L3630908706L
L0L
(lp705
(lp706
tp707
a(L160162640L
L0L
(lp708
(lp709
tp710
a(L97689L
L0L
(lp711
(lp712
tp713
a(L3360570486L
L0L
(lp714
(lp715
tp716
atp717
sI1074236696
(Vbootloader_write_status_16b_wrsr
p718
(lp719
(L1235576642L
L3785322319L
(lp720
(lp721
Vbootloader_execute_flash_command
p722
atp723
atp724
sI1074239768
(Vbootloader_utility_load_partition_table
p725
(lp726
(L3401680957L
L3833084538L
(lp727
(lp728
Vbootloader_mmap
p729
atp730
a(L3861134865L
L2147981551L
(lp731
(lp732
Vesp_log_early_timestamp
p733
atp734
a(L2258688482L
L0L
(lp735
(lp736
tp737
a(L3360570486L
L0L
(lp738
(lp739
tp740
a(L2379286607L
L3785322319L
(lp741
(lp742
Vesp_partition_table_verify
p743
atp744
a(L2695471221L
L2147981551L
(lp745
(lp746
Vesp_log_early_timestamp
p747
atp748
a(L2693125842L
L403192672L
(lp749
(lp750
Vesp_log_early_timestamp
p751
aVesp_log_early_timestamp
p752
atp753
a(L650140130L
L0L
(lp754
(lp755
tp756
a(L2163909172L
L2801279232L
(lp757
(lp758
Vbootloader_munmap
p759
aVesp_log_early_timestamp
p760
atp761
a(L521126897L
L0L
(lp762
(lp763
tp764
a(L3028464L
L0L
(lp765
(lp766
tp767
a(L106L
L0L
(lp768
(lp769
tp770
a(L147213506L
L1443213481L
(lp771
(lp772
tp773
a(L2919580219L
L2147981551L
(lp774
(lp775
Vesp_log_early_timestamp
p776
atp777
a(L3990577774L
L0L
(lp778
(lp779
tp780
a(L3020187L
L0L
(lp781
(lp782
tp783
a(L3201555411L
L1443213481L
(lp784
(lp785
tp786
a(L1843602828L
L1443213481L
(lp787
(lp788
tp789
a(L326114897L
L1443213481L
(lp790
(lp791
tp792
a(L2487812812L
L1443213481L
(lp793
(lp794
tp795
a(L3478727216L
L1443213481L
(lp796
(lp797
tp798
a(L106L
L0L
(lp799
(lp800
tp801
a(L93674324L
L0L
(lp802
(lp803
tp804
a(L1872515523L
L1443213481L
(lp805
(lp806
tp807
a(L1215408024L
L1443213481L
(lp808
(lp809
tp810
a(L1872515506L
L1443213481L
(lp811
(lp812
tp813
a(L106L
L0L
(lp814
(lp815
tp816
a(L1872515506L
L1443213481L
(lp817
(lp818
tp819
a(L106L
L0L
(lp820
(lp821
tp822
a(L268651496L
L1443213481L
(lp823
(lp824
tp825
atp826
sI1074242328
(Vprocess_segments
p827
(lp828
(L1326203493L
L0L
(lp829
(lp830
tp831
a(L1640778736L
L0L
(lp832
(lp833
tp834
a(L3782401745L
L0L
(lp835
(lp836
tp837
a(L106L
L0L
(lp838
(lp839
tp840
a(L3028481L
L0L
(lp841
(lp842
tp843
a(L3014296803L
L3187408090L
(lp844
(lp845
Vesp_log_early_timestamp
p846
atp847
a(L761135359L
L3785322319L
(lp848
(lp849
Vbootloader_flash_read
p850
atp851
a(L3856957476L
L3187408090L
(lp852
(lp853
Vesp_log_early_timestamp
p854
atp855
a(L3871473710L
L0L
(lp856
(lp857
tp858
a(L219417435L
L0L
(lp859
(lp860
tp861
a(L616767314L
L3785322319L
(lp862
(lp863
Vbootloader_sha256_data
p864
atp865
a(L1599301852L
L1443213481L
(lp866
(lp867
tp868
a(L2258837437L
L0L
(lp869
(lp870
tp871
a(L1764156528L
L0L
(lp872
(lp873
tp874
a(L3028481L
L0L
(lp875
(lp876
tp877
a(L2231662647L
L3187408090L
(lp878
(lp879
Vesp_log_early_timestamp
p880
atp881
a(L268651496L
L1443213481L
(lp882
(lp883
tp884
a(L652851030L
L2195759072L
(lp885
(lp886
tp887
a(L3802069243L
L0L
(lp888
(lp889
tp890
a(L3696234693L
L1443213481L
(lp891
(lp892
tp893
a(L2258867228L
L0L
(lp894
(lp895
tp896
a(L2277415887L
L0L
(lp897
(lp898
tp899
a(L3177376558L
L0L
(lp900
(lp901
tp902
a(L3028481L
L0L
(lp903
(lp904
tp905
a(L3861001733L
L3187408090L
(lp906
(lp907
Vesp_log_early_timestamp
p908
atp909
a(L2640606608L
L0L
(lp910
(lp911
tp912
a(L3028481L
L0L
(lp913
(lp914
tp915
a(L3892729576L
L3833084538L
(lp916
(lp917
Vesp_log_early_timestamp
p918
atp919
a(L4033680444L
L404278070L
(lp920
(lp921
tp922
a(L2902417580L
L0L
(lp923
(lp924
tp925
a(L2902417580L
L0L
(lp926
(lp927
tp928
a(L1229952296L
L3785322319L
(lp929
(lp930
Vverify_load_addresses
p931
atp932
a(L3783935185L
L3785322319L
(lp933
(lp934
Vbootloader_mmap_get_free_pages
p935
atp936
a(L3028481L
L0L
(lp937
(lp938
tp939
a(L224879076L
L0L
(lp940
(lp941
tp942
a(L142590671L
L0L
(lp943
(lp944
tp945
a(L3028481L
L0L
(lp946
(lp947
tp948
a(L94425498L
L3785322319L
(lp949
(lp950
Vesp_log_early_timestamp
p951
atp952
a(L1961289970L
L1443213481L
(lp953
(lp954
tp955
a(L4085121624L
L3785322319L
(lp956
(lp957
Vshould_load
p958
atp959
a(L3028481L
L0L
(lp960
(lp961
tp962
a(L1038006420L
L3833084538L
(lp963
(lp964
Vesp_log_early_timestamp
p965
atp966
a(L106L
L0L
(lp967
(lp968
tp969
a(L3815630522L
L0L
(lp970
(lp971
tp972
a(L1646054028L
L3833084538L
(lp973
(lp974
Vesp_log_early_timestamp
p975
atp976
a(L2629678223L
L0L
(lp977
(lp978
tp979
a(L2684012095L
L0L
(lp980
(lp981
tp982
a(L3357777304L
L3785322319L
(lp983
(lp984
Vbootloader_mmap
p985
atp986
a(L3911420474L
L3187408090L
(lp987
(lp988
Vesp_log_early_timestamp
p989
atp990
a(L1698460186L
L0L
(lp991
(lp992
tp993
a(L3264682310L
L1443213481L
(lp994
(lp995
tp996
a(L4016429890L
L242900614L
(lp997
(lp998
Vmemcpy
p999
atp1000
a(L1595421496L
L3785322319L
(lp1001
(lp1002
Vbootloader_munmap
p1003
atp1004
a(L2757579158L
L0L
(lp1005
(lp1006
tp1007
a(L605525844L
L242900614L
(lp1008
(lp1009
Vbootloader_fill_random
p1010
atp1011
a(L3616854679L
L1443213481L
(lp1012
(lp1013
tp1014
a(L3616854679L
L1443213481L
(lp1015
(lp1016
tp1017
a(L3450268858L
L0L
(lp1018
(lp1019
tp1020
a(L3021749L
L0L
(lp1021
(lp1022
tp1023
a(L322434465L
L0L
(lp1024
(lp1025
tp1026
a(L2494883302L
L0L
(lp1027
(lp1028
tp1029
a(L2902417580L
L0L
(lp1030
(lp1031
tp1032
a(L2213415704L
L1443213481L
(lp1033
(lp1034
tp1035
a(L193456747L
L1443213481L
(lp1036
(lp1037
tp1038
a(L1426980959L
L0L
(lp1039
(lp1040
tp1041
a(L1841482652L
L0L
(lp1042
(lp1043
tp1044
a(L653501462L
L0L
(lp1045
(lp1046
tp1047
a(L3310548426L
L3785322319L
(lp1048
(lp1049
Vbootloader_sha256_data
p1050
atp1051
a(L90548756L
L0L
(lp1052
(lp1053
tp1054
a(L1702191967L
L1443213481L
(lp1055
(lp1056
tp1057
a(L2364005371L
L0L
(lp1058
(lp1059
tp1060
atp1061
sI1074244888
(Vwdt_hal_enable
p1062
(lp1063
(L2299130915L
L0L
(lp1064
(lp1065
tp1066
a(L165794138L
L0L
(lp1067
(lp1068
tp1069
a(L3360570486L
L0L
(lp1070
(lp1071
tp1072
a(L2847657174L
L0L
(lp1073
(lp1074
tp1075
atp1076
sI1074245400
(Vrtc_clk_32k_enable
p1077
(lp1078
(L753387299L
L0L
(lp1079
(lp1080
tp1081
a(L3776007933L
L3785322319L
(lp1082
(lp1083
Vrtc_clk_32k_enable_common
p1084
atp1085
a(L3496950L
L0L
(lp1086
(lp1087
tp1088
a(L707626330L
L2534110409L
(lp1089
(lp1090
tp1091
atp1092
sI1074236716
(Vbootloader_read_status_8b_xmc25qu64a
p1093
(lp1094
(L689398057L
L3955484661L
(lp1095
(lp1096
Vbootloader_execute_flash_command
p1097
aVesp_rom_spiflash_wait_idle
p1098
aVbootloader_execute_flash_command
p1099
aVbootloader_execute_flash_command
p1100
atp1101
atp1102
sI1074237228
(Vefuse_hal_get_disable_wafer_version_major
p1103
(lp1104
(L4194175088L
L0L
(lp1105
(lp1106
tp1107
atp1108
sI1074237740
(Vbootloader_mmap
p1109
(lp1110
(L3007611739L
L2195759072L
(lp1111
(lp1112
tp1113
a(L1328961945L
L2147981551L
(lp1114
(lp1115
Vesp_log_early_timestamp
p1116
atp1117
a(L1596194698L
L1443213481L
(lp1118
(lp1119
tp1120
a(L3729184599L
L0L
(lp1121
(lp1122
tp1123
a(L4163264550L
L3187408090L
(lp1124
(lp1125
Vesp_log_early_timestamp
p1126
atp1127
a(L2258688482L
L0L
(lp1128
(lp1129
tp1130
a(L3360570486L
L0L
(lp1131
(lp1132
tp1133
a(L3419814624L
L1443213481L
(lp1134
(lp1135
tp1136
a(L1441818867L
L1690040256L
(lp1137
(lp1138
tp1139
a(L3433564204L
L362179215L
(lp1140
(lp1141
Vesp_log_early_timestamp
p1142
atp1143
a(L2543114737L
L2147981551L
(lp1144
(lp1145
Vesp_log_early_timestamp
p1146
atp1147
a(L1137490703L
L2195759072L
(lp1148
(lp1149
tp1150
atp1151
sI1074235688
(Vbootloader_flash_xmc_startup
p1152
(lp1153
(L3433652179L
L242900614L
(lp1154
(lp1155
Vis_xmc_chip_strict
p1156
atp1157
a(L2258688482L
L0L
(lp1158
(lp1159
tp1160
a(L3360570486L
L0L
(lp1161
(lp1162
tp1163
a(L2860324232L
L3785322319L
(lp1164
(lp1165
Vbootloader_flash_read_sfdp
p1166
atp1167
a(L933155447L
L3609046414L
(lp1168
(lp1169
Vesp_log_early_timestamp
p1170
aVbootloader_execute_flash_command
p1171
aVbootloader_execute_flash_command
p1172
aVbootloader_execute_flash_command
p1173
aVbootloader_execute_flash_command
p1174
aVbootloader_read_flash_id
p1175
aVis_xmc_chip_strict
p1176
atp1177
a(L1000132677L
L3187408090L
(lp1178
(lp1179
Vesp_log_early_timestamp
p1180
atp1181
atp1182
sI1074245928
(Vrtc_clk_cpu_freq_mhz_to_config
p1183
(lp1184
(L908718885L
L3785322319L
(lp1185
(lp1186
Vrtc_clk_xtal_freq_get
p1187
atp1188
a(L60460069L
L0L
(lp1189
(lp1190
tp1191
a(L3802072124L
L0L
(lp1192
(lp1193
tp1194
a(L3159006042L
L0L
(lp1195
(lp1196
tp1197
a(L3360570486L
L0L
(lp1198
(lp1199
tp1200
a(L895147205L
L0L
(lp1201
(lp1202
tp1203
a(L3970036657L
L0L
(lp1204
(lp1205
tp1206
a(L2731353429L
L0L
(lp1207
(lp1208
tp1209
a(L1555485793L
L0L
(lp1210
(lp1211
tp1212
a(L2258897023L
L0L
(lp1213
(lp1214
tp1215
a(L1947499251L
L0L
(lp1216
(lp1217
tp1218
a(L1306331021L
L0L
(lp1219
(lp1220
tp1221
atp1222
sI1074270008
(Vbootloader_enable_random
p1223
(lp1224
(L859804465L
L2704288053L
(lp1225
(lp1226
Vesp_log_early_timestamp
p1227
aVbootloader_random_enable
p1228
atp1229
atp1230
sI1074237236
(Vesp_log_early_timestamp
p1231
(lp1232
(L4015029253L
L1443213481L
(lp1233
(lp1234
tp1235
atp1236
sI1074238256
(Vbootloader_flash_erase_sector
p1237
(lp1238
(L4129137686L
L1880226080L
(lp1239
(lp1240
Vesp_rom_spiflash_erase_sector
p1241
aVspi_to_esp_err
p1242
atp1243
atp1244
sI1074238000
(Vbootloader_flash_read
p1245
(lp1246
(L3022618172L
L0L
(lp1247
(lp1248
tp1249
a(L2493247481L
L2147981551L
(lp1250
(lp1251
Vesp_log_early_timestamp
p1252
atp1253
a(L852987398L
L1443213481L
(lp1254
(lp1255
tp1256
a(L1351513776L
L0L
(lp1257
(lp1258
tp1259
a(L1486740491L
L0L
(lp1260
(lp1261
tp1262
a(L4276228047L
L2147981551L
(lp1263
(lp1264
Vesp_log_early_timestamp
p1265
atp1266
a(L3283691850L
L0L
(lp1267
(lp1268
tp1269
a(L4276228016L
L2147981551L
(lp1270
(lp1271
Vesp_log_early_timestamp
p1272
atp1273
a(L3020204L
L0L
(lp1274
(lp1275
tp1276
a(L384130671L
L0L
(lp1277
(lp1278
tp1279
a(L97422L
L0L
(lp1280
(lp1281
tp1282
a(L515889772L
L2195759072L
(lp1283
(lp1284
tp1285
a(L3321969934L
L1690040256L
(lp1286
(lp1287
tp1288
a(L279744554L
L4032149094L
(lp1289
(lp1290
V__assert_func
p1291
atp1292
a(L4071371888L
L2534110409L
(lp1293
(lp1294
tp1295
a(L2438181396L
L1443213481L
(lp1296
(lp1297
tp1298
a(L1976506429L
L3635241909L
(lp1299
(lp1300
Vesp_rom_spiflash_read
p1301
aVspi_to_esp_err
p1302
atp1303
atp1304
sI1074235952
(Vbootloader_flash_gpio_config
p1305
(lp1306
(L3362256192L
L3785322319L
(lp1307
(lp1308
Vbootloader_common_get_chip_ver_pkg
p1309
atp1310
a(L106L
L0L
(lp1311
(lp1312
tp1313
a(L1998579353L
L0L
(lp1314
(lp1315
tp1316
a(L106L
L0L
(lp1317
(lp1318
tp1319
a(L1839763068L
L1443213481L
(lp1320
(lp1321
tp1322
a(L2440320488L
L1396946377L
(lp1323
(lp1324
tp1325
a(L106L
L0L
(lp1326
(lp1327
tp1328
a(L4003626558L
L0L
(lp1329
(lp1330
tp1331
a(L2164907201L
L2534110409L
(lp1332
(lp1333
tp1334
a(L3360570486L
L0L
(lp1335
(lp1336
tp1337
atp1338
sI1074241584
(Vbootloader_util_regions_overlap
p1339
(lp1340
(L2762640130L
L0L
(lp1341
(lp1342
tp1343
a(L1697654632L
L2195759072L
(lp1344
(lp1345
tp1346
a(L2213948952L
L242900614L
(lp1347
(lp1348
V__assert_func
p1349
atp1350
a(L97642L
L0L
(lp1351
(lp1352
tp1353
a(L1087686177L
L2195759072L
(lp1354
(lp1355
tp1356
a(L366123053L
L0L
(lp1357
(lp1358
tp1359
a(L2258867228L
L0L
(lp1360
(lp1361
tp1362
a(L1253626734L
L0L
(lp1363
(lp1364
tp1365
a(L2258897019L
L0L
(lp1366
(lp1367
tp1368
a(L3109269495L
L0L
(lp1369
(lp1370
tp1371
atp1372
sI1074269744
(Vbootloader_clear_bss_section
p1373
(lp1374
(L2193193874L
L4032149094L
(lp1375
(lp1376
Vmemset
p1377
atp1378
atp1379
sI1074270512
(Vrtc_clk_xtal_freq_estimate
p1380
(lp1381
(L1823831978L
L1880226080L
(lp1382
(lp1383
Vrtc_clk_8m_enabled
p1384
aVrtc_clk_8md256_enabled
p1385
atp1386
a(L2449794434L
L3785322319L
(lp1387
(lp1388
Vrtc_clk_8m_enable
p1389
atp1390
a(L3726876033L
L2704288053L
(lp1391
(lp1392
Vrtc_clk_cal_ratio
p1393
aV__udivdi3
p1394
atp1395
a(L3934977694L
L0L
(lp1396
(lp1397
tp1398
a(L3955289886L
L0L
(lp1399
(lp1400
tp1401
a(L2553207239L
L3187408090L
(lp1402
(lp1403
Vesp_log_early_timestamp
p1404
atp1405
a(L2307427870L
L0L
(lp1406
(lp1407
tp1408
a(L1281346514L
L3785322319L
(lp1409
(lp1410
Vrtc_clk_8m_enable
p1411
atp1412
a(L3909119106L
L0L
(lp1413
(lp1414
tp1415
a(L2298857999L
L3187408090L
(lp1416
(lp1417
Vesp_log_early_timestamp
p1418
atp1419
a(L3304487880L
L0L
(lp1420
(lp1421
tp1422
a(L1641150486L
L0L
(lp1423
(lp1424
tp1425
a(L2026357443L
L3187408090L
(lp1426
(lp1427
Vesp_log_early_timestamp
p1428
atp1429
atp1430
sI1074245180
(Vrtc_clk_cpu_freq_to_pll_mhz
p1431
(lp1432
(L3231135830L
L0L
(lp1433
(lp1434
tp1435
a(L2102627717L
L2195759072L
(lp1436
(lp1437
tp1438
a(L2982280123L
L3380333161L
(lp1439
(lp1440
Vesp_rom_set_cpu_ticks_per_us
p1441
aVrtc_clk_wait_for_slow_cycle
p1442
atp1443
a(L708686908L
L1443213481L
(lp1444
(lp1445
tp1446
a(L3284807114L
L0L
(lp1447
(lp1448
tp1449
a(L94425498L
L3785322319L
(lp1450
(lp1451
Vabort
p1452
atp1453
a(L2258897019L
L0L
(lp1454
(lp1455
tp1456
a(L1113742378L
L0L
(lp1457
(lp1458
tp1459
a(L1306330990L
L0L
(lp1460
(lp1461
tp1462
atp1463
sI1074246204
(Vrtc_clk_apb_freq_update
p1464
(lp1465
(L3982322780L
L1443213481L
(lp1466
(lp1467
tp1468
atp1469
sI1074271284
(Vrtc_vddsdio_set_config
p1470
(lp1471
(L3557742407L
L1443213481L
(lp1472
(lp1473
tp1474
atp1475
sI1074247736
(Vesp_rom_spiflash_read_status
p1476
(lp1477
(L3588638125L
L1443213481L
(lp1478
(lp1479
tp1480
a(L4250092034L
L2534110409L
(lp1481
(lp1482
tp1483
a(L4159619641L
L0L
(lp1484
(lp1485
tp1486
a(L2392720019L
L0L
(lp1487
(lp1488
tp1489
a(L2258688487L
L0L
(lp1490
(lp1491
tp1492
a(L4159619145L
L0L
(lp1493
(lp1494
tp1495
a(L3241763332L
L1443213481L
(lp1496
(lp1497
tp1498
a(L3117156279L
L0L
(lp1499
(lp1500
tp1501
a(L2123059967L
L0L
(lp1502
(lp1503
tp1504
a(L582177370L
L0L
(lp1505
(lp1506
tp1507
atp1508
sI1074269768
(Vbootloader_read_bootloader_header
p1509
(lp1510
(L2948018849L
L242900614L
(lp1511
(lp1512
Vbootloader_flash_read
p1513
atp1514
a(L804259852L
L3187408090L
(lp1515
(lp1516
Vesp_log_early_timestamp
p1517
atp1518
a(L735741265L
L0L
(lp1519
(lp1520
tp1521
atp1522
sI1074238276
(Vbootloader_flash_write
p1523
(lp1524
(L3770380603L
L0L
(lp1525
(lp1526
tp1527
a(L2654201950L
L2147981551L
(lp1528
(lp1529
Vesp_log_early_timestamp
p1530
atp1531
a(L4207910112L
L1443213481L
(lp1532
(lp1533
tp1534
a(L1610445075L
L0L
(lp1535
(lp1536
tp1537
a(L735741265L
L0L
(lp1538
(lp1539
tp1540
a(L3291333414L
L0L
(lp1541
(lp1542
tp1543
a(L416217162L
L2147981551L
(lp1544
(lp1545
Vesp_log_early_timestamp
p1546
atp1547
a(L3283691850L
L0L
(lp1548
(lp1549
tp1550
a(L212182276L
L3187408090L
(lp1551
(lp1552
Vesp_log_early_timestamp
p1553
atp1554
a(L3212356251L
L3785322319L
(lp1555
(lp1556
Vbootloader_flash_unlock
p1557
atp1558
a(L1799218633L
L0L
(lp1559
(lp1560
tp1561
a(L94425498L
L3785322319L
(lp1562
(lp1563
Vesp_rom_spiflash_write_encrypted
p1564
atp1565
a(L2927190544L
L3785322319L
(lp1566
(lp1567
Vspi_to_esp_err
p1568
atp1569
a(L2927190544L
L3785322319L
(lp1570
(lp1571
Vesp_rom_spiflash_write
p1572
atp1573
atp1574
sI1074236996
(Vefuse_hal_chip_revision
p1575
(lp1576
(L2719302832L
L1880226080L
(lp1577
(lp1578
Vefuse_hal_get_major_chip_version
p1579
aVefuse_hal_get_minor_chip_version
p1580
atp1581
atp1582
sI1074242112
(Vprocess_appended_hash_and_sig
p1583
(lp1584
(L1668084157L
L0L
(lp1585
(lp1586
tp1587
a(L2910371777L
L0L
(lp1588
(lp1589
tp1590
a(L4285188111L
L0L
(lp1591
(lp1592
tp1593
a(L1151175705L
L0L
(lp1594
(lp1595
tp1596
a(L97689L
L0L
(lp1597
(lp1598
tp1599
a(L2250231589L
L3187408090L
(lp1600
(lp1601
Vesp_log_early_timestamp
p1602
atp1603
a(L268651496L
L1443213481L
(lp1604
(lp1605
tp1606
a(L1464893571L
L3785322319L
(lp1607
(lp1608
Vbootloader_flash_read
p1609
atp1610
a(L735741265L
L0L
(lp1611
(lp1612
tp1613
atp1614
sI1074245460
(Vrtc_clk_8m_enable
p1615
(lp1616
(L2359152383L
L2195759072L
(lp1617
(lp1618
tp1619
a(L2145669267L
L1443213481L
(lp1620
(lp1621
tp1622
a(L2151320156L
L0L
(lp1623
(lp1624
tp1625
a(L1262936142L
L1443213481L
(lp1626
(lp1627
tp1628
a(L3360570486L
L0L
(lp1629
(lp1630
tp1631
a(L1318267208L
L0L
(lp1632
(lp1633
tp1634
a(L1085208965L
L1443213481L
(lp1635
(lp1636
tp1637
atp1638
sI1074237268
(Vbootloader_common_ota_select_crc
p1639
(lp1640
(L2925798959L
L1443213481L
(lp1641
(lp1642
tp1643
atp1644
sI1074244444
(Vwdt_hal_config_stage
p1645
(lp1646
(L331558507L
L0L
(lp1647
(lp1648
tp1649
a(L4279082939L
L0L
(lp1650
(lp1651
tp1652
a(L93674324L
L0L
(lp1653
(lp1654
tp1655
a(L2902417580L
L0L
(lp1656
(lp1657
tp1658
a(L1506709436L
L1443213481L
(lp1659
(lp1660
tp1661
a(L3020187L
L0L
(lp1662
(lp1663
tp1664
a(L94425498L
L3785322319L
(lp1665
(lp1666
Vabort
p1667
atp1668
a(L1999536000L
L1443213481L
(lp1669
(lp1670
tp1671
a(L3360570486L
L0L
(lp1672
(lp1673
tp1674
a(L2402105077L
L1443213481L
(lp1675
(lp1676
tp1677
a(L3297501927L
L1443213481L
(lp1678
(lp1679
tp1680
a(L4278159418L
L0L
(lp1681
(lp1682
tp1683
a(L93674324L
L0L
(lp1684
(lp1685
tp1686
a(L3020204L
L0L
(lp1687
(lp1688
tp1689
a(L2956541743L
L1443213481L
(lp1690
(lp1691
tp1692
a(L3020187L
L0L
(lp1693
(lp1694
tp1695
a(L106L
L0L
(lp1696
(lp1697
tp1698
a(L1473987957L
L1443213481L
(lp1699
(lp1700
tp1701
a(L927955509L
L1443213481L
(lp1702
(lp1703
tp1704
a(L3740367810L
L1443213481L
(lp1705
(lp1706
tp1707
atp1708
sI1074236764
(Vbootloader_write_status_8b_xmc25qu64a
p1709
(lp1710
(L3301890095L
L494283823L
(lp1711
(lp1712
Vbootloader_execute_flash_command
p1713
aVesp_rom_spiflash_wait_idle
p1714
aVbootloader_execute_flash_command
p1715
aVesp_rom_spiflash_wait_idle
p1716
aVbootloader_execute_flash_command
p1717
atp1718
atp1719
sI1074237020
(Vefuse_hal_flash_encryption_enabled
p1720
(lp1721
(L221474917L
L1443213481L
(lp1722
(lp1723
tp1724
a(L2910371777L
L0L
(lp1725
(lp1726
tp1727
a(L3360570486L
L0L
(lp1728
(lp1729
tp1730
a(L3016870L
L0L
(lp1731
(lp1732
tp1733
a(L3745038218L
L0L
(lp1734
(lp1735
tp1736
a(L957607403L
L0L
(lp1737
(lp1738
tp1739
atp1740
sI1074270036
(Vbootloader_print_banner
p1741
(lp1742
(L3569996224L
L1385564105L
(lp1743
(lp1744
Vesp_bootloader_get_description
p1745
aVesp_log_early_timestamp
p1746
aVesp_log_early_timestamp
p1747
aVesp_log_early_timestamp
p1748
atp1749
atp1750
sI1074246232
(Vrtc_clk_cpu_freq_to_xtal
p1751
(lp1752
(L767415990L
L3785322319L
(lp1753
(lp1754
Vesp_rom_set_cpu_ticks_per_us
p1755
atp1756
a(L94425498L
L3785322319L
(lp1757
(lp1758
Vabort
p1759
atp1760
a(L749912951L
L671729222L
(lp1761
(lp1762
Vrtc_clk_apb_freq_update
p1763
atp1764
a(L2258867230L
L0L
(lp1765
(lp1766
tp1767
a(L1803595874L
L2195759072L
(lp1768
(lp1769
tp1770
atp1771
sI1074267756
(Vcall_start_cpu0
p1772
(lp1773
(L342432055L
L1443213481L
(lp1774
(lp1775
tp1776
a(L4207910112L
L1443213481L
(lp1777
(lp1778
tp1779
a(L3212347974L
L3785322319L
(lp1780
(lp1781
Vbootloader_init
p1782
atp1783
a(L94425498L
L3785322319L
(lp1784
(lp1785
Vbootloader_reset
p1786
atp1787
a(L1872507246L
L1443213481L
(lp1788
(lp1789
tp1790
a(L4207910112L
L1443213481L
(lp1791
(lp1792
tp1793
a(L356913563L
L2218577417L
(lp1794
(lp1795
Vmemset
p1796
aVbootloader_utility_load_partition_table
p1797
atp1798
a(L3014296803L
L3187408090L
(lp1799
(lp1800
Vesp_log_early_timestamp
p1801
atp1802
a(L405422123L
L3785322319L
(lp1803
(lp1804
Vbootloader_utility_get_selected_boot_partition
p1805
atp1806
a(L2025208509L
L242900614L
(lp1807
(lp1808
Vbootloader_utility_load_boot_image
p1809
atp1810
atp1811
sI1074234720
(Vbootloader_common_get_chip_ver_pkg
p1812
(lp1813
(L3197874814L
L1443213481L
(lp1814
(lp1815
tp1816
atp1817
sI1074244960
(Vmmu_hal_unmap_all
p1818
(lp1819
(L3970138582L
L1443213481L
(lp1820
(lp1821
tp1822
a(L2010554219L
L0L
(lp1823
(lp1824
tp1825
a(L147213506L
L1443213481L
(lp1826
(lp1827
tp1828
a(L3212334523L
L0L
(lp1829
(lp1830
tp1831
a(L2010554219L
L0L
(lp1832
(lp1833
tp1834
a(L3360570486L
L0L
(lp1835
(lp1836
tp1837
atp1838
sI1074241132
(Vbootloader_console_deinit
p1839
(lp1840
(L1858531217L
L1443213481L
(lp1841
(lp1842
tp1843
atp1844
sI1074238572
(Vbootloader_random_disable
p1845
(lp1846
(L482324986L
L2935979744L
(lp1847
(lp1848
tp1849
atp1850
sI1074267748
(Vesp_bootloader_get_description
p1851
(lp1852
(L2248573785L
L2195759072L
(lp1853
(lp1854
tp1855
atp1856
sI1074237288
(Vbootloader_common_ota_select_valid
p1857
(lp1858
(L1563399710L
L3785322319L
(lp1859
(lp1860
Vbootloader_common_ota_select_invalid
p1861
atp1862
a(L3814720849L
L3785322319L
(lp1863
(lp1864
Vbootloader_common_ota_select_crc
p1865
atp1866
a(L3360570486L
L0L
(lp1867
(lp1868
tp1869
atp1870
sI1074241640
(Vverify_load_addresses
p1871
(lp1872
(L2764487219L
L0L
(lp1873
(lp1874
tp1875
a(L106L
L0L
(lp1876
(lp1877
tp1878
a(L97642L
L0L
(lp1879
(lp1880
tp1881
a(L1682572953L
L4032149094L
(lp1882
(lp1883
V__assert_func
p1884
atp1885
a(L371731316L
L2195759072L
(lp1886
(lp1887
tp1888
a(L106L
L0L
(lp1889
(lp1890
tp1891
a(L3747671351L
L2195759072L
(lp1892
(lp1893
tp1894
a(L106L
L0L
(lp1895
(lp1896
tp1897
a(L159211233L
L4171435875L
(lp1898
(lp1899
Vbootloader_util_regions_overlap
p1900
atp1901
a(L3369736729L
L581251951L
(lp1902
(lp1903
Vbootloader_util_regions_overlap
p1904
atp1905
a(L3028481L
L0L
(lp1906
(lp1907
tp1908
a(L129067213L
L242900614L
(lp1909
(lp1910
Vbootloader_util_regions_overlap
p1911
atp1912
a(L51970127L
L2534110409L
(lp1913
(lp1914
tp1915
a(L3212477138L
L1443213481L
(lp1916
(lp1917
tp1918
a(L1032381749L
L0L
(lp1919
(lp1920
tp1921
a(L2837304413L
L0L
(lp1922
(lp1923
tp1924
a(L677569396L
L3785322319L
(lp1925
(lp1926
Vverify_load_addresses
p1927
atp1928
a(L1351513776L
L0L
(lp1929
(lp1930
tp1931
a(L956755582L
L0L
(lp1932
(lp1933
tp1934
a(L1550159667L
L1443213481L
(lp1935
(lp1936
tp1937
a(L2297907636L
L2195759072L
(lp1938
(lp1939
tp1940
a(L106L
L0L
(lp1941
(lp1942
tp1943
a(L1378880375L
L2195759072L
(lp1944
(lp1945
tp1946
a(L106L
L0L
(lp1947
(lp1948
tp1949
a(L1933245593L
L581251951L
(lp1950
(lp1951
Vbootloader_util_regions_overlap
p1952
atp1953
a(L3028481L
L0L
(lp1954
(lp1955
tp1956
a(L2219806806L
L581251951L
(lp1957
(lp1958
Vbootloader_util_regions_overlap
p1959
atp1960
a(L3186102034L
L1690040256L
(lp1961
(lp1962
tp1963
a(L1284972329L
L1443213481L
(lp1964
(lp1965
tp1966
a(L3236457224L
L1443213481L
(lp1967
(lp1968
tp1969
a(L2743341656L
L0L
(lp1970
(lp1971
tp1972
a(L182882711L
L0L
(lp1973
(lp1974
tp1975
a(L2268367078L
L2195759072L
(lp1976
(lp1977
tp1978
a(L297163306L
L0L
(lp1979
(lp1980
tp1981
a(L1900059593L
L0L
(lp1982
(lp1983
tp1984
a(L376010266L
L2534110409L
(lp1985
(lp1986
tp1987
a(L1319531632L
L1443213481L
(lp1988
(lp1989
tp1990
a(L3929371936L
L0L
(lp1991
(lp1992
tp1993
a(L147213506L
L1443213481L
(lp1994
(lp1995
tp1996
a(L4072848040L
L0L
(lp1997
(lp1998
tp1999
a(L106L
L0L
(lp2000
(lp2001
tp2002
a(L268651496L
L1443213481L
(lp2003
(lp2004
tp2005
a(L147213506L
L1443213481L
(lp2006
(lp2007
tp2008
a(L3020204L
L0L
(lp2009
(lp2010
tp2011
a(L885671544L
L2275292552L
(lp2012
(lp2013
Vesp_log_early_timestamp
p2014
atp2015
a(L1303560396L
L0L
(lp2016
(lp2017
tp2018
a(L268651496L
L1443213481L
(lp2019
(lp2020
tp2021
a(L1303560427L
L0L
(lp2022
(lp2023
tp2024
atp2025
sI1074241396
(Vprocess_image_header
p2026
(lp2027
(L3301900732L
L2218577417L
(lp2028
(lp2029
Vmemset
p2030
aVbootloader_flash_read
p2031
atp2032
a(L3020204L
L0L
(lp2033
(lp2034
tp2035
a(L4205021202L
L0L
(lp2036
(lp2037
tp2038
a(L321261932L
L0L
(lp2039
(lp2040
tp2041
a(L1161397362L
L3785322319L
(lp2042
(lp2043
Vbootloader_sha256_start
p2044
atp2045
a(L2062774299L
L3785322319L
(lp2046
(lp2047
Vbootloader_sha256_data
p2048
atp2049
a(L1291118193L
L0L
(lp2050
(lp2051
tp2052
a(L3028481L
L0L
(lp2053
(lp2054
tp2055
a(L559062533L
L3187408090L
(lp2056
(lp2057
Vesp_log_early_timestamp
p2058
atp2059
a(L147213506L
L1443213481L
(lp2060
(lp2061
tp2062
a(L2983970029L
L0L
(lp2063
(lp2064
tp2065
a(L4235213884L
L3785322319L
(lp2066
(lp2067
Vbootloader_common_check_chip_validity
p2068
atp2069
a(L4144303915L
L0L
(lp2070
(lp2071
tp2072
a(L3028481L
L0L
(lp2073
(lp2074
tp2075
a(L3714328738L
L3187408090L
(lp2076
(lp2077
Vesp_log_early_timestamp
p2078
atp2079
a(L2852701393L
L0L
(lp2080
(lp2081
tp2082
a(L2122516551L
L0L
(lp2083
(lp2084
tp2085
a(L3064492592L
L0L
(lp2086
(lp2087
tp2088
atp2089
sI1074247028
(Vrtc_clk_apb_freq_get
p2090
(lp2091
(L189810653L
L1679261929L
(lp2092
(lp2093
tp2094
atp2095
sI1074271356
(Vmpu_hal_set_region_access
p2096
(lp2097
(L3538356822L
L0L
(lp2098
(lp2099
tp2100
a(L93674324L
L0L
(lp2101
(lp2102
tp2103
a(L2910371777L
L0L
(lp2104
(lp2105
tp2106
a(L3472092938L
L0L
(lp2107
(lp2108
tp2109
a(L3020187L
L0L
(lp2110
(lp2111
tp2112
a(L3360570486L
L0L
(lp2113
(lp2114
tp2115
a(L2258718273L
L0L
(lp2116
(lp2117
tp2118
a(L3446648619L
L0L
(lp2119
(lp2120
tp2121
a(L3739532189L
L0L
(lp2122
(lp2123
tp2124
a(L1300789895L
L0L
(lp2125
(lp2126
tp2127
atp2128
sI1074247536
(Vrtc_clk_cal_ratio
p2129
(lp2130
(L3870710856L
L195123093L
(lp2131
(lp2132
Vrtc_clk_cal_internal
p2133
aV__udivdi3
p2134
atp2135
atp2136
sI1074241148
(V__assert_func
p2137
(lp2138
(L3115292802L
L2195759072L
(lp2139
(lp2140
tp2141
a(L106L
L0L
(lp2142
(lp2143
tp2144
atp2145
sI1074239100
(Vtry_load_partition
p2146
(lp2147
(L1263750142L
L0L
(lp2148
(lp2149
tp2150
a(L2258688482L
L0L
(lp2151
(lp2152
tp2153
a(L3360570486L
L0L
(lp2154
(lp2155
tp2156
a(L530241438L
L3785322319L
(lp2157
(lp2158
Vbootloader_load_image
p2159
atp2160
a(L4168266278L
L3187408090L
(lp2161
(lp2162
Vesp_log_early_timestamp
p2163
atp2164
atp2165
sI1074237564
(Vbootloader_common_get_active_otadata
p2166
(lp2167
(L3317503532L
L0L
(lp2168
(lp2169
tp2170
a(L2503049265L
L1832448559L
(lp2171
(lp2172
Vbootloader_common_ota_select_valid
p2173
aVbootloader_common_ota_select_valid
p2174
aVbootloader_common_select_otadata
p2175
atp2176
a(L735741265L
L0L
(lp2177
(lp2178
tp2179
atp2180
sI1074269812
(Vbootloader_check_bootloader_validity
p2181
(lp2182
(L2945382592L
L1069700966L
(lp2183
(lp2184
Vefuse_hal_chip_revision
p2185
aVesp_log_early_timestamp
p2186
aVbootloader_common_check_chip_validity
p2187
atp2188
atp2189
sI1074235256
(Vbootloader_execute_flash_command
p2190
(lp2191
(L2481595632L
L3785322319L
(lp2192
(lp2193
Vbootloader_flash_execute_command_common
p2194
atp2195
atp2196
sI1074245752
(Vrtc_clk_slow_src_get
p2197
(lp2198
(L1566794270L
L1443213481L
(lp2199
(lp2200
tp2201
a(L3020187L
L0L
(lp2202
(lp2203
tp2204
a(L2902417580L
L0L
(lp2205
(lp2206
tp2207
a(L2258688485L
L0L
(lp2208
(lp2209
tp2210
a(L3360570486L
L0L
(lp2211
(lp2212
tp2213
atp2214
sI1074240132
(Vbootloader_utility_get_selected_boot_partition
p2215
(lp2216
(L2938832293L
L0L
(lp2217
(lp2218
tp2219
a(L2250662613L
L1443213481L
(lp2220
(lp2221
tp2222
a(L3987062097L
L2147981551L
(lp2223
(lp2224
Vesp_log_early_timestamp
p2225
atp2226
a(L558289164L
L1443213481L
(lp2227
(lp2228
tp2229
a(L3360570486L
L0L
(lp2230
(lp2231
tp2232
a(L3118387733L
L3785322319L
(lp2233
(lp2234
Vbootloader_mmap
p2235
atp2236
a(L3080008394L
L2147981551L
(lp2237
(lp2238
Vesp_log_early_timestamp
p2239
atp2240
a(L937961821L
L2410515468L
(lp2241
(lp2242
Vmemcpy
p2243
aVmemcpy
p2244
aVbootloader_munmap
p2245
aVbootloader_common_ota_select_invalid
p2246
atp2247
a(L2911028409L
L0L
(lp2248
(lp2249
tp2250
a(L726754926L
L3785322319L
(lp2251
(lp2252
Vbootloader_common_get_active_otadata
p2253
atp2254
a(L106L
L0L
(lp2255
(lp2256
tp2257
a(L4179097382L
L0L
(lp2258
(lp2259
tp2260
a(L788494392L
L3785322319L
(lp2261
(lp2262
Vbootloader_common_ota_select_invalid
p2263
atp2264
a(L638952356L
L1443213481L
(lp2265
(lp2266
tp2267
a(L1522345576L
L3833084538L
(lp2268
(lp2269
Vesp_log_early_timestamp
p2270
atp2271
a(L4207910112L
L1443213481L
(lp2272
(lp2273
tp2274
a(L1641201884L
L0L
(lp2275
(lp2276
tp2277
a(L3196944801L
L2147981551L
(lp2278
(lp2279
Vesp_log_early_timestamp
p2280
atp2281
a(L2302032704L
L0L
(lp2282
(lp2283
tp2284
a(L1173788779L
L3785322319L
(lp2285
(lp2286
Vbootloader_common_ota_select_crc
p2287
atp2288
a(L178397698L
L1443213481L
(lp2289
(lp2290
tp2291
a(L1324800084L
L3785322319L
(lp2292
(lp2293
Vbootloader_common_ota_select_crc
p2294
atp2295
a(L1299866312L
L0L
(lp2296
(lp2297
tp2298
a(L2704362655L
L1443213481L
(lp2299
(lp2300
tp2301
a(L344024800L
L3833084538L
(lp2302
(lp2303
Vesp_log_early_timestamp
p2304
atp2305
a(L1194215008L
L3833084538L
(lp2306
(lp2307
Vesp_log_early_timestamp
p2308
atp2309
atp2310
sI1074237060
(Vefuse_hal_get_major_chip_version
p2311
(lp2312
(L1572156932L
L2195759072L
(lp2313
(lp2314
tp2315
a(L894792960L
L0L
(lp2316
(lp2317
tp2318
a(L724635033L
L0L
(lp2319
(lp2320
tp2321
a(L3360570486L
L0L
(lp2322
(lp2323
tp2324
atp2325
sI1074246020
(Vrtc_clk_cpu_freq_get_config
p2326
(lp2327
(L4245581454L
L1443213481L
(lp2328
(lp2329
tp2330
a(L3020187L
L0L
(lp2331
(lp2332
tp2333
a(L3020187L
L0L
(lp2334
(lp2335
tp2336
a(L2734221335L
L242900614L
(lp2337
(lp2338
Vrtc_clk_xtal_freq_get
p2339
atp2340
a(L3789795478L
L0L
(lp2341
(lp2342
tp2343
a(L672805395L
L2704288053L
(lp2344
(lp2345
Vesp_log_early_timestamp
p2346
aVabort
p2347
atp2348
a(L3849169076L
L1443213481L
(lp2349
(lp2350
tp2351
a(L3020187L
L0L
(lp2352
(lp2353
tp2354
a(L3028481L
L0L
(lp2355
(lp2356
tp2357
a(L38508693L
L0L
(lp2358
(lp2359
tp2360
a(L187152368L
L0L
(lp2361
(lp2362
tp2363
a(L1161083655L
L0L
(lp2364
(lp2365
tp2366
a(L1395485899L
L0L
(lp2367
(lp2368
tp2369
a(L2070600034L
L0L
(lp2370
(lp2371
tp2372
atp2373
sI1074234752
(Vesp_flash_encryption_enabled
p2374
(lp2375
(L376617603L
L3785322319L
(lp2376
(lp2377
Vefuse_hal_flash_encryption_enabled
p2378
atp2379
atp2380
sI1074237324
(Vbootloader_common_check_chip_validity
p2381
(lp2382
(L2080115690L
L0L
(lp2383
(lp2384
tp2385
a(L3255759481L
L3187408090L
(lp2386
(lp2387
Vesp_log_early_timestamp
p2388
atp2389
a(L1299867982L
L0L
(lp2390
(lp2391
tp2392
a(L3360570486L
L0L
(lp2393
(lp2394
tp2395
a(L521940037L
L3785322319L
(lp2396
(lp2397
Vefuse_hal_chip_revision
p2398
atp2399
a(L332291457L
L1443213481L
(lp2400
(lp2401
tp2402
a(L780168284L
L362179215L
(lp2403
(lp2404
Vesp_log_early_timestamp
p2405
atp2406
a(L3028464L
L0L
(lp2407
(lp2408
tp2409
a(L573448730L
L0L
(lp2410
(lp2411
tp2412
a(L106L
L0L
(lp2413
(lp2414
tp2415
a(L3027019L
L0L
(lp2416
(lp2417
tp2418
a(L106L
L0L
(lp2419
(lp2420
tp2421
a(L3212356251L
L3785322319L
(lp2422
(lp2423
Vefuse_hal_get_disable_wafer_version_major
p2424
atp2425
a(L2465410698L
L362179215L
(lp2426
(lp2427
Vesp_log_early_timestamp
p2428
atp2429
atp2430
sI1074234764
(Vbootloader_flash_execute_command_common
p2431
(lp2432
(L1988465817L
L0L
(lp2433
(lp2434
tp2435
a(L2946944720L
L2195759072L
(lp2436
(lp2437
tp2438
a(L2213948952L
L242900614L
(lp2439
(lp2440
V__assert_func
p2441
atp2442
a(L3021749L
L0L
(lp2443
(lp2444
tp2445
a(L1160973241L
L2195759072L
(lp2446
(lp2447
tp2448
a(L2792673601L
L1679261929L
(lp2449
(lp2450
tp2451
a(L3792188146L
L0L
(lp2452
(lp2453
tp2454
a(L4024113366L
L0L
(lp2455
(lp2456
tp2457
a(L3275299125L
L1443213481L
(lp2458
(lp2459
tp2460
a(L2232084959L
L2534110409L
(lp2461
(lp2462
tp2463
a(L1099389923L
L0L
(lp2464
(lp2465
tp2466
a(L857553440L
L2195759072L
(lp2467
(lp2468
tp2469
a(L3877681344L
L0L
(lp2470
(lp2471
tp2472
a(L73134175L
L1443213481L
(lp2473
(lp2474
tp2475
a(L1270255739L
L0L
(lp2476
(lp2477
tp2478
a(L3691039583L
L0L
(lp2479
(lp2480
tp2481
a(L3411317116L
L0L
(lp2482
(lp2483
tp2484
a(L3360570486L
L0L
(lp2485
(lp2486
tp2487
atp2488
sI1074248844
(Vesp_rom_spiflash_erase_sector
p2489
(lp2490
(L3892694408L
L1679261929L
(lp2491
(lp2492
tp2493
a(L2258688483L
L0L
(lp2494
(lp2495
tp2496
a(L3360570486L
L0L
(lp2497
(lp2498
tp2499
a(L3212356251L
L3785322319L
(lp2500
(lp2501
Vesp_rom_spiflash_enable_write
p2502
atp2503
a(L184152988L
L0L
(lp2504
(lp2505
tp2506
a(L1036552696L
L362179215L
(lp2507
(lp2508
Vesp_rom_spiflash_wait_idle
p2509
atp2510
a(L3333707777L
L0L
(lp2511
(lp2512
tp2513
a(L3582858798L
L3785322319L
(lp2514
(lp2515
Vesp_rom_spiflash_wait_idle
p2516
atp2517
atp2518
sI1074270104
(Vbootloader_console_init
p2519
(lp2520
(L3806010175L
L988378406L
(lp2521
(lp2522
Vesp_rom_uart_tx_wait_idle
p2523
aVrtc_clk_apb_freq_get
p2524
aVesp_rom_uart_set_clock_baudrate
p2525
atp2526
atp2527
sI1074241172
(Vabort
p2528
(lp2529
(L2564459292L
L1690040256L
(lp2530
(lp2531
tp2532
a(L409471316L
L0L
(lp2533
(lp2534
tp2535
a(L106L
L0L
(lp2536
(lp2537
tp2538
atp2539
sI1074245780
(Vrtc_clk_slow_freq_get_hz
p2540
(lp2541
(L1826267122L
L3785322319L
(lp2542
(lp2543
Vrtc_clk_slow_src_get
p2544
atp2545
a(L1872507229L
L1443213481L
(lp2546
(lp2547
tp2548
a(L2221201615L
L1443213481L
(lp2549
(lp2550
tp2551
a(L3360570486L
L0L
(lp2552
(lp2553
tp2554
atp2555
sI1074271132
(Vrtc_vddsdio_get_config
p2556
(lp2557
(L3097658956L
L1443213481L
(lp2558
(lp2559
tp2560
a(L1750635626L
L0L
(lp2561
(lp2562
tp2563
a(L3193418487L
L0L
(lp2564
(lp2565
tp2566
a(L3511111289L
L1443213481L
(lp2567
(lp2568
tp2569
a(L115635292L
L0L
(lp2570
(lp2571
tp2572
a(L896053863L
L0L
(lp2573
(lp2574
tp2575
a(L1306330959L
L0L
(lp2576
(lp2577
tp2578
a(L1783408782L
L1443213481L
(lp2579
(lp2580
tp2581
atp2582
sI1074236816
(Vesp_rom_set_cpu_ticks_per_us
p2583
(lp2584
(L396058732L
L2195759072L
(lp2585
(lp2586
tp2587
atp2588
sI1074245008
(Vefuse_hal_get_rated_freq_mhz
p2589
(lp2590
(L1158870592L
L1443213481L
(lp2591
(lp2592
tp2593
a(L338960367L
L0L
(lp2594
(lp2595
tp2596
a(L3360570486L
L0L
(lp2597
(lp2598
tp2599
atp2600
sI1074247568
(Vrtc_clk_wait_for_slow_cycle
p2601
(lp2602
(L2844697221L
L2624587680L
(lp2603
(lp2604
tp2605
a(L287687718L
L0L
(lp2606
(lp2607
tp2608
a(L3360570486L
L0L
(lp2609
(lp2610
tp2611
a(L3843203427L
L1443213481L
(lp2612
(lp2613
tp2614
a(L1300789833L
L0L
(lp2615
(lp2616
tp2617
a(L1259765481L
L0L
(lp2618
(lp2619
tp2620
a(L17340776L
L1443213481L
(lp2621
(lp2622
tp2623
a(L329680227L
L3187408090L
(lp2624
(lp2625
Vesp_log_early_timestamp
p2626
atp2627
atp2628
sI1074236568
(Vbootloader_read_status_8b_rdsr
p2629
(lp2630
(L1945786777L
L3785322319L
(lp2631
(lp2632
Vbootloader_execute_flash_command
p2633
atp2634
atp2635
sI1074235288
(Vbootloader_flash_unlock
p2636
(lp2637
(L1368360454L
L242900614L
(lp2638
(lp2639
Vesp_rom_spiflash_wait_idle
p2640
atp2641
a(L1574074940L
L0L
(lp2642
(lp2643
tp2644
a(L1667462067L
L3785322319L
(lp2645
(lp2646
Vbootloader_execute_flash_command
p2647
atp2648
a(L106L
L0L
(lp2649
(lp2650
tp2651
a(L1013678540L
L0L
(lp2652
(lp2653
tp2654
a(L2529045083L
L0L
(lp2655
(lp2656
tp2657
a(L990750093L
L1832448559L
(lp2658
(lp2659
Vesp_rom_spiflash_wait_idle
p2660
aVbootloader_execute_flash_command
p2661
aVbootloader_execute_flash_command
p2662
atp2663
a(L993671302L
L1832448559L
(lp2664
(lp2665
Vesp_rom_spiflash_wait_idle
p2666
aVbootloader_execute_flash_command
p2667
aVbootloader_execute_flash_command
p2668
atp2669
a(L1209048744L
L1880226080L
(lp2670
(lp2671
Vesp_rom_spiflash_wait_idle
p2672
aVbootloader_execute_flash_command
p2673
atp2674
a(L3162775668L
L0L
(lp2675
(lp2676
tp2677
a(L2435612105L
L0L
(lp2678
(lp2679
tp2680
a(L3664359624L
L0L
(lp2681
(lp2682
tp2683
a(L2074930120L
L1880226080L
(lp2684
(lp2685
Vbootloader_execute_flash_command
p2686
aVbootloader_execute_flash_command
p2687
atp2688
a(L2125014318L
L0L
(lp2689
(lp2690
tp2691
a(L568821667L
L0L
(lp2692
(lp2693
tp2694
a(L1711531685L
L1880226080L
(lp2695
(lp2696
Vbootloader_execute_flash_command
p2697
aVbootloader_execute_flash_command
p2698
atp2699
a(L3658700047L
L0L
(lp2700
(lp2701
tp2702
a(L3269997774L
L0L
(lp2703
(lp2704
tp2705
a(L106L
L0L
(lp2706
(lp2707
tp2708
a(L2993202392L
L0L
(lp2709
(lp2710
tp2711
atp2712
sI1074242200
(Vshould_load
p2713
(lp2714
(L4190720747L
L2534110409L
(lp2715
(lp2716
tp2717
a(L1182990556L
L0L
(lp2718
(lp2719
tp2720
a(L1744532171L
L1443213481L
(lp2721
(lp2722
tp2723
a(L2306467100L
L0L
(lp2724
(lp2725
tp2726
a(L4034276159L
L1443213481L
(lp2727
(lp2728
tp2729
a(L2258897019L
L0L
(lp2730
(lp2731
tp2732
a(L3781799363L
L0L
(lp2733
(lp2734
tp2735
a(L3028464L
L0L
(lp2736
(lp2737
tp2738
a(L166133047L
L2195759072L
(lp2739
(lp2740
tp2741
a(L4277114872L
L0L
(lp2742
(lp2743
tp2744
a(L2824381917L
L0L
(lp2745
(lp2746
tp2747
a(L1243412227L
L0L
(lp2748
(lp2749
tp2750
a(L2011157548L
L0L
(lp2751
(lp2752
tp2753
a(L3126521138L
L0L
(lp2754
(lp2755
tp2756
a(L1305407438L
L0L
(lp2757
(lp2758
tp2759
a(L1305407469L
L0L
(lp2760
(lp2761
tp2762
atp2763
sI1074244760
(Vwdt_hal_write_protect_disable
p2764
(lp2765
(L3085072089L
L1443213481L
(lp2766
(lp2767
tp2768
a(L4195472003L
L0L
(lp2769
(lp2770
tp2771
a(L3360570486L
L0L
(lp2772
(lp2773
tp2774
a(L1210571996L
L0L
(lp2775
(lp2776
tp2777
atp2778
sI1074247832
(Vesp_rom_spiflash_wait_idle
p2779
(lp2780
(L1698121947L
L1443213481L
(lp2781
(lp2782
tp2783
a(L2023766174L
L0L
(lp2784
(lp2785
tp2786
a(L147213506L
L1443213481L
(lp2787
(lp2788
tp2789
a(L3086959262L
L0L
(lp2790
(lp2791
tp2792
a(L4161019926L
L3785322319L
(lp2793
(lp2794
Vesp_rom_spiflash_read_status
p2795
atp2796
atp2797
sI1074237604
(Vbootloader_common_ota_select_invalid
p2798
(lp2799
(L4027567199L
L0L
(lp2800
(lp2801
tp2802
a(L3397985842L
L0L
(lp2803
(lp2804
tp2805
a(L2258867228L
L0L
(lp2806
(lp2807
tp2808
a(L3785235668L
L0L
(lp2809
(lp2810
tp2811
atp2812
sI1074236832
(Vesp_rom_uart_tx_wait_idle
p2813
(lp2814
(L3110839460L
L2534110409L
(lp2815
(lp2816
tp2817
a(L1301079727L
L0L
(lp2818
(lp2819
tp2820
a(L597952197L
L0L
(lp2821
(lp2822
tp2823
a(L1971823332L
L0L
(lp2824
(lp2825
tp2826
a(L3055926844L
L0L
(lp2827
(lp2828
tp2829
a(L3360570486L
L0L
(lp2830
(lp2831
tp2832
a(L3694491048L
L0L
(lp2833
(lp2834
tp2835
a(L106L
L0L
(lp2836
(lp2837
tp2838
atp2839
sI1074239648
(Vset_actual_ota_seq
p2840
(lp2841
(L4094723830L
L0L
(lp2842
(lp2843
tp2844
a(L3504298995L
L2195759072L
(lp2845
(lp2846
tp2847
a(L3856681007L
L961634322L
(lp2848
(lp2849
Vmemset
p2850
aVbootloader_common_ota_select_crc
p2851
aVesp_flash_encryption_enabled
p2852
aVbootloader_flash_erase_sector
p2853
atp2854
a(L2768623893L
L3785322319L
(lp2855
(lp2856
Vbootloader_flash_write
p2857
atp2858
a(L3693339703L
L2147981551L
(lp2859
(lp2860
Vesp_log_early_timestamp
p2861
atp2862
a(L3903819434L
L2147981551L
(lp2863
(lp2864
Vesp_log_early_timestamp
p2865
atp2866
a(L3360570486L
L0L
(lp2867
(lp2868
tp2869
atp2870
sI1074247072
(Vrtc_clk_cal_internal
p2871
(lp2872
(L4103044880L
L1443213481L
(lp2873
(lp2874
tp2875
a(L3906046821L
L4032149094L
(lp2876
(lp2877
V__assert_func
p2878
atp2879
a(L3821006588L
L1443213481L
(lp2880
(lp2881
tp2882
a(L1673513644L
L0L
(lp2883
(lp2884
tp2885
a(L2719210992L
L4021370767L
(lp2886
(lp2887
Vrtc_clk_slow_src_get
p2888
atp2889
a(L3008910671L
L0L
(lp2890
(lp2891
tp2892
a(L97689L
L0L
(lp2893
(lp2894
tp2895
a(L1872507229L
L1443213481L
(lp2896
(lp2897
tp2898
a(L3028464L
L0L
(lp2899
(lp2900
tp2901
a(L3028481L
L0L
(lp2902
(lp2903
tp2904
a(L147213506L
L1443213481L
(lp2905
(lp2906
tp2907
a(L3455571058L
L1374507264L
(lp2908
(lp2909
V__udivdi3
p2910
aVrtc_clk_xtal_freq_get
p2911
atp2912
a(L2780079961L
L0L
(lp2913
(lp2914
tp2915
a(L4208562267L
L1443213481L
(lp2916
(lp2917
tp2918
a(L4114459891L
L3187408090L
(lp2919
(lp2920
Vesp_log_early_timestamp
p2921
atp2922
a(L2258688482L
L0L
(lp2923
(lp2924
tp2925
a(L3360570486L
L0L
(lp2926
(lp2927
tp2928
a(L3553505594L
L0L
(lp2929
(lp2930
tp2931
a(L403361192L
L0L
(lp2932
(lp2933
tp2934
a(L3243404432L
L3785322319L
(lp2935
(lp2936
Vrtc_clk_8m_enable
p2937
atp2938
a(L390546255L
L2195759072L
(lp2939
(lp2940
tp2941
a(L3586367509L
L1443213481L
(lp2942
(lp2943
tp2944
a(L2910371777L
L0L
(lp2945
(lp2946
tp2947
a(L2902417580L
L0L
(lp2948
(lp2949
tp2950
a(L3082259486L
L1443213481L
(lp2951
(lp2952
tp2953
a(L3020204L
L0L
(lp2954
(lp2955
tp2956
a(L603598685L
L1443213481L
(lp2957
(lp2958
tp2959
a(L3429540926L
L0L
(lp2960
(lp2961
tp2962
a(L3028464L
L0L
(lp2963
(lp2964
tp2965
a(L615477255L
L242900614L
(lp2966
(lp2967
Vrtc_clk_8m_enable
p2968
atp2969
atp2970
sI1074239148
(Vcache_ll_l1_enable_bus
p2971
(lp2972
(L318252209L
L1443213481L
(lp2973
(lp2974
tp2975
atp2976
sI1074238888
(Vbootloader_clock_get_rated_freq_mhz
p2977
(lp2978
(L376617603L
L3785322319L
(lp2979
(lp2980
Vefuse_hal_get_rated_freq_mhz
p2981
atp2982
atp2983
sI1074240936
(Vbootloader_sha256_finish
p2984
(lp2985
(L4066096136L
L0L
(lp2986
(lp2987
tp2988
a(L1697654722L
L2195759072L
(lp2989
(lp2990
tp2991
a(L2213948952L
L242900614L
(lp2992
(lp2993
V__assert_func
p2994
atp2995
a(L3020204L
L0L
(lp2996
(lp2997
tp2998
a(L2888288470L
L2534110409L
(lp2999
(lp3000
tp3001
a(L2534656226L
L0L
(lp3002
(lp3003
tp3004
a(L2740629735L
L4171435875L
(lp3005
(lp3006
Vbootloader_sha256_data
p3007
atp3008
a(L2946948570L
L2195759072L
(lp3009
(lp3010
tp3011
a(L354914383L
L2790500905L
(lp3012
(lp3013
V__bswapsi2
p3014
aVbootloader_sha256_data
p3015
atp3016
a(L2946948756L
L2195759072L
(lp3017
(lp3018
tp3019
a(L657425439L
L0L
(lp3020
(lp3021
tp3022
a(L4173600236L
L1443213481L
(lp3023
(lp3024
tp3025
a(L657425439L
L0L
(lp3026
(lp3027
tp3028
a(L2046284480L
L2195759072L
(lp3029
(lp3030
tp3031
a(L3616504601L
L4171435875L
(lp3032
(lp3033
V__bswapsi2
p3034
atp3035
a(L3347778L
L0L
(lp3036
(lp3037
tp3038
a(L3360570486L
L0L
(lp3039
(lp3040
tp3041
atp3042
sI1074268088
(Vbootloader_init
p3043
(lp3044
(L2778985116L
L362179215L
(lp3045
(lp3046
Vbootloader_init_mem
p3047
atp3048
a(L2588916198L
L2195759072L
(lp3049
(lp3050
tp3051
a(L2569579240L
L242900614L
(lp3052
(lp3053
V__assert_func
p3054
atp3055
a(L2041988382L
L2534110409L
(lp3056
(lp3057
tp3058
a(L2946990947L
L2195759072L
(lp3059
(lp3060
tp3061
a(L3813782018L
L0L
(lp3062
(lp3063
tp3064
a(L2946991009L
L2195759072L
(lp3065
(lp3066
tp3067
a(L3027019L
L0L
(lp3068
(lp3069
tp3070
a(L2946991040L
L2195759072L
(lp3071
(lp3072
tp3073
a(L1668596549L
L1832448559L
(lp3074
(lp3075
Vbootloader_clear_bss_section
p3076
aVbootloader_common_vddsdio_configure
p3077
aVbootloader_clock_get_rated_freq_mhz
p3078
atp3079
a(L106L
L0L
(lp3080
(lp3081
tp3082
a(L1943573098L
L2769615034L
(lp3083
(lp3084
Vbootloader_clock_configure
p3085
aVbootloader_console_init
p3086
aVbootloader_print_banner
p3087
aVbootloader_flash_update_id
p3088
aVbootloader_flash_xmc_startup
p3089
atp3090
a(L3014296803L
L3187408090L
(lp3091
(lp3092
Vesp_log_early_timestamp
p3093
atp3094
a(L1599703961L
L3187408090L
(lp3095
(lp3096
Vesp_log_early_timestamp
p3097
atp3098
a(L3360570486L
L0L
(lp3099
(lp3100
tp3101
a(L2444883382L
L3785322319L
(lp3102
(lp3103
Vbootloader_read_bootloader_header
p3104
atp3105
a(L2444883382L
L3785322319L
(lp3106
(lp3107
Vbootloader_check_bootloader_validity
p3108
atp3109
a(L2444883382L
L3785322319L
(lp3110
(lp3111
Vbootloader_init_spi_flash
p3112
atp3113
a(L1947007263L
L2195759072L
(lp3114
(lp3115
tp3116
a(L254817508L
L0L
(lp3117
(lp3118
tp3119
a(L93892250L
L0L
(lp3120
(lp3121
tp3122
a(L2915015718L
L0L
(lp3123
(lp3124
tp3125
a(L1460895057L
L2218577417L
(lp3126
(lp3127
Vbootloader_config_wdt
p3128
aVbootloader_enable_random
p3129
atp3130
a(L1895147938L
L0L
(lp3131
(lp3132
tp3133
a(L2680457259L
L0L
(lp3134
(lp3135
tp3136
a(L3027019L
L0L
(lp3137
(lp3138
tp3139
a(L97315L
L0L
(lp3140
(lp3141
tp3142
a(L3014296803L
L3187408090L
(lp3143
(lp3144
Vesp_log_early_timestamp
p3145
atp3146
a(L1766563386L
L3187408090L
(lp3147
(lp3148
Vesp_log_early_timestamp
p3149
atp3150
a(L3164960223L
L0L
(lp3151
(lp3152
tp3153
a(L1895147938L
L0L
(lp3154
(lp3155
tp3156
a(L156585483L
L1880226080L
(lp3157
(lp3158
Vwdt_reset_info_dump
p3159
aVwdt_reset_info_dump
p3160
atp3161
atp3162
sI1074268600
(Vbootloader_common_vddsdio_configure
p3163
(lp3164
(L1829974089L
L3785322319L
(lp3165
(lp3166
Vrtc_vddsdio_get_config
p3167
atp3168
a(L351649043L
L3833084538L
(lp3169
(lp3170
Vrtc_vddsdio_set_config
p3171
atp3172
a(L3360570486L
L0L
(lp3173
(lp3174
tp3175
atp3176
sI1074269880
(Vbootloader_config_wdt
p3177
(lp3178
(L3447475412L
L603716358L
(lp3179
(lp3180
Vwdt_hal_write_protect_disable
p3181
aVwdt_hal_set_flashboot_en
p3182
aVwdt_hal_write_protect_enable
p3183
aVwdt_hal_init
p3184
aVrtc_clk_slow_freq_get_hz
p3185
aVwdt_hal_write_protect_disable
p3186
aV__udivdi3
p3187
aVwdt_hal_config_stage
p3188
aVwdt_hal_enable
p3189
aVwdt_hal_write_protect_enable
p3190
aVwdt_hal_write_protect_disable
p3191
aVwdt_hal_set_flashboot_en
p3192
aVwdt_hal_write_protect_enable
p3193
atp3194
atp3195
sI1074238900
(Vlog_invalid_app_partition
p3196
(lp3197
(L2157385331L
L2195759072L
(lp3198
(lp3199
tp3200
a(L3028464L
L0L
(lp3201
(lp3202
tp3203
a(L1760520779L
L3833084538L
(lp3204
(lp3205
Vesp_log_early_timestamp
p3206
atp3207
a(L4207910112L
L1443213481L
(lp3208
(lp3209
tp3210
a(L3360570486L
L0L
(lp3211
(lp3212
tp3213
a(L3212513603L
L3833084538L
(lp3214
(lp3215
Vesp_log_early_timestamp
p3216
atp3217
a(L431938678L
L2147981551L
(lp3218
(lp3219
Vesp_log_early_timestamp
p3220
atp3221
atp3222
sI1074245044
(Vrtc_clk_32k_enable_common
p3223
(lp3224
(L2821256590L
L2195759072L
(lp3225
(lp3226
tp3227
a(L97422L
L0L
(lp3228
(lp3229
tp3230
a(L2218417248L
L0L
(lp3231
(lp3232
tp3233
a(L339634797L
L1443213481L
(lp3234
(lp3235
tp3236
a(L51458120L
L0L
(lp3237
(lp3238
tp3239
atp3240
sI1074270140
(Vbootloader_enable_qio_mode
p3241
(lp3242
(L2096277289L
L4171435875L
(lp3243
(lp3244
Vesp_rom_spiflash_wait_idle
p3245
atp3246
a(L2355298341L
L1443213481L
(lp3247
(lp3248
tp3249
a(L106L
L0L
(lp3250
(lp3251
tp3252
a(L1165496551L
L1690040256L
(lp3253
(lp3254
tp3255
a(L106L
L0L
(lp3256
(lp3257
tp3258
a(L3297808516L
L2133756314L
(lp3259
(lp3260
Vesp_log_early_timestamp
p3261
atp3262
a(L1851596183L
L2457879179L
(lp3263
(lp3264
Vesp_rom_spiflash_wait_idle
p3265
aVbootloader_read_status_8b_rdsr
p3266
atp3267
a(L4048775863L
L2485746240L
(lp3268
(lp3269
Vbootloader_execute_flash_command
p3270
aVbootloader_write_status_8b_wrsr
p3271
aVesp_rom_spiflash_wait_idle
p3272
aVbootloader_read_status_8b_rdsr
p3273
atp3274
a(L1898350695L
L3187408090L
(lp3275
(lp3276
Vesp_log_early_timestamp
p3277
atp3278
a(L3360570486L
L0L
(lp3279
(lp3280
tp3281
a(L1135431086L
L0L
(lp3282
(lp3283
tp3284
a(L3014296803L
L2534110409L
(lp3285
(lp3286
tp3287
a(L3495509785L
L2801279232L
(lp3288
(lp3289
Vesp_rom_spiflash_config_readmode
p3290
aVbootloader_flash_get_wp_pin
p3291
atp3292
atp3293
sI1074240432
(Vbootloader_reset
p3294
(lp3295
(L479276581L
L2147981551L
(lp3296
(lp3297
Vbootloader_console_deinit
p3298
atp3299
a(L106L
L0L
(lp3300
(lp3301
tp3302
atp3303
sI1074236592
(Vbootloader_read_status_8b_rdsr2
p3304
(lp3305
(L3746738790L
L3785322319L
(lp3306
(lp3307
Vbootloader_execute_flash_command
p3308
atp3309
atp3310
sI1074245808
(Vrtc_clk_fast_src_set
p3311
(lp3312
(L1089140614L
L1443213481L
(lp3313
(lp3314
tp3315
a(L3020187L
L0L
(lp3316
(lp3317
tp3318
a(L3827921190L
L3785322319L
(lp3319
(lp3320
Vabort
p3321
atp3322
a(L2578095160L
L1443213481L
(lp3323
(lp3324
tp3325
a(L4159388630L
L1443213481L
(lp3326
(lp3327
tp3328
a(L300459962L
L0L
(lp3329
(lp3330
tp3331
atp3332
sI1074240696
(Vindex_to_partition
p3333
(lp3334
(L4066096119L
L0L
(lp3335
(lp3336
tp3337
a(L1101255660L
L0L
(lp3338
(lp3339
tp3340
a(L1955702725L
L0L
(lp3341
(lp3342
tp3343
a(L3698927993L
L0L
(lp3344
(lp3345
tp3346
a(L2808906342L
L0L
(lp3347
(lp3348
tp3349
a(L4211744375L
L0L
(lp3350
(lp3351
tp3352
a(L3097778015L
L0L
(lp3353
(lp3354
tp3355
a(L1816235430L
L0L
(lp3356
(lp3357
tp3358
a(L2179185678L
L0L
(lp3359
(lp3360
tp3361
a(L3369319173L
L0L
(lp3362
(lp3363
tp3364
atp3365
sI1074244792
(Vwdt_hal_set_flashboot_en
p3366
(lp3367
(L2375320464L
L0L
(lp3368
(lp3369
tp3370
a(L3915867581L
L0L
(lp3371
(lp3372
tp3373
a(L3360570486L
L0L
(lp3374
(lp3375
tp3376
a(L3823116953L
L1443213481L
(lp3377
(lp3378
tp3379
atp3380
sI1074249144
(Vesp_rom_spiflash_write_encrypted
p3381
(lp3382
(L1944247967L
L0L
(lp3383
(lp3384
tp3385
a(L3825342292L
L1443213481L
(lp3386
(lp3387
tp3388
a(L97689L
L0L
(lp3389
(lp3390
tp3391
a(L3061232074L
L0L
(lp3392
(lp3393
tp3394
a(L1562911102L
L1443213481L
(lp3395
(lp3396
tp3397
a(L1309309703L
L3785322319L
(lp3398
(lp3399
Vesp_rom_spiflash_write
p3400
atp3401
a(L2269233063L
L1443213481L
(lp3402
(lp3403
tp3404
a(L735741265L
L0L
(lp3405
(lp3406
tp3407
atp3408
sI1074269384
(Vbootloader_flash_update_id
p3409
(lp3410
(L296988142L
L3833084538L
(lp3411
(lp3412
Vbootloader_read_flash_id
p3413
atp3414
atp3415
sI1074235588
(Vbootloader_flash_read_sfdp
p3416
(lp3417
(L711701400L
L0L
(lp3418
(lp3419
tp3420
a(L17919673L
L4032149094L
(lp3421
(lp3422
V__assert_func
p3423
atp3424
a(L3704332455L
L3785322319L
(lp3425
(lp3426
Vbootloader_flash_execute_command_common
p3427
atp3428
atp3429
sI1074241220
(Vbootloader_ana_clock_glitch_reset_config
p3430
(lp3431
(L2100504542L
L0L
(lp3432
(lp3433
tp3434
atp3435
sI1074237632
(Vbootloader_common_select_otadata
p3436
(lp3437
(L4071767857L
L0L
(lp3438
(lp3439
tp3440
a(L1999329187L
L0L
(lp3441
(lp3442
tp3443
a(L3846398843L
L0L
(lp3444
(lp3445
tp3446
a(L2501968171L
L0L
(lp3447
(lp3448
tp3449
a(L3360570486L
L0L
(lp3450
(lp3451
tp3452
a(L2045232488L
L0L
(lp3453
(lp3454
tp3455
a(L1243525916L
L0L
(lp3456
(lp3457
tp3458
a(L3094144427L
L0L
(lp3459
(lp3460
tp3461
a(L2399509845L
L0L
(lp3462
(lp3463
tp3464
a(L1641201884L
L0L
(lp3465
(lp3466
tp3467
atp3468
sI1074235840
(Vbootloader_flash_cs_timing_config
p3469
(lp3470
(L1222249594L
L1690040256L
(lp3471
(lp3472
tp3473
atp3474
sI1074248128
(Vesp_rom_spiflash_config_readmode
p3475
(lp3476
(L1991524954L
L1443213481L
(lp3477
(lp3478
tp3479
a(L3905548590L
L0L
(lp3480
(lp3481
tp3482
a(L147213506L
L1443213481L
(lp3483
(lp3484
tp3485
a(L3249937672L
L0L
(lp3486
(lp3487
tp3488
a(L606611678L
L2534110409L
(lp3489
(lp3490
tp3491
a(L93837694L
L0L
(lp3492
(lp3493
tp3494
a(L106L
L0L
(lp3495
(lp3496
tp3497
a(L4183135214L
L1443213481L
(lp3498
(lp3499
tp3500
a(L2312969165L
L0L
(lp3501
(lp3502
tp3503
a(L2318350296L
L0L
(lp3504
(lp3505
tp3506
a(L688848543L
L1690040256L
(lp3507
(lp3508
tp3509
a(L106L
L0L
(lp3510
(lp3511
tp3512
a(L2309348921L
L1690040256L
(lp3513
(lp3514
tp3515
a(L2890097920L
L0L
(lp3516
(lp3517
tp3518
a(L2122757262L
L0L
(lp3519
(lp3520
tp3521
a(L106L
L0L
(lp3522
(lp3523
tp3524
a(L2317061491L
L0L
(lp3525
(lp3526
tp3527
a(L1872504408L
L1443213481L
(lp3528
(lp3529
tp3530
a(L106L
L0L
(lp3531
(lp3532
tp3533
a(L2066898285L
L2195759072L
(lp3534
(lp3535
tp3536
a(L1128993267L
L1443213481L
(lp3537
(lp3538
tp3539
a(L3016870L
L0L
(lp3540
(lp3541
tp3542
a(L4134302882L
L1443213481L
(lp3543
(lp3544
tp3545
a(L4118655448L
L1443213481L
(lp3546
(lp3547
tp3548
a(L3304852550L
L0L
(lp3549
(lp3550
tp3551
a(L2882642734L
L0L
(lp3552
(lp3553
tp3554
a(L2993202392L
L0L
(lp3555
(lp3556
tp3557
a(L3304854015L
L0L
(lp3558
(lp3559
tp3560
a(L388859830L
L0L
(lp3561
(lp3562
tp3563
a(L206349837L
L1443213481L
(lp3564
(lp3565
tp3566
a(L1852655062L
L1690040256L
(lp3567
(lp3568
tp3569
a(L3795379801L
L1443213481L
(lp3570
(lp3571
tp3572
atp3573
sI1074241228
(Vprocess_checksum
p3574
(lp3575
(L166193219L
L242900614L
(lp3576
(lp3577
Vmemset
p3578
atp3579
a(L3028481L
L0L
(lp3580
(lp3581
tp3582
a(L186886970L
L0L
(lp3583
(lp3584
tp3585
a(L2902417580L
L0L
(lp3586
(lp3587
tp3588
a(L3028481L
L0L
(lp3589
(lp3590
tp3591
a(L169792351L
L3187408090L
(lp3592
(lp3593
Vesp_log_early_timestamp
p3594
atp3595
a(L268651496L
L1443213481L
(lp3596
(lp3597
tp3598
a(L3236648107L
L3785322319L
(lp3599
(lp3600
Vbootloader_flash_read
p3601
atp3602
a(L735741265L
L0L
(lp3603
(lp3604
tp3605
a(L3020204L
L0L
(lp3606
(lp3607
tp3608
a(L2480703612L
L3785322319L
(lp3609
(lp3610
Vbootloader_sha256_data
p3611
atp3612
a(L3436105237L
L0L
(lp3613
(lp3614
tp3615
a(L106L
L0L
(lp3616
(lp3617
tp3618
atp3619
sI1074236616
(Vbootloader_read_status_16b_rdsr_rdsr2
p3620
(lp3621
(L2652824119L
L1880226080L
(lp3622
(lp3623
Vbootloader_execute_flash_command
p3624
aVbootloader_execute_flash_command
p3625
atp3626
atp3627
sI1074237128
(Vefuse_hal_get_minor_chip_version
p3628
(lp3629
(L2292056065L
L1443213481L
(lp3630
(lp3631
tp3632
atp3633
sI1074240456
(Vbootloader_utility_load_boot_image
p3634
(lp3635
(L421993435L
L242900614L
(lp3636
(lp3637
Vmemset
p3638
atp3639
a(L2177418995L
L3785322319L
(lp3640
(lp3641
Vtry_load_partition
p3642
atp3643
a(L1305243774L
L3785322319L
(lp3644
(lp3645
Vload_image
p3646
atp3647
a(L4114459891L
L3187408090L
(lp3648
(lp3649
Vesp_log_early_timestamp
p3650
atp3651
a(L3827921190L
L3785322319L
(lp3652
(lp3653
Vbootloader_reset
p3654
atp3655
a(L1953693036L
L3785322319L
(lp3656
(lp3657
Vindex_to_partition
p3658
atp3659
a(L1204373741L
L3785322319L
(lp3660
(lp3661
Vtry_load_partition
p3662
atp3663
a(L1899865696L
L0L
(lp3664
(lp3665
tp3666
a(L2695355117L
L3785322319L
(lp3667
(lp3668
Vset_actual_ota_seq
p3669
atp3670
a(L1868897605L
L3785322319L
(lp3671
(lp3672
Vlog_invalid_app_partition
p3673
atp3674
a(L831650730L
L0L
(lp3675
(lp3676
tp3677
a(L3021737L
L0L
(lp3678
(lp3679
tp3680
a(L695456438L
L0L
(lp3681
(lp3682
tp3683
a(L315114854L
L3833084538L
(lp3684
(lp3685
Vtry_load_partition
p3686
atp3687
a(L89447667L
L2147981551L
(lp3688
(lp3689
Vesp_log_early_timestamp
p3690
atp3691
a(L2347390157L
L3785322319L
(lp3692
(lp3693
Vindex_to_partition
p3694
atp3695
a(L1204373741L
L3785322319L
(lp3696
(lp3697
Vtry_load_partition
p3698
atp3699
a(L3061261803L
L0L
(lp3700
(lp3701
tp3702
a(L3582858798L
L3785322319L
(lp3703
(lp3704
Vlog_invalid_app_partition
p3705
atp3706
a(L3581752791L
L2704288053L
(lp3707
(lp3708
Vesp_log_early_timestamp
p3709
aVmemset
p3710
atp3711
atp3712
sI1074246344
(Vrtc_clk_cpu_freq_set_config
p3713
(lp3714
(L1040494747L
L3833084538L
(lp3715
(lp3716
Vrtc_clk_xtal_freq_get
p3717
atp3718
a(L2308773007L
L0L
(lp3719
(lp3720
tp3721
a(L3253451229L
L1880226080L
(lp3722
(lp3723
Vrtc_clk_cpu_freq_to_xtal
p3724
aVrtc_clk_wait_for_slow_cycle
p3725
atp3726
a(L2243645672L
L0L
(lp3727
(lp3728
tp3729
a(L4002786498L
L0L
(lp3730
(lp3731
tp3732
a(L2736411858L
L3785322319L
(lp3733
(lp3734
Vrtc_clk_cpu_freq_to_xtal
p3735
atp3736
a(L3360570486L
L0L
(lp3737
(lp3738
tp3739
a(L2755207760L
L1832448559L
(lp3740
(lp3741
Vrtc_clk_cpu_freq_to_xtal
p3742
aVrtc_clk_wait_for_slow_cycle
p3743
aVrtc_clk_bbpll_disable
p3744
atp3745
a(L3020187L
L0L
(lp3746
(lp3747
tp3748
a(L106L
L0L
(lp3749
(lp3750
tp3751
a(L2730236852L
L1156451872L
(lp3752
(lp3753
Vrtc_clk_wait_for_slow_cycle
p3754
aVrtc_clk_xtal_freq_get
p3755
atp3756
a(L106L
L0L
(lp3757
(lp3758
tp3759
a(L3776069396L
L1443213481L
(lp3760
(lp3761
tp3762
a(L83268611L
L0L
(lp3763
(lp3764
tp3765
a(L106L
L0L
(lp3766
(lp3767
tp3768
a(L82345090L
L0L
(lp3769
(lp3770
tp3771
a(L106L
L0L
(lp3772
(lp3773
tp3774
a(L2258718273L
L0L
(lp3775
(lp3776
tp3777
a(L3298883534L
L0L
(lp3778
(lp3779
tp3780
a(L3519990574L
L1443213481L
(lp3781
(lp3782
tp3783
a(L2508198718L
L1743007695L
(lp3784
(lp3785
Vrtc_clk_cpu_freq_to_pll_mhz
p3786
atp3787
a(L935233121L
L2534110409L
(lp3788
(lp3789
tp3790
a(L83268344L
L0L
(lp3791
(lp3792
tp3793
a(L82344823L
L0L
(lp3794
(lp3795
tp3796
a(L1569180676L
L0L
(lp3797
(lp3798
tp3799
a(L2258837488L
L0L
(lp3800
(lp3801
tp3802
a(L4233337962L
L1443213481L
(lp3803
(lp3804
tp3805
a(L1482311963L
L0L
(lp3806
(lp3807
tp3808
a(L133411965L
L0L
(lp3809
(lp3810
tp3811
a(L3673491036L
L0L
(lp3812
(lp3813
tp3814
a(L4197990447L
L0L
(lp3815
(lp3816
tp3817
a(L903154985L
L0L
(lp3818
(lp3819
tp3820
a(L3020187L
L0L
(lp3821
(lp3822
tp3823
a(L106L
L0L
(lp3824
(lp3825
tp3826
a(L1317698645L
L93324751L
(lp3827
(lp3828
Vesp_rom_set_cpu_ticks_per_us
p3829
atp3830
atp3831
sI1074247880
(Vesp_rom_spiflash_enable_write
p3832
(lp3833
(L2885777558L
L1303911398L
(lp3834
(lp3835
Vesp_rom_spiflash_wait_idle
p3836
atp3837
a(L3333707777L
L0L
(lp3838
(lp3839
tp3840
a(L2258688484L
L0L
(lp3841
(lp3842
tp3843
a(L99543895L
L0L
(lp3844
(lp3845
tp3846
a(L2993202392L
L0L
(lp3847
(lp3848
tp3849
a(L1265538927L
L242900614L
(lp3850
(lp3851
Vesp_rom_spiflash_read_status
p3852
atp3853
atp3854
sI1074267864
(Vwdt_reset_info_dump
p3855
(lp3856
(L4037458708L
L0L
(lp3857
(lp3858
tp3859
a(L2865144428L
L4200222560L
(lp3860
(lp3861
tp3862
a(L217258670L
L0L
(lp3863
(lp3864
tp3865
a(L1103285333L
L0L
(lp3866
(lp3867
tp3868
a(L3750088731L
L2147981551L
(lp3869
(lp3870
Vesp_log_early_timestamp
p3871
atp3872
a(L3245125974L
L1443213481L
(lp3873
(lp3874
tp3875
a(L2920131454L
L4200222560L
(lp3876
(lp3877
tp3878
a(L3355528239L
L2147981551L
(lp3879
(lp3880
Vesp_log_early_timestamp
p3881
atp3882
atp3883
sI1074268888
(Vbootloader_init_mem
p3884
(lp3885
(L1287383080L
L3785322319L
(lp3886
(lp3887
Vesp_cpu_configure_region_protection
p3888
atp3889
atp3890
sI1074269400
(Vbootloader_flash_get_wp_pin
p3891
(lp3892
(L2601977293L
L3785322319L
(lp3893
(lp3894
Vbootloader_common_get_chip_ver_pkg
p3895
atp3896
a(L93674324L
L0L
(lp3897
(lp3898
tp3899
a(L295626217L
L0L
(lp3900
(lp3901
tp3902
a(L2258688531L
L0L
(lp3903
(lp3904
tp3905
a(L3360570486L
L0L
(lp3906
(lp3907
tp3908
a(L937283203L
L0L
(lp3909
(lp3910
tp3911
a(L1641149339L
L0L
(lp3912
(lp3913
tp3914
a(L846431812L
L3785322319L
(lp3915
(lp3916
Vefuse_hal_chip_revision
p3917
atp3918
a(L1299866529L
L0L
(lp3919
(lp3920
tp3921
atp3922
sI1074245588
(Vrtc_clk_8m_enabled
p3923
(lp3924
(L563532105L
L1443213481L
(lp3925
(lp3926
tp3927
atp3928
sI1074238416
(Vbootloader_enable_wp
p3929
(lp3930
(L1117825804L
L3785322319L
(lp3931
(lp3932
Vbootloader_execute_flash_command
p3933
atp3934
atp3935
sI1074243548
(Vbootloader_load_image
p3936
(lp3937
(L1155870502L
L3785322319L
(lp3938
(lp3939
Vimage_load
p3940
atp3941
atp3942
sI1074245340
(Vrtc_clk_bbpll_disable
p3943
(lp3944
(L3512291683L
L1690040256L
(lp3945
(lp3946
tp3947
a(L2472207241L
L0L
(lp3948
(lp3949
tp3950
a(L3360570486L
L0L
(lp3951
(lp3952
tp3953
atp3954
sI1074237144
(Vesp_dport_access_reg_read
p3955
(lp3956
(L1099794772L
L0L
(lp3957
(lp3958
tp3959
atp3960
sI1074237156
(Vis_xmc_chip_strict
p3961
(lp3962
(L1286841609L
L0L
(lp3963
(lp3964
tp3965
a(L2234016759L
L0L
(lp3966
(lp3967
tp3968
a(L1069027148L
L0L
(lp3969
(lp3970
tp3971
a(L3021749L
L0L
(lp3972
(lp3973
tp3974
a(L1900148749L
L0L
(lp3975
(lp3976
tp3977
a(L1936875721L
L0L
(lp3978
(lp3979
tp3980
a(L3356166509L
L0L
(lp3981
(lp3982
tp3983
a(L1937769451L
L0L
(lp3984
(lp3985
tp3986
a(L2137658907L
L0L
(lp3987
(lp3988
tp3989
a(L4265949734L
L0L
(lp3990
(lp3991
tp3992
a(L3360570486L
L0L
(lp3993
(lp3994
tp3995
atp3996
sI1074238436
(Vbootloader_flash_get_spi_mode
p3997
(lp3998
(L1418320346L
L1443213481L
(lp3999
(lp4000
tp4001
a(L2046153171L
L0L
(lp4002
(lp4003
tp4004
a(L893866618L
L0L
(lp4005
(lp4006
tp4007
a(L894790139L
L0L
(lp4008
(lp4009
tp4010
a(L822032846L
L0L
(lp4011
(lp4012
tp4013
a(L3360570486L
L0L
(lp4014
(lp4015
tp4016
atp4017
sI1074239200
(Vcache_ll_l1_enable_bus
p4018
(lp4019
(L318252209L
L1443213481L
(lp4020
(lp4021
tp4022
atp4023
sI1074268896
(Vbootloader_random_enable
p4024
(lp4025
(L2397175084L
L664430240L
(lp4026
(lp4027
tp4028
atp4029
sI1074270688
(Vrtc_clk_init
p4030
(lp4031
(L1100006719L
L1443213481L
(lp4032
(lp4033
tp4034
a(L42671777L
L3785322319L
(lp4035
(lp4036
Vrtc_clk_cpu_freq_to_xtal
p4037
atp4038
a(L739905763L
L1743007695L
(lp4039
(lp4040
Vrtc_clk_xtal_freq_get
p4041
atp4042
a(L3028481L
L0L
(lp4043
(lp4044
tp4045
a(L4284274517L
L3785322319L
(lp4046
(lp4047
Vrtc_clk_xtal_freq_estimate
p4048
atp4049
a(L2576622952L
L3187408090L
(lp4050
(lp4051
Vesp_log_early_timestamp
p4052
atp4053
a(L1822030105L
L3065544262L
(lp4054
(lp4055
Vesp_rom_uart_tx_wait_idle
p4056
aVrtc_clk_xtal_freq_update
p4057
aVrtc_clk_apb_freq_update
p4058
aVrtc_clk_cpu_freq_get_config
p4059
aVrtc_clk_cpu_freq_mhz_to_config
p4060
atp4061
a(L521302419L
L2704288053L
(lp4062
(lp4063
Vesp_log_early_timestamp
p4064
aVabort
p4065
atp4066
a(L2902417580L
L0L
(lp4067
(lp4068
tp4069
a(L1899970065L
L0L
(lp4070
(lp4071
tp4072
a(L377687546L
L3785322319L
(lp4073
(lp4074
Vrtc_clk_xtal_freq_estimate
p4075
atp4076
a(L2163742247L
L3187408090L
(lp4077
(lp4078
Vesp_log_early_timestamp
p4079
atp4080
a(L299116989L
L2426646996L
(lp4081
(lp4082
Vrtc_clk_cpu_freq_set_config
p4083
aV__udivdi3
p4084
atp4085
a(L912310138L
L3785322319L
(lp4086
(lp4087
Vrtc_clk_32k_enable
p4088
atp4089
a(L3191820416L
L1832448559L
(lp4090
(lp4091
Vrtc_clk_8m_enable
p4092
aVrtc_clk_fast_src_set
p4093
aVrtc_clk_slow_src_set
p4094
atp4095
a(L1232958848L
L0L
(lp4096
(lp4097
tp4098
atp4099
sI1074243564
(Vesp_partition_table_verify
p4100
(lp4101
(L44179228L
L1443213481L
(lp4102
(lp4103
tp4104
a(L3031150553L
L1443213481L
(lp4105
(lp4106
tp4107
a(L1184829782L
L0L
(lp4108
(lp4109
tp4110
a(L3020204L
L0L
(lp4111
(lp4112
tp4113
a(L26389654L
L3187408090L
(lp4114
(lp4115
Vesp_log_early_timestamp
p4116
atp4117
a(L1235012963L
L0L
(lp4118
(lp4119
tp4120
a(L3190337587L
L0L
(lp4121
(lp4122
tp4123
a(L2069928857L
L0L
(lp4124
(lp4125
tp4126
a(L2902417580L
L0L
(lp4127
(lp4128
tp4129
a(L2543114737L
L2147981551L
(lp4130
(lp4131
Vesp_log_early_timestamp
p4132
atp4133
a(L1715222413L
L1443213481L
(lp4134
(lp4135
tp4136
a(L3020204L
L0L
(lp4137
(lp4138
tp4139
a(L3020204L
L0L
(lp4140
(lp4141
tp4142
a(L1328961945L
L2147981551L
(lp4143
(lp4144
Vesp_log_early_timestamp
p4145
atp4146
a(L4207910112L
L1443213481L
(lp4147
(lp4148
tp4149
a(L1235012932L
L0L
(lp4150
(lp4151
tp4152
a(L458256366L
L4021370767L
(lp4153
(lp4154
Vmemcmp
p4155
atp4156
a(L3020204L
L0L
(lp4157
(lp4158
tp4159
a(L2543114737L
L2147981551L
(lp4160
(lp4161
Vesp_log_early_timestamp
p4162
atp4163
a(L1305407469L
L0L
(lp4164
(lp4165
tp4166
a(L1167861556L
L0L
(lp4167
(lp4168
tp4169
a(L818997085L
L0L
(lp4170
(lp4171
tp4172
a(L3360570486L
L0L
(lp4173
(lp4174
tp4175
a(L3020204L
L0L
(lp4176
(lp4177
tp4178
a(L3999534504L
L3187408090L
(lp4179
(lp4180
Vesp_log_early_timestamp
p4181
atp4182
atp4183
sI1074245612
(Vrtc_clk_8md256_enabled
p4184
(lp4185
(L4014027530L
L1443213481L
(lp4186
(lp4187
tp4188
atp4189
sI1074236916
(Vesp_rom_uart_set_clock_baudrate
p4190
(lp4191
(L1471953879L
L1443213481L
(lp4192
(lp4193
tp4194
a(L1872515506L
L1443213481L
(lp4195
(lp4196
tp4197
a(L147213506L
L1443213481L
(lp4198
(lp4199
tp4200
a(L3104172142L
L1443213481L
(lp4201
(lp4202
tp4203
atp4204
sI1074236656
(Vbootloader_write_status_8b_wrsr
p4205
(lp4206
(L3692606543L
L3785322319L
(lp4207
(lp4208
Vbootloader_execute_flash_command
p4209
atp4210
atp4211
sI1074245872
(Vrtc_clk_fast_src_get
p4212
(lp4213
(L2217920473L
L1443213481L
(lp4214
(lp4215
tp4216
atp4217
sI1074268656
(Vbootloader_clock_configure
p4218
(lp4219
(L2559598596L
L1880226080L
(lp4220
(lp4221
Vesp_rom_uart_tx_wait_idle
p4222
aVefuse_hal_chip_revision
p4223
atp4224
a(L1757625900L
L1443213481L
(lp4225
(lp4226
tp4227
a(L741498227L
L1443213481L
(lp4228
(lp4229
tp4230
a(L106L
L0L
(lp4231
(lp4232
tp4233
a(L4228321918L
L1405109379L
(lp4234
(lp4235
Vrtc_clk_slow_src_get
p4236
aVrtc_clk_fast_src_get
p4237
aVrtc_clk_init
p4238
atp4239
a(L2538867838L
L2195759072L
(lp4240
(lp4241
tp4242
a(L1038013235L
L3833084538L
(lp4243
(lp4244
Vrtc_clk_apb_freq_get
p4245
atp4246
a(L106L
L0L
(lp4247
(lp4248
tp4249
a(L106L
L0L
(lp4250
(lp4251
tp4252
atp4253
sI1074237948
(Vbootloader_munmap
p4254
(lp4255
(L4096859803L
L2195759072L
(lp4256
(lp4257
tp4258
a(L4150885370L
L2624587680L
(lp4259
(lp4260
tp4261
a(L3360570486L
L0L
(lp4262
(lp4263
tp4264
atp4265
sI1074243068
(Vimage_load
p4266
(lp4267
(L3048705773L
L0L
(lp4268
(lp4269
tp4270
a(L3463713141L
L0L
(lp4271
(lp4272
tp4273
a(L3309803581L
L0L
(lp4274
(lp4275
tp4276
a(L256049682L
L0L
(lp4277
(lp4278
tp4279
a(L1935188817L
L0L
(lp4280
(lp4281
tp4282
a(L3028481L
L0L
(lp4283
(lp4284
tp4285
a(L3021749L
L0L
(lp4286
(lp4287
tp4288
a(L106L
L0L
(lp4289
(lp4290
tp4291
a(L585264737L
L0L
(lp4292
(lp4293
tp4294
a(L1145291904L
L3785322319L
(lp4295
(lp4296
Vprocess_image_header
p4297
atp4298
a(L823859500L
L0L
(lp4299
(lp4300
tp4301
a(L3061291474L
L0L
(lp4302
(lp4303
tp4304
a(L4106474008L
L3785322319L
(lp4305
(lp4306
Vprocess_segments
p4307
atp4308
a(L3868840998L
L0L
(lp4309
(lp4310
tp4311
a(L2962085561L
L1443213481L
(lp4312
(lp4313
tp4314
a(L1827898452L
L3785322319L
(lp4315
(lp4316
Vprocess_checksum
p4317
atp4318
a(L2214715179L
L3785322319L
(lp4319
(lp4320
Vprocess_appended_hash_and_sig
p4321
atp4322
a(L3028481L
L0L
(lp4323
(lp4324
tp4325
a(L2902417580L
L0L
(lp4326
(lp4327
tp4328
a(L3285560995L
L3785322319L
(lp4329
(lp4330
Vbootloader_sha256_finish
p4331
atp4332
a(L3946560000L
L0L
(lp4333
(lp4334
tp4335
a(L93674324L
L0L
(lp4336
(lp4337
tp4338
a(L2674734805L
L2195759072L
(lp4339
(lp4340
tp4341
a(L1168805591L
L1443213481L
(lp4342
(lp4343
tp4344
a(L1179424413L
L0L
(lp4345
(lp4346
tp4347
a(L3928150917L
L0L
(lp4348
(lp4349
tp4350
a(L106L
L0L
(lp4351
(lp4352
tp4353
a(L3871473710L
L0L
(lp4354
(lp4355
tp4356
a(L3884726427L
L0L
(lp4357
(lp4358
tp4359
a(L106L
L0L
(lp4360
(lp4361
tp4362
a(L3020187L
L0L
(lp4363
(lp4364
tp4365
a(L1337906930L
L3187408090L
(lp4366
(lp4367
Vesp_log_early_timestamp
p4368
atp4369
a(L2868044067L
L0L
(lp4370
(lp4371
tp4372
a(L1179764900L
L0L
(lp4373
(lp4374
tp4375
a(L2332746046L
L3785322319L
(lp4376
(lp4377
Vbootloader_sha256_finish
p4378
atp4379
a(L3721568057L
L242900614L
(lp4380
(lp4381
Vmemset
p4382
atp4383
a(L3020204L
L0L
(lp4384
(lp4385
tp4386
a(L3039742375L
L1443213481L
(lp4387
(lp4388
tp4389
a(L106L
L0L
(lp4390
(lp4391
tp4392
a(L3307179591L
L2839326997L
(lp4393
(lp4394
Vmemset
p4395
aVbootloader_sha256_finish
p4396
aVbootloader_debug_buffer
p4397
aVmemcmp
p4398
atp4399
a(L3433271982L
L2266857161L
(lp4400
(lp4401
Vesp_log_early_timestamp
p4402
aVbootloader_debug_buffer
p4403
atp4404
a(L3741653406L
L3785322319L
(lp4405
(lp4406
Vshould_load
p4407
atp4408
a(L2764257181L
L0L
(lp4409
(lp4410
tp4411
a(L3338774213L
L0L
(lp4412
(lp4413
tp4414
a(L193456747L
L1443213481L
(lp4415
(lp4416
tp4417
a(L3349572949L
L0L
(lp4418
(lp4419
tp4420
a(L2192292519L
L0L
(lp4421
(lp4422
tp4423
a(L106L
L0L
(lp4424
(lp4425
tp4426
a(L1702191967L
L1443213481L
(lp4427
(lp4428
tp4429
a(L1299866312L
L0L
(lp4430
(lp4431
tp4432
a(L3010020263L
L0L
(lp4433
(lp4434
tp4435
atp4436
sI1074244860
(Vwdt_hal_write_protect_enable
p4437
(lp4438
(L387778158L
L0L
(lp4439
(lp4440
tp4441
a(L4195472003L
L0L
(lp4442
(lp4443
tp4444
a(L3360570486L
L0L
(lp4445
(lp4446
tp4447
a(L802523425L
L0L
(lp4448
(lp4449
tp4450
atp4451
sI1074243832
(Vwdt_hal_init
p4452
(lp4453
(L1845705415L
L242900614L
(lp4454
(lp4455
Vmemset
p4456
atp4457
a(L106L
L0L
(lp4458
(lp4459
tp4460
a(L147213506L
L1443213481L
(lp4461
(lp4462
tp4463
a(L3076988543L
L0L
(lp4464
(lp4465
tp4466
a(L746843176L
L3294285696L
(lp4467
(lp4468
tp4469
a(L3028464L
L0L
(lp4470
(lp4471
tp4472
a(L268651496L
L1443213481L
(lp4473
(lp4474
tp4475
a(L213928354L
L1443213481L
(lp4476
(lp4477
tp4478
a(L1646580088L
L3294285696L
(lp4479
(lp4480
tp4481
a(L3360570486L
L0L
(lp4482
(lp4483
tp4484
atp4485
sI1074240760
(Vbootloader_debug_buffer
p4486
(lp4487
(L2100504542L
L0L
(lp4488
(lp4489
tp4490
atp4491
sI1074235640
(Vbootloader_read_flash_id
p4492
(lp4493
(L549578328L
L3785322319L
(lp4494
(lp4495
Vbootloader_execute_flash_command
p4496
atp4497
atp4498
ssS'functionsdups'
p4499
g11
((lp4500
tp4501
Rp4502
sS'immediatedups'
p4503
g11
((lp4504
tp4505
Rp4506
sS'functiondups'
p4507
g11
((lp4508
tp4509
Rp4510
sS'fuzzy'
p4511
(dp4512
L366261972L
I1074270688
sL4033782891L
I1074244792
sL1651792242L
I1074247880
sL1500945776L
I1074268088
sL800708016L
I1074239768
sL2092869556L
I1074248844
sL2539816556L
I1074236916
sL3032120501L
I1074246020
sL2641888616L
I1074247072
sL1962232032L
I1074245888
sL2859057779L
I1074269384
sL1348852091L
I1074249232
sL1485246373L
I1074241228
sL1247030641L
I1074268896
sL214341344L
I1074244960
sL1729011238L
I1074242200
sL1959102959L
I1074237740
sL2216531249L
I1074245780
sL2849727465L
I1074239252
sL1821770661L
I1074237948
sL332090111L
I1074236832
sL282843886L
I1074238000
sL3703425408L
I1074245460
sL465259514L
I1074248128
sL3530961461L
I1074271132
sL1210592366L
I1074245636
sL209111356L
I1074245808
sL2726707668L
I1074268600
sL2131781703L
I1074236716
sL2018002450L
I1074235688
sL994994961L
I1074238900
sL1155028103L
I1074270464
sL3473845613L
I1074269452
sL2806886186L
I1074268656
sL3715950101L
I1074244760
sL3274368577L
I1074239100
sL2452281182L
I1074247568
sL1122585247L
I1074243832
sL3659714901L
I1074241640
sL2752268667L
I1074245008
sL3428612389L
I1074247536
sL2376760616L
I1074243564
sL1898962604L
I1074238984
sL3223682214L
I1074249144
sL1772626723L
I1074235840
sL2471313117L
I1074240936
sL381028389L
I1074241148
sL3711025829L
I1074240456
sL3500016395L
I1074242328
sL797548049L
I1074240768
sL3374853808L
I1074269744
sL2835607711L
I1074270104
sL2095240828L
I1074234764
sL2182127758L
I1074270512
sL3221945515L
I1074246160
sL3525303483L
I1074245752
sL4242478965L
I1074238492
sL1924373790L
I1074269400
sL579471141L
I1074270008
sL1096063205L
I1074237060
sL2906154889L
I1074247832
sL1065525808L
I1074237156
sL2038713658L
I1074247028
sL2688270468L
I1074269812
sL2708185770L
I1074241584
sL3890904617L
I1074246232
sL1605229163L
I1074240132
sL1332800441L
I1074237564
sL3183721996L
I1074235288
sL1770695514L
I1074270140
sL3558783183L
I1074238276
sL1377360842L
I1074245044
sL3300368739L
I1074267864
sL1161792488L
I1074241396
sL4091350277L
I1074247936
sL2871786995L
I1074269880
sL3578810761L
I1074235588
sL531949167L
I1074237324
sL1060788199L
I1074245928
sL1444874434L
I1074270036
sL2663898648L
I1074269768
sL627477382L
I1074235952
sL814911857L
I1074240788
sL3280013925L
I1074238572
sL1862804207L
I1074244444
sL1815510750L
I1074245180
sL963803290L
I1074246344
sL3420458249L
I1074247736
sL3246158480L
I1074239648
sL1872673135L
I1074240432
sL1214705044L
I1074236420
sL4155364446L
I1074237288
sL755401973L
I1074267756
sL230862646L
I1074237708
sL1564551092L
I1074242112
sL1447890363L
I1074236764
sL1950296771L
I1074248980
sL1396037064L
I1074245400
sL1014311563L
I1074243068
ssb.